(dp1
S'args'
p2
S"(S'FacebookModelsTest'\np0\ntp1\n."
p3
sS'methodname'
p4
S'_test_single_endpoint'
p5
sS'packet_num'
p6
I0
sS'returnval'
p7
S'(I01\n(N(lp0\ntp1\ntp2\n.'
p8
sS'hash'
p9
S'45a0edd3a155140f0427c6fa06f69408da87184d'
p10
sS'stack'
p11
S'_test_single_endpoint util.py get_stack facade.py cache patch.py patch_with models_test.py test_graph_api patch.py patched_test '
p12
s.