(dp1
S'args'
p2
S"(S'FacebookModelsTest'\np0\ntp1\n."
p3
sS'methodname'
p4
S'_test_single_endpoint'
p5
sS'packet_num'
p6
I0
sS'returnval'
p7
S'((dp0\nVresult\np1\nV.fbRightFeedbackActions{background-color:#edeff4;padding:5px 5px}\\u000a.fbRightFeedbackNub i{display:block;height:5px;margin-left:17px;background-image:url(https://fbstatic-a.akamaihd.net/rsrc.php/v2/y7/r/UvyvLtJTQzO.png);background-repeat:no-repeat;background-size:auto;background-position:0 0;width:9px}\\u000a.fbRightFeedbackHeader form{display:inline}\\u000a.fbRightFeedbackHeader .fbRightFeedbackActions input, .fbRightFeedbackHeader div.fbRightFeedbackActions input:hover, .fbRightFeedbackHeader .fbRightFeedbackActions button{color:#3b5998}\\u000a.fbRightFeedbackHeader .uiBlingBox, .fbRightFeedbackHeader .uiBlingBox:hover{border-style:none;height:13px;padding:0}\\u000a.fbRightFeedbackHeader .uiBlingBox .text{vertical-align:baseline}\\u000a._24n .body ._24x{color:#333}\\u000a._6nw ._24n .body ._24x{color:#4e5665}\\u000a._24n .body ._24x:hover{text-decoration:none}\\u000a._24n .body a.signature{color:#3b5998;display:inline}\\u000a._24n .body a.signature:hover{text-decoration:underline}\\u000a._24n .hover:hover .title ._24x{text-decoration:underline}\\u000a._24n .forceRTL{direction:rtl;text-align:right;display:block}\\u000a._24n .forceLTR{direction:ltr;text-align:left;display:block}\\u000a._24n .adInfo a.identity{color:gray;display:block;white-space:nowrap}\\u000a._6nw ._24n .adInfo a.identity{color:#898f9c;overflow:hidden;text-overflow:ellipsis}\\u000a._24n .title{font-weight:bold;margin-bottom:0 !important}\\u000a._24n .image_body_block{padding-top:3px}\\u000a._24n .uiUfi{width:auto}\\u000a._24n .fbEmuHidePoll .otherdiv .other{width:206px}\\u000a._24n .ads_rhc_close{opacity:0}\\u000a._24n:hover .old_x, ._24n:hover .uiSelectorButton, ._24n:hover .ads_rhc_close, ._24n .ads_rhc_close.openToggler, .emu_x .openToggler .uiSelectorButton{opacity:1}\\u000a._24y .image .img{padding-top:3px;max-height:72px;max-width:100px}\\u000a._24y .action{margin-top:5px}\\u000a._24y{line-height:13px}\\u000a._24y .fbEmuHide{margin-top:0 !important}\\u000a._24y .image{width:100px;display:block}\\u000a._24y .action{color:#777}\\u000a._24y .action .fbEmuContext ._24x{color:#777}\\u000a._6nw ._24y .action, ._6nw ._24y .action .fbEmuContext ._24x{color:#898f9c}\\u000a._24y .action ._24x{display:inline-block}\\u000a.fbEmuEventDialog .uiInfoTable .label{text-align:left;padding:3px 10px 3px 0;width:65px;vertical-align:middle}\\u000a.fbEmuEventDialog .uiInfoTable .data label{color:#666;font-weight:bold}\\u000a.fbEmuEventDialog .uiInfoTable .data{padding:3px 0}\\u000a.fbEmuEventDialog{padding:7px 0;display:block}\\u000a.fbEmuEventDialog .fbEmuEventDialogImage{padding-top:3px;width:100px}\\u000a.fbEmuEventDialog .fbEmuEventDialogTitle{font-size:10pt;font-weight:bold;width:300px}\\u000a.fbEmuEventDialog .fbEmuEventDialogTable{display:block;width:300px;padding:7px 0}\\u000a.fbEmuEventInline td.label{padding-right:10px;color:#666}\\u000a.fbEmuEventInline td.label{vertical-align:top;padding-bottom:2px}\\u000a.fbEmuEventInline td.content{vertical-align:middle;padding-bottom:2px}\\u000a.fbEmuEventInline .rsvp_icon{vertical-align:middle}\\u000a.fbEmuEventInline .rsvp_action{vertical-align:middle}\\u000a.fbEmuEventInline .rsvp_option{padding-right:10px;white-space:nowrap}\\u000a.fbEmuEventInline label{color:#000;font-weight:normal;padding-left:3px}\\u000a.fbEmuEventInline input{height:14px;margin:0;padding:0;width:14px;vertical-align:middle;margin-top:1px}\\u000a.fbEmuHidePoll .undo{float:right;padding-left:2px;padding-bottom:2px;margin-bottom:3px;margin-left:5px}\\u000a.fbEmuHidePoll .fbEmuXTitle{font-weight:bold}\\u000a.fbEmuHidePoll .fbEmuXSubtitle{margin-bottom:10px}\\u000a.fbEmuHideThanks .fbEmuXThanksTitle{font-weight:bold;margin-bottom:10px}\\u000a.fbEmuBlock .fbEmuHidePoll .otherdiv{margin-left:20px}\\u000a.emu_x{float:right}\\u000a.emu_x .uiSelectorButton{opacity:0}\\u000a.old_x{opacity:0}\\u000a.poll_choices{margin-left:10px;position:relative}\\u000a.poll_choices .submit_progress{position:absolute}\\u000a.poll_choices .hidden{display:none}\\u000a.poll_choice{padding-bottom:4px}\\u000a.poll_choice label{color:#333;font-weight:normal;margin:0;padding:0}\\u000a.poll_choice .inputradio{height:14px;margin:0 7px 0 0;padding:0;width:14px}\\u000a.extended_poll_choice{left:15px;position:relative}\\u000a.poll_result{padding-bottom:5px}\\u000a.poll_result .poll_pct{float:left;padding:1px 4px 0 0;text-align:right;width:25px;word-wrap:normal}\\u000a.poll_result .result_bar_and_friends{float:left;width:203px}\\u000a.poll_result .result_bar{background-color:#d8dfea;height:17px;position:relative}\\u000a.poll_result div.lead_result_bar{background-color:#3b5998;color:#fff}\\u000a.poll_result .poll_label{left:4px;position:absolute;top:1px;white-space:nowrap;overflow:hidden;width:199px;text-overflow:ellipsis}\\u000a.poll_result .friends{clear:both;overflow:hidden}\\u000a.total_votes{color:gray}\\u000a.fbEmuPoll .choice{margin-left:1px}\\u000a.fbEmuPoll .aligned{margin-left:22px}\\u000a.fbEmuPoll .tag_button{margin-top:5px}\\u000a.fbEmuPollSliderGrid{margin:0 auto}\\u000a.hide_voters .other_voters{display:none}\\u000a.fbEmuPollResults .other_voters .face{height:35px;width:35px;margin-right:2px}\\u000a.fbEmuPremium .inline{padding-top:4px}\\u000a.fbEmuPremium .body{line-height:13px}\\u000a.fbEmuPremium .body ._24x{display:block}\\u000a.fbEmuPremium .image .img{max-height:80px;max-width:110px}\\u000a._24w .showQuestion ._24x{color:#3b5998}\\u000a._24w .showQuestion ._24x:hover{text-decoration:underline}\\u000a._24w .pollImage{max-width:50px}\\u000a._24w .shieldQuestion .shieldPrompt{display:block}\\u000a._24w .shieldPrompt{display:none}\\u000a._24w .shieldQuestion .fbEmuPoll{display:none}\\u000a._24w .fbEmuPoll{display:block}\\u000a.fbEmuPreview{background-color:#fff;padding:10px;width:234px}\\u000a.fbAdsRangeSlider{cursor:pointer;height:16px;position:relative}\\u000a.fbAdsRangeSliderEnds{height:15px;margin-top:1px;position:absolute}\\u000a.fbAdsRangeSliderLeftEnd{border-left:1px solid #b7c8d9;left:-1px}\\u000a.fbAdsRangeSliderRightEnd{border-right:1px solid #b7c8d9;right:0}\\u000a.fbAdsRangeSliderGuide{border-top:1px solid #b7c8d9;position:absolute;top:8px;height:0;width:100%}\\u000a.fbAdsRangeSliderTicks{position:absolute;top:50%;width:100%}\\u000a.fbAdsRangeSliderTicks div{border-right:1px solid #eee;height:11px;margin-top:-5px;position:absolute;top:0}\\u000a.fbAdsRangeSliderThumb{margin-left:-11px;position:absolute;top:0}\\u000a.fbEmuMainBody .firstPassiveName{font-weight:bold}\\u000a.fbEmuPremium .fbEmuStreamAttachment{margin-bottom:3px}\\u000a.fbEmuStreamStory .fbEmuStreamAttachment.fbEmuStreamOGAction{border-top:1px solid #e5e7eb;border-bottom:1px solid #e5e7eb;padding-top:6px;padding-bottom:6px;margin-bottom:5px}\\u000a.fbEmuStreamStory .fbEmuStreamAttachment.fbEmuStreamLinkStory{border-top:1px solid #e5e7eb;border-bottom:1px solid #e5e7eb;border-left:1px solid #e5e7eb;border-right:1px solid #e5e7eb;margin-bottom:5px;margin-right:4px}\\u000a.fbEmuStreamStory .fbEmuStreamAttachment.fbEmuStreamLinkStory .centeredImageWrapper{border-right:1px solid #e5e7eb;display:table-cell;vertical-align:middle}\\u000a.fbEmuMarketplace .fbEmuStreamAttachment.fbEmuStreamLinkStory .centeredImageWrapper{height:58px;width:50px}\\u000a.fbEmuPremium .fbEmuStreamAttachment.fbEmuStreamLinkStory .centeredImageWrapper{height:87px;width:74px}\\u000a.fbEmuStreamStory .fbEmuStreamAttachment.fbEmuStreamLinkStory .centeredImageWrapper img{margin:0 auto}\\u000a.fbEmuPremium .fbEmuStreamAttachment.fbEmuStreamLinkStory .centeredImageWrapper img{max-height:87px;max-width:74px}\\u000a.fbEmuMarketplace .fbEmuStreamAttachment.fbEmuStreamLinkStory .centeredImageWrapper img{max-height:58px;max-width:50px}\\u000a.fbEmuStreamStory .whitespaceLink{display:inline}\\u000a.fbEmuStreamStory .whitespaceLink:hover\\u000a.fbEmuStreamAttachment.fbEmuStreamOGAction{border-top:1px solid #c4cde1;border-bottom:1px solid #c4cde1}\\u000a.fbEmuStreamStory.fbEmuStreamAttachment.fbEmuStreamLinkStory:hover{border-top:1px solid #c4cde1;border-bottom:1px solid #c4cde1;border-left:1px solid #c4cde1;border-right:1px solid #c4cde1}\\u000a.fbEmuStreamStory .fbEmuStreamAttachment.fbEmuStreamLinkStory:hover .centeredImageWrapper{border-right:1px solid #c4cde1}\\u000a.fbEmuStreamStory .fbEmuStreamAttachment.fbEmuStreamOGAction .fbEmuStreamTitle{margin-top:4px}\\u000a.fbEmuPremium .fbEmuStreamAttachment.fbEmuStreamPhotoStory{margin-bottom:2px}\\u000a.fbEmuStreamAttachment.fbEmuStreamEventStory a.fbEmuStreamTitle, .fbEmuPicStory a.fbEmuStreamTitle, .fbEmuLikeMessage{color:gray}\\u000a.fbEmuPremium .fbEmuStreamAttachment.fbEmuStreamOGAction img, .fbEmuPremium .fbEmuStreamAttachment.fbEmuStreamEventStory img{max-height:75px;max-width:75px}\\u000a.fbEmuMarketplace .fbEmuStreamAttachment.fbEmuStreamEventStory img, .fbEmuStreamStory .fadPageAttachment img{max-height:50px;max-width:50px}\\u000a.fbEmuStreamAttachment.fbEmuStreamLinkStory ._24x{margin-right:5px}\\u000a.fbEmuPicStory a.fbEmuStreamTitle, .fbEmuStreamAttachment.fbEmuStreamEventStory .fbEmuStreamAttachmentBlock a{font-weight:normal}\\u000a.fbEmuStreamAttachment.fbEmuStreamLinkStory .fbEmuStreamTitle{font-weight:bold;padding-top:4px}\\u000a.fbEmuMarketplace .fbEmuStreamAttachment.fbEmuStreamPhotoStory img, .fbEmuMarketplace .fbEmuStreamAttachment.fbEmuStreamPhotoStory i{max-height:90px;max-width:118px}\\u000a.fbEmuPremium .fbEmuStreamAttachment.fbEmuStreamPhotoStory img, .fbEmuPremium .fbEmuStreamAttachment.fbEmuStreamPhotoStory i{max-height:128px;max-width:168px}\\u000a.fbEmuStreamStory .uiVideoThumb.fbEmuLargeThumb{margin-right:0}\\u000a.fbEmuMarketplace .uiVideoThumb.fbEmuLargeThumb img{display:block;height:72px;max-height:72px;max-width:128px}\\u000a.fbEmuPremium .uiVideoThumb.fbEmuLargeThumb img{height:104px;display:block;max-height:104px;max-width:185px}\\u000a.fbEmuStreamStory .uiStreamMessage{font-weight:normal}\\u000a.fbEmuStreamStory .fbEmuStreamTitle{display:block;font-weight:bold}\\u000a.fbEmuStreamStory .fbEmuStreamBody{color:#666}\\u000a.fbEmuStreamStory .uiPhotoThumb{display:inline-block}\\u000a.fbEmuStreamStory .whitespaceLink:hover .fbEmuStreamOGAction, .fbEmuStreamStory .fbEmuStreamLinkStory:hover{text-decoration:underline}\\u000a.fbEmuStreamStory .whitespaceLink:hover{cursor:pointer}\\u000a.fbEmuStreamStory .messageBody .whitespaceLink:hover, .fbEmuStreamStory .whitespaceLink:hover .fbEmuStreamOGAction, .fbEmuStreamStory .whitespaceLink:hover .fbEmuLikeMessage{background-color:#eceff5}\\u000a.fbEmuStreamStory .fbEmuStreamLinkStory:hover{background-color:#f6f7f9}\\u000a.fbEmuStreamStory .whitespaceLink:hover a.uiBlingBox{text-decoration:none}\\u000a.fbEmuStreamStory .whitespaceLink:hover .uiBlingBox{background-color:#eceff5}\\u000a.fbEmuStreamStory .fbEmuStreamPhotoStory:hover .uiPhotoThumb{border:1px solid #3b5998}\\u000a.fbEmuStreamStory .uiVideoThumb{display:inline-block;margin-right:5px}\\u000a.fbEmuStreamStory .uiVideoThumb img{height:auto}\\u000a.fbEmuStreamStory .uiVideoThumb.fbEmuSmallThumb img{max-width:60px}\\u000a.fbEmuStreamStory .fbEmuStreamAttachment .uiPhotoThumb img{margin:3px}\\u000a.fbEmuStreamStory .textOnly{word-wrap:break-word}\\u000a.fbEmuStreamStory .textWithMedia{word-wrap:break-word}\\u000a.fbEmuStreamAttachmentOffset{border-left:2px solid #ccc;padding-left:4px}\\u000a.fbEmuStreamAttachmentOffset .fbEmuPicStory, .fbEmuStreamStory .fbEmuStreamAttachmentOffset .textOnly{border-left:0;padding-left:0}\\u000a.fbEmuStreamStory .uiUfi .ufiItem{padding:3px 3px 2px}\\u000a.fbEmuStreamStory .uiBlingBox .text{line-height:normal}\\u000a.fbEmuStreamStory .uiBlingBox{margin-right:-1px;margin-left:-1px}\\u000a.fbEmuStreamStory .uiBlingBox .img{margin-top:-1px}\\u000a.fbEmuStreamStory .fbTimelineFeedbackComments{float:left;padding-right:3px}\\u000a.fbEmuStreamStory .fbTimelineFeedbackLikes{float:left;padding-right:3px}\\u000a.fbFeedTickerStory .fbEmuStreamStory .fbEmuStreamAttachment img{width:32px;height:32px}\\u000a.fbFeedTickerStory .fbEmuStreamAttachment .fbEmuStreamAttachmentBlock{height:32px}\\u000a.fbEmuStream .title{font-weight:bold;line-height:13px;margin-right:20px}\\u000a.fbEmuStream .fbEmuContext{margin-bottom:2px}\\u000a.fbEmuStream .action{margin:2px 0 1px 0}\\u000a.fbEmuStream .body{line-height:13px}\\u000a.fbEmuStreamBlockQuote{border-left:2px solid #ccc;padding:0 0 3px 8px}\\u000a.fbEmuStream .text_exposed_link{padding:0 0 0 5px}\\u000a.fbEmuStreamAttribution{color:gray}\\u000a.bassLike{margin-top:2px}\\u000a.fbEmuStreamStory{padding-top:1px}\\u000a.fbEmuComboList .fbEmuComboListHeader{background-color:#ccc;border-top:1px solid #ccc;margin:13px 0 8px 0;padding:0;position:relative}\\u000a.fbEmuComboList .fbEmuComboListHeader .fbEmuComboListHeaderText{background-color:#fff;color:#999;font-size:9px;font-weight:bold;left:0;margin-left:32px;padding:0 8px;position:absolute;top:-6px}\\u000a.fbEmuStreamStory .tickerStoryBlock .uiStreamMessage .passiveName, .fbEmuStreamStory .uiStreamMessage .actorName.firstName, .fbEmuStreamStory .uiStreamMessage .passiveName.firstName{font-weight:bold}\\u000a.fbEmuStreamStory .uiStreamMessage .actorName, .fbEmuStreamStory .uiStreamMessage .passiveName{font-weight:normal}\\u000a.fbEmuTracking{position:absolute;visibility:hidden}\\u000a.pas{padding:5px}\\u000a.pam{padding:10px}\\u000a.pal{padding:20px}\\u000a.pts{padding-top:5px}\\u000a.ptm{padding-top:10px}\\u000a.ptl{padding-top:20px}\\u000a.prs{padding-right:5px}\\u000a.prm{padding-right:10px}\\u000a.prl{padding-right:20px}\\u000a.pbs{padding-bottom:5px}\\u000a.pbm{padding-bottom:10px}\\u000a.pbl{padding-bottom:20px}\\u000a.pls{padding-left:5px}\\u000a.plm{padding-left:10px}\\u000a.pll{padding-left:20px}\\u000a.phs{padding-left:5px;padding-right:5px}\\u000a.phm{padding-left:10px;padding-right:10px}\\u000a.phl{padding-left:20px;padding-right:20px}\\u000a.pvs{padding-top:5px;padding-bottom:5px}\\u000a.pvm{padding-top:10px;padding-bottom:10px}\\u000a.pvl{padding-top:20px;padding-bottom:20px}\\u000a.mas{margin:5px}\\u000a.mam{margin:10px}\\u000a.mal{margin:20px}\\u000a.mts{margin-top:5px}\\u000a.mtm{margin-top:10px}\\u000a.mtl{margin-top:20px}\\u000a.mrs{margin-right:5px}\\u000a.mrm{margin-right:10px}\\u000a.mrl{margin-right:20px}\\u000a.mbs{margin-bottom:5px}\\u000a.mbm{margin-bottom:10px}\\u000a.mbl{margin-bottom:20px}\\u000a.mls{margin-left:5px}\\u000a.mlm{margin-left:10px}\\u000a.mll{margin-left:20px}\\u000a.mhs{margin-left:5px;margin-right:5px}\\u000a.mhm{margin-left:10px;margin-right:10px}\\u000a.mhl{margin-left:20px;margin-right:20px}\\u000a.mvs{margin-top:5px;margin-bottom:5px}\\u000a.mvm{margin-top:10px;margin-bottom:10px}\\u000a.mvl{margin-top:20px;margin-bottom:20px}\\u000a._5lqh a:hover, ._5lqh a:visited, ._5lqh a:active, ._5lqh a{color:inherit;text-decoration:inherit}\\u000a._5lqi{height:280px}\\u000a#adscreatorbody ._5lqi{height:396px}\\u000a._5lqj{background-color:#c3c6d8;padding:15px 10px;position:absolute;transform:scale(0.69);transform-origin:0 0;width:320px}\\u000a#adscreatorbody ._5lqj{transform:scale(0.96)}\\u000a._5lqh{border-radius:2px;box-shadow:1px 2px 2px #aaa;font-family:Helvetica, sans-serif;margin:auto;width:100%}\\u000a._5py2{color:red}\\u000a._5lqh ._5lqk{background-color:#fff;padding:9px}\\u000a._5lqh ._5lqk a{display:block}\\u000a._5lqh ._5lql{background-color:#f7f7f7;border-bottom:solid 1px #c2c2c2;border-radius:2px 2px 0 0;color:#949494;font-size:13px;font-weight:600;padding:4px 10px 3px}\\u000a._5lqh ._5lqm{background-color:#f3f4f7;border:1px solid #d1d1d1;margin:8px 0 0}\\u000a._5lqh ._5lqm\\u000a._5lqn{padding:9px}\\u000a._5lqh ._5lqo{display:block;height:auto;max-height:180px;width:100%}\\u000a._5lqh ._5lqk\\u000a._5lqp{color:#444;font-size:13px;font-weight:bold;line-height:16px;margin-bottom:2px}\\u000a._5lqh ._5lqk\\u000a._5lqq{display:block;line-height:1.0;margin-bottom:6px}\\u000a._5lqh ._5lqk\\u000a._5lqq i{vertical-align:bottom}\\u000a._5lqh ._5lqk\\u000a._5lqr{color:#333;font-size:15px;font-weight:normal;line-height:17px;margin:9px 0 9px;max-height:52px;overflow:hidden}\\u000a._5lqh ._5lqk\\u000a._5lqs{color:gray;font-size:12px;line-height:15px}\\u000a._5lqh ._5lqk\\u000a._5lqt{background-image:url(https://fbstatic-a.akamaihd.net/rsrc.php/v2/yb/r/PrVh6W-yL19.png);float:left;height:32px;width:5px}\\u000a._5lqh ._5lqk\\u000a._5lqu{background-image:url(https://fbstatic-a.akamaihd.net/rsrc.php/v2/yb/r/PrVh6W-yL19.png);background-position:-6px 0;float:right;height:32px;width:5px}\\u000a._5lqh ._5lqk\\u000a._5lqv{background-image:url(https://fbstatic-a.akamaihd.net/rsrc.php/v2/yC/r/IywnuviI3FC.png);background-repeat:repeat-x;height:32px;line-height:32px;margin:0 5px}\\u000a._5lqh ._5lqk\\u000a._5lqv span{font-weight:bold;padding:0 5px}\\u000a._5lqw{height:200px}\\u000a#adscreatorbody ._5lqw{height:290px}\\u000a._5lqx{background-color:#c3c6d8;padding:15px 10px;position:absolute;transform:scale(0.42);transform-origin:0 0;width:520px}\\u000a#adscreatorbody ._5lqx{transform:scale(0.6)}\\u000a._5lqy{background:#fff;border-radius:2px;box-shadow:1px 2px 2px #aaa;font-family:Helvetica, sans-serif;margin:auto;padding:9px}\\u000a._5lqy ._5lqo{display:block;height:auto;max-height:300px;width:100%}\\u000a._49tg{position:relative}\\u000a._49th{display:inline;padding-right:5px;position:relative}\\u000a._49ti{display:inline;padding-right:3px;position:relative}\\u000a._49tj{top:1px}\\u000a._49tk{top:3px}\\u000a._49tl{top:4px}\\u000a._49tm{color:#666;display:inline;font-size:10px;position:relative}\\u000a._5hww ._49tm{color:#3b5998;font-size:11px}\\u000a.cardDimensionLarge ._2p9v{margin:8px}\\u000a.cardDimensionMedium ._2p9v{margin-top:8px}\\u000a.cardDimensionSmall ._2p9v{margin:6px}\\u000a.cardDimensionLarge ._2p9v ._2p9w ._2p9x{color:#333;font-size:13px;line-height:19px}\\u000a.cardDimensionMedium ._2p9v ._2p9w ._2p9x{color:#3b5998;font-size:11px;line-height:13px}\\u000a.cardDimensionSmall ._2p9v ._2p9w ._2p9x{color:#333;font-size:10px;line-height:10px}\\u000a.cardDimensionLarge ._2p9v ._2p9w ._2p9y{color:#999;font-size:11px;padding-bottom:2px}\\u000a.cardDimensionMedium ._2p9v ._2p9w ._2p9y{color:#999;font-size:11px;line-height:13px}\\u000a.cardDimensionSmall ._2p9v ._2p9w ._2p9y{color:#999;font-size:7px;padding-bottom:2px}\\u000a._2p9v ._2p9w ._2p9z{color:#333}\\u000a.cardDimensionLarge ._2p9v ._2p9w\\u000a._2p9z{font-size:12px;line-height:16px}\\u000a.cardDimensionMedium ._2p9v ._2p9w\\u000a._2p9z{color:#333;font-size:11px;line-height:13px}\\u000a.cardDimensionSmall ._2p9v ._2p9w\\u000a._2p9z{font-size:8px;line-height:12px}\\u000a._2p9v ._2p9w ._2p9-{color:#333}\\u000a.cardDimensionLarge ._2p9v ._2p9w\\u000a._2p9-{font-size:12px}\\u000a.cardDimensionMedium ._2p9v ._2p9w\\u000a._2p9-{font-size:11px;line-height:13px}\\u000a.cardDimensionSmall ._2p9v ._2p9w\\u000a._2p9-{font-size:8px}\\u000a._2p9v ._2p9_{box-shadow:0 3px 3px 0 rgba(0, 0, 0, .35);height:45px;width:45px}\\u000a._2pa0{position:relative}\\u000a._2pa0.cardDimensionLarge{border:1px solid rgba(0, 0, 0, .2);margin:2px 0 4px;width:272px}\\u000a._2pa0.cardDimensionMedium{margin:10px 0 18px 12px;width:208px}\\u000a._2pa0.cardDimensionSmall{border:1px solid rgba(0, 0, 0, .2);margin:2px 0 4px;width:180px}\\u000a._2pa0:hover a{text-decoration:none}\\u000a._2pa0:hover .uiSelectorButton{opacity:1}\\u000a.fbPhotoSnowliftContainer ._2pa0{left:18px}\\u000a._2pot{position:absolute;z-index:1}\\u000a.cardDimensionLarge ._2pot{right:10px;top:70px}\\u000a.cardDimensionMedium ._2pot{right:8px;top:48px}\\u000a.cardDimensionSmall ._2pot{right:8px;top:38px}\\u000a._2pot .uiButton{border:1px solid rgba(0, 0, 0, .2);border-radius:4px}\\u000a._2pot:hover .uiButton{border-radius:4px}\\u000a._2pot .uiButtonOverlay{background-color:rgba(255, 255, 255, .90)}\\u000a._2pot:hover .uiButtonOverlay{background-color:rgba(255, 255, 255, .90)}\\u000a._2pot:hover .uiButton .uiButtonText{color:#000}\\u000a._2pot .uiButton .uiButtonText, ._2pot:hover .uiButtonDisabled .uiButtonText{color:rgba(0,0,0,0.6);text-shadow:0 0 5px rgba(255,255,255,1)}\\u000a.cardDimensionLarge ._2p9s ._2p9t{height:101px;width:272px}\\u000a.cardDimensionMedium ._2p9s ._2p9t{height:77px;width:208px}\\u000a.cardDimensionSmall ._2p9s ._2p9t{height:67px;width:180px}\\u000a._2p9s ._2p9u{border-bottom:1px solid rgba(0, 0, 0, .1);position:absolute;z-index:1}\\u000a.cardDimensionLarge ._2p9u{height:99px;width:270px}\\u000a.cardDimensionMedium ._2p9u{border:1px solid rgba(0, 0, 0, .1);height:75px;width:206px}\\u000a.cardDimensionSmall ._2p9u{height:65px;width:178px}\\u000a._2p9s ._49tf i{background-image:url(https://fbstatic-a.akamaihd.net/rsrc.php/v2/yN/r/aERK2-5sOBX.png);height:22px;left:12px;position:absolute;width:27px}\\u000a.cardDimensionLarge ._2p9s ._49tf i{top:72px}\\u000a.cardDimensionMedium ._2p9s ._49tf i{top:48px}\\u000a.cardDimensionSmall ._2p9s ._49tf i{top:38px}\\u000a._53ei{position:absolute;right:7px;top:6px;z-index:99}\\u000a._53ei .uiCloseButton{background-position:left -16px;margin-right:0}\\u000a._53ei .openToggler .uiSelectorButton{opacity:1}\\u000a._53ei .uiSelectorButton{opacity:0}\\u000a._53ej{float:right;margin-bottom:3px;margin-left:5px;padding-bottom:2px;padding-left:2px}\\u000a._5cya{margin-top:8px;padding:0 4px;text-align:center}\\u000a._5cya ._5cyb{float:left}\\u000a._5cya ._5cyc{float:right}\\u000a._5cya.adUnitSliderSimplified{margin-bottom:3px;margin-top:0;padding:0;width:120px}\\u000a._5cya.adUnitSliderSimplified ._5cyd ._5k1a{padding-top:4px}\\u000a._5fxh{margin:2px 0 4px;position:relative}\\u000a._5fxh:hover a{text-decoration:none}\\u000a._5fxh:hover .emu_x .uiSelectorButton{opacity:1}\\u000a._5qrt ._5fxh{margin:0}\\u000a._5i2f{display:inline-block}\\u000a._5i29{color:#999;font-size:11px}\\u000a._5p3y ._5i29{font-size:12px}\\u000a._5fxm{padding-top:3px}\\u000a._5qrt ._5fxm{padding-top:8px}\\u000a._5fxm ._5fxn{color:#333;font-size:11px;line-height:13px}\\u000a._5p3y ._5fxm ._5fxn{font-size:12px;line-height:1.28}\\u000a._5h83{display:block}\\u000a._5h83 ._5h84{display:inline;position:relative}\\u000a._5h83 ._5h85{color:#777;display:inline;font-size:11px;line-height:13px;position:relative}\\u000a._5p3y ._5h83 ._5h85{font-size:12px}\\u000a._5fxi{padding-bottom:3px;padding-top:6px;position:relative}\\u000a._5qrt ._5fxi{padding-bottom:0;padding-top:8px}\\u000a._5hwt{width:100px}\\u000a._5hwt .img{max-height:72px;max-width:100px}\\u000a._5hwu{width:128px}\\u000a._5hwu .img{max-height:72px;max-width:128px}\\u000a._5fxi ._5hwv i{background-image:url(https://fbstatic-a.akamaihd.net/rsrc.php/v2/yN/r/aERK2-5sOBX.png);bottom:6px;height:22px;left:3px;position:absolute;width:27px}\\u000a._5hwx{display:table-cell;vertical-align:middle;width:120px}\\u000a._5hwx .img{max-height:90px;max-width:120px}\\u000a._5fxj{font-size:11px;line-height:13px}\\u000a._5fxj ._5fxk{color:#3b5998}\\u000a._5fxj ._5fxl{color:#999}\\u000a._5p3y ._5fxj{font-size:12px;line-height:16px}\\u000a._5p3y ._5fxj ._5fxl{color:#898f9c}\\u000abutton.async_saving .default_message,\\u000aa.async_saving .default_message,\\u000aform.async_saving .default_message,\\u000a.saving_message{display:none}\\u000a.default_message,\\u000abutton.async_saving .saving_message,\\u000aa.async_saving .saving_message,\\u000aform.async_saving .saving_message{display:inline}\\u000aform{margin:0;padding:0}\\u000alabel{cursor:pointer;color:#666;font-weight:bold;vertical-align:middle}\\u000alabel input{font-weight:normal}\\u000atextarea, .inputtext, .inputpassword{border:1px solid #bdc7d8;margin:0;padding:3px}\\u000atextarea{max-width:100%}\\u000aselect{border:1px solid #bdc7d8;padding:2px}\\u000a.inputtext, .inputpassword{padding-bottom:4px}\\u000a.inputtext:invalid, .inputpassword:invalid{box-shadow:none}\\u000a.inputradio{padding:0;margin:0 5px 0 0;vertical-align:middle}\\u000a.inputcheckbox{border:0;vertical-align:middle}\\u000a.inputbutton, .inputsubmit{border-style:solid;border-width:1px;border-color:#d9dfea #0e1f5b #0e1f5b #d9dfea;background-color:#3b5998;color:#fff;padding:2px 15px 3px 15px;text-align:center}\\u000a.inputsubmit_disabled{background-color:#999;border-bottom:1px solid #000;border-right:1px solid #666;color:#fff}\\u000a.inputaux{background:#f0f0f0;border-color:#e7e7e7 #666 #666 #e7e7e7;color:#000}\\u000a.inputaux_disabled{color:#999}\\u000a.inputsearch{background:#fff url(https://fbstatic-a.akamaihd.net/rsrc.php/v2/yV/r/IJYgcESal33.png) no-repeat left 4px;padding-left:17px}\\u000abody{background:#fff;color:#333;line-height:1.28;margin:0;padding:0;text-align:left;direction:ltr;unicode-bidi:embed}\\u000abody, button, input, label, select, td, textarea{font-family:\'lucida grande\',tahoma,verdana,arial,sans-serif;font-size:11px}\\u000ah1, h2, h3, h4, h5, h6{font-size:13px;color:#333;margin:0;padding:0}\\u000ah1{font-size:14px}\\u000ah4, h5, h6{font-size:11px}\\u000ap{margin:1em 0}\\u000aa{color:#3b5998;cursor:pointer;text-decoration:none}\\u000abutton{margin:0}\\u000aa:hover{text-decoration:underline}\\u000aimg{border:0}\\u000atd, td.label{text-align:left}\\u000add{color:#000}\\u000adt{color:#777}\\u000aul{list-style-type:none;margin:0;padding:0}\\u000aabbr{border-bottom:none}\\u000ahr{background:#d9d9d9;border-width:0;color:#d9d9d9;height:1px}\\u000a.clearfix:after{clear:both;content:".";display:block;font-size:0;height:0;line-height:0;visibility:hidden}\\u000a.clearfix{zoom:1}\\u000a.datawrap{word-wrap:break-word}\\u000a.word_break{display:inline-block}\\u000a.ellipsis{overflow:hidden;text-overflow:ellipsis;white-space:nowrap}\\u000a.aero{opacity:.5}\\u000a.column{float:left}\\u000a.center{margin-left:auto;margin-right:auto}\\u000a#facebook .hidden_elem{display:none !important}\\u000a#facebook .invisible_elem{visibility:hidden}\\u000a#facebook .accessible_elem{clip:rect(1px 1px 1px 1px);clip:rect(1px, 1px, 1px, 1px);height:1px;overflow:hidden;position:absolute;width:1px}\\u000a.direction_ltr{direction:ltr}\\u000a.direction_rtl{direction:rtl}\\u000a.text_align_ltr{text-align:left}\\u000a.text_align_rtl{text-align:right}\\u000abutton.as_link{background:none;border:none;color:#3b5998;cursor:pointer;font-family:\'lucida grande\',tahoma,verdana,arial,sans-serif;font-size:100%;margin:0;overflow:visible;padding:0;text-align:left;width:auto}\\u000abutton.as_link:hover span, button.as_link:focus span{text-decoration:underline}\\u000abutton.as_link .button_img{margin:0 6px 0 0;vertical-align:text-bottom;width:16px;height:16px}\\u000a.uiCloseButton{cursor:pointer;display:inline-block;margin:0;padding:0;zoom:1}\\u000alabel.uiCloseButton{overflow:hidden}\\u000a.uiCloseButton input{cursor:pointer;opacity:0;outline:none;padding:18px}\\u000a.uiCloseButton{background-image:url(https://fbstatic-a.akamaihd.net/rsrc.php/v2/yA/r/4WSewcWboV8.png);background-repeat:no-repeat;height:15px;width:15px}\\u000a.uiCloseButtonSmall{background-image:url(https://fbstatic-a.akamaihd.net/rsrc.php/v2/yx/r/ogYrclupeJV.png);height:11px;margin-top:1px;width:11px}\\u000a.uiCloseButtonHuge{background-image:url(https://fbstatic-a.akamaihd.net/rsrc.php/v2/yj/r/ubIGOTIgUYc.png)}\\u000a.uiCloseButtonDark{background-position:left -16px}\\u000a.uiCloseButtonInverted{background-image:url(https://fbstatic-a.akamaihd.net/rsrc.php/v2/yo/r/33RpiRygxAr.png);background-position:left -16px}\\u000a.uiCloseButtonGray{background-image:url(https://fbstatic-a.akamaihd.net/rsrc.php/v2/y7/r/gmSNAxiWQKY.png)}\\u000a.uiCloseButton:hover, .uiCloseButton:focus{background-position:left -32px}\\u000a.uiCloseButton:active{background-position:left -48px}\\u000a.uiCloseButtonSmallDark{background-position:left -12px}\\u000a.uiCloseButtonSmallGray{background-image:url(https://fbstatic-a.akamaihd.net/rsrc.php/v2/y0/r/8FA3puZNL-X.png)}\\u000a.uiCloseButtonSmallInverted{background-image:url(https://fbstatic-a.akamaihd.net/rsrc.php/v2/yT/r/Vi-KTnbdMKr.png);background-position:left -12px}\\u000a.uiCloseButtonSmall:hover, .uiCloseButtonSmall:focus{background-position:left -24px}\\u000a.uiCloseButtonSmall:active{background-position:left -36px}\\u000a.uiCloseButtonHighContrast{display:none}\\u000a.highContrast .uiCloseButtonHighContrast{display:inline-block}\\u000a.uiPopover .uiCloseButton{background-clip:padding-box;border:1px solid transparent;margin:0}\\u000a.uiPopover.openToggler .uiCloseButton{background-position:left -32px}\\u000a.uiPopover.openToggler .uiCloseButtonSmall{background-position:left -24px}\\u000a.uiPopover.openToggler .uiCloseButton, .uiPopover.openToggler .uiCloseButton:active, .uiPopover.openToggler .uiCloseButton:focus, .uiPopover.openToggler .uiCloseButton:hover{background-color:#6d84b4;border:1px solid #3b5998;border-bottom-color:#6d84b4;box-shadow:none}\\u000a._a6c{height:50px;margin:2px 6px 2px 2px;width:50px}\\u000a._a6d{border:dashed 1px #d8dfea;cursor:pointer;padding:2px}\\u000a._a6d:hover{cursor:pointer;text-decoration:underline}\\u000a._a6e{color:#3b5998;height:50px;padding-right:4px}\\u000a.DOMControl_placeholder{color:#777}\\u000a.no_js .DOMControl_placeholder{color:#000}\\u000a.fbPagePostFooter .fbTimelineFeedbackActions{border-bottom-width:0}\\u000a.fbPagePostFooter .fbUfi{padding-top:2px;width:100%}\\u000a.fbEmuStreamStory .fbPagePostFooter .uiUfi .ufiItem{margin-top:0;padding:5px 5px}\\u000a.UIActionLinks_title{font-size:9px;font-weight:normal;white-space:nowrap;color:#999}\\u000a.UIActionLinks_bottom{color:#999}\\u000a.UIActionLinks_bottom a,\\u000a.UIActionLinks_bottom button.as_link,\\u000a.UIActionLinks_bottom .uiLinkButton input,\\u000a.UIActionLinks_bottom .uiLinkButton input:hover{color:#6d84b4}\\u000a.UIActionLinks .uiBlingBox{color:#3b5998}\\u000a.UIActionLinks .promoteButton{margin-top:-2px}\\u000a.lfloat{float:left}\\u000a.rfloat{float:right}\\u000a.photoPoll{position:relative}\\u000a.voteButtonContainer{position:absolute;right:7px;top:7px;z-index:2}\\u000a.contextPopup .voteButtonContainer{right:12px;top:12px}\\u000a.photoPoll .voteButton{display:block}\\u000a.pollPopup{font-size:13px;margin-top:10px;padding-top:10px;position:relative;width:378px}\\u000a.contextPopup .pollPopup .fbQuestionPollForm{border-bottom:1px solid #ccc;border-bottom:none;margin-left:-8px;margin-left:8px;margin-right:8px;padding-bottom:10px;padding-top:15px;width:340px}\\u000a.photoPoll .titleBar .titleBarText{float:left;overflow:hidden;padding-bottom:5px;padding-top:5px;text-overflow:ellipsis}\\u000a.photoPoll .titleBar{background-color:rgba(0, 0, 0, .7);color:#fff;display:none;font-size:12px;font-weight:bold;margin-left:1px;padding-left:6px;position:absolute;white-space:nowrap;z-index:1}\\u000a.photoPoll:hover .titleBar, .uiOverlayContent .contextPopup .titleBar{display:block}\\u000a.uiOverlayContent .contextPopup .titleBar{font-size:16px;padding-bottom:2px;padding-top:2px}\\u000a.photoPoll .photo_single{border:1px solid rgba(0, 0, 0, .1)}\\u000a.photoPoll .photoPollPageLink{height:16px;margin-left:3px;margin-top:5px;width:16px}\\u000a.photoPoll .photoPollPageLinkIcon{margin-left:3px}\\u000a.contextPopup .photoPoll .photoPollPageLink{padding-top:2px}\\u000a.photoPoll .photoPollPageLinkIcon:hover{background-color:#6d84b4;border-radius:2px}\\u000a.uiTypeaheadView .search li{min-height:50px;padding:2px 30px 2px 63px}\\u000a.uiTypeaheadView .search li a{outline:none}\\u000a.uiTypeaheadView .search li a:hover{text-decoration:none}\\u000a.uiTypeaheadView .search .playButton{height:30px;left:16px;top:12px;position:absolute;width:30px;background-image:url(https://fbstatic-a.akamaihd.net/rsrc.php/v2/y1/r/ZEZO8bYyQlr.png);background-repeat:no-repeat;background-size:auto;background-position:0 0}\\u000a.uiTypeaheadView .search a:hover .playButton{background-image:url(https://fbstatic-a.akamaihd.net/rsrc.php/v2/y1/r/ZEZO8bYyQlr.png);background-repeat:no-repeat;background-size:auto;background-position:0 -30px}\\u000a.uiTypeaheadView .search .music_playing a .playButton{background-image:url(https://fbstatic-a.akamaihd.net/rsrc.php/v2/y1/r/ZEZO8bYyQlr.png);background-repeat:no-repeat;background-size:auto;background-position:0 -60px}\\u000a.uiTypeaheadView .search .music_playing a:hover .playButton{background-image:url(https://fbstatic-a.akamaihd.net/rsrc.php/v2/y1/r/ZEZO8bYyQlr.png);background-repeat:no-repeat;background-size:auto;background-position:0 -90px}\\u000a.uiTypeaheadView .search .song.async_saving a .playButton{background-image:url(https://fbstatic-a.akamaihd.net/rsrc.php/v2/y1/r/ZEZO8bYyQlr.png);background-repeat:no-repeat;background-size:auto;background-position:0 -120px}\\u000a.uiTypeaheadView .search .song.async_saving a .playLoader{position:absolute;width:14px;height:14px;left:24px;top:20px;background:url(https://fbstatic-a.akamaihd.net/rsrc.php/v2/yp/r/DrGcdjdlpCl.gif) no-repeat}\\u000a.uiTypeaheadView .search .splitpics, .uiTypeaheadView .search .group .photo, .uiTypeaheadView .search img{background-color:#eceff5;display:block;height:50px;left:6px;position:absolute;width:50px}\\u000a.uiTypeaheadView .search .text{color:#3b5998;font-weight:bold}\\u000a.uiTypeaheadView .search .subtext{font-size:9px}\\u000a.uiTypeaheadView .search .preCategory{color:#999}\\u000a.uiTypeaheadView .search .seeMore{color:#3b5998;font-size:11px;font-weight:bold;padding-bottom:0;padding-right:7px}\\u000a.uiTypeaheadView .search .question{min-height:14px;padding:3px 30px 3px 6px}\\u000a.uiTypeaheadView .search .question .text{display:inline}\\u000a.uiTypeaheadView .search .question .subtext{display:inline;margin-left:5px;white-space:nowrap}\\u000a.uiTypeaheadView .search .websuggestion{min-height:14px;padding:6px 30px 5px 6px}\\u000a.uiTypeaheadView .search .websuggestion .text{display:inline}\\u000a.uiTypeaheadView .search .websuggestion .subtext{display:inline;margin-left:5px;white-space:nowrap}\\u000a.uiTypeaheadView .search .group .photo, .uiTypeaheadView .search .friendlist .photo{background-color:transparent}\\u000a.uiTypeaheadView .search .text .alias{color:#999;font-weight:normal}\\u000a.uiTypeaheadView .debug{background-color:#fff;border:1px solid #d8dfea}\\u000adiv div.wideSearchTypeaheadView{width:475px}\\u000a.uiTypeaheadView.mainSearchTypeaheadView .search .report{width:15px;height:15px;right:4px;top:4px;position:absolute;background-image:url(https://fbstatic-a.akamaihd.net/rsrc.php/v2/y1/r/ZEZO8bYyQlr.png);background-repeat:no-repeat;background-size:auto;background-position:-78px -526px}\\u000a.uiTypeaheadView .search .splitpic{float:left;overflow:hidden;width:24px}\\u000a.uiTypeaheadView .search .splitpics img{left:0;margin-left:-12px;position:static}\\u000a.uiTypeaheadView .search .splitpics .leftpic{margin-right:1px;width:25px}\\u000a.uiTypeaheadView .search .splitpics .toppic{height:24px;margin-bottom:1px}\\u000a.uiTypeaheadView .search .splitpics .bottompic{height:25px}\\u000a.uiTypeaheadView .search .splitpics .toppic img, .uiTypeaheadView .search .splitpics .bottompic img{margin-top:-12px}\\u000a.uiTypeaheadView{display:block;left:0;position:absolute;top:100%;width:100%}\\u000a.uiContextualTypeaheadView{position:static}\\u000a.uiTypeaheadView ul{background:#fff;border:solid;border-width:1px 1px 2px;border-color:#333 #333 #293e6a;overflow:hidden;padding:2px 0}\\u000a.uiTypeaheadView .freeform{border-top-color:#ddd;padding:2px 6px 1px;text-align:center}\\u000a.uiTypeaheadView li{border:solid #fff;border-width:1px 0;color:#333;cursor:pointer;display:block;min-height:1px;padding:0 6px;position:relative}\\u000a.uiTypeaheadView strong{background-color:#d8dfea;color:#3b5998}\\u000adiv.uiTypeaheadView .selected{background-color:#6d84b4;border-color:#3b5998}\\u000a.highContrast div.uiTypeaheadView .selected{border-right-width:10px}\\u000a.uiTypeaheadView .selected, .uiTypeaheadView .selected a, .uiTypeaheadView .selected div, .uiTypeaheadView .selected span{color:#fff !important}\\u000a.uiTypeaheadView .selected strong{background-color:#5670a6}\\u000a.uiTypeaheadView .text, .uiTypeaheadView .subtext, .uiTypeaheadView .category{display:block;overflow:hidden;padding-bottom:2px;text-overflow:ellipsis;white-space:nowrap}\\u000a.uiTypeaheadView .category{color:#666}\\u000a.uiTypeaheadView .subtext{color:#999}\\u000a.uiTypeaheadView .arrow{background:transparent url(https://fbstatic-a.akamaihd.net/rsrc.php/v2/yV/r/IJYgcESal33.png) 0 -413px;display:inline-block;height:7px;margin-left:4px;width:4px}\\u000a.uiTypeaheadView .selected .arrow{background-position:0 -420px}\\u000adiv.uiTypeaheadView li.calltoaction, div.uiTypeaheadView li.browseUpsell{background:#f7f7f7;border-bottom:none;border-color:#ddd;display:block;margin:2px 0 -2px;min-height:1px;padding:8px}\\u000a.uiTypeaheadView li.disabled{color:#999}\\u000adiv.uiTypeaheadView li.calltoaction{text-align:center}\\u000adiv.uiTypeaheadView li.browseMore{background:#fff}\\u000adiv.uiTypeaheadView li.browseUpsell{cursor:default}\\u000a.uiTypeaheadView.typeaheadViewLoading li.browseUpsell{display:none}\\u000adiv.uiTypeaheadView .browseSuccess .browseSignup, div.uiTypeaheadView .browseJoined{display:none}\\u000adiv.uiTypeaheadView .browseSignup, div.uiTypeaheadView .browseSuccess .browseJoined{display:inherit}\\u000adiv.uiTypeaheadView li.calltoaction.selected{background:#6d84b4;border-color:#3b5998}\\u000adiv.typeaheadViewLoading li.calltoaction span.text{visibility:hidden}\\u000adiv.typeaheadViewLoading li.calltoaction{background:#f7f7f7 url(https://fbstatic-a.akamaihd.net/rsrc.php/v2/yb/r/GsNJNwuI-UM.gif) no-repeat 50% 50%}\\u000adiv.typeaheadViewLoading li.calltoaction.selected{background:#6d84b4 url(https://fbstatic-a.akamaihd.net/rsrc.php/v2/y-/r/AGUNXgX_Wx3.gif) no-repeat 50% 50%}\\u000a.uiBlingBox{border-bottom:1px solid #fff;display:inline-block;padding:3px 4px 3px 2px}\\u000a.uiBlingBox:hover{text-decoration:none;background-color:#eceff5;border-bottom:1px solid #e5eaf1}\\u000a.uiBlingBox .text{line-height:11px;vertical-align:text-bottom}\\u000a.uiBlingBoxSm .text{font-size:9px}\\u000a.uiBlingBox .img{margin-right:2px;vertical-align:text-top}\\u000a.uiBlingBoxSm .img{vertical-align:text-bottom}\\u000a.uiBlingBox .emptyBling{margin-right:0 !important}\\u000a.uiBoxGray{background-color:#f2f2f2;border:1px solid #ccc}\\u000a.uiBoxDarkgray{color:#ccc;background-color:#333;border:1px solid #666}\\u000a.uiBoxLightblue{background-color:#edeff4;border:1px solid #d8dfea}\\u000a.uiBoxRed{background-color:#ffebe8;border:1px solid #dd3c10}\\u000a.uiBoxWhite{background-color:#fff;border:1px solid #ccc}\\u000a.uiBoxYellow{background-color:#fff9d7;border:1px solid #e2c822}\\u000a.uiBoxOverlay{background:rgba(255, 255, 255, .85);border:1px solid #3b5998;border:1px solid rgba(59, 89, 153, .65);zoom:1}\\u000a.noborder{border:none}\\u000a.topborder{border-bottom:none;border-left:none;border-right:none}\\u000a.bottomborder{border-left:none;border-right:none;border-top:none}\\u000a.dashedborder{border-style:dashed}\\u000a.uiButton{cursor:pointer;display:inline-block;font-size:11px;font-weight:bold;line-height:13px;padding:2px 6px;text-align:center;text-decoration:none;vertical-align:top;white-space:nowrap}\\u000a.uiButton, .uiButtonSuppressed:active, .uiButtonSuppressed:focus, .uiButtonSuppressed:hover{background-image:url(https://fbstatic-a.akamaihd.net/rsrc.php/v2/yO/r/Jsxaj6wDwuy.png);background-repeat:no-repeat;background-size:auto;background-position:-352px -103px;background-color:#eee;border:1px solid #999;border-bottom-color:#888;box-shadow:0 1px 0 rgba(0, 0, 0, .1)}\\u000a.uiButton + .uiButton{margin-left:4px}\\u000a.uiButton:hover{text-decoration:none}\\u000a.uiButton:active, .uiButtonDepressed{background:#ddd;border-bottom-color:#999;box-shadow:inset 0 1px 1px rgba(0, 0, 0, .2)}\\u000a.uiButton .img{margin-top:2px;overflow:hidden;vertical-align:top}\\u000a.uiButtonLarge .img{margin-top:4px}\\u000a.uiButton .customimg{margin-top:0}\\u000a.uiButtonText, .uiButton input{background:none;border:0;color:#333;cursor:pointer;display:inline-block;font-family:\'lucida grande\',tahoma,verdana,arial,sans-serif;font-size:11px;font-weight:bold;line-height:13px;margin:0;padding:1px 0 2px;white-space:nowrap}\\u000a.uiButtonOverlay, .uiButtonOverlay:hover{background-clip:padding-box;background-color:#fff;background-color:rgba(255, 255, 255, .8);background-image:none;border-color:#a5a5a5;border-color:rgba(0, 0, 0, .35);border-radius:2px}\\u000a.uiButtonOverlay:focus, .uiButtonOverlay:active{background-color:#f9fafc;background-color:rgba(249, 250, 252, .9);border-color:#3b5998;border-color:rgba(59, 89, 152, .5)}\\u000aform.async_saving .uiButton.uiButtonOverlay, .uiButtonOverlay.uiButtonDisabled, .uiButtonOverlay.uiButtonDisabled:active, .uiButtonOverlay.uiButtonDisabled:focus, .uiButtonOverlay.uiButtonDisabled:hover{background-color:#fff;background-color:rgba(255, 255, 255, .8);border-color:#c8c8c8;border-color:rgba(180, 180, 180, .8)}\\u000a.uiButtonOverlay.uiButtonDepressed{background-color:rgba(0, 0, 0, .05)}\\u000a.uiButtonSpecial{background-image:url(https://fbstatic-a.akamaihd.net/rsrc.php/v2/yO/r/Jsxaj6wDwuy.png);background-repeat:no-repeat;background-size:auto;background-position:-352px -299px;background-color:#69a74e;border-color:#3b6e22 #3b6e22 #2c5115}\\u000a.uiButtonSpecial:active{background:#609946;border-bottom-color:#3b6e22}\\u000aform.async_saving .uiButton.uiButtonSpecial, .uiButtonSpecial.uiButtonDisabled, .uiButtonSpecial.uiButtonDisabled:active, .uiButtonSpecial.uiButtonDisabled:focus, .uiButtonSpecial.uiButtonDisabled:hover{background:#b4d3a7;border-color:#9db791}\\u000a.uiButtonConfirm{background-image:url(https://fbstatic-a.akamaihd.net/rsrc.php/v2/yO/r/Jsxaj6wDwuy.png);background-repeat:no-repeat;background-size:auto;background-position:-352px -54px;background-color:#5b74a8;border-color:#29447e #29447e #1a356e}\\u000a.uiButtonConfirm:active{background:#4f6aa3;border-bottom-color:#29447e}\\u000aform.async_saving .uiButton.uiButtonConfirm, .uiButtonConfirm.uiButtonDisabled, .uiButtonConfirm.uiButtonDisabled:active, .uiButtonConfirm.uiButtonDisabled:focus, .uiButtonConfirm.uiButtonDisabled:hover{background:#adbad4;border-color:#94a2bf}\\u000aform.async_saving .uiButton.uiButtonSpecial .uiButtonText, form.async_saving .uiButton.uiButtonSpecial input, form.async_saving .uiButton.uiButtonConfirm .uiButtonText, form.async_saving .uiButton.uiButtonConfirm input, .uiButtonSpecial .uiButtonText, .uiButtonSpecial input, .uiButtonSpecial.uiButtonDisabled .uiButtonText, .uiButtonSpecial.uiButtonDisabled input, .uiButtonConfirm .uiButtonText, .uiButtonConfirm input, .uiButtonConfirm.uiButtonDisabled .uiButtonText, .uiButtonConfirm.uiButtonDisabled input{color:#fff}\\u000aform.async_saving .uiButton, .uiButtonDisabled, .uiButtonDisabled:active, .uiButtonDisabled:focus, .uiButtonDisabled:hover{background:#f2f2f2;border-color:#c8c8c8;box-shadow:none}\\u000aform.async_saving .uiButton .img, .uiButtonDisabled .img{opacity:.5}\\u000aform.async_saving .uiButtonText, form.async_saving .uiButton input, .uiButtonDisabled .uiButtonText, .uiButtonDisabled input{color:#b8b8b8}\\u000aform.async_saving .uiButton, form.async_saving .uiButtonText, form.async_saving .uiButton input, .uiButtonDepressed, .uiButtonDepressed .uiButtonText, .uiButtonDepressed input, .uiButtonDisabled, .uiButtonDisabled .uiButtonText, .uiButtonDisabled input{cursor:default}\\u000a.uiButtonLarge{height:19px}\\u000a.uiButtonLarge, .uiButtonLarge .uiButtonText, .uiButtonLarge input{font-size:13px;line-height:16px}\\u000a.uiButtonSuppressed{background:none;border-color:transparent;box-shadow:none}\\u000a.uiButtonNoText .img{margin-left:-1px;margin-right:-1px}\\u000a.android .uiButtonText, .android .uiButton input{padding:3px 0 1px 1px}\\u000a.uiIconText{display:inline-block;padding-left:21px;position:relative}\\u000alabel.uiIconText{vertical-align:baseline}\\u000a.uiIconText .img{left:0;position:absolute;top:-1px;vertical-align:middle}\\u000a._8u{margin-top:1px}\\u000a._8o, ._8o .img{display:block}\\u000a._8r{margin-right:5px;margin-top:-1px}\\u000a._8s{margin-right:8px}\\u000a._8t{margin-right:10px}\\u000a._29k{display:table-cell;vertical-align:top;width:10000px}\\u000a._29h{float:left;margin-right:5px}\\u000a._29h .img, img._29h, i._29h{display:block}\\u000a._302{float:right}\\u000a._29i{margin-right:5px;margin-top:-1px}\\u000a._29j{margin-top:1px}\\u000a._303{margin-right:8px}\\u000a._304, ._29l{margin-right:10px}\\u000a._29m ._29k{height:50px;vertical-align:middle}\\u000a._29m img._29h, ._29m i._29h, ._29m ._29h .img{height:50px;width:50px}\\u000a._29m ._302{margin-top:14px;padding-left:8px}\\u000a._6a{display:inline-block}\\u000a._6d{vertical-align:bottom}\\u000a._6b{vertical-align:middle}\\u000a._6e{vertical-align:top}\\u000a._5u5j{width:100%}\\u000a._4ki > li{border-width:0 0 0 1px;display:inline-block}\\u000a._4kg > li{border-width:1px 0 0 0}\\u000a._509- > li{vertical-align:top}\\u000a._509_ > li{vertical-align:middle}\\u000a._50a0 > li{vertical-align:bottom}\\u000a.uiList > li:first-child{border-width:0}\\u000a._4ks > li{border-color:#e9e9e9;border-style:solid}\\u000a._4kt > li{border-color:#ccc;border-style:solid}\\u000a._4ku > li{border-color:#aaa;border-style:solid}\\u000a._4of{color:#3b5998;list-style-type:square;margin-left:12px}\\u000a._4ki._703 > li{padding-left:20px;padding-right:20px}\\u000a._4ki._704 > li{padding-left:5px;padding-right:5px}\\u000a._4ki._6-j > li{padding-left:10px;padding-right:10px}\\u000a._4ki._6-i > li{padding-right:0}\\u000a._4kg._704 > li{padding-top:5px;padding-bottom:5px}\\u000a._4kg._6-j > li{padding-top:10px;padding-bottom:10px}\\u000a._4kg._703 > li{padding-top:20px;padding-bottom:20px}\\u000a._4kg._6-i > li{padding-bottom:0}\\u000a._4kg._6-h > li:first-child{padding-top:0}\\u000a._4kg._6-h > li:last-child{padding-bottom:0}\\u000a._4ki._6-h > li:first-child{padding-left:0}\\u000a._4ki._6-h > li:last-child{padding-right:0}\\u000a.uiPhotoThumb{border:1px solid #ccc;display:inline-block}\\u000a.uiPhotoThumb img{display:block;margin:3px}\\u000a.uiPhotoThumb:hover{border:1px solid #3b5998}\\u000a.loading.uiPhotoThumb{background:url(https://fbstatic-a.akamaihd.net/rsrc.php/v2/yb/r/GsNJNwuI-UM.gif) no-repeat center center}\\u000a.loading.uiPhotoThumb img{opacity:.3}\\u000a._rv{height:100px;width:100px}\\u000a._rw{height:50px;width:50px}\\u000a._s0:only-child{display:block}\\u000a._54rv{height:16px;width:16px}\\u000a._54ru{height:32px;width:32px}\\u000a._54rt{height:48px;width:48px}\\u000a._54rs{height:56px;width:56px}\\u000a._ry{height:24px;width:24px}\\u000a.uiMenu{background-color:#fff;padding:3px 0 4px;overflow-y:auto}\\u000a.uiMenuItem .itemAnchor{border:solid #fff;border-width:1px 0;color:#111;display:block;font-weight:normal;line-height:16px;padding:1px 16px 1px 22px;text-decoration:none}\\u000a.uiMenuItem a:hover{text-decoration:none}\\u000a.uiMenuItem a:active, .uiMenuItem a:focus{background-color:#6d84b4;border-color:#3b5998;color:#fff;outline:none}\\u000a.uiMenu .checked .itemAnchor{background:url(https://fbstatic-a.akamaihd.net/rsrc.php/v2/y9/r/6NgdP4PZyfY.png) left 4px no-repeat;font-weight:bold}\\u000a.uiMenu .checked a:active, .uiMenu .checked a:focus{background-color:#6d84b4;background-position:left -56px}\\u000a.uiMenuItem{white-space:nowrap}\\u000a.uiMenuItem .itemLabel{display:block;max-width:300px;text-overflow:ellipsis;white-space:nowrap}\\u000a.uiMenuItem .itemWithIcon .itemLabel, .uiMenuItem .itemIcon{display:inline-block;vertical-align:middle}\\u000a.uiMenuItem .itemLabel .menuIcon{vertical-align:sub}\\u000a.uiMenu .uiMenuItemPlus{position:relative;zoom:1}\\u000a.uiMenu .uiMenuItemPlusIcon{display:block;left:8px;position:absolute;top:6px;background-image:url(https://fbstatic-a.akamaihd.net/rsrc.php/v2/yO/r/Jsxaj6wDwuy.png);background-repeat:no-repeat;background-size:auto;background-position:-218px -91px;overflow:hidden;width:8px;height:8px}\\u000a.uiMenu .selected .uiMenuItemPlusIcon{background-image:url(https://fbstatic-a.akamaihd.net/rsrc.php/v2/yO/r/Jsxaj6wDwuy.png);background-repeat:no-repeat;background-size:auto;background-position:-210px -91px}\\u000a.uiMenuItemBigLabel .itemLabel{overflow:hidden;min-width:300px}\\u000a.uiMenuItem .disabledAnchor, .uiMenu .disabled .itemAnchor{display:none}\\u000a.uiMenu .disabled .disabledAnchor{display:block}\\u000a.uiMenu .disabled .itemAnchor{opacity:.55}\\u000a.uiMenuItemGroup .groupTitle{margin:0 16px 3px 22px}\\u000a.uiMenuSeparator{border-bottom:1px solid #ddd;margin:5px 7px 6px;padding-top:1px}\\u000a.uiMenuContainer .uiMenu{position:relative}\\u000a.openToggler{z-index:100}\\u000a.uiToggleFlyout, .toggleTargetClosed, .openToggler .uiToggleFlyout .uiToggleFlyout{display:none}\\u000a.openToggler .uiToggleFlyout, .openToggler .uiToggleFlyout .openToggler .uiToggleFlyout{display:block}\\u000a.hideToggler{border:0;height:0;opacity:0;overflow:hidden;padding:0;pointer-events:none;position:absolute;width:0}\\u000a.uiSelector{max-width:200px;vertical-align:top}\\u000a.uiSelector .wrap{position:relative}\\u000a.uiSelector select, .uiSelector .submitButton, .no_js form .uiSelectorButton{display:none}\\u000a.no_js form .uiSelector select, .no_js form .uiSelector .submitButton{display:inline}\\u000a.uiSelector .uiButton, .uiSelector .uiButton:active, .uiSelector .uiButton:focus, .uiSelector .uiButton:hover{background-image:none}\\u000a.uiSelector .uiSelectorButton{vertical-align:top}\\u000a.uiSelector .uiSelectorButton:active{background-color:#ddd}\\u000a.uiSelector .openToggler .uiSelectorButton, .uiSelector .openToggler .uiSelectorButton:active, .uiSelector .openToggler .uiSelectorButton:focus, .uiSelector .openToggler .uiSelectorButton:hover{background-color:#6d84b4;border:1px solid #3b5998;border-bottom-color:#6d84b4;box-shadow:none}\\u000a.uiSelectorNormal .uiSelectorChevronOnly, .uiSelectorNormal .uiSelectorChevronOnly:active, .uiSelectorNormal .uiSelectorChevronOnly:focus, .uiSelectorNormal .uiSelectorChevronOnly:hover{height:20px;padding:0}\\u000a.uiSelectorNormal .uiSelectorButton, .uiSelectorNormal .uiSelectorButton:active, .uiSelectorNormal .uiSelectorButton:focus, .uiSelectorNormal .uiSelectorButton:hover, .uiSelectorNormal .uiButtonSuppressed:active, .uiSelectorNormal .uiButtonSuppressed:focus, .uiSelectorNormal .uiButtonSuppressed:hover{background-image:url(https://fbstatic-a.akamaihd.net/rsrc.php/v2/yO/r/Jsxaj6wDwuy.png);background-repeat:no-repeat;background-size:auto;background-position:right -5px;max-width:169px;padding-right:23px}\\u000a.uiSelectorNormal .uiButtonDisabled, .uiSelectorNormal a.uiButtonDisabled:active, .uiSelectorNormal a.uiButtonDisabled:focus, .uiSelectorNormal a.uiButtonDisabled:hover{background-image:url(https://fbstatic-a.akamaihd.net/rsrc.php/v2/yO/r/Jsxaj6wDwuy.png);background-repeat:no-repeat;background-size:auto;background-position:right -152px}\\u000a.uiSelectorNormal .uiButtonSuppressed.uiButtonDisabled{background-image:url(https://fbstatic-a.akamaihd.net/rsrc.php/v2/yO/r/Jsxaj6wDwuy.png);background-repeat:no-repeat;background-size:auto;background-position:right -348px}\\u000a.uiSelectorNormal .uiButtonOverlay, .uiSelectorNormal .uiButtonOverlay:active, .uiSelectorNormal .uiButtonOverlay:focus, .uiSelectorNormal .uiButtonOverlay:hover, .uiSelectorNormal .uiSelectorButton:active, .uiSelectorNormal .uiButtonSuppressed{background-image:url(https://fbstatic-a.akamaihd.net/rsrc.php/v2/yO/r/Jsxaj6wDwuy.png);background-repeat:no-repeat;background-size:auto;background-position:right -251px}\\u000a.highContrast .uiSelectorButton::after{content:\'\\u005c0020 \\u005c25BC\'}\\u000a.uiSelectorNormal .openToggler .uiSelectorButton, .uiSelectorNormal .openToggler .uiSelectorButton:active, .uiSelectorNormal .openToggler .uiSelectorButton:focus, .uiSelectorNormal .openToggler .uiSelectorButton:hover, .uiSelectorNormal .openToggler .uiButtonSuppressed, .uiSelectorNormal .openToggler .uiButtonSuppressed:active, .uiSelectorNormal .openToggler .uiButtonSuppressed:focus, .uiSelectorNormal .openToggler .uiButtonSuppressed:hover{background-image:url(https://fbstatic-a.akamaihd.net/rsrc.php/v2/yO/r/Jsxaj6wDwuy.png);background-repeat:no-repeat;background-size:auto;background-position:right -201px}\\u000a.uiSelectorNormal .uiSelectorButton .uiButtonText{max-width:169px;overflow:hidden;text-overflow:ellipsis;vertical-align:top}\\u000a.uiSelectorNormal .openToggler .uiSelectorButton .uiButtonText{color:#fff}\\u000a.uiSelectorMenuWrapper{bottom:auto;left:0;margin:-1px 0 30px;max-width:340px;min-width:100%;position:absolute;right:auto;top:100%;z-index:-1}\\u000a.uiSelectorRight .uiSelectorMenuWrapper{left:auto;right:0}\\u000a.uiSelectorMenuWrapper .loading{padding:5px 20px}\\u000a.uiSelectorMenuWrapper .loading span{background:url(https://fbstatic-a.akamaihd.net/rsrc.php/v2/yb/r/GsNJNwuI-UM.gif) no-repeat 0 0;display:inline-block;height:11px;margin:0 auto;width:16px}\\u000a.uiSelector .uiMenu{border:1px solid #777;border-bottom:2px solid #293e6a}\\u000a.uiSelectorContextualLayer .uiSelector{margin:0;max-width:none;position:relative}\\u000a.uiSelectorContextualLayer .uiContextualLayerAboveLeft .uiSelector, .uiSelectorContextualLayer .uiContextualLayerAboveRight .uiSelector{top:2px}\\u000a.uiSelectorContextualLayer .uiContextualLayerBelowLeft .uiSelector, .uiSelectorContextualLayer .uiContextualLayerBelowRight .uiSelector{top:-1px}\\u000a.uiSelectorContextualLayer .uiSelectorMenuWrapper{position:static;margin:0;min-width:auto}\\u000a.uiSelectorContextualLayer .uiSelector .uiSelectorButton{position:absolute}\\u000a.uiSelectorContextualLayer .uiContextualLayerAboveLeft .uiSelector .uiSelectorButton, .uiSelectorContextualLayer .uiContextualLayerAboveRight .uiSelector .uiSelectorButton{border:1px solid #3b5998;border-top-color:#6d84b4;margin-top:-2px;top:100%}\\u000a.uiSelectorContextualLayer .uiContextualLayerBelowLeft .uiSelector .uiSelectorButton, .uiSelectorContextualLayer .uiContextualLayerBelowRight .uiSelector .uiSelectorButton{bottom:100%;margin-bottom:-1px}\\u000a.uiSelectorContextualLayer .uiContextualLayerAboveLeft .uiSelector .uiSelectorButton, .uiSelectorContextualLayer .uiContextualLayerBelowLeft .uiSelector .uiSelectorButton{left:0}\\u000a.uiSelectorContextualLayer .uiContextualLayerAboveRight .uiSelector .uiSelectorButton, .uiSelectorContextualLayer .uiContextualLayerBelowRight .uiSelector .uiSelectorButton{right:0}\\u000a.uiStream .uiStreamMessage{color:#000;font-size:11px;font-weight:normal;margin:0 0 5px 0}\\u000a.uiStream .uiStreamHeadline{margin-bottom:0;outline:none}\\u000a.uiStreamHeadline .uiLikePage{float:right;margin:0 -15px 0 15px}\\u000a.uiStreamHeadline .uiJoinGroupButton{margin:-5px 30px 0 0}\\u000a.uiLikePage.newChevronButton{margin-right:-10px}\\u000a.uiStreamHeadlineWithLikeButton{min-height:31px}\\u000a.uiStream .uiStreamPassive{margin-bottom:5px}\\u000a.Locale_zh_CN .uiStream .uiStreamMessage, .Locale_zh_TW .uiStream .uiStreamMessage, .Locale_zh_HK .uiStream .uiStreamMessage{font-size:13px}\\u000a.Locale_ja_JP .uiStream .uiStreamMessage{font-size:12px}\\u000a.uiStreamMessage, .uiAttachmentTitle, .uiAttachmentDesc{word-break:break-word;word-wrap:break-word}\\u000a.uiStreamMessage .actorDescription{margin-bottom:3px}\\u000a.uiStreamMessage .suggestionBio .actorDescription{padding-bottom:0}\\u000a.uiStreamMessage .suggestionBio{width:410px}\\u000adiv.uiAttachmentTitle{color:#333}\\u000a.permalink_stream{position:relative}\\u000a.uiStreamStory .mainWrapper{margin:0 35px 14px 0;padding-top:14px}\\u000a.uiStreamStory .actorPhoto{margin-bottom:14px;margin-top:14px}\\u000a.uiStreamStory .storyContent .storyInnerContent{margin-left:60px}\\u000a.uiStreamStory .uiStreamSubstory .storyInnerContentSmallPic{margin-left:40px}\\u000a.uiStream .uiStreamHide{margin-top:18px;position:absolute;right:0;top:0}\\u000a.uiStream .substoryHideSelector{float:right;margin:-2px 0 0 0}\\u000a.holdoutAdStory{display:none}\\u000a.holdoutAdStory:first-child + .uiStreamStory{border-top:none}\\u000a.uiStreamStory{padding:0;position:static}\\u000a.homeWiderContent .uiStreamStory{margin-left:-18px;padding-left:18px}\\u000a.uiStream .uiStreamHide .uiSelectorButton, .uiStream a.uiCloseButton.uiStreamHide, .uiStream .uiStreamStory:hover .uiStreamSubstory .uiStreamHide .uiSelectorButton{left:-9999px;position:absolute}\\u000a.uiStream .uiStreamStory:hover .uiStreamHide .uiSelectorButton, .uiStream .uiStreamStory:hover a.uiCloseButton.uiStreamHide, .uiStream .uiStreamStory .uiStreamSubstory:hover .uiStreamHide .uiSelectorButton, .uiStream .uiStreamStory .uiStreamHide .openToggler .uiSelectorButton, .uiStream .uiStreamStory:hover .uiStreamSubstory .uiStreamHide .openToggler .uiSelectorButton{left:auto}\\u000a.uiStream a.uiCloseButton.uiStreamHide.alwaysShowHideButton, .uiStream .uiSelectorButton:focus{left:auto !important}\\u000a.uiStream a.uiCloseButton.uiStreamHide.alwaysShowHideButton.xButtonInTab{background-image:url(https://fbstatic-a.akamaihd.net/rsrc.php/v2/yD/r/AxJIGmlIKJJ.png);background-repeat:no-repeat;background-size:auto;background-position:-143px -161px;height:19px;margin-top:-1px;width:18px}\\u000a.uiStream a.uiCloseButton.uiStreamHide.alwaysShowHideButton.xButtonInTab:hover{background-image:url(https://fbstatic-a.akamaihd.net/rsrc.php/v2/yD/r/AxJIGmlIKJJ.png);background-repeat:no-repeat;background-size:auto;background-position:-162px -161px}\\u000a.uiStreamStory:first-child a.uiCloseButton.uiStreamHide.alwaysShowHideButton.xButtonInTab, .uiStreamStory:first-child a.uiCloseButton.uiStreamHide.alwaysShowHideButton.xButtonInTab:hover{margin-top:0}\\u000a.uiStreamHide .uiStreamContextButton, .uiStreamStory:hover .uiStreamSubstory .uiStreamHide .uiStreamContextButton{left:-9999px;position:absolute}\\u000a.uiStreamStory:hover .uiStreamHide .uiStreamContextButton, .uiStreamStory .uiStreamSubstory:hover .uiStreamHide .uiStreamContextButton, .uiStreamStory .uiStreamHide.openToggler .uiStreamContextButton, .uiStreamStory:hover .uiStreamSubstory .uiStreamHide.openToggler .uiStreamContextButton{left:auto}\\u000a.uiStreamStory .uiStreamContextButton:focus{left:auto !important}\\u000a.uiStream .uiAttachmentDesc, .uiStream .uiStreamPassive, .uiStream .uiStreamRobotextBeforeMessage, .uiStream .uiAdminAttribution{color:gray}\\u000a.uiStream .tagIcon{vertical-align:bottom}\\u000a.uiStream .text_exposed_link{display:block;font-size:11px;padding-left:0;padding-top:4px}\\u000a.storyContent{padding-bottom:2px;position:relative}\\u000a.uiStream .uiStreamStoryHide .storyContent{display:none}\\u000a.uiStream .uiStreamStoryHidden{display:none}\\u000a.uiStreamAttachments .external.photoLink{overflow:hidden;position:relative}\\u000a.uiStreamAttachments .external .linkOverlay{background:url(https://fbstatic-a.akamaihd.net/rsrc.php/v2/yj/r/QijIVO3ZIrO.png) repeat-x 0 0;bottom:0;color:#fff;height:36px;left:0;position:absolute;right:0}\\u000a.uiStreamAttachments .external .shareIcon{bottom:5px;height:16px;position:absolute;right:5px;width:16px}\\u000a.uiStreamAttachments .profilePhotoAttachment, .uiStreamAttachments .external img{max-height:90px;max-width:90px}\\u000a.uiStreamAttachments.streamAttachmentWidePhoto .external img{max-height:210px;max-width:210px}\\u000a.uiStream .uiAttachmentDetails{color:#333}\\u000a.uiAttachmentInline .uiAttachmentTitle, .uiAttachmentInline .uiAttachmentDesc{display:inline}\\u000a.uiStreamMessage .actorName, .uiStreamMessage .passiveName{font-weight:bold}\\u000a.uiStreamMessage .wallArrowIcon{background-image:url(https://fbstatic-a.akamaihd.net/rsrc.php/v2/yO/r/Jsxaj6wDwuy.png);background-repeat:no-repeat;background-size:auto;background-position:-136px -171px;height:9px;margin:0 5px;width:11px}\\u000a.uiAttachmentNoMedia{border-left:2px solid #ccc}\\u000a.uiAttachmentMedia{float:left}\\u000a.uiAttachmentMediaFiles{outline:none;width:100%}\\u000a.uiStreamAttachments .text_exposed .truncatedMediaInfo{clear:both;display:block;padding-left:0;width:auto}\\u000a.uiStreamAttachments .truncatedMediaItem{display:none}\\u000a.uiStreamAttachments .text_exposed .truncatedMediaItem{display:block}\\u000a.uiStreamAttachments .truncatedMediaInfo{display:table;zoom:1}\\u000a.uiStreamCollapsed{border-top:1px solid #eee}\\u000a.uiStreamSubstories li.showAll{line-height:15px;padding:0}\\u000a.uiStreamSubstories li.showAll a{color:#6d84b4;display:block;padding:8px 0 0}\\u000a.uiStreamSubstories .uiUfi{width:350px}\\u000a.uiStream .uiStreamSeparator{background-color:#e9e9e9;border:0;height:7px;margin:6px 0;padding:0;text-align:center}\\u000a.uiStream .uiStreamSeparatorText{background-color:#fff;padding:0 5px;position:relative;top:-4px}\\u000a.uiStream .suppressBorder{border-top:0}\\u000a.uiStreamEdgeStoryLineTx{background-color:#fff;color:#ccc;left:32px;padding:0 8px;position:relative;top:-20px}\\u000a.uiStreamEdgeStoryLine hr{background:#e5e5e5;margin:8px 0 10px 0}\\u000a.uiStreamEdgeStoryLineWithLabel{height:23px;padding-top:1px}\\u000a.uiStreamFooter, .uiStreamSource, .uiStreamSource a, .uiStreamSource .uiLinkSubtle, .uiStreamFooter .uiStreamSource a, .uiStreamFooter .uiStreamSource .uiLinkSubtle, .uiStreamAdditionalLogging, .uiStreamSponsoredLink, .uiStreamPrivacyContainer{color:#999}\\u000a.uiStreamNub{border-bottom:1px solid #c2cbe1;margin-top:2px}\\u000ahtml .uiStreamFooter{display:table-cell}\\u000a.uiStreamFooter{width:10000px}\\u000a.uiStreamHomepage .uiStreamStory:first-child{margin-top:-6px}\\u000a.uiStreamHomepage .uiStreamStory:first-child .actorPhoto{margin-top:18px}\\u000a.uiStreamHomepage .uiStreamStory:first-child .mainWrapper{padding-top:18px}\\u000a.uiStreamActionFooter .UIActionLinks_bottom a{color:#3b5998}\\u000a.uiStream .uiStreamStory .highlightSelector{margin:-2px 10px 0 0}\\u000a.uiStream .uiStreamStory .substoryHideSelector{margin:-2px 0 0}\\u000a.permalink_stream .highlightSelector .uiSelectorMenuWrapper, .uiStream .uiStreamStory .highlightSelector .uiSelectorMenuWrapper{margin:-3px 1px 0 0}\\u000a.permalink_stream .fbStreamPermalinkHeader .highlightSelector{float:right;margin-right:0;margin-top:0}\\u000a.permalink_stream .highlightSelector .highlightSelectorButton{background-image:url(https://fbstatic-a.akamaihd.net/rsrc.php/v2/yD/r/AxJIGmlIKJJ.png);background-repeat:no-repeat;background-size:auto;background-position:-79px -161px;border:0;box-shadow:none;display:inline-block;height:21px;line-height:21px;overflow:hidden;padding:0;text-indent:50px;width:21px}\\u000a.permalink_stream .bigHideButton .highlightSelectorButton{background-image:url(https://fbstatic-a.akamaihd.net/rsrc.php/v2/yD/r/AxJIGmlIKJJ.png);background-repeat:no-repeat;background-size:auto;background-position:0 -161px}\\u000a.uiStream .uiStreamStory .highlightSelector .uiSelectorButton, .uiStream .highlightSelector .highlightSelectorButton{background-image:url(https://fbstatic-a.akamaihd.net/rsrc.php/v2/yY/r/tN0Fmh0Uc5I.png);background-repeat:no-repeat;background-size:auto;background-position:0 -288px}\\u000a.uiStream .bigHideButton .highlightSelectorButton{background-image:url(https://fbstatic-a.akamaihd.net/rsrc.php/v2/yD/r/AxJIGmlIKJJ.png);background-repeat:no-repeat;background-size:auto;background-position:0 -132px}\\u000a.highlightEditSelectorButton{background-image:url(https://fbstatic-a.akamaihd.net/rsrc.php/v2/yD/r/AxJIGmlIKJJ.png);background-repeat:no-repeat;background-size:auto;background-position:-158px -132px}\\u000a.bigHideButton .highlightEditSelectorButton{background-image:url(https://fbstatic-a.akamaihd.net/rsrc.php/v2/yD/r/AxJIGmlIKJJ.png);background-repeat:no-repeat;background-size:auto;background-position:-79px -132px}\\u000a.uiStream .uiStreamStory .highlightSelector .uiSelectorButton, .uiStream .highlightSelector .highlightSelectorButton, .highlightEditSelectorButton{border:0;box-shadow:none;display:inline-block;height:24px;line-height:24px;overflow:hidden;padding:0;text-indent:50px;width:21px}\\u000a.permalink_stream .highlightSelector .highlightSelectorButton, .permalink_stream .highlightSelector .highlightSelectorButton:active, .permalink_stream .highlightSelector .highlightSelectorButton:focus, .permalink_stream .highlightSelector .highlightSelectorButton:hover{background-color:transparent;border:0;height:21px;padding:0;width:21px}\\u000a.permalink_stream .bigHideButton .highlightSelectorButton, .permalink_stream .bigHideButton .highlightSelectorButton:active, .permalink_stream .bigHideButton .highlightSelectorButton:focus, .permalink_stream .bigHideButton .highlightSelectorButton:hover{height:25px;width:26px}\\u000a.uiStream .uiStreamStory .highlightSelector .uiSelectorButton, .uiStream .uiStreamStory .highlightSelector .uiSelectorButton:active, .uiStream .uiStreamStory .highlightSelector .uiSelectorButton:focus, .uiStream .uiStreamStory .highlightSelector .uiSelectorButton:hover, .uiStream .highlightSelector .highlightSelectorButton, .uiStream .highlightSelector .highlightSelectorButton:active, .uiStream .highlightSelector .highlightSelectorButton:focus, .uiStream .highlightSelector .highlightSelectorButton:hover, .highlightSelector .highlightEditSelectorButton{background-color:transparent;border:0;height:24px;padding:0;width:21px}\\u000a.uiStream .uiStreamStory .bigHideButton .uiSelectorButton, .uiStream .uiStreamStory .bigHideButton .uiSelectorButton:active, .uiStream .uiStreamStory .bigHideButton .uiSelectorButton:focus, .uiStream .uiStreamStory .bigHideButton .uiSelectorButton:hover, .uiStream .bigHideButton .highlightSelectorButton, .uiStream .bigHideButton .highlightSelectorButton:active, .uiStream .bigHideButton .highlightSelectorButton:focus, .uiStream .bigHideButton .highlightSelectorButton:hover, .bigHideButton .highlightEditSelectorButton{height:28px;width:26px}\\u000a.permalink_stream .highlightSelector .highlightSelectorButton:hover{background-image:url(https://fbstatic-a.akamaihd.net/rsrc.php/v2/yD/r/AxJIGmlIKJJ.png);background-repeat:no-repeat;background-size:auto;background-position:-100px -161px;border:0;padding:0}\\u000a.permalink_stream .bigHideButton .highlightSelectorButton:hover{background-image:url(https://fbstatic-a.akamaihd.net/rsrc.php/v2/yD/r/AxJIGmlIKJJ.png);background-repeat:no-repeat;background-size:auto;background-position:-26px -161px}\\u000a.uiStream .uiStreamStory .highlightSelector .uiSelectorButton:hover, .highlightSelector .highlightSelectorButton:hover{background-image:url(https://fbstatic-a.akamaihd.net/rsrc.php/v2/yY/r/tN0Fmh0Uc5I.png);background-repeat:no-repeat;background-size:auto;background-position:-21px -288px;border:0;padding:0}\\u000a.uiStream .uiStreamStory .bigHideButton .uiSelectorButton:hover, .bigHideButton .highlightSelectorButton:hover{background-image:url(https://fbstatic-a.akamaihd.net/rsrc.php/v2/yD/r/AxJIGmlIKJJ.png);background-repeat:no-repeat;background-size:auto;background-position:-26px -132px}\\u000a.highlightSelector .highlightEditSelectorButton:hover{background-image:url(https://fbstatic-a.akamaihd.net/rsrc.php/v2/yD/r/AxJIGmlIKJJ.png);background-repeat:no-repeat;background-size:auto;background-position:-179px -132px;border:0;padding:0}\\u000a.bigHideButton .highlightEditSelectorButton:hover{background-image:url(https://fbstatic-a.akamaihd.net/rsrc.php/v2/yD/r/AxJIGmlIKJJ.png);background-repeat:no-repeat;background-size:auto;background-position:-105px -132px}\\u000a.permalink_stream .highlightSelector .openToggler .highlightSelectorButton, .permalink_stream .highlightSelector.openToggler .highlightSelectorButton, .permalink_stream .highlightSelector .openToggler .highlightSelectorButton:hover{background-image:url(https://fbstatic-a.akamaihd.net/rsrc.php/v2/yD/r/AxJIGmlIKJJ.png);background-repeat:no-repeat;background-size:auto;background-position:-121px -161px;background-color:transparent;border:0;height:21px;padding:0;width:21px}\\u000a.permalink_stream .bigHideButton .openToggler .highlightSelectorButton, .permalink_stream .bigHideButton.openToggler .highlightSelectorButton, .permalink_stream .bigHideButton .openToggler .highlightSelectorButton:hover{background-image:url(https://fbstatic-a.akamaihd.net/rsrc.php/v2/yD/r/AxJIGmlIKJJ.png);background-repeat:no-repeat;background-size:auto;background-position:-52px -161px;height:25px;width:26px}\\u000a.uiStream .uiStreamStory .highlightSelector .openToggler .uiSelectorButton, .uiStream .uiStreamStory .highlightSelector .openToggler .uiSelectorButton:hover, .highlightSelector .openToggler .highlightSelectorButton, .highlightSelector.openToggler .highlightSelectorButton, .permalink_stream .highlightSelector .openToggler .highlightEditSelectorButton:hover, .highlightSelector .openToggler .highlightEditSelectorButton, .highlightSelector.openToggler .highlightEditSelectorButton{background-image:url(https://fbstatic-a.akamaihd.net/rsrc.php/v2/yY/r/tN0Fmh0Uc5I.png);background-repeat:no-repeat;background-size:auto;background-position:-42px -288px;background-color:transparent;border:0;height:24px;padding:0;width:21px}\\u000a.uiStream .uiStreamStory .bigHideButton .openToggler .uiSelectorButton, .uiStream .uiStreamStory .bigHideButton .openToggler .uiSelectorButton:hover, .bigHideButton .openToggler .highlightSelectorButton, .bigHideButton.openToggler .highlightSelectorButton, .permalink_stream .bigHideButton .openToggler .highlightEditSelectorButton:hover, .bigHideButton .openToggler .highlightEditSelectorButton, .openToggler.bigHideButton .highlightEditSelectorButton{background-image:url(https://fbstatic-a.akamaihd.net/rsrc.php/v2/yD/r/AxJIGmlIKJJ.png);background-repeat:no-repeat;background-size:auto;background-position:-52px -132px;height:28px;width:26px}\\u000a.highlightSelector .openToggler .highlightEditSelectorButton, .highlightSelector.openToggler .highlightEditSelectorButton, .permalink_stream .highlightSelector .openToggler .highlightEditSelectorButton:hover{background-image:url(https://fbstatic-a.akamaihd.net/rsrc.php/v2/yD/r/AxJIGmlIKJJ.png);background-repeat:no-repeat;background-size:auto;background-position:-200px -132px}\\u000a.bigHideButton .openToggler .highlightEditSelectorButton, .bigHideButton.openToggler .highlightEditSelectorButton, .permalink_stream .bigHideButton .openToggler .highlightEditSelectorButton:hover{background-image:url(https://fbstatic-a.akamaihd.net/rsrc.php/v2/yD/r/AxJIGmlIKJJ.png);background-repeat:no-repeat;background-size:auto;background-position:-131px -132px}\\u000a.uiStreamBoulderThemeAgg .substoryActorPic img, .uiStreamBoulderThemeAgg .uiStreamInlineAction .inlineActionInputPic{height:32px;width:32px}\\u000a.uiStreamBoulderThemeAgg .storyContent{padding-bottom:2px}\\u000a.uiStreamBoulderThemeAgg .uiStreamSubstory{margin:0;padding:5px 0}\\u000a.uiStreamSubstories .uiStreamSubstory div.storyContent{padding-bottom:2px}\\u000a.uiStreamBoulderThemeAgg .uiStreamSubstories > li:first-child .uiStreamSubstory{padding-top:0}\\u000a.uiStreamStory .uiStreamSubstory .storyContent{padding:0}\\u000a.uiStreamLoader{text-align:center}\\u000a.uiStreamBoulderThemeAgg .uiStreamSubstories{margin-top:0;padding-top:0}\\u000a.uiStreamBoulderThemeAgg .uiStreamSubstories .uiStreamShowAll{border-bottom:0;text-align:left}\\u000a.uiStreamBoulderThemeAgg .uiStreamSubstories .uiStreamShowAll span{font-weight:normal}\\u000a.uiStreamBoulderThemeAgg .inlineSubstory .uiStreamSubstory{border-bottom:1px solid #e5e5e5;padding-bottom:10px}\\u000a.uiStreamBoulderThemeAgg .uiStreamAttachments .external{display:block;margin:0;padding-bottom:5px;padding-right:10px}\\u000a.uiStreamBoulderThemeAgg .uiStreamAttachments .external img{max-height:100px;max-width:120px}\\u000a.uiStreamInlineTextarea{display:block;height:19px;width:100%}\\u000a.uiStreamShareLikePageBox{border-top:1px solid #e9e9e9;padding-top:10px}\\u000a.uiStreamShareLikePageBox .uiPageLikeButton{margin-top:4px}\\u000a.uiStreamSubstory .storyInnerContent .rfloat.PageLikeButton, .uiStreamSubstory .storyInnerContent .rfloat .PageLikeButton{margin-right:25px}\\u000a.uiStreamHide .highlightEditSelectorButton.uiStreamContextButton.alwaysShowHideButton, .uiStreamHide .highlightSelectorButton.uiStreamContextButton.alwaysShowHideButton, .uiStreamSubstory .uiStreamHide.substoryHideSelector .uiStreamContextButton.alwaysShowHideButton{background-image:url(https://fbstatic-a.akamaihd.net/rsrc.php/v2/yY/r/tN0Fmh0Uc5I.png);background-repeat:no-repeat;background-size:auto;background-position:-501px -80px;height:7px;left:-4px;margin-top:14px;opacity:.5;width:10px}\\u000a.uiStreamStory .highlightEditSelectorButton.uiStreamContextButton.alwaysShowHideButton:hover, .uiStreamStory .highlightSelectorButton.uiStreamContextButton.alwaysShowHideButton:hover, .uiStreamSubstory .uiStreamHide.substoryHideSelector .uiStreamContextButton.alwaysShowHideButton:hover, .uiStreamStory .openToggler .highlightEditSelectorButton.uiStreamContextButton.alwaysShowHideButton, .uiStreamStory .openToggler .highlightSelectorButton.uiStreamContextButton.alwaysShowHideButton, .uiStreamSubstory .openToggler.uiStreamHide.substoryHideSelector .uiStreamContextButton.alwaysShowHideButton{left:-4px;opacity:.8}\\u000a.uiStreamSubstory .uiStreamHide.substoryHideSelector{margin:-12px 10px 0}\\u000a.uiTextareaNoResize{resize:none}\\u000a.uiTextareaAutogrow{overflow:hidden}\\u000a.fss{font-size:9px}\\u000a.fsm{font-size:11px}\\u000a.fsl{font-size:13px}\\u000a.fsxl{font-size:16px}\\u000a.fsxxl{font-size:18px}\\u000a.fwn{font-weight:normal}\\u000a.fwb{font-weight:bold}\\u000a.fcb{color:#333}\\u000a.fcg{color:gray}\\u000a.fcw{color:#fff}\\u000a.uiUfiAddComment .actorPic{float:left;margin-right:6px}\\u000a.uiUfiAddComment .commentArea{padding:0 !important}\\u000a.uiUfiAddComment .commentBox{padding:0 8px 0 0}\\u000a.uiUfiAddComment .commentBtn{float:right}\\u000a.uiUfiAddComment .textBox{display:block;margin:0;width:100%}\\u000a.child_is_active .uiUfiAddCommentCollapsed .textBox, .child_was_focused .commentArea .inlineShareBox .textBox, .uiUfiAddComment .textBox{height:29px}\\u000a.uiUfiAddCommentCollapsed .textBox{height:14px}\\u000a.hidden_add_comment .uiUfiAddComment, .uiUfiAddCommentCollapsed .actorPic, .uiUfiAddComment .commentBtn, .uiUfiAddCommentCollapsed .sendOnEnterTip, .uiUfiAddCommentCollapsed .commentBoxSubtitle, .commentUndoTip{display:none}\\u000a.child_is_active .uiUfiAddCommentCollapsed .actorPic, .child_is_active .uiUfiAddComment .commentBtn, .child_is_active .sendOnEnterTip, .child_is_active .commentBoxSubtitle, .commentUndone .child_is_focused .commentUndoTip{display:block}\\u000a.commentUndone .commentBoxSubtitle, .commentUndone .sendOnEnterTip{display:none}\\u000a.uiUfiAddTip{padding-top:1px;padding-left:0}\\u000a.collapsed_comments .uiUfi{display:none}\\u000a.uiUfi{padding-top:2px;width:398px;margin:0}\\u000a.uiUfi .ufiItem{background-color:#edeff4;margin-top:1px;padding:5px 5px 4px}\\u000aul.uiUfi .ufiItem{border-bottom:1px solid #d2d9e7}\\u000a.uiUfi .uiUfiSpamItem{background-color:#f6f7fa}\\u000a.uiUfi .uiUfiRemovedSpamItem{background-color:#edeff4}\\u000a.uiUfi .uiUfiSpamItem .actorName, .uiUfi .uiUfiSpamItem .actorPic, .uiUfi .uiUfiSpamItem .commentBody, .uiUfi .uiUfiSpamItem .uiLinkSubtle{opacity:.5}\\u000a.uiUfi .uiUfiUnseenItem{border-left:2px solid #a8b2ce;padding-left:3px}\\u000a.uiUfi .highlightComment{background-color:#fff9d7}\\u000a.uiUfi .ufiNub{margin-bottom:-2px;margin-top:0}\\u000a.uiUfi .ufiNub i{background-image:url(https://fbstatic-a.akamaihd.net/rsrc.php/v2/y7/r/UvyvLtJTQzO.png);background-repeat:no-repeat;background-size:auto;background-position:0 0;display:block;height:5px;margin-left:17px;width:9px}\\u000a.uiUfi .uiUfiViewAll .uiLinkButton, .uiUfi .uiUfiViewReposts a{display:block}\\u000a.uiUfi .uiUfiWrapViewAll .uiLinkButton input{text-align:left;white-space:normal}\\u000a.unclickable{position:relative}\\u000a.unclickable .unclickableMask{background:url(https://fbstatic-a.akamaihd.net/rsrc.php/v2/y4/r/-PAXP-deijE.gif) repeat;height:100%;left:0;position:absolute;top:0;width:100%;z-index:10}\\u000a.uiVideoThumb{border:0;display:inline-block;overflow:hidden;position:relative}\\u000a.uiVideoThumb img{display:inline-block;max-height:130px;max-width:130px}\\u000a.uiVideoThumb img[width]{max-width:auto}\\u000a.uiVideoThumb i{background:url(https://fbstatic-a.akamaihd.net/rsrc.php/v2/yG/r/Gj2ad6O09TZ.png) no-repeat 0 0;bottom:5px;height:26px;left:5px;position:absolute;width:35px}\\u000a.uiVideoThumbSmall i{background-image:url(https://fbstatic-a.akamaihd.net/rsrc.php/v2/yN/r/aERK2-5sOBX.png);bottom:3px;height:22px;left:3px;width:27px}\\u000a.uiVideoThumbTiny i{background-image:url(https://fbstatic-a.akamaihd.net/rsrc.php/v2/yr/r/AF1Uwjj81fI.png);bottom:3px;height:17px;width:21px;left:3px}\\u000a.uiVideoThumbLoading i{background:url(https://fbstatic-a.akamaihd.net/rsrc.php/v2/y9/r/jKEcVPZFk-2.gif) no-repeat 50% 50%;bottom:0;height:100%;left:0;width:100%}\\u000a.uiVideoThumbSmall.uiVideoThumbLoading i, .uiVideoThumbTiny.uiVideoThumbLoading i{background-image:url(https://fbstatic-a.akamaihd.net/rsrc.php/v2/yb/r/GsNJNwuI-UM.gif)}\\u000a.uiVideoThumbLoading img{opacity:.15}\\u000a.UFICommentContent .uiStreamAttachments .uiVideoThumbParentExpanded{min-height:250px}\\u000a.uiVideoThumbLarge img{background:#F2F2F2 no-repeat 50% 50%;max-height:168px;max-width:300px}\\u000a.uiVideoThumbLarge i{background:url(https://fbstatic-a.akamaihd.net/rsrc.php/v2/yG/r/Gj2ad6O09TZ.png) no-repeat 0 0;height:26px;left:50%;margin:-13px 0 0 -17px;position:absolute;top:50%;width:35px}\\u000a.uiVideoThumbHuge i{background:url(https://fbstatic-a.akamaihd.net/rsrc.php/v2/yI/r/CQWPMUMZZVm.png) no-repeat 0 0;height:62px;left:50%;margin:-31px 0 0 -46px;position:absolute;top:50%;width:92px}\\u000a.dummy{}.sp_7578s6{background-image:url(https://fbstatic-a.akamaihd.net/rsrc.php/v2/yO/r/Jsxaj6wDwuy.png);background-size:auto;background-repeat:no-repeat;display:inline-block;height:14px;width:16px}\\u000a.sx_149503{height:16px;background-position:-334px -10px}\\u000a.sx_d9d217{width:1px;height:42px;background-position:-264px -10px}\\u000a.sx_99645c{width:1px;height:4px;background-position:-253px -83px}\\u000a.sx_afb8bc{height:16px;background-position:-112px -130px}\\u000a.sx_d23d4a{width:14px;background-position:-197px -69px}\\u000a.sx_f1e34b{width:14px;background-position:-223px -61px}\\u000a.sx_6c25e3{width:14px;background-position:-249px -61px}\\u000a.sx_e2ce33{height:16px;background-position:-129px -130px}\\u000a.sx_a8bbb7{height:10px;background-position:-296px -101px}\\u000a.sx_061f6d{width:9px;height:10px;background-position:-108px -184px}\\u000a.sx_83f8a3{width:28px;height:28px;background-position:-295px -53px}\\u000a.sx_b7b49b{width:28px;height:28px;background-position:-112px -101px}\\u000a.sx_f9137d{width:8px;height:12px;background-position:-78px -152px}\\u000a.sx_5bffaa{width:7px;background-position:-840px -402px}\\u000a.sx_47bdc2{width:13px;height:11px;background-position:-313px -147px}\\u000a.sx_b77078{width:9px;height:6px;background-position:-243px -83px}\\u000a.sx_fec16b{width:14px;background-position:-262px -147px}\\u000a.sx_ab2c5b{height:9px;background-position:-313px -101px}\\u000a.sx_b766b0{height:9px;background-position:-330px -101px}\\u000a.sx_af25c2{height:9px;background-position:-316px -130px}\\u000a.sx_cbac4b{width:9px;height:16px;background-position:-194px -147px}\\u000a.sx_7f2d59{width:9px;height:16px;background-position:-204px -147px}\\u000a.sx_33f1e9{height:9px;background-position:-333px -130px}\\u000a.sx_fbf185{width:34px;height:34px;background-position:-266px -10px}\\u000a.sx_336aa7{width:11px;background-position:-339px -114px}\\u000a.sx_6694f7{width:10px;height:10px;background-position:-341px -147px}\\u000a.sx_e85db9{width:9px;height:11px;background-position:-126px -171px}\\u000a.sx_bbf237{width:11px;height:11px;background-position:-78px -171px}\\u000a.sx_0a5bee{width:11px;height:11px;background-position:-90px -171px}\\u000a.sx_c7356e{height:16px;background-position:-146px -130px}\\u000a.sx_6a267a{width:13px;background-position:-277px -147px}\\u000a.sx_ba445f{background-position:-334px -27px}\\u000a.sx_e69f84{width:12px;height:12px;background-position:-208px -101px}\\u000a.selected .sx_e69f84{background-position:-195px -101px}\\u000a.sx_a520e5{width:12px;height:12px;background-position:-234px -101px}\\u000a.selected .sx_a520e5{background-position:-221px -101px}\\u000a.sx_8109a8{width:12px;height:12px;background-position:-260px -101px}\\u000a.selected .sx_8109a8{background-position:-247px -101px}\\u000a.sx_fbf6a5{width:11px;background-position:-152px -114px}\\u000a.selected .sx_fbf6a5{background-position:-141px -114px}\\u000a.sx_631465{width:9px;background-position:-238px -114px}\\u000a.selected .sx_631465{background-position:-229px -114px}\\u000a.sx_56e3a5{width:9px;background-position:-257px -114px}\\u000a.selected .sx_56e3a5{background-position:-248px -114px}\\u000a.sx_0d58b0{width:5px;background-position:-296px -147px}\\u000a.selected .sx_0d58b0{background-position:-291px -147px}\\u000a.sx_862fd9{width:9px;background-position:-276px -114px}\\u000a.selected .sx_862fd9{background-position:-267px -114px}\\u000a.sx_c64043{width:8px;background-position:-313px -114px}\\u000a.selected .sx_c64043{background-position:-305px -114px}\\u000a.sx_328130{width:10px;background-position:-197px -114px}\\u000a.selected .sx_328130{background-position:-187px -114px}\\u000a.sx_dbdc48{width:5px;background-position:-307px -147px}\\u000a.selected .sx_dbdc48{background-position:-302px -147px}\\u000a.sx_d01246{width:9px;background-position:-295px -114px}\\u000a.selected .sx_d01246{background-position:-286px -114px}\\u000a.sx_bee593{width:11px;background-position:-175px -114px}\\u000a.selected .sx_bee593{background-position:-164px -114px}\\u000a.sx_be0ee7{width:10px;background-position:-218px -114px}\\u000a.selected .sx_be0ee7{background-position:-208px -114px}\\u000a.sx_7b43da{width:8px;background-position:-330px -114px}\\u000a.selected .sx_7b43da{background-position:-322px -114px}\\u000a.sx_7ab24e{width:8px;background-position:-307px -130px}\\u000a.selected .sx_7ab24e{background-position:-299px -130px}\\u000a.sx_c98499{width:9px;height:5px;background-position:-286px -45px}\\u000a.sx_d2a14c{width:5px;height:3px;background-position:-296px -45px}\\u000a.sx_0bc59c{height:16px;background-position:-163px -130px}\\u000a.sx_c15a79{width:13px;height:12px;background-position:-154px -101px}\\u000a.selected .sx_c15a79{background-position:-141px -101px}\\u000a.sx_dcba26{width:13px;height:12px;background-position:-181px -101px}\\u000a.selected .sx_dcba26{background-position:-168px -101px}\\u000a.sx_dbbf82{width:13px;height:10px;background-position:-327px -147px}\\u000a.sx_e190ca{width:12px;height:11px;background-position:-65px -171px}\\u000a.sx_e2fdb0{height:16px;background-position:-180px -130px}\\u000a.sx_a04ad6{height:16px;background-position:-197px -130px}\\u000a.sx_03433f{width:11px;height:11px;background-position:-102px -171px}\\u000a.sx_265078{height:16px;background-position:-214px -130px}\\u000a.sx_c6e97c{width:11px;height:9px;background-position:-136px -171px}\\u000a.sx_08df0a{width:22px;height:12px;background-position:-273px -101px}\\u000a.sx_6a91c1{width:19px;height:5px;background-position:-266px -45px}\\u000a.sx_2f31bd{height:16px;background-position:-231px -130px}\\u000a.sx_902079{height:16px;background-position:-248px -130px}\\u000a.sx_be9f42{width:32px;height:32px;background-position:-301px -10px}\\u000a.sx_2ed881{width:7px;height:7px;background-position:-227px -91px}\\u000a.sx_277277{width:7px;height:11px;background-position:-29px -184px}\\u000a.sx_1dde1b{width:8px;height:1px;background-position:-206px -5px}\\u000a.sx_c73f24{width:8px;height:1px;background-position:-215px -5px}\\u000a.sx_8022f6{width:9px;height:9px;background-position:-148px -171px}\\u000a.sx_5c30f3{width:7px;height:11px;background-position:-37px -184px}\\u000a.sx_490d45{width:205px;height:4px;background-position:0 -5px}\\u000a.sx_bf1b6c{width:7px;height:7px;background-position:-235px -91px}\\u000a.sx_a3c946{width:7px;height:11px;background-position:-45px -184px}\\u000a.sx_b1f61d{width:20px;height:20px;background-position:-92px -147px}\\u000a.sx_74345c{width:20px;height:20px;background-position:-113px -147px}\\u000a.sx_1ffea4{width:14px;background-position:-275px -61px}\\u000a.sx_e9e24a{width:20px;height:20px;background-position:-134px -147px}\\u000a.sx_2145a7{width:27px;height:45px;background-position:0 -101px}\\u000a.sx_c02b28{width:27px;height:45px;background-position:-28px -101px}\\u000a.sx_c66e7d{width:27px;height:45px;background-position:-56px -101px}\\u000a.sx_375aef{width:27px;height:45px;background-position:-84px -101px}\\u000a.sx_f06692{height:16px;background-position:-176px -148px}\\u000a.sx_830262{width:13px;height:13px;background-position:-215px -148px}\\u000a.sx_0d96d0{width:13px;height:13px;background-position:-231px -148px}\\u000a.sx_8123cf{width:13px;height:13px;background-position:-247px -148px}\\u000a.sx_5ee2f5{width:20px;height:20px;background-position:-51px -148px}\\u000a.sx_11b713{width:17px;height:17px;background-position:-156px -148px}\\u000a.sx_ad0f38{width:25px;height:25px;background-position:-325px -54px}\\u000a.sx_22a680{width:14px;background-position:-266px -131px}\\u000a.sx_97b8c2{width:14px;background-position:-283px -131px}\\u000a.sx_8e30b5{width:24px;height:23px;background-position:0 -147px}\\u000a.sx_d493c8{width:46px;height:42px;background-position:-217px -10px}\\u000a.sx_69d94f{width:24px;height:23px;background-position:-25px -147px}\\u000a.sx_2c562e{width:14px;height:7px;background-position:-217px -83px}\\u000a.sx_48f140{width:25px;height:50px;background-position:-191px -10px}\\u000a.sx_3f3804{width:11px;height:11px;background-position:-114px -171px}\\u000a.sx_bbcdf8{width:851px;height:4px;background-position:0 0}\\u000a.sx_5935a8{width:9px;height:8px;background-position:-200px -91px}\\u000a.selected .sx_5935a8{background-position:-191px -91px}\\u000a.sx_ce6bab{width:12px;height:12px;background-position:0 -171px}\\u000a.sx_5e4a0e{width:12px;height:12px;background-position:-13px -171px}\\u000a.sx_f2791d{width:12px;height:12px;background-position:-26px -171px}\\u000a.sx_88403f{width:12px;height:12px;background-position:-39px -171px}\\u000a.sx_3be89f{width:12px;height:12px;background-position:-52px -171px}\\u000a.sx_84c39f{width:10px;height:10px;background-position:-53px -184px}\\u000a.sx_4cb636{width:10px;height:10px;background-position:-64px -184px}\\u000a.sx_95e4c8{width:10px;height:10px;background-position:-75px -184px}\\u000a.sx_985899{width:10px;height:10px;background-position:-86px -184px}\\u000a.sx_6f186e{width:10px;height:10px;background-position:-97px -184px}\\u000a.sx_1009ae{width:500px;height:48px;background-position:-352px -5px}\\u000a.sx_5aa466{width:500px;height:48px;background-position:-352px -54px}\\u000a.sx_07ca41{width:500px;height:48px;background-position:-352px -103px}\\u000a.sx_e58bb0{width:500px;height:48px;background-position:-352px -152px}\\u000a.sx_56ac35{width:500px;height:48px;background-position:-352px -201px}\\u000a.sx_7616a8{width:500px;height:48px;background-position:-352px -250px}\\u000a.sx_4789cf{width:500px;height:48px;background-position:-352px -299px}\\u000a.sx_5392f5{width:500px;height:48px;background-position:-352px -348px}\\u000a.sx_c7c944{width:5px;height:7px;background-position:-237px -83px}\\u000a.selected .sx_c7c944{background-position:-232px -83px}\\u000a.sx_28873e{width:5px;height:3px;background-position:-302px -45px}\\u000a.sx_198f0b{height:8px;background-position:-210px -91px}\\u000a.sx_c8b972{width:9px;height:12px;background-position:-11px -184px}\\u000a.sx_1c25f8{width:10px;height:12px;background-position:0 -184px}\\u000a.sx_97dc83{width:7px;height:12px;background-position:-21px -184px}\\u000a.sx_ca3730{width:190px;height:90px;background-position:0 -10px}.sp_8acw43{background-image:url(https://fbstatic-a.akamaihd.net/rsrc.php/v2/yx/r/82hRtF5gWWf.png);background-size:auto;background-repeat:no-repeat;display:inline-block;height:16px;width:16px}\\u000a.sx_eec67f{width:15px;height:64px;background-position:-268px -59px}\\u000a.sx_77d79d{width:26px;height:24px;background-position:-267px -222px}\\u000a.sx_39bc13{width:26px;height:24px;background-position:0 -464px}\\u000a.sx_8af928{width:11px;height:14px;background-position:-301px -44px}\\u000a.sx_a503da{width:22px;height:25px;background-position:-24px -524px}\\u000a.sx_cf036d{width:22px;height:25px;background-position:-47px -524px}\\u000a.sx_4f6fe7{width:249px;height:2px;background-position:0 -250px}\\u000a.sx_55a4da{width:255px;height:2px;background-position:0 -247px}\\u000a.sx_dec00e{width:36px;height:36px;background-position:-268px -124px}\\u000a.sx_b3129a{width:8px;height:13px;background-position:-144px -550px}\\u000a.sx_7960e0{width:8px;height:13px;background-position:-153px -550px}\\u000a.sx_20f331{width:21px;height:25px;background-position:-139px -524px}\\u000a.sx_b7bb59{width:21px;height:25px;background-position:-161px -524px}\\u000a.sx_4ccc3a{width:10px;height:9px;background-position:-301px -402px}\\u000a.sx_e74650{width:14px;height:13px;background-position:-122px -411px}\\u000a.sx_0a4957{width:14px;height:13px;background-position:-156px -411px}\\u000a.sx_92e92e{width:10px;height:12px;background-position:-203px -310px}\\u000a.sx_5b3769{width:10px;height:12px;background-position:-203px -342px}\\u000a.sx_49c7e7{width:14px;height:10px;background-position:-190px -411px}\\u000a.sx_72f28a{width:14px;height:10px;background-position:-10px -444px}\\u000a.sx_071f5e{width:7px;height:12px;background-position:-304px -301px}\\u000a.sx_db1618{width:8px;height:12px;background-position:0 -167px}\\u000a.sx_996a50{width:8px;height:12px;background-position:0 -67px}\\u000a.sx_6f3850{width:17px;background-position:0 -551px}\\u000a.sx_ca7265{width:7px;height:14px;background-position:0 -195px}\\u000a.sx_254736{width:7px;height:14px;background-position:0 -225px}\\u000a.sx_f232d7{width:11px;height:10px;background-position:-181px -308px}\\u000a.sx_8767c1{width:22px;height:25px;background-position:-70px -524px}\\u000a.sx_880e7f{width:22px;height:25px;background-position:-93px -524px}\\u000a.sx_a4c76b{width:22px;height:25px;background-position:-116px -524px}\\u000a.sx_28498c{width:10px;height:10px;background-position:-52px -464px}\\u000a.sx_646990{width:34px;height:34px;background-position:-267px -187px}\\u000a.sx_e2ddf4{width:100px;height:100px;background-position:0 -300px}\\u000a.sx_a32125{width:11px;height:4px;background-position:-300px -9px}\\u000a.sx_4e5be2{width:10px;height:11px;background-position:-54px -793px}\\u000a.sx_906c51{width:10px;height:11px;background-position:-70px -793px}\\u000a.sx_f22223{width:11px;height:4px;background-position:-300px -31px}\\u000a.sx_39d510{background-position:-26px -568px}\\u000a.sx_a446a9{background-position:-43px -568px}\\u000a.sx_10525e{background-position:-60px -568px}\\u000a.sx_6a178c{background-position:-77px -568px}\\u000a.sx_cd46bb{background-position:-94px -568px}\\u000a.sx_587837{background-position:-111px -568px}\\u000a.sx_41b3ed{background-position:-128px -568px}\\u000a.sx_3fbda6{background-position:-145px -568px}\\u000a.sx_dd2d8a{background-position:-162px -568px}\\u000a.sx_6ee178{background-position:-179px -568px}\\u000a.sx_3fd496{background-position:-196px -568px}\\u000a.sx_34cadc{background-position:-213px -568px}\\u000a.sx_4fe900{background-position:-230px -568px}\\u000a.sx_10104a{background-position:-247px -568px}\\u000a.sx_f0d382{background-position:-264px -568px}\\u000a.sx_e65869{background-position:-281px -568px}\\u000a.sx_11625f{background-position:0 -586px}\\u000a.sx_e4c512{background-position:-17px -586px}\\u000a.sx_a2fb61{background-position:-34px -586px}\\u000a.sx_2290e6{background-position:-51px -586px}\\u000a.sx_1affe5{background-position:-68px -586px}\\u000a.sx_dea4d2{background-position:-85px -586px}\\u000a.sx_b05428{background-position:-102px -586px}\\u000a.sx_c77364{background-position:-119px -586px}\\u000a.sx_06e86a{background-position:-136px -586px}\\u000a.sx_d8f9f4{background-position:-153px -586px}\\u000a.sx_1ff98e{background-position:-170px -586px}\\u000a.sx_7b0f6c{background-position:-187px -586px}\\u000a.sx_3235aa{background-position:-204px -586px}\\u000a.sx_230f13{background-position:-221px -586px}\\u000a.sx_d6450f{background-position:-238px -586px}\\u000a.sx_aa030e{background-position:-255px -586px}\\u000a.sx_419a88{background-position:-272px -586px}\\u000a.sx_a1ceb6{background-position:-289px -586px}\\u000a.sx_7b8120{background-position:0 -603px}\\u000a.sx_2c5519{background-position:-17px -603px}\\u000a.sx_33b159{background-position:-34px -603px}\\u000a.sx_a52584{background-position:-51px -603px}\\u000a.sx_f8f926{background-position:-68px -603px}\\u000a.sx_000d52{background-position:-85px -603px}\\u000a.sx_3068dc{background-position:-102px -603px}\\u000a.sx_03d4cf{background-position:-119px -603px}\\u000a.sx_5e22e4{background-position:-136px -603px}\\u000a.sx_d350fe{background-position:-153px -603px}\\u000a.sx_872ef6{background-position:-170px -603px}\\u000a.sx_fa103e{background-position:-187px -603px}\\u000a.sx_7ef888{background-position:-204px -603px}\\u000a.sx_9c71ab{background-position:-221px -603px}\\u000a.sx_9e80b9{background-position:-238px -603px}\\u000a.sx_4d55a6{background-position:-255px -603px}\\u000a.sx_c64b1d{background-position:-272px -603px}\\u000a.sx_4a9042{background-position:-289px -603px}\\u000a.sx_d3cb9f{background-position:0 -620px}\\u000a.sx_493b51{background-position:-17px -620px}\\u000a.sx_170421{background-position:-34px -620px}\\u000a.sx_4ae7ab{background-position:-51px -620px}\\u000a.sx_caf015{background-position:-68px -620px}\\u000a.sx_61dfce{background-position:-85px -620px}\\u000a.sx_3e3b97{background-position:-102px -620px}\\u000a.sx_ad80c0{background-position:-119px -620px}\\u000a.sx_8d4dfa{background-position:-136px -620px}\\u000a.sx_6278ed{background-position:-153px -620px}\\u000a.sx_fa9a8b{background-position:-170px -620px}\\u000a.sx_6ac84d{background-position:-187px -620px}\\u000a.sx_b1e81e{background-position:-204px -620px}\\u000a.sx_853fcc{background-position:-221px -620px}\\u000a.sx_494fce{background-position:-238px -620px}\\u000a.sx_f6ae81{background-position:-255px -620px}\\u000a.sx_8ed069{background-position:-272px -620px}\\u000a.sx_2f4745{background-position:-289px -620px}\\u000a.sx_21e455{background-position:0 -637px}\\u000a.sx_6c44ea{background-position:-17px -637px}\\u000a.sx_2d2e2d{background-position:-34px -637px}\\u000a.sx_206d53{background-position:-51px -637px}\\u000a.sx_ed0637{background-position:-68px -637px}\\u000a.sx_498f32{background-position:-85px -637px}\\u000a.sx_d5fd19{background-position:-102px -637px}\\u000a.sx_42f02f{background-position:-119px -637px}\\u000a.sx_5b609d{background-position:-136px -637px}\\u000a.sx_6aa031{background-position:-153px -637px}\\u000a.sx_33b3b7{background-position:-170px -637px}\\u000a.sx_41c10d{background-position:-187px -637px}\\u000a.sx_a17a37{background-position:-204px -637px}\\u000a.sx_8f4077{background-position:-221px -637px}\\u000a.sx_d16ff6{background-position:-238px -637px}\\u000a.sx_4ea0e2{background-position:-255px -637px}\\u000a.sx_c44bbb{background-position:-272px -637px}\\u000a.sx_7b7b4f{background-position:-289px -637px}\\u000a.sx_45cda7{background-position:0 -654px}\\u000a.sx_ed0ca4{background-position:-17px -654px}\\u000a.sx_fdb318{background-position:-34px -654px}\\u000a.sx_36cde6{background-position:-51px -654px}\\u000a.sx_7f5325{background-position:-68px -654px}\\u000a.sx_e64d4f{background-position:-85px -654px}\\u000a.sx_1e440a{background-position:-102px -654px}\\u000a.sx_4d08f9{background-position:-119px -654px}\\u000a.sx_7647fd{background-position:-136px -654px}\\u000a.sx_1426df{background-position:-153px -654px}\\u000a.sx_fd154b{background-position:-170px -654px}\\u000a.sx_ea2e9c{background-position:-187px -654px}\\u000a.sx_fa5339{background-position:-204px -654px}\\u000a.sx_099072{background-position:-221px -654px}\\u000a.sx_65ebf6{background-position:-238px -654px}\\u000a.sx_49492d{background-position:-255px -654px}\\u000a.sx_82ffa8{background-position:-272px -654px}\\u000a.sx_ee8619{background-position:-289px -654px}\\u000a.sx_c5566c{background-position:0 -671px}\\u000a.sx_ed9659{background-position:-17px -671px}\\u000a.sx_97182d{background-position:-34px -671px}\\u000a.sx_093173{background-position:-51px -671px}\\u000a.sx_03d61c{background-position:-68px -671px}\\u000a.sx_2ae896{background-position:-85px -671px}\\u000a.sx_f07c49{background-position:-102px -671px}\\u000a.sx_1a16dd{background-position:-119px -671px}\\u000a.sx_136983{background-position:-136px -671px}\\u000a.sx_292b61{background-position:-153px -671px}\\u000a.sx_c02a3a{background-position:-170px -671px}\\u000a.sx_7a38a8{background-position:-187px -671px}\\u000a.sx_431d54{background-position:-204px -671px}\\u000a.sx_a77a67{background-position:-221px -671px}\\u000a.sx_eaa17b{background-position:-238px -671px}\\u000a.sx_70e835{background-position:-255px -671px}\\u000a.sx_a4b4f3{background-position:-272px -671px}\\u000a.sx_2adf63{background-position:-289px -671px}\\u000a.sx_96a325{background-position:0 -688px}\\u000a.sx_8a3701{background-position:-17px -688px}\\u000a.sx_744e79{background-position:-34px -688px}\\u000a.sx_5c1535{background-position:-51px -688px}\\u000a.sx_7fd1a2{background-position:-68px -688px}\\u000a.sx_b401f2{background-position:-85px -688px}\\u000a.sx_9ea938{background-position:-102px -688px}\\u000a.sx_c7cb8f{background-position:-119px -688px}\\u000a.sx_c4eafd{background-position:-136px -688px}\\u000a.sx_385e9c{background-position:-153px -688px}\\u000a.sx_9fb87f{background-position:-170px -688px}\\u000a.sx_12d40e{background-position:-187px -688px}\\u000a.sx_c189c2{background-position:-204px -688px}\\u000a.sx_8eb235{background-position:-221px -688px}\\u000a.sx_c02642{background-position:-238px -688px}\\u000a.sx_bae267{background-position:-255px -688px}\\u000a.sx_e31d77{background-position:-272px -688px}\\u000a.sx_daf982{background-position:-289px -688px}\\u000a.sx_563788{background-position:0 -705px}\\u000a.sx_09e3a6{background-position:-17px -705px}\\u000a.sx_66bd53{background-position:-34px -705px}\\u000a.sx_408d42{background-position:-51px -705px}\\u000a.sx_cc401a{background-position:-68px -705px}\\u000a.sx_d8bb93{background-position:-85px -705px}\\u000a.sx_c86933{background-position:-102px -705px}\\u000a.sx_c411d6{background-position:-119px -705px}\\u000a.sx_530183{background-position:-136px -705px}\\u000a.sx_fb9f72{background-position:-153px -705px}\\u000a.sx_9207a0{background-position:-170px -705px}\\u000a.sx_f2b40f{background-position:-187px -705px}\\u000a.sx_59cf42{background-position:-204px -705px}\\u000a.sx_9e255c{background-position:-221px -705px}\\u000a.sx_74d2e7{background-position:-238px -705px}\\u000a.sx_09a6c6{background-position:-255px -705px}\\u000a.sx_731d2b{background-position:-272px -705px}\\u000a.sx_57139f{background-position:-289px -705px}\\u000a.sx_9db084{background-position:0 -722px}\\u000a.sx_b4ad01{background-position:-17px -722px}\\u000a.sx_0331f6{background-position:-34px -722px}\\u000a.sx_54593e{background-position:-51px -722px}\\u000a.sx_6f8ea5{background-position:-68px -722px}\\u000a.sx_1e290b{background-position:-85px -722px}\\u000a.sx_5f15b0{background-position:-102px -722px}\\u000a.sx_17aac7{background-position:-119px -722px}\\u000a.sx_d9e81a{background-position:-136px -722px}\\u000a.sx_527f4c{background-position:-153px -722px}\\u000a.sx_527b51{background-position:-170px -722px}\\u000a.sx_1473f3{background-position:-187px -722px}\\u000a.sx_20ee95{background-position:-204px -722px}\\u000a.sx_3c643d{background-position:-221px -722px}\\u000a.sx_3ee1dc{background-position:-238px -722px}\\u000a.sx_1468b6{background-position:-255px -722px}\\u000a.sx_3bafd9{background-position:-272px -722px}\\u000a.sx_74377a{background-position:-289px -722px}\\u000a.sx_a6bfd1{background-position:0 -739px}\\u000a.sx_247b24{background-position:-17px -739px}\\u000a.sx_07fb7d{background-position:-34px -739px}\\u000a.sx_b8d7cd{background-position:-51px -739px}\\u000a.sx_0f4ff0{background-position:-68px -739px}\\u000a.sx_01ca78{background-position:-85px -739px}\\u000a.sx_a59524{background-position:-102px -739px}\\u000a.sx_c5ba6b{background-position:-119px -739px}\\u000a.sx_a25f35{background-position:-136px -739px}\\u000a.sx_d925a5{background-position:-153px -739px}\\u000a.sx_646778{background-position:-170px -739px}\\u000a.sx_5074fb{background-position:-187px -739px}\\u000a.sx_7e8f10{background-position:-204px -739px}\\u000a.sx_c5a1ea{background-position:-221px -739px}\\u000a.sx_d00232{background-position:-238px -739px}\\u000a.sx_a3ab9e{background-position:-255px -739px}\\u000a.sx_3051a8{background-position:-272px -739px}\\u000a.sx_06a208{background-position:-289px -739px}\\u000a.sx_c62a3c{background-position:0 -756px}\\u000a.sx_908ac8{background-position:-17px -756px}\\u000a.sx_710fc0{background-position:-34px -756px}\\u000a.sx_bbcfde{background-position:-51px -756px}\\u000a.sx_472fde{background-position:-68px -756px}\\u000a.sx_b45e2f{background-position:-85px -756px}\\u000a.sx_daec9e{background-position:-102px -756px}\\u000a.sx_2bc7d6{background-position:-119px -756px}\\u000a.sx_27cc5b{background-position:-136px -756px}\\u000a.sx_6eeef4{background-position:-153px -756px}\\u000a.sx_b544c6{background-position:-170px -756px}\\u000a.sx_304eaa{background-position:-187px -756px}\\u000a.sx_5fcecb{background-position:-204px -756px}\\u000a.sx_cd3e1a{background-position:-221px -756px}\\u000a.sx_9db3d7{background-position:-238px -756px}\\u000a.sx_91bb6f{background-position:-255px -756px}\\u000a.sx_90553e{background-position:-272px -756px}\\u000a.sx_f8a701{background-position:-289px -756px}\\u000a.sx_960b4a{background-position:0 -773px}\\u000a.sx_1f64c5{background-position:-17px -773px}\\u000a.sx_398dee{background-position:-34px -773px}\\u000a.sx_ad8c6d{background-position:-51px -773px}\\u000a.sx_228391{background-position:-68px -773px}\\u000a.sx_2c453e{background-position:-85px -773px}\\u000a.sx_080a55{background-position:-52px -550px}\\u000a.sx_16ade7{background-position:-102px -773px}\\u000a.sx_6cee43{background-position:-119px -773px}\\u000a.sx_432dbb{background-position:-136px -773px}\\u000a.sx_81f701{background-position:-153px -773px}\\u000a.sx_63fe1d{width:14px;background-position:-99px -790px}\\u000a.sx_a7659e{background-position:-170px -773px}\\u000a.sx_a444f4{background-position:-187px -773px}\\u000a.sx_df1f36{background-position:-204px -773px}\\u000a.sx_cd25ca{background-position:-221px -773px}\\u000a.sx_e0ab1b{background-position:-238px -773px}\\u000a.sx_34a992{background-position:-255px -773px}\\u000a.sx_549404{background-position:-272px -773px}\\u000a.sx_30b218{background-position:-289px -773px}\\u000a.sx_fd0383{width:14px;height:14px;background-position:-282px -161px}\\u000a.selected .sx_fd0383{background-position:-268px -161px}\\u000a.sx_1448ea{width:12px;height:14px;background-position:-218px -253px}\\u000a.selected .sx_1448ea{background-position:-206px -253px}\\u000a.sx_45c600{width:10px;height:14px;background-position:-301px -491px}\\u000a.selected .sx_45c600{background-position:-291px -491px}\\u000a.sx_05d2d7{width:12px;height:14px;background-position:-243px -253px}\\u000a.selected .sx_05d2d7{background-position:-231px -253px}\\u000a.sx_ccfa45{width:10px;height:14px;background-position:-262px -524px}\\u000a.selected .sx_ccfa45{background-position:-252px -524px}\\u000a.sx_c7185a{width:11px;height:14px;background-position:-194px -524px}\\u000a.selected .sx_c7185a{background-position:-183px -524px}\\u000a.sx_a9934e{width:8px;height:14px;background-position:-96px -550px}\\u000a.selected .sx_a9934e{background-position:-88px -550px}\\u000a.sx_1b133e{width:12px;height:14px;background-position:-268px -253px}\\u000a.selected .sx_1b133e{background-position:-256px -253px}\\u000a.sx_8b7e6f{width:9px;height:13px;background-position:-301px -524px}\\u000a.selected .sx_8b7e6f{background-position:-292px -524px}\\u000a.sx_9c334c{width:12px;height:14px;background-position:-293px -253px}\\u000a.selected .sx_9c334c{background-position:-281px -253px}\\u000a.sx_73416a{width:9px;height:14px;background-position:-282px -524px}\\u000a.selected .sx_73416a{background-position:-273px -524px}\\u000a.sx_98ea6e{width:9px;height:12px;background-position:-59px -475px}\\u000a.selected .sx_98ea6e{background-position:-50px -475px}\\u000a.sx_9e8596{width:12px;height:10px;background-position:-39px -464px}\\u000a.selected .sx_9e8596{background-position:-27px -464px}\\u000a.sx_a70566{width:11px;height:12px;background-position:-38px -475px}\\u000a.selected .sx_a70566{background-position:-27px -475px}\\u000a.sx_18a84b{width:11px;height:14px;background-position:-217px -524px}\\u000a.selected .sx_18a84b{background-position:-206px -524px}\\u000a.sx_dc795e{width:11px;height:14px;background-position:-240px -524px}\\u000a.selected .sx_dc795e{background-position:-229px -524px}\\u000a.sx_96696d{width:11px;height:12px;background-position:-87px -475px}\\u000a.sx_426319{width:13px;height:10px;background-position:-281px -176px}\\u000a.selected .sx_426319{background-position:-268px -176px}\\u000a.sx_bea0fb{height:10px;background-position:-295px -176px}\\u000a.sx_fa844b{background-position:0 -790px}\\u000a.sx_e78ee8{background-position:-17px -790px}\\u000a.sx_16c12b{width:17px;height:12px;background-position:-69px -475px}\\u000a.sx_810739{background-position:-34px -790px}\\u000a.sx_2c9242{width:12px;height:11px;background-position:-111px -475px}\\u000a.sx_8311b5{width:28px;height:28px;background-position:-193px -364px}\\u000a.sx_304275{width:28px;height:28px;background-position:-34px -434px}\\u000a.sx_c4c1c6{width:28px;height:28px;background-position:-63px -434px}\\u000a.sx_5ae73d{width:28px;height:28px;background-position:-92px -434px}\\u000a.sx_411eb9{width:28px;height:28px;background-position:-121px -434px}\\u000a.sx_ee58cd{width:28px;height:28px;background-position:-150px -434px}\\u000a.sx_b9f7fa{width:205px;height:4px;background-position:0 -253px}\\u000a.sx_5ac00a{width:205px;height:4px;background-position:0 -258px}\\u000a.sx_943ff6{width:6px;height:9px;background-position:-305px -124px}\\u000a.sx_015b83{width:6px;height:9px;background-position:-305px -134px}\\u000a.sx_1417dd{width:8px;height:7px;background-position:-81px -464px}\\u000a.sx_8f50cf{width:8px;height:7px;background-position:-90px -464px}\\u000a.sx_f9620f{width:8px;height:7px;background-position:-99px -464px}\\u000a.sx_0cece8{width:6px;height:9px;background-position:-305px -144px}\\u000a.sx_387a18{width:13px;height:13px;background-position:-272px -497px}\\u000a.sx_a93b4f{width:13px;height:13px;background-position:-5px -530px}\\u000a.sx_dcb4ce{width:28px;height:28px;background-position:-179px -434px}\\u000a.sx_c73b4d{width:28px;height:28px;background-position:-180px -491px}\\u000a.sx_c94ff0{width:32px;height:32px;background-position:0 -491px}\\u000a.sx_96453a{width:32px;height:32px;background-position:-33px -491px}\\u000a.sx_9cf096{width:13px;height:14px;background-position:-289px -101px}\\u000a.sx_f92d8d{width:13px;height:14px;background-position:-137px -500px}\\u000a.sx_9af064{width:13px;height:14px;background-position:-161px -500px}\\u000a.sx_bcfb66{width:12px;height:17px;background-position:0 -568px}\\u000a.sx_6568ec{width:12px;height:17px;background-position:-13px -568px}\\u000a.sx_cfd018{height:17px;background-position:-18px -550px}\\u000a.sx_d57806{height:17px;background-position:-35px -550px}\\u000a.sx_fc75ec{width:24px;height:32px;background-position:-14px -401px}\\u000a.sx_5a0d15{width:24px;height:32px;background-position:-70px -401px}\\u000a.sx_bc6c79{width:1px;height:28px;background-position:-222px -364px}\\u000a.sx_8f5786{width:17px;height:14px;background-position:-70px -550px}\\u000a.sx_fc0179{width:5px;height:28px;background-position:-292px -59px}\\u000a.sx_20b820{width:5px;height:28px;background-position:-298px -59px}\\u000a.sx_26e1d1{width:28px;height:28px;background-position:-209px -491px}\\u000a.sx_38c920{width:28px;height:28px;background-position:-238px -491px}\\u000a.sx_42e29b{width:7px;height:8px;background-position:-304px -268px}\\u000a.sx_220a85{width:7px;height:8px;background-position:-304px -277px}\\u000a.sx_c756bf{width:151px;height:30px;background-position:0 -268px}\\u000a.sx_4412a9{width:12px;height:13px;background-position:-105px -550px}\\u000a.sx_3177ff{width:12px;height:13px;background-position:-118px -550px}\\u000a.sx_230cfc{width:12px;height:13px;background-position:-131px -550px}\\u000a.sx_c197f2{width:1px;height:21px;background-position:-304px -59px}\\u000a.sx_77f562{width:12px;height:21px;background-position:-294px -222px}\\u000a.sx_34f884{width:12px;height:21px;background-position:-208px -434px}\\u000a.sx_be6637{width:151px;height:30px;background-position:-152px -268px}\\u000a.sx_e39cea{width:205px;height:4px;background-position:0 -263px}\\u000a.sx_7dd52c{width:13px;height:13px;background-position:-76px -501px}\\u000a.sx_5dd7bf{width:13px;height:13px;background-position:-109px -501px}\\u000a.sx_2db71f{width:13px;height:14px;background-position:-297px -161px}\\u000a.sx_e5159f{width:8px;height:10px;background-position:-63px -464px}\\u000a.sx_a98f28{width:8px;height:10px;background-position:-72px -464px}\\u000a.sx_26f69c{width:8px;height:14px;background-position:-302px -187px}\\u000a.sx_bbe7c0{width:8px;height:14px;background-position:-302px -202px}\\u000a.sx_fa2714{width:15px;background-position:-83px -790px}\\u000a.sx_df2b67{width:11px;height:12px;background-position:-99px -475px}\\u000a.sx_4350dc{width:3px;height:32px;background-position:-284px -59px}\\u000a.sx_127d15{width:3px;height:32px;background-position:-288px -59px}.sp_a13o6m{background-image:url(https://fbstatic-a.akamaihd.net/rsrc.php/v2/yM/r/1HqyLuL51Ly.png);background-size:auto;background-repeat:no-repeat;display:inline-block;height:32px;width:32px}\\u000a.sx_697373{width:11px;height:11px;background-position:-17px -253px}\\u000a.sx_d129f5{width:16px;height:17px;background-position:0 -211px}\\u000a.sx_2a848b{width:16px;height:16px;background-position:0 -229px}\\u000a.sx_fae843{width:12px;height:11px;background-position:-19px -198px}\\u000a.sx_80b8b0{background-position:0 0}\\u000a.sx_e11f14{width:9px;height:12px;background-position:-9px -198px}\\u000a.selected .sx_e11f14{background-position:0 -198px}\\u000a.sx_92ea07{width:8px;height:12px;background-position:-8px -246px}\\u000a.selected .sx_92ea07{background-position:0 -246px}\\u000a.sx_b2446c{background-position:0 -33px}\\u000a.sx_059b5d{background-position:0 -66px}\\u000a.sx_b687ec{background-position:0 -99px}\\u000a.sx_fcbf4c{background-position:0 -132px}\\u000a.sx_c395b5{background-position:0 -165px}\\u000a.sx_555350{width:9px;height:13px;background-position:-17px -211px}\\u000a.sx_cadc0f{width:9px;height:13px;background-position:-17px -225px}\\u000a.sx_e608a6{width:9px;height:13px;background-position:-17px -239px}\\u000a.sx_770c84{width:8px;height:8px;background-position:-8px -259px}\\u000a.selected .sx_770c84{background-position:0 -259px}.sp_8acw43{background-image:url(https://fbstatic-a.akamaihd.net/rsrc.php/v2/yx/r/82hRtF5gWWf.png);background-size:auto;background-repeat:no-repeat;display:inline-block;height:16px;width:16px}\\u000a.sx_eec67f{width:15px;height:64px;background-position:-268px -59px}\\u000a.sx_77d79d{width:26px;height:24px;background-position:-267px -222px}\\u000a.sx_39bc13{width:26px;height:24px;background-position:0 -464px}\\u000a.sx_8af928{width:11px;height:14px;background-position:-301px -44px}\\u000a.sx_a503da{width:22px;height:25px;background-position:-24px -524px}\\u000a.sx_cf036d{width:22px;height:25px;background-position:-47px -524px}\\u000a.sx_4f6fe7{width:249px;height:2px;background-position:0 -250px}\\u000a.sx_55a4da{width:255px;height:2px;background-position:0 -247px}\\u000a.sx_dec00e{width:36px;height:36px;background-position:-268px -124px}\\u000a.sx_b3129a{width:8px;height:13px;background-position:-144px -550px}\\u000a.sx_7960e0{width:8px;height:13px;background-position:-153px -550px}\\u000a.sx_20f331{width:21px;height:25px;background-position:-139px -524px}\\u000a.sx_b7bb59{width:21px;height:25px;background-position:-161px -524px}\\u000a.sx_4ccc3a{width:10px;height:9px;background-position:-301px -402px}\\u000a.sx_e74650{width:14px;height:13px;background-position:-122px -411px}\\u000a.sx_0a4957{width:14px;height:13px;background-position:-156px -411px}\\u000a.sx_92e92e{width:10px;height:12px;background-position:-203px -310px}\\u000a.sx_5b3769{width:10px;height:12px;background-position:-203px -342px}\\u000a.sx_49c7e7{width:14px;height:10px;background-position:-190px -411px}\\u000a.sx_72f28a{width:14px;height:10px;background-position:-10px -444px}\\u000a.sx_071f5e{width:7px;height:12px;background-position:-304px -301px}\\u000a.sx_db1618{width:8px;height:12px;background-position:0 -167px}\\u000a.sx_996a50{width:8px;height:12px;background-position:0 -67px}\\u000a.sx_6f3850{width:17px;background-position:0 -551px}\\u000a.sx_ca7265{width:7px;height:14px;background-position:0 -195px}\\u000a.sx_254736{width:7px;height:14px;background-position:0 -225px}\\u000a.sx_f232d7{width:11px;height:10px;background-position:-181px -308px}\\u000a.sx_8767c1{width:22px;height:25px;background-position:-70px -524px}\\u000a.sx_880e7f{width:22px;height:25px;background-position:-93px -524px}\\u000a.sx_a4c76b{width:22px;height:25px;background-position:-116px -524px}\\u000a.sx_28498c{width:10px;height:10px;background-position:-52px -464px}\\u000a.sx_646990{width:34px;height:34px;background-position:-267px -187px}\\u000a.sx_e2ddf4{width:100px;height:100px;background-position:0 -300px}\\u000a.sx_a32125{width:11px;height:4px;background-position:-300px -9px}\\u000a.sx_4e5be2{width:10px;height:11px;background-position:-54px -793px}\\u000a.sx_906c51{width:10px;height:11px;background-position:-70px -793px}\\u000a.sx_f22223{width:11px;height:4px;background-position:-300px -31px}\\u000a.sx_39d510{background-position:-26px -568px}\\u000a.sx_a446a9{background-position:-43px -568px}\\u000a.sx_10525e{background-position:-60px -568px}\\u000a.sx_6a178c{background-position:-77px -568px}\\u000a.sx_cd46bb{background-position:-94px -568px}\\u000a.sx_587837{background-position:-111px -568px}\\u000a.sx_41b3ed{background-position:-128px -568px}\\u000a.sx_3fbda6{background-position:-145px -568px}\\u000a.sx_dd2d8a{background-position:-162px -568px}\\u000a.sx_6ee178{background-position:-179px -568px}\\u000a.sx_3fd496{background-position:-196px -568px}\\u000a.sx_34cadc{background-position:-213px -568px}\\u000a.sx_4fe900{background-position:-230px -568px}\\u000a.sx_10104a{background-position:-247px -568px}\\u000a.sx_f0d382{background-position:-264px -568px}\\u000a.sx_e65869{background-position:-281px -568px}\\u000a.sx_11625f{background-position:0 -586px}\\u000a.sx_e4c512{background-position:-17px -586px}\\u000a.sx_a2fb61{background-position:-34px -586px}\\u000a.sx_2290e6{background-position:-51px -586px}\\u000a.sx_1affe5{background-position:-68px -586px}\\u000a.sx_dea4d2{background-position:-85px -586px}\\u000a.sx_b05428{background-position:-102px -586px}\\u000a.sx_c77364{background-position:-119px -586px}\\u000a.sx_06e86a{background-position:-136px -586px}\\u000a.sx_d8f9f4{background-position:-153px -586px}\\u000a.sx_1ff98e{background-position:-170px -586px}\\u000a.sx_7b0f6c{background-position:-187px -586px}\\u000a.sx_3235aa{background-position:-204px -586px}\\u000a.sx_230f13{background-position:-221px -586px}\\u000a.sx_d6450f{background-position:-238px -586px}\\u000a.sx_aa030e{background-position:-255px -586px}\\u000a.sx_419a88{background-position:-272px -586px}\\u000a.sx_a1ceb6{background-position:-289px -586px}\\u000a.sx_7b8120{background-position:0 -603px}\\u000a.sx_2c5519{background-position:-17px -603px}\\u000a.sx_33b159{background-position:-34px -603px}\\u000a.sx_a52584{background-position:-51px -603px}\\u000a.sx_f8f926{background-position:-68px -603px}\\u000a.sx_000d52{background-position:-85px -603px}\\u000a.sx_3068dc{background-position:-102px -603px}\\u000a.sx_03d4cf{background-position:-119px -603px}\\u000a.sx_5e22e4{background-position:-136px -603px}\\u000a.sx_d350fe{background-position:-153px -603px}\\u000a.sx_872ef6{background-position:-170px -603px}\\u000a.sx_fa103e{background-position:-187px -603px}\\u000a.sx_7ef888{background-position:-204px -603px}\\u000a.sx_9c71ab{background-position:-221px -603px}\\u000a.sx_9e80b9{background-position:-238px -603px}\\u000a.sx_4d55a6{background-position:-255px -603px}\\u000a.sx_c64b1d{background-position:-272px -603px}\\u000a.sx_4a9042{background-position:-289px -603px}\\u000a.sx_d3cb9f{background-position:0 -620px}\\u000a.sx_493b51{background-position:-17px -620px}\\u000a.sx_170421{background-position:-34px -620px}\\u000a.sx_4ae7ab{background-position:-51px -620px}\\u000a.sx_caf015{background-position:-68px -620px}\\u000a.sx_61dfce{background-position:-85px -620px}\\u000a.sx_3e3b97{background-position:-102px -620px}\\u000a.sx_ad80c0{background-position:-119px -620px}\\u000a.sx_8d4dfa{background-position:-136px -620px}\\u000a.sx_6278ed{background-position:-153px -620px}\\u000a.sx_fa9a8b{background-position:-170px -620px}\\u000a.sx_6ac84d{background-position:-187px -620px}\\u000a.sx_b1e81e{background-position:-204px -620px}\\u000a.sx_853fcc{background-position:-221px -620px}\\u000a.sx_494fce{background-position:-238px -620px}\\u000a.sx_f6ae81{background-position:-255px -620px}\\u000a.sx_8ed069{background-position:-272px -620px}\\u000a.sx_2f4745{background-position:-289px -620px}\\u000a.sx_21e455{background-position:0 -637px}\\u000a.sx_6c44ea{background-position:-17px -637px}\\u000a.sx_2d2e2d{background-position:-34px -637px}\\u000a.sx_206d53{background-position:-51px -637px}\\u000a.sx_ed0637{background-position:-68px -637px}\\u000a.sx_498f32{background-position:-85px -637px}\\u000a.sx_d5fd19{background-position:-102px -637px}\\u000a.sx_42f02f{background-position:-119px -637px}\\u000a.sx_5b609d{background-position:-136px -637px}\\u000a.sx_6aa031{background-position:-153px -637px}\\u000a.sx_33b3b7{background-position:-170px -637px}\\u000a.sx_41c10d{background-position:-187px -637px}\\u000a.sx_a17a37{background-position:-204px -637px}\\u000a.sx_8f4077{background-position:-221px -637px}\\u000a.sx_d16ff6{background-position:-238px -637px}\\u000a.sx_4ea0e2{background-position:-255px -637px}\\u000a.sx_c44bbb{background-position:-272px -637px}\\u000a.sx_7b7b4f{background-position:-289px -637px}\\u000a.sx_45cda7{background-position:0 -654px}\\u000a.sx_ed0ca4{background-position:-17px -654px}\\u000a.sx_fdb318{background-position:-34px -654px}\\u000a.sx_36cde6{background-position:-51px -654px}\\u000a.sx_7f5325{background-position:-68px -654px}\\u000a.sx_e64d4f{background-position:-85px -654px}\\u000a.sx_1e440a{background-position:-102px -654px}\\u000a.sx_4d08f9{background-position:-119px -654px}\\u000a.sx_7647fd{background-position:-136px -654px}\\u000a.sx_1426df{background-position:-153px -654px}\\u000a.sx_fd154b{background-position:-170px -654px}\\u000a.sx_ea2e9c{background-position:-187px -654px}\\u000a.sx_fa5339{background-position:-204px -654px}\\u000a.sx_099072{background-position:-221px -654px}\\u000a.sx_65ebf6{background-position:-238px -654px}\\u000a.sx_49492d{background-position:-255px -654px}\\u000a.sx_82ffa8{background-position:-272px -654px}\\u000a.sx_ee8619{background-position:-289px -654px}\\u000a.sx_c5566c{background-position:0 -671px}\\u000a.sx_ed9659{background-position:-17px -671px}\\u000a.sx_97182d{background-position:-34px -671px}\\u000a.sx_093173{background-position:-51px -671px}\\u000a.sx_03d61c{background-position:-68px -671px}\\u000a.sx_2ae896{background-position:-85px -671px}\\u000a.sx_f07c49{background-position:-102px -671px}\\u000a.sx_1a16dd{background-position:-119px -671px}\\u000a.sx_136983{background-position:-136px -671px}\\u000a.sx_292b61{background-position:-153px -671px}\\u000a.sx_c02a3a{background-position:-170px -671px}\\u000a.sx_7a38a8{background-position:-187px -671px}\\u000a.sx_431d54{background-position:-204px -671px}\\u000a.sx_a77a67{background-position:-221px -671px}\\u000a.sx_eaa17b{background-position:-238px -671px}\\u000a.sx_70e835{background-position:-255px -671px}\\u000a.sx_a4b4f3{background-position:-272px -671px}\\u000a.sx_2adf63{background-position:-289px -671px}\\u000a.sx_96a325{background-position:0 -688px}\\u000a.sx_8a3701{background-position:-17px -688px}\\u000a.sx_744e79{background-position:-34px -688px}\\u000a.sx_5c1535{background-position:-51px -688px}\\u000a.sx_7fd1a2{background-position:-68px -688px}\\u000a.sx_b401f2{background-position:-85px -688px}\\u000a.sx_9ea938{background-position:-102px -688px}\\u000a.sx_c7cb8f{background-position:-119px -688px}\\u000a.sx_c4eafd{background-position:-136px -688px}\\u000a.sx_385e9c{background-position:-153px -688px}\\u000a.sx_9fb87f{background-position:-170px -688px}\\u000a.sx_12d40e{background-position:-187px -688px}\\u000a.sx_c189c2{background-position:-204px -688px}\\u000a.sx_8eb235{background-position:-221px -688px}\\u000a.sx_c02642{background-position:-238px -688px}\\u000a.sx_bae267{background-position:-255px -688px}\\u000a.sx_e31d77{background-position:-272px -688px}\\u000a.sx_daf982{background-position:-289px -688px}\\u000a.sx_563788{background-position:0 -705px}\\u000a.sx_09e3a6{background-position:-17px -705px}\\u000a.sx_66bd53{background-position:-34px -705px}\\u000a.sx_408d42{background-position:-51px -705px}\\u000a.sx_cc401a{background-position:-68px -705px}\\u000a.sx_d8bb93{background-position:-85px -705px}\\u000a.sx_c86933{background-position:-102px -705px}\\u000a.sx_c411d6{background-position:-119px -705px}\\u000a.sx_530183{background-position:-136px -705px}\\u000a.sx_fb9f72{background-position:-153px -705px}\\u000a.sx_9207a0{background-position:-170px -705px}\\u000a.sx_f2b40f{background-position:-187px -705px}\\u000a.sx_59cf42{background-position:-204px -705px}\\u000a.sx_9e255c{background-position:-221px -705px}\\u000a.sx_74d2e7{background-position:-238px -705px}\\u000a.sx_09a6c6{background-position:-255px -705px}\\u000a.sx_731d2b{background-position:-272px -705px}\\u000a.sx_57139f{background-position:-289px -705px}\\u000a.sx_9db084{background-position:0 -722px}\\u000a.sx_b4ad01{background-position:-17px -722px}\\u000a.sx_0331f6{background-position:-34px -722px}\\u000a.sx_54593e{background-position:-51px -722px}\\u000a.sx_6f8ea5{background-position:-68px -722px}\\u000a.sx_1e290b{background-position:-85px -722px}\\u000a.sx_5f15b0{background-position:-102px -722px}\\u000a.sx_17aac7{background-position:-119px -722px}\\u000a.sx_d9e81a{background-position:-136px -722px}\\u000a.sx_527f4c{background-position:-153px -722px}\\u000a.sx_527b51{background-position:-170px -722px}\\u000a.sx_1473f3{background-position:-187px -722px}\\u000a.sx_20ee95{background-position:-204px -722px}\\u000a.sx_3c643d{background-position:-221px -722px}\\u000a.sx_3ee1dc{background-position:-238px -722px}\\u000a.sx_1468b6{background-position:-255px -722px}\\u000a.sx_3bafd9{background-position:-272px -722px}\\u000a.sx_74377a{background-position:-289px -722px}\\u000a.sx_a6bfd1{background-position:0 -739px}\\u000a.sx_247b24{background-position:-17px -739px}\\u000a.sx_07fb7d{background-position:-34px -739px}\\u000a.sx_b8d7cd{background-position:-51px -739px}\\u000a.sx_0f4ff0{background-position:-68px -739px}\\u000a.sx_01ca78{background-position:-85px -739px}\\u000a.sx_a59524{background-position:-102px -739px}\\u000a.sx_c5ba6b{background-position:-119px -739px}\\u000a.sx_a25f35{background-position:-136px -739px}\\u000a.sx_d925a5{background-position:-153px -739px}\\u000a.sx_646778{background-position:-170px -739px}\\u000a.sx_5074fb{background-position:-187px -739px}\\u000a.sx_7e8f10{background-position:-204px -739px}\\u000a.sx_c5a1ea{background-position:-221px -739px}\\u000a.sx_d00232{background-position:-238px -739px}\\u000a.sx_a3ab9e{background-position:-255px -739px}\\u000a.sx_3051a8{background-position:-272px -739px}\\u000a.sx_06a208{background-position:-289px -739px}\\u000a.sx_c62a3c{background-position:0 -756px}\\u000a.sx_908ac8{background-position:-17px -756px}\\u000a.sx_710fc0{background-position:-34px -756px}\\u000a.sx_bbcfde{background-position:-51px -756px}\\u000a.sx_472fde{background-position:-68px -756px}\\u000a.sx_b45e2f{background-position:-85px -756px}\\u000a.sx_daec9e{background-position:-102px -756px}\\u000a.sx_2bc7d6{background-position:-119px -756px}\\u000a.sx_27cc5b{background-position:-136px -756px}\\u000a.sx_6eeef4{background-position:-153px -756px}\\u000a.sx_b544c6{background-position:-170px -756px}\\u000a.sx_304eaa{background-position:-187px -756px}\\u000a.sx_5fcecb{background-position:-204px -756px}\\u000a.sx_cd3e1a{background-position:-221px -756px}\\u000a.sx_9db3d7{background-position:-238px -756px}\\u000a.sx_91bb6f{background-position:-255px -756px}\\u000a.sx_90553e{background-position:-272px -756px}\\u000a.sx_f8a701{background-position:-289px -756px}\\u000a.sx_960b4a{background-position:0 -773px}\\u000a.sx_1f64c5{background-position:-17px -773px}\\u000a.sx_398dee{background-position:-34px -773px}\\u000a.sx_ad8c6d{background-position:-51px -773px}\\u000a.sx_228391{background-position:-68px -773px}\\u000a.sx_2c453e{background-position:-85px -773px}\\u000a.sx_080a55{background-position:-52px -550px}\\u000a.sx_16ade7{background-position:-102px -773px}\\u000a.sx_6cee43{background-position:-119px -773px}\\u000a.sx_432dbb{background-position:-136px -773px}\\u000a.sx_81f701{background-position:-153px -773px}\\u000a.sx_63fe1d{width:14px;background-position:-99px -790px}\\u000a.sx_a7659e{background-position:-170px -773px}\\u000a.sx_a444f4{background-position:-187px -773px}\\u000a.sx_df1f36{background-position:-204px -773px}\\u000a.sx_cd25ca{background-position:-221px -773px}\\u000a.sx_e0ab1b{background-position:-238px -773px}\\u000a.sx_34a992{background-position:-255px -773px}\\u000a.sx_549404{background-position:-272px -773px}\\u000a.sx_30b218{background-position:-289px -773px}\\u000a.sx_fd0383{width:14px;height:14px;background-position:-282px -161px}\\u000a.selected .sx_fd0383{background-position:-268px -161px}\\u000a.sx_1448ea{width:12px;height:14px;background-position:-218px -253px}\\u000a.selected .sx_1448ea{background-position:-206px -253px}\\u000a.sx_45c600{width:10px;height:14px;background-position:-301px -491px}\\u000a.selected .sx_45c600{background-position:-291px -491px}\\u000a.sx_05d2d7{width:12px;height:14px;background-position:-243px -253px}\\u000a.selected .sx_05d2d7{background-position:-231px -253px}\\u000a.sx_ccfa45{width:10px;height:14px;background-position:-262px -524px}\\u000a.selected .sx_ccfa45{background-position:-252px -524px}\\u000a.sx_c7185a{width:11px;height:14px;background-position:-194px -524px}\\u000a.selected .sx_c7185a{background-position:-183px -524px}\\u000a.sx_a9934e{width:8px;height:14px;background-position:-96px -550px}\\u000a.selected .sx_a9934e{background-position:-88px -550px}\\u000a.sx_1b133e{width:12px;height:14px;background-position:-268px -253px}\\u000a.selected .sx_1b133e{background-position:-256px -253px}\\u000a.sx_8b7e6f{width:9px;height:13px;background-position:-301px -524px}\\u000a.selected .sx_8b7e6f{background-position:-292px -524px}\\u000a.sx_9c334c{width:12px;height:14px;background-position:-293px -253px}\\u000a.selected .sx_9c334c{background-position:-281px -253px}\\u000a.sx_73416a{width:9px;height:14px;background-position:-282px -524px}\\u000a.selected .sx_73416a{background-position:-273px -524px}\\u000a.sx_98ea6e{width:9px;height:12px;background-position:-59px -475px}\\u000a.selected .sx_98ea6e{background-position:-50px -475px}\\u000a.sx_9e8596{width:12px;height:10px;background-position:-39px -464px}\\u000a.selected .sx_9e8596{background-position:-27px -464px}\\u000a.sx_a70566{width:11px;height:12px;background-position:-38px -475px}\\u000a.selected .sx_a70566{background-position:-27px -475px}\\u000a.sx_18a84b{width:11px;height:14px;background-position:-217px -524px}\\u000a.selected .sx_18a84b{background-position:-206px -524px}\\u000a.sx_dc795e{width:11px;height:14px;background-position:-240px -524px}\\u000a.selected .sx_dc795e{background-position:-229px -524px}\\u000a.sx_96696d{width:11px;height:12px;background-position:-87px -475px}\\u000a.sx_426319{width:13px;height:10px;background-position:-281px -176px}\\u000a.selected .sx_426319{background-position:-268px -176px}\\u000a.sx_bea0fb{height:10px;background-position:-295px -176px}\\u000a.sx_fa844b{background-position:0 -790px}\\u000a.sx_e78ee8{background-position:-17px -790px}\\u000a.sx_16c12b{width:17px;height:12px;background-position:-69px -475px}\\u000a.sx_810739{background-position:-34px -790px}\\u000a.sx_2c9242{width:12px;height:11px;background-position:-111px -475px}\\u000a.sx_8311b5{width:28px;height:28px;background-position:-193px -364px}\\u000a.sx_304275{width:28px;height:28px;background-position:-34px -434px}\\u000a.sx_c4c1c6{width:28px;height:28px;background-position:-63px -434px}\\u000a.sx_5ae73d{width:28px;height:28px;background-position:-92px -434px}\\u000a.sx_411eb9{width:28px;height:28px;background-position:-121px -434px}\\u000a.sx_ee58cd{width:28px;height:28px;background-position:-150px -434px}\\u000a.sx_b9f7fa{width:205px;height:4px;background-position:0 -253px}\\u000a.sx_5ac00a{width:205px;height:4px;background-position:0 -258px}\\u000a.sx_943ff6{width:6px;height:9px;background-position:-305px -124px}\\u000a.sx_015b83{width:6px;height:9px;background-position:-305px -134px}\\u000a.sx_1417dd{width:8px;height:7px;background-position:-81px -464px}\\u000a.sx_8f50cf{width:8px;height:7px;background-position:-90px -464px}\\u000a.sx_f9620f{width:8px;height:7px;background-position:-99px -464px}\\u000a.sx_0cece8{width:6px;height:9px;background-position:-305px -144px}\\u000a.sx_387a18{width:13px;height:13px;background-position:-272px -497px}\\u000a.sx_a93b4f{width:13px;height:13px;background-position:-5px -530px}\\u000a.sx_dcb4ce{width:28px;height:28px;background-position:-179px -434px}\\u000a.sx_c73b4d{width:28px;height:28px;background-position:-180px -491px}\\u000a.sx_c94ff0{width:32px;height:32px;background-position:0 -491px}\\u000a.sx_96453a{width:32px;height:32px;background-position:-33px -491px}\\u000a.sx_9cf096{width:13px;height:14px;background-position:-289px -101px}\\u000a.sx_f92d8d{width:13px;height:14px;background-position:-137px -500px}\\u000a.sx_9af064{width:13px;height:14px;background-position:-161px -500px}\\u000a.sx_bcfb66{width:12px;height:17px;background-position:0 -568px}\\u000a.sx_6568ec{width:12px;height:17px;background-position:-13px -568px}\\u000a.sx_cfd018{height:17px;background-position:-18px -550px}\\u000a.sx_d57806{height:17px;background-position:-35px -550px}\\u000a.sx_fc75ec{width:24px;height:32px;background-position:-14px -401px}\\u000a.sx_5a0d15{width:24px;height:32px;background-position:-70px -401px}\\u000a.sx_bc6c79{width:1px;height:28px;background-position:-222px -364px}\\u000a.sx_8f5786{width:17px;height:14px;background-position:-70px -550px}\\u000a.sx_fc0179{width:5px;height:28px;background-position:-292px -59px}\\u000a.sx_20b820{width:5px;height:28px;background-position:-298px -59px}\\u000a.sx_26e1d1{width:28px;height:28px;background-position:-209px -491px}\\u000a.sx_38c920{width:28px;height:28px;background-position:-238px -491px}\\u000a.sx_42e29b{width:7px;height:8px;background-position:-304px -268px}\\u000a.sx_220a85{width:7px;height:8px;background-position:-304px -277px}\\u000a.sx_c756bf{width:151px;height:30px;background-position:0 -268px}\\u000a.sx_4412a9{width:12px;height:13px;background-position:-105px -550px}\\u000a.sx_3177ff{width:12px;height:13px;background-position:-118px -550px}\\u000a.sx_230cfc{width:12px;height:13px;background-position:-131px -550px}\\u000a.sx_c197f2{width:1px;height:21px;background-position:-304px -59px}\\u000a.sx_77f562{width:12px;height:21px;background-position:-294px -222px}\\u000a.sx_34f884{width:12px;height:21px;background-position:-208px -434px}\\u000a.sx_be6637{width:151px;height:30px;background-position:-152px -268px}\\u000a.sx_e39cea{width:205px;height:4px;background-position:0 -263px}\\u000a.sx_7dd52c{width:13px;height:13px;background-position:-76px -501px}\\u000a.sx_5dd7bf{width:13px;height:13px;background-position:-109px -501px}\\u000a.sx_2db71f{width:13px;height:14px;background-position:-297px -161px}\\u000a.sx_e5159f{width:8px;height:10px;background-position:-63px -464px}\\u000a.sx_a98f28{width:8px;height:10px;background-position:-72px -464px}\\u000a.sx_26f69c{width:8px;height:14px;background-position:-302px -187px}\\u000a.sx_bbe7c0{width:8px;height:14px;background-position:-302px -202px}\\u000a.sx_fa2714{width:15px;background-position:-83px -790px}\\u000a.sx_df2b67{width:11px;height:12px;background-position:-99px -475px}\\u000a.sx_4350dc{width:3px;height:32px;background-position:-284px -59px}\\u000a.sx_127d15{width:3px;height:32px;background-position:-288px -59px}.sp_ek2zwx{background-image:url(https://fbstatic-a.akamaihd.net/rsrc.php/v2/yM/r/BbwAtXH3qiw.png);background-size:auto;background-repeat:no-repeat;display:inline-block;height:16px;width:15px}\\u000a.sx_99999a{width:16px;background-position:-16px 0}\\u000a.selected .sx_99999a{background-position:0 0}\\u000a.sx_8f5a80{height:14px;background-position:0 -34px}\\u000a.sx_973956{height:15px;background-position:-17px -17px}\\u000a.sx_4035e2{width:16px;background-position:0 -17px}.sp_1dl6ko{background-image:url(https://fbstatic-a.akamaihd.net/rsrc.php/v2/yY/r/tN0Fmh0Uc5I.png);background-size:auto;background-repeat:no-repeat;display:inline-block;height:30px;width:29px}\\u000a.sx_db5df3{width:17px;height:17px;background-position:-137px -288px}\\u000a.sx_0a7408{width:17px;height:17px;background-position:-155px -288px}\\u000a.sx_4230e8{width:17px;height:17px;background-position:-173px -288px}\\u000a.sx_2bc050{background-position:-43px -337px}\\u000a.sx_bfd794{background-position:-73px -337px}\\u000a.sx_e3cb1b{width:15px;height:24px;background-position:-102px -312px}\\u000a.sx_6b280d{background-position:-103px -337px}\\u000a.sx_3846ba{background-position:-133px -337px}\\u000a.sx_79edac{background-position:-163px -337px}\\u000a.sx_456c84{background-position:-193px -337px}\\u000a.sx_1fac1e{background-position:-223px -337px}\\u000a.sx_f5d6ed{background-position:-253px -337px}\\u000a.sx_f45318{background-position:-283px -337px}\\u000a.sx_9b1786{background-position:-313px -337px}\\u000a.sx_c98ac1{width:26px;height:26px;background-position:-343px -337px}\\u000a.sx_8ac04f{width:42px;height:42px;background-position:0 -337px}\\u000a.sx_aa0659{width:11px;height:11px;background-position:-501px -49px}\\u000a.sx_3fd447{width:12px;height:13px;background-position:0 -108px}\\u000a.sx_e19ba0{width:12px;height:13px;background-position:0 -122px}\\u000a.sx_549b09{width:11px;height:12px;background-position:-501px -10px}\\u000a.sx_be89bc{width:12px;height:13px;background-position:0 -136px}\\u000a.sx_c04a6c{width:16px;height:12px;background-position:-276px -288px}\\u000a.sx_7cbbd0{width:16px;height:20px;background-position:-80px -288px}\\u000a.sx_052388{width:15px;height:10px;background-position:-49px -265px}\\u000a.sx_cdc78e{width:3px;height:2px;background-position:-509px -255px}\\u000a.sx_1f38c7{width:10px;height:7px;background-position:-501px -80px}\\u000a.sx_40c422{width:10px;height:7px;background-position:-501px -88px}\\u000a.sx_9d2b9b{width:19px;height:19px;background-position:-97px -288px}\\u000a.sx_abc211{width:19px;height:19px;background-position:-117px -288px}\\u000a.sx_bd3e26{width:12px;height:12px;background-position:-13px -265px}\\u000a.selected .sx_bd3e26{background-position:0 -265px}\\u000a.sx_8fe129{width:8px;height:10px;background-position:-2px -151px}\\u000a.sx_5fce93{width:16px;height:16px;background-position:-191px -288px}\\u000a.sx_0eea55{width:16px;height:16px;background-position:-208px -288px}\\u000a.sx_8d07d7{width:16px;height:16px;background-position:-225px -288px}\\u000a.sx_098e60{width:16px;height:15px;background-position:-259px -288px}\\u000a.sx_6f24bc{width:10px;height:8px;background-position:-501px -71px}\\u000a.sx_9b4d05{width:12px;height:10px;background-position:0 -163px}\\u000a.sx_6bd93f{width:15px;height:13px;background-position:-118px -312px}\\u000a.sx_126ca7{width:16px;height:16px;background-position:-242px -288px}\\u000a.sx_089ab6{width:22px;height:11px;background-position:-26px -265px}\\u000a.sx_a3412a{width:10px;height:9px;background-position:-501px -61px}\\u000a.sx_56c926{width:11px;height:12px;background-position:-501px -23px}\\u000a.sx_c5bbd4{width:13px;height:13px;background-position:-134px -312px}\\u000a.sx_669e1b{width:13px;height:13px;background-position:-148px -312px}\\u000a.sx_023914{width:11px;height:12px;background-position:-501px -36px}\\u000a.sx_aefa62{width:50px;height:24px;background-position:0 -312px}\\u000a.sx_07264d{width:50px;height:24px;background-position:-51px -312px}\\u000a.sx_2d61fd{width:9px;height:9px;background-position:-501px -96px}\\u000a.sx_53ef2b{width:15px;height:21px;background-position:-64px -288px}\\u000a.sx_7cbdfe{width:17px;height:9px;background-position:-324px -255px}\\u000a.sx_a1bc0b{width:14px;height:7px;background-position:-342px -255px}\\u000a.sx_55f654{width:14px;height:7px;background-position:-357px -255px}\\u000a.sx_66cdf3{width:323px;height:4px;background-position:0 -255px}\\u000a.sx_4a82f7{width:512px;height:4px;background-position:0 0}\\u000a.sx_e9db88{width:323px;height:4px;background-position:0 -260px}\\u000a.sx_d0726a{width:512px;height:4px;background-position:0 -5px}\\u000a.sx_58521b{width:5px;height:3px;background-position:-508px -275px}\\u000a.sx_0a90cb{width:63px;height:23px;background-position:0 -288px}\\u000a.sx_ab0f3f{width:500px;height:48px;background-position:-13px -108px}\\u000a.sx_3096f3{width:500px;height:48px;background-position:0 -10px}\\u000a.sx_9765fc{width:500px;height:48px;background-position:0 -59px}\\u000a.sx_e963fa{width:500px;height:48px;background-position:-13px -157px}\\u000a.sx_3274aa{width:500px;height:48px;background-position:-13px -206px}\\u000a.sx_a9cd4b{width:13px;height:3px;background-position:-372px -255px}.sp_1dl6ko{background-image:url(https://fbstatic-a.akamaihd.net/rsrc.php/v2/yY/r/tN0Fmh0Uc5I.png);background-size:auto;background-repeat:no-repeat;display:inline-block;height:30px;width:29px}\\u000a.sx_db5df3{width:17px;height:17px;background-position:-137px -288px}\\u000a.sx_0a7408{width:17px;height:17px;background-position:-155px -288px}\\u000a.sx_4230e8{width:17px;height:17px;background-position:-173px -288px}\\u000a.sx_2bc050{background-position:-43px -337px}\\u000a.sx_bfd794{background-position:-73px -337px}\\u000a.sx_e3cb1b{width:15px;height:24px;background-position:-102px -312px}\\u000a.sx_6b280d{background-position:-103px -337px}\\u000a.sx_3846ba{background-position:-133px -337px}\\u000a.sx_79edac{background-position:-163px -337px}\\u000a.sx_456c84{background-position:-193px -337px}\\u000a.sx_1fac1e{background-position:-223px -337px}\\u000a.sx_f5d6ed{background-position:-253px -337px}\\u000a.sx_f45318{background-position:-283px -337px}\\u000a.sx_9b1786{background-position:-313px -337px}\\u000a.sx_c98ac1{width:26px;height:26px;background-position:-343px -337px}\\u000a.sx_8ac04f{width:42px;height:42px;background-position:0 -337px}\\u000a.sx_aa0659{width:11px;height:11px;background-position:-501px -49px}\\u000a.sx_3fd447{width:12px;height:13px;background-position:0 -108px}\\u000a.sx_e19ba0{width:12px;height:13px;background-position:0 -122px}\\u000a.sx_549b09{width:11px;height:12px;background-position:-501px -10px}\\u000a.sx_be89bc{width:12px;height:13px;background-position:0 -136px}\\u000a.sx_c04a6c{width:16px;height:12px;background-position:-276px -288px}\\u000a.sx_7cbbd0{width:16px;height:20px;background-position:-80px -288px}\\u000a.sx_052388{width:15px;height:10px;background-position:-49px -265px}\\u000a.sx_cdc78e{width:3px;height:2px;background-position:-509px -255px}\\u000a.sx_1f38c7{width:10px;height:7px;background-position:-501px -80px}\\u000a.sx_40c422{width:10px;height:7px;background-position:-501px -88px}\\u000a.sx_9d2b9b{width:19px;height:19px;background-position:-97px -288px}\\u000a.sx_abc211{width:19px;height:19px;background-position:-117px -288px}\\u000a.sx_bd3e26{width:12px;height:12px;background-position:-13px -265px}\\u000a.selected .sx_bd3e26{background-position:0 -265px}\\u000a.sx_8fe129{width:8px;height:10px;background-position:-2px -151px}\\u000a.sx_5fce93{width:16px;height:16px;background-position:-191px -288px}\\u000a.sx_0eea55{width:16px;height:16px;background-position:-208px -288px}\\u000a.sx_8d07d7{width:16px;height:16px;background-position:-225px -288px}\\u000a.sx_098e60{width:16px;height:15px;background-position:-259px -288px}\\u000a.sx_6f24bc{width:10px;height:8px;background-position:-501px -71px}\\u000a.sx_9b4d05{width:12px;height:10px;background-position:0 -163px}\\u000a.sx_6bd93f{width:15px;height:13px;background-position:-118px -312px}\\u000a.sx_126ca7{width:16px;height:16px;background-position:-242px -288px}\\u000a.sx_089ab6{width:22px;height:11px;background-position:-26px -265px}\\u000a.sx_a3412a{width:10px;height:9px;background-position:-501px -61px}\\u000a.sx_56c926{width:11px;height:12px;background-position:-501px -23px}\\u000a.sx_c5bbd4{width:13px;height:13px;background-position:-134px -312px}\\u000a.sx_669e1b{width:13px;height:13px;background-position:-148px -312px}\\u000a.sx_023914{width:11px;height:12px;background-position:-501px -36px}\\u000a.sx_aefa62{width:50px;height:24px;background-position:0 -312px}\\u000a.sx_07264d{width:50px;height:24px;background-position:-51px -312px}\\u000a.sx_2d61fd{width:9px;height:9px;background-position:-501px -96px}\\u000a.sx_53ef2b{width:15px;height:21px;background-position:-64px -288px}\\u000a.sx_7cbdfe{width:17px;height:9px;background-position:-324px -255px}\\u000a.sx_a1bc0b{width:14px;height:7px;background-position:-342px -255px}\\u000a.sx_55f654{width:14px;height:7px;background-position:-357px -255px}\\u000a.sx_66cdf3{width:323px;height:4px;background-position:0 -255px}\\u000a.sx_4a82f7{width:512px;height:4px;background-position:0 0}\\u000a.sx_e9db88{width:323px;height:4px;background-position:0 -260px}\\u000a.sx_d0726a{width:512px;height:4px;background-position:0 -5px}\\u000a.sx_58521b{width:5px;height:3px;background-position:-508px -275px}\\u000a.sx_0a90cb{width:63px;height:23px;background-position:0 -288px}\\u000a.sx_ab0f3f{width:500px;height:48px;background-position:-13px -108px}\\u000a.sx_3096f3{width:500px;height:48px;background-position:0 -10px}\\u000a.sx_9765fc{width:500px;height:48px;background-position:0 -59px}\\u000a.sx_e963fa{width:500px;height:48px;background-position:-13px -157px}\\u000a.sx_3274aa{width:500px;height:48px;background-position:-13px -206px}\\u000a.sx_a9cd4b{width:13px;height:3px;background-position:-372px -255px}.sp_58twwi{background-image:url(https://fbstatic-a.akamaihd.net/rsrc.php/v2/y1/r/Qv4YInuZXNa.png);background-size:auto;background-repeat:no-repeat;display:inline-block;height:16px;width:16px}\\u000a.sx_ecc003{width:35px;height:35px;background-position:-85px -14px}\\u000a.sx_0b5f92{width:35px;height:35px;background-position:-121px -14px}\\u000a.sx_e639b6{width:35px;height:35px;background-position:-157px -14px}\\u000a.sx_882966{background-position:-136px -50px}\\u000a.sx_7c21a4{background-position:-153px -50px}\\u000a.sx_64bb84{background-position:-170px -50px}\\u000a.sx_ae09bc{background-position:-187px -50px}\\u000a.sx_746dbb{background-position:-204px -50px}\\u000a.sx_27ef61{height:17px;background-position:-119px -50px}\\u000a.sx_72eeb5{width:6px;height:11px;background-position:-320px -27px}\\u000a.selected .sx_72eeb5{background-position:-314px -27px}\\u000a.sx_923223{background-position:-221px -50px}\\u000a.sx_2e23af{width:10px;background-position:-255px -50px}\\u000a.sx_75d8d9{background-position:-238px -50px}\\u000a.sx_2cce7a{width:9px;background-position:-266px -50px}\\u000a.sx_0b0ae6{width:29px;height:29px;background-position:-193px -14px}\\u000a.sx_2586a7{width:84px;height:84px;background-position:0 -14px}\\u000a.sx_1b97c6{width:8px;height:13px;background-position:-305px -27px}\\u000a.sx_5ebe8b{width:11px;height:13px;background-position:-263px -27px}\\u000a.sx_d63580{width:9px;height:13px;background-position:-275px -27px}\\u000a.sx_9a80a3{width:9px;height:13px;background-position:-285px -27px}\\u000a.sx_39876b{width:9px;height:13px;background-position:-295px -27px}\\u000a.sx_adb330{width:19px;height:15px;background-position:-223px -27px}\\u000a.sx_c52346{width:19px;height:15px;background-position:-243px -27px}\\u000a.sx_c9c810{width:15px;height:21px;background-position:-85px -50px}\\u000a.sx_79fe81{width:411px;height:4px;background-position:0 -9px}\\u000a.sx_a91692{width:851px;height:4px;background-position:0 0}\\u000a.sx_090668{width:411px;height:3px;background-position:-412px -9px}\\u000a.sx_2fbc30{width:851px;height:3px;background-position:0 -5px}\\u000a.sx_8ee175{width:9px;height:5px;background-position:-255px -14px}\\u000a.selected .sx_8ee175{background-position:-246px -14px}\\u000a.sx_d1c43f{width:11px;height:12px;background-position:-234px -14px}\\u000a.selected .sx_d1c43f{background-position:-223px -14px}\\u000a.sx_d23677{width:17px;height:17px;background-position:-101px -50px}\np2\ns(N(lp3\ntp4\ntp5\n.'
p8
sS'hash'
p9
S'b2ae1b4253731b7d2cc06d86e9fd288ac5adb624'
p10
sS'stack'
p11
S'_test_single_endpoint util.py get_stack facade.py cache patch.py patch_with models_test.py test_graph_api patch.py patched_test '
p12
s.