(dp1
S'args'
p2
S''
sS'methodname'
p3
S''
sS'packet_num'
p4
I1
sS'returnval'
p5
S'cy_cap\np151\nI0\nsVdaily_imps\np152\nI0\nsVlifetime_budget\np153\nI5000\nsVend_time\np154\nV2012-04-13T15:00:00-0700\np155\nsVcreated_time\np156\nV2012-04-11T07:29:29-0700\np157\nsVupdated_time\np158\nV2012-04-13T08:44:05-0700\np159\nsVcampaign_status\np160\nI2\nsVid\np161\nV6004989957165\np162\nsVaccount_id\np163\nI40156177\nsa(dp164\nVname\np165\nVBOOST|dsafjkl|1|O_mAoc897|afjpmmeeyyvssgrnuylk\np166\nsVstart_time\np167\nV2012-04-12T13:02:24-0700\np168\nsVcampaign_id\np169\nI6004992852965\nsVfrequency_cap\np170\nI0\nsVdaily_imps\np171\nI0\nsVlifetime_budget\np172\nI400\nsVend_time\np173\nV2012-04-12T19:02:22-0700\np174\nsVcreated_time\np175\nV2012-04-12T13:02:24-0700\np176\nsVupdated_time\np177\nV2012-04-12T13:02:24-0700\np178\nsVcampaign_status\np179\nI2\nsVid\np180\nV6004992852965\np181\nsVaccount_id\np182\nI40156177\nsa(dp183\nVname\np184\nVBOOST|dsafjkl|1|N7p5B115|abtxtvwfyqhlifznhqkc\np185\nsVstart_time\np186\nV2012-04-12T13:02:48-0700\np187\nsVcampaign_id\np188\nI6004992853565\nsVfrequency_cap\np189\nI0\nsVdaily_imps\np190\nI0\nsVlifetime_budget\np191\nI400\nsVend_time\np192\nV2012-04-12T19:02:45-0700\np193\nsVcreated_time\np194\nV2012-04-12T13:02:48-0700\np195\nsVupdated_time\np196\nV2012-04-12T13:02:49-0700\np197\nsVcampaign_status\np198\nI2\nsVid\np199\nV6004992853565\np200\nsVaccount_id\np201\nI40156177\nsa(dp202\nVname\np203\nVWendys: Spicy Chicken | 15-People-Who-Will-Inspire-You\np204\nsVstart_time\np205\nV2012-04-16T06:00:00-0700\np206\nsVcampaign_id\np207\nI6004995951565\nsVfrequency_cap\np208\nI0\nsVdaily_imps\np209\nI0\nsVlifetime_budget\np210\nI100000\nsVend_time\np211\nV2012-04-24T23:00:00-0700\np212\nsVcreated_time\np213\nV2012-04-13T08:55:34-0700\np214\nsVupdated_time\np215\nV2012-04-24T15:05:35-0700\np216\nsVcampaign_status\np217\nI2\nsVid\np218\nV6004995951565\np219\nsVaccount_id\np220\nI40156177\nsa(dp221\nVname\np222\nVWendys: Spicy Chicken | The-Guide-To-Being-A-Motivational-Speaker-5Afm\np223\nsVstart_time\np224\nV2012-04-17T10:00:00-0700\np225\nsVcampaign_id\np226\nI6004995970365\nsVfrequency_cap\np227\nI0\nsVdaily_imps\np228\nI0\nsVlifetime_budget\np229\nI70000\nsVend_time\np230\nV2012-04-18T23:00:00-0700\np231\nsVcreated_time\np232\nV2012-04-13T09:06:15-0700\np233\nsVupdated_time\np234\nV2012-09-21T13:02:12-0700\np235\nsVcampaign_status\np236\nI2\nsVid\np237\nV6004995970365\np238\nsVaccount_id\np239\nI40156177\nsa(dp240\nVname\np241\nVWendys: Spicy Chicken | Animals-With-Jobs-That-Are-More-Important-Than-You-5Afm\np242\nsVstart_time\np243\nV2012-04-13T09:22:44-0700\np244\nsVcampaign_id\np245\nI6004996000565\nsVfrequency_cap\np246\nI0\nsVdaily_imps\np247\nI0\nsVlifetime_budget\np248\nI35000\nsVend_time\np249\nV2012-04-20T23:00:00-0700\np250\nsVcreated_time\np251\nV2012-04-13T09:22:44-0700\np252\nsVupdated_time\np253\nV2012-09-21T13:02:14-0700\np254\nsVcampaign_status\np255\nI2\nsVid\np256\nV6004996000565\np257\nsVaccount_id\np258\nI40156177\nsa(dp259\nVname\np260\nVTostitos: Q2 2012 | Evolution-Of-The-Party-Through-The-Decades-4Hwd\np261\nsVstart_time\np262\nV2012-04-16T11:00:00-0700\np263\nsVcampaign_id\np264\nI6004996422765\nsVfrequency_cap\np265\nI0\nsVdaily_imps\np266\nI0\nsVlifetime_budget\np267\nI25000\nsVend_time\np268\nV2012-04-19T23:00:00-0700\np269\nsVcreated_time\np270\nV2012-04-13T10:32:32-0700\np271\nsVupdated_time\np272\nV2012-09-21T13:02:16-0700\np273\nsVcampaign_status\np274\nI2\nsVid\np275\nV6004996422765\np276\nsVaccount_id\np277\nI40156177\nsa(dp278\nVname\np279\nVGE: What Works | 10-Incredible-Kickstarter-Projects-That-Could-Chan-5Tbk\np280\nsVstart_time\np281\nV2012-04-16T06:00:00-0700\np282\nsVcampaign_id\np283\nI6004996667965\nsVfrequency_cap\np284\nI0\nsVdaily_imps\np285\nI0\nsVlifetime_budget\np286\nI37500\nsVend_time\np287\nV2012-04-24T23:00:00-0700\np288\nsVcreated_time\np289\nV2012-04-13T13:10:44-0700\np290\nsVupdated_time\np291\nV2012-04-24T14:18:35-0700\np292\nsVcampaign_status\np293\nI2\nsVid\np294\nV6004996667965\np295\nsVaccount_id\np296\nI40156177\nsa(dp297\nVname\np298\nVNHL: 2012 Playoffs | 16-Awesome-Hockey-Fan-Signs-2Ag2\np299\nsVstart_time\np300\nV2012-04-13T15:00:00-0700\np301\nsVcampaign_id\np302\nI6004996746565\nsVfrequency_cap\np303\nI0\nsVdaily_imps\np304\nI0\nsVlifetime_budget\np305\nI30000\nsVend_time\np306\nV2012-04-13T23:00:00-0700\np307\nsVcreated_time\np308\nV2012-04-13T14:18:23-0700\np309\nsVupdated_time\np310\nV2012-09-21T13:02:18-0700\np311\nsVcampaign_status\np312\nI2\nsVid\np313\nV6004996746565\np314'
p6
sS'hash'
p7
S'03f7eb6746c071f3e1c918840fe567095960985c'
p8
sS'stack'
p9
S''
s.