(dp1
S'args'
p2
S''
sS'methodname'
p3
S''
sS'packet_num'
p4
I5
sS'returnval'
p5
S'e\np804\nV2012-04-24T18:25:32-0700\np805\nsVcampaign_status\np806\nI2\nsVid\np807\nV6005034254965\np808\nsVaccount_id\np809\nI40156177\nsa(dp810\nVname\np811\nVMiO Energy: Q2 Flight | Nobody-Looks-Cool-Yawning\np812\nsVstart_time\np813\nV2012-04-24T09:00:00-0700\np814\nsVcampaign_id\np815\nI6005050987765\nsVfrequency_cap\np816\nI0\nsVdaily_imps\np817\nI0\nsVlifetime_budget\np818\nI27500\nsVend_time\np819\nV2012-04-24T23:00:00-0700\np820\nsVcreated_time\np821\nV2012-04-24T08:59:48-0700\np822\nsVupdated_time\np823\nV2012-09-21T13:02:49-0700\np824\nsVcampaign_status\np825\nI2\nsVid\np826\nV6005050987765\np827\nsVaccount_id\np828\nI40156177\nsa(dp829\nVname\np830\nVMiO Energy: Q2 Flight | The-Official-Fanny-Pack-Guide-For-The-Festival-Goe\np831\nsVstart_time\np832\nV2012-04-24T10:00:00-0700\np833\nsVcampaign_id\np834\nI6005051062565\nsVfrequency_cap\np835\nI0\nsVdaily_imps\np836\nI0\nsVlifetime_budget\np837\nI27500\nsVend_time\np838\nV2012-04-24T23:00:00-0700\np839\nsVcreated_time\np840\nV2012-04-24T09:18:41-0700\np841\nsVupdated_time\np842\nV2012-09-21T13:02:51-0700\np843\nsVcampaign_status\np844\nI2\nsVid\np845\nV6005051062565\np846\nsVaccount_id\np847\nI40156177\nsa(dp848\nVname\np849\nVBOOST|dsafjkl|1|l151|pwqjgsnlzbtsflttvffb\np850\nsVstart_time\np851\nV2012-04-24T10:10:30-0700\np852\nsVcampaign_id\np853\nI6005052403965\nsVfrequency_cap\np854\nI0\nsVdaily_imps\np855\nI0\nsVlifetime_budget\np856\nI400\nsVend_time\np857\nV2012-04-24T16:10:29-0700\np858\nsVcreated_time\np859\nV2012-04-24T10:10:30-0700\np860\nsVupdated_time\np861\nV2012-04-24T10:10:31-0700\np862\nsVcampaign_status\np863\nI2\nsVid\np864\nV6005052403965\np865\nsVaccount_id\np866\nI40156177\nsa(dp867\nVname\np868\nVBOOST|dsafjkl|1|kY4V_597|fnuppmczscfgwfpavxgq\np869\nsVstart_time\np870\nV2012-04-24T12:26:51-0700\np871\nsVcampaign_id\np872\nI6005052535565\nsVfrequency_cap\np873\nI0\nsVdaily_imps\np874\nI0\nsVlifetime_budget\np875\nI400\nsVend_time\np876\nV2012-04-24T18:26:49-0700\np877\nsVcreated_time\np878\nV2012-04-24T12:26:51-0700\np879\nsVupdated_time\np880\nV2012-04-24T12:26:51-0700\np881\nsVcampaign_status\np882\nI2\nsVid\np883\nV6005052535565\np884\nsVaccount_id\np885\nI40156177\nsa(dp886\nVname\np887\nVBOOST|dsafjkl|1|Ltm6XY7115|pnxxgoymuexgkcvheuwg\np888\nsVstart_time\np889\nV2012-04-24T13:31:09-0700\np890\nsVcampaign_id\np891\nI6005052607965\nsVfrequency_cap\np892\nI0\nsVdaily_imps\np893\nI0\nsVlifetime_budget\np894\nI400\nsVend_time\np895\nV2012-04-24T19:31:08-0700\np896\nsVcreated_time\np897\nV2012-04-24T13:31:09-0700\np898\nsVupdated_time\np899\nV2012-04-24T13:31:09-0700\np900\nsVcampaign_status\np901\nI2\nsVid\np902\nV6005052607965\np903\nsVaccount_id\np904\nI40156177\nsa(dp905\nVname\np906\nVBOOST|dsafjkl|1|m97|ucczhpqgdginefeqjglw\np907\nsVstart_time\np908\nV2012-04-24T13:43:46-0700\np909\nsVcampaign_id\np910\nI6005052621765\nsVfrequency_cap\np911\nI0\nsVdaily_imps\np912\nI0\nsVlifetime_budget\np913\nI400\nsVend_time\np914\nV2012-04-24T19:43:44-0700\np915\nsVcreated_time\np916\nV2012-04-24T13:43:46-0700\np917\nsVupdated_time\np918\nV2012-04-24T13:43:46-0700\np919\nsVcampaign_status\np920\nI2\nsVid\np921\nV6005052621765\np922\nsVaccount_id\np923\nI40156177\nsa(dp924\nVname\np925\nVBOOST|dsafjkl|1|nVN6i5lIN97|inmtavxjrceprtskxtrc\np926\nsVstart_time\np927\nV2012-04-24T14:05:22-0700\np928\nsVcampaign_id\np929\nI6005052649565\nsVfrequency_cap\np930\nI0\nsVdaily_imps\np931\nI0\nsVlifetime_budget\np932\nI400\nsVend_time\np933\nV2012-04-24T20:05:20-0700\np934\nsVcreated_time\np935\nV2012-04-24T14:05:22-0700\np936\nsVupdated_time\np937\nV2012-04-24T14:05:23-0700\np938\nsVcampaign_status\np939\nI2\nsVid\np940\nV6005052649565\np941\nsVaccount_id\np942\nI40156177\nsa(dp943\nVname\np944\nVBOOST|dsafjkl|1|szT1dw97|aoyizkxwiecprmgolrqo\np945\nsVstart_time\np946\nV2012-04-24T14:09:27-0700\np947\nsVcampaign_id\np948\nI6005052652565\nsVfrequency_cap\np949\nI0\nsVdaily_imps\np950\nI0\nsVlifetime_budget\np951\nI400\nsVend_time\np952\nV2012-04-24T20:09:25-0700\np953\nsVcreated_time\np954\nV2012-04-24T14:09:27-0700\np955\nsVupdated_time\np956\nV2012-04-24T14:09:27-0700\np957\nsVcampaign_status\np958\nI2\nsVid\np959\nV6005052652565\np960\nsVaccount_id\np961\nI40156177\nsa(dp962\nVname\np963\nVBOOST|dsafjkl|1|kSEQe97|trjrzmlfjzdodqzcpsqy\np964\nsVstart_time\np965\nV2012-04-24T14:34:54-0700\np966\nsVcampaign_id\np967\nI6005052833165\nsVfrequency_cap\np968\nI0\nsVdaily_imps\np969\nI0\nsVlifetime_budget\np970\nI400\nsVend_time\np971\nV2012-04-2'
p6
sS'hash'
p7
S'03f7eb6746c071f3e1c918840fe567095960985c'
p8
sS'stack'
p9
S''
s.