(dp1
S'args'
p2
S''
sS'methodname'
p3
S''
sS'packet_num'
p4
I6
sS'returnval'
p5
S'ory returns this month. Check out some pictures to get in the mood!\np811\nsVimage_hash\np812\nVeacef83b5aabf66c5e2ca1a68ca70b9e\np813\nsVname\np814\nVAbandoned Asylums-00\np815\nsVtitle\np816\nVAbandoned Asylums\np817\nsVcreative_id\np818\nV6005957931565\np819\nsVpreview_url\np820\nVhttp://www.facebook.com/ads/api/creative_preview.php?cid=6005957931565\np821\nsVid\np822\nV6005957931565\np823\nsVimage_url\np824\nVhttps://fbcdn-creative-a.akamaihd.net/hads-ak-prn1/s110x80/708164_6006845471565_58602_n.jpg\np825\nsVcount_current_adgroups\np826\nI1\nsVrun_status\np827\nI1\nsVtype\np828\nI1\nsVlink_url\np829\nVhttp://www.buzzfeed.com/h1/fbad/americanhorrorstory/20-haunting-pictures-of-abandoned-asylums\np830\nsVview_tag\np831\ng36\nsa(dp832\nValt_view_tags\np833\n(lp834\nsVbody\np835\nVCheck out the best of the "10 Airplane Seat-To-Seat Chat Pickup Lines!"\np836\nsVimage_hash\np837\nV0045344c91f501bc56c87e437d962cc5\np838\nsVname\np839\nVThe Mile High Club?\np840\nsVtitle\np841\nVThe Mile High Club?\np842\nsVcreative_id\np843\nV6005958111965\np844\nsVpreview_url\np845\nVhttp://www.facebook.com/ads/api/creative_preview.php?cid=6005958111965\np846\nsVid\np847\nV6005958111965\np848\nsVimage_url\np849\nVhttps://fbcdn-creative-a.akamaihd.net/hads-ak-prn1/s110x80/708174_6006844054565_48172_n.jpg\np850\nsVcount_current_adgroups\np851\nI2\nsVrun_status\np852\nI1\nsVtype\np853\nI1\nsVlink_url\np854\nVhttp://www.buzzfeed.com/h1/fbad/virginamerica/10-airplane-seat-to-seat-chat-pickup-lines\np855\nsVview_tag\np856\ng36\nsa(dp857\nValt_view_tags\np858\n(lp859\nsVbody\np860\nVIf you don\'t, then you\'re not worthy. See if you have what it takes to be in "The League!"\np861\nsVimage_hash\np862\nV5a725f80a1f82b999ac29f3270686203\np863\nsVname\np864\nVDo You Pray For Wins?\np865\nsVtitle\np866\nVDo You Pray For Wins?\np867\nsVcreative_id\np868\nV6005957690165\np869\nsVpreview_url\np870\nVhttp://www.facebook.com/ads/api/creative_preview.php?cid=6005957690165\np871\nsVid\np872\nV6005957690165\np873\nsVimage_url\np874\nVhttps://fbcdn-creative-a.akamaihd.net/hads-ak-ash3/s110x80/708164_6006844610165_341_n.jpg\np875\nsVcount_current_adgroups\np876\nI1\nsVrun_status\np877\nI1\nsVtype\np878\nI1\nsVlink_url\np879\nVhttp://www.buzzfeed.com/h1/fbad/theleague/do-you-have-what-it-takes-to-be-in-the-league\np880\nsVview_tag\np881\ng36\nsa(dp882\nValt_view_tags\np883\n(lp884\nsVbody\np885\nVTest yourself and find out if you have what it takes to be in "The League!"\np886\nsVimage_hash\np887\nVc489e30fde5249ae0cf179da29d47a1a\np888\nsVname\np889\nVDo You Pray For Wins?-00\np890\nsVtitle\np891\nVThe League \np892\nsVcreative_id\np893\nV6005966880765\np894\nsVpreview_url\np895\nVhttp://www.facebook.com/ads/api/creative_preview.php?cid=6005966880765\np896\nsVid\np897\nV6005966880765\np898\nsVimage_url\np899\nVhttps://fbcdn-creative-a.akamaihd.net/hads-ak-ash3/s110x80/701899_6006845229565_54902_n.jpg\np900\nsVcount_current_adgroups\np901\nI1\nsVrun_status\np902\nI1\nsVtype\np903\nI1\nsVlink_url\np904\nVhttp://www.buzzfeed.com/h1/fbad/theleague/do-you-have-what-it-takes-to-be-in-the-league\np905\nsVview_tag\np906\ng36\nsa(dp907\nValt_view_tags\np908\n(lp909\nsVbody\np910\nVCheck Out "The Ultimate Collection Of Tim Burton GIFs" on BuzzFeed!\\u000a\np911\nsVimage_hash\np912\nV20988e0f309540c6becdc7e16723e5d8\np913\nsVname\np914\nVEdward Scissorhands GIF-00\np915\nsVtitle\np916\nVWilly Wonka GIF\np917\nsVcreative_id\np918\nV6005889669765\np919\nsVpreview_url\np920\nVhttp://www.facebook.com/ads/api/creative_preview.php?cid=6005889669765\np921\nsVid\np922\nV6005889669765\np923\nsVimage_url\np924\nVhttps://fbcdn-creative-a.akamaihd.net/hads-ak-ash3/s110x80/708205_6006844248965_5776_n.jpg\np925\nsVcount_current_adgroups\np926\nI1\nsVrun_status\np927\nI1\nsVtype\np928\nI1\nsVlink_url\np929\nVhttp://www.buzzfeed.com/h1/fbad/frankenweenie/the-ultimate-collection-of-tim-burton-gifs\np930\nsVview_tag\np931\ng36\nsa(dp932\nValt_view_tags\np933\n(lp934\nsVbody\np935\nVCheck out "The Ultimate Collection Of Tim Burton GIFs" on BuzzFeed!\np936\nsVimage_hash\np937\nV88d498fd1b2df1c177973980579eb922\np938\nsVname\np939\nVEdward Scissorhands GIF-00-00\np940\nsVtitle\np941\nVJack Nicholson as Joker\np942\nsVcreative_id\np943\nV6005889678365\np944\nsVpreview_url\np945\nVhttp://www.facebook.com/ads/api/creative_preview.php?cid=6005889678365\np946\nsVid\np947\nV60058'
p6
sS'hash'
p7
S'057ed9ef6861c094e514d4776db0c6327d1c84eb'
p8
sS'stack'
p9
S''
s.