(dp1
S'args'
p2
S''
sS'methodname'
p3
S''
sS'packet_num'
p4
I47
sS'returnval'
p5
S'00-00\np6336\nsVtitle\np6337\nVDramatic Chipmunk is Back\np6338\nsVcreative_id\np6339\nV6005826710365\np6340\nsVpreview_url\np6341\nVhttp://www.facebook.com/ads/api/creative_preview.php?cid=6005826710365\np6342\nsVid\np6343\nV6005826710365\np6344\nsVimage_url\np6345\nVhttps://fbcdn-creative-a.akamaihd.net/hads-ak-prn1/s110x80/708192_6006844548565_305_n.jpg\np6346\nsVcount_current_adgroups\np6347\nI1\nsVrun_status\np6348\nI1\nsVtype\np6349\nI1\nsVlink_url\np6350\nVhttp://www.buzzfeed.com/h1/fbad/frankenweenie/10-animal-celebrities-that-are-ready-for-halloween\np6351\nsVview_tag\np6352\ng36\nsa(dp6353\nValt_view_tags\np6354\n(lp6355\nsVbody\np6356\nVHe was in a 1982 Atari commercial. Check out some more things you didn\'t know about Atari!\np6357\nsVimage_hash\np6358\nV110b930072984e8442305ed190dd9e0f\np6359\nsVname\np6360\nVYoung Jack Black\np6361\nsVtitle\np6362\nVYoung Jack Black\np6363\nsVcreative_id\np6364\nV6005824327365\np6365\nsVpreview_url\np6366\nVhttp://www.facebook.com/ads/api/creative_preview.php?cid=6005824327365\np6367\nsVid\np6368\nV6005824327365\np6369\nsVimage_url\np6370\nVhttps://fbcdn-creative-a.akamaihd.net/hads-ak-prn1/s110x80/708177_6006844155965_12849_n.jpg\np6371\nsVcount_current_adgroups\np6372\nI1\nsVrun_status\np6373\nI1\nsVtype\np6374\nI1\nsVlink_url\np6375\nVhttp://www.buzzfeed.com/h1/fbad/internetexplorer9/10-things-you-probably-never-knew-about-atari\np6376\nsVview_tag\np6377\ng36\nsa(dp6378\nValt_view_tags\np6379\n(lp6380\nsVbody\np6381\nVRetro games will always be in our hearts. Check out the best tributes to old school games!\np6382\nsVimage_hash\np6383\nVefa67ef089af356dcacdff4c70cda0eb\np6384\nsVname\np6385\nV3-D PacMan\np6386\nsVtitle\np6387\nV3-D PacMan\np6388\nsVcreative_id\np6389\nV6005824275165\np6390\nsVpreview_url\np6391\nVhttp://www.facebook.com/ads/api/creative_preview.php?cid=6005824275165\np6392\nsVid\np6393\nV6005824275165\np6394\nsVimage_url\np6395\nVhttps://fbcdn-creative-a.akamaihd.net/hads-ak-ash3/s110x80/708206_6006845500165_47784_n.jpg\np6396\nsVcount_current_adgroups\np6397\nI1\nsVrun_status\np6398\nI1\nsVtype\np6399\nI1\nsVlink_url\np6400\nVhttp://www.buzzfeed.com/h1/fbad/internetexplorer9/11-of-the-geekiest-tributes-to-retro-games\np6401\nsVview_tag\np6402\ng36\nsa(dp6403\nValt_view_tags\np6404\n(lp6405\nsVbody\np6406\nVThink a Zorse is crazy? Check out more incredible pictures you won\'t believe!\np6407\nsVimage_hash\np6408\nV3b3bda77f19746b0207fc57d6bfc1ce4\np6409\nsVname\np6410\nVMartian Landscape-00\np6411\nsVtitle\np6412\nVPart Horse, Part Zebra?\np6413\nsVcreative_id\np6414\nV6005823951165\np6415\nsVpreview_url\np6416\nVhttp://www.facebook.com/ads/api/creative_preview.php?cid=6005823951165\np6417\nsVid\np6418\nV6005823951165\np6419\nsVimage_url\np6420\nVhttps://fbcdn-creative-a.akamaihd.net/hads-ak-prn1/s110x80/708206_6006844395965_366_n.jpg\np6421\nsVcount_current_adgroups\np6422\nI1\nsVrun_status\np6423\nI1\nsVtype\np6424\nI1\nsVlink_url\np6425\nVhttp://www.buzzfeed.com/h1/fbad/freal/20-incredible-pictures-you-wont-believe-are-frea-5k2r\np6426\nsVview_tag\np6427\ng36\nsa(dp6428\nValt_view_tags\np6429\n(lp6430\nsVbody\np6431\nVCheck out Pokemon & More of Your Favorite Toys From The \'90s on BuzzFeed!\np6432\nsVimage_hash\np6433\nV9165126980e654840fac9259377a1da7\np6434\nsVname\np6435\nV"Gotta Catch \'Em All!"\np6436\nsVtitle\np6437\nV"Gotta Catch \'Em All!"\np6438\nsVcreative_id\np6439\nV6005823843365\np6440\nsVpreview_url\np6441\nVhttp://www.facebook.com/ads/api/creative_preview.php?cid=6005823843365\np6442\nsVid\np6443\nV6005823843365\np6444\nsVimage_url\np6445\nVhttps://fbcdn-creative-a.akamaihd.net/hads-ak-prn1/s110x80/708185_6006844916365_2219_n.jpg\np6446\nsVcount_current_adgroups\np6447\nI1\nsVrun_status\np6448\nI1\nsVtype\np6449\nI1\nsVlink_url\np6450\nVhttp://www.buzzfeed.com/h1/fbad/furby/18-of-your-favorite-toys-from-the-90s\np6451\nsVview_tag\np6452\ng36\nsa(dp6453\nValt_view_tags\np6454\n(lp6455\nsVbody\np6456\nVJust One of the "20 Reasons Why Dogs Are Man\'s Best Friend" on BuzzFeed!\np6457\nsVimage_hash\np6458\nVbecdd0d9b5c6b0916cb1d42c0b7a1a96\np6459\nsVname\np6460\nVLending A Helping Hand-00\np6461\nsVtitle\np6462\nVGood For Snuggling...\np6463\nsVcreative_id\np6464\nV6005812660565\np6465\nsVpreview_url\np6466\nVhttp://www.facebook.com/ads/api/creative_preview.php?cid=6005812660565\np6467\nsVid\np6468\nV6005812660565\np'
p6
sS'hash'
p7
S'057ed9ef6861c094e514d4776db0c6327d1c84eb'
p8
sS'stack'
p9
S''
s.