(dp1
S'args'
p2
S''
sS'methodname'
p3
S''
sS'packet_num'
p4
I59
sS'returnval'
p5
S'art-forms\np7898\nsVview_tag\np7899\ng36\nsa(dp7900\nValt_view_tags\np7901\n(lp7902\nsVbody\np7903\nVRemember Kanye\'s interruption of T- Swift\'s speech? Check out more outrageous VMA moments!\np7904\nsVimage_hash\np7905\nVd2e6991e0823237debf4d1b047a1ea04\np7906\nsVname\np7907\nV"Im\'ma Let You Finish"\np7908\nsVtitle\np7909\nV"Im\'ma Let You Finish"\np7910\nsVcreative_id\np7911\nV6005734961165\np7912\nsVpreview_url\np7913\nVhttp://www.facebook.com/ads/api/creative_preview.php?cid=6005734961165\np7914\nsVid\np7915\nV6005734961165\np7916\nsVimage_url\np7917\nVhttps://fbcdn-creative-a.akamaihd.net/hads-ak-ash3/s110x80/708189_6006845314165_2672_n.jpg\np7918\nsVcount_current_adgroups\np7919\nI1\nsVrun_status\np7920\nI1\nsVtype\np7921\nI1\nsVlink_url\np7922\nVhttp://www.buzzfeed.com/h1/fbad/mtvvmas/the-11-most-outrageous-moments-from-the-vmas-in-g\np7923\nsVview_tag\np7924\ng36\nsa(dp7925\nValt_view_tags\np7926\n(lp7927\nsVbody\np7928\nVJust one of the "18 Awesome Movie Scenes From The 90s" on BuzzFeed!\np7929\nsVimage_hash\np7930\nVc5c8278cfb0ea5d6b3a66a2fa5a09a7d\np7931\nsVname\np7932\nV"I\'m Flying, Jack!"\np7933\nsVtitle\np7934\nV"I\'m Flying, Jack!"\np7935\nsVcreative_id\np7936\nV6005727235165\np7937\nsVpreview_url\np7938\nVhttp://www.facebook.com/ads/api/creative_preview.php?cid=6005727235165\np7939\nsVid\np7940\nV6005727235165\np7941\nsVimage_url\np7942\nVhttps://fbcdn-creative-a.akamaihd.net/hads-ak-ash3/s110x80/701897_6006845237565_24718_n.jpg\np7943\nsVcount_current_adgroups\np7944\nI1\nsVrun_status\np7945\nI1\nsVtype\np7946\nI1\nsVlink_url\np7947\nVhttp://www.buzzfeed.com/h1/fbad/fourstories/18-awesome-movie-scenes-from-the-90s-721n\np7948\nsVview_tag\np7949\ng36\nsa(dp7950\nValt_view_tags\np7951\n(lp7952\nsVbody\np7953\nVJust one of the "18 Awesome Movie Scenes From The 90s" on BuzzFeed!\np7954\nsVimage_hash\np7955\nVefba49ff23da298d4ca93bd3435132bf\np7956\nsVname\np7957\nV"I\'m Flying, Jack!"-00\np7958\nsVtitle\np7959\nVThe Matrix: Dodge This\np7960\nsVcreative_id\np7961\nV6005727246765\np7962\nsVpreview_url\np7963\nVhttp://www.facebook.com/ads/api/creative_preview.php?cid=6005727246765\np7964\nsVid\np7965\nV6005727246765\np7966\nsVimage_url\np7967\nVhttps://fbcdn-creative-a.akamaihd.net/hads-ak-prn1/s110x80/708206_6006845500365_6501_n.jpg\np7968\nsVcount_current_adgroups\np7969\nI1\nsVrun_status\np7970\nI1\nsVtype\np7971\nI1\nsVlink_url\np7972\nVhttp://www.buzzfeed.com/h1/fbad/fourstories/18-awesome-movie-scenes-from-the-90s-721n\np7973\nsVview_tag\np7974\ng36\nsa(dp7975\nValt_view_tags\np7976\n(lp7977\nsVbody\np7978\nVCheck Out More Mind-Blowing Product Customizations on BuzzFeed!\np7979\nsVimage_hash\np7980\nV3e9439740e2bf3f3ebeeb80a52f2a76c\np7981\nsVname\np7982\nVBlinged-Out Sneakers\np7983\nsVtitle\np7984\nVBlinged-Out Sneakers\np7985\nsVcreative_id\np7986\nV6005724011165\np7987\nsVpreview_url\np7988\nVhttp://www.facebook.com/ads/api/creative_preview.php?cid=6005724011165\np7989\nsVid\np7990\nV6005724011165\np7991\nsVimage_url\np7992\nVhttps://fbcdn-creative-a.akamaihd.net/hads-ak-prn1/s110x80/708157_6006844417765_65169_n.jpg\np7993\nsVcount_current_adgroups\np7994\nI1\nsVrun_status\np7995\nI1\nsVtype\np7996\nI1\nsVlink_url\np7997\nVhttp://ad.doubleclick.net/clk;261418168;85613851;n%3fhttp://www.buzzfeed.com/h1/fbad/smartcar/12-mind-blowing-product-customizations-5yip\np7998\nsVview_tag\np7999\ng36\nsa(dp8000\nValt_view_tags\np8001\n(lp8002\nsVbody\np8003\nVCheck out more "Awesome Works Of Art In Unexpected Places" on BuzzFeed!\np8004\nsVimage_hash\np8005\nVd01afb4453bbf5c3d39210bf48c21580\np8006\nsVname\np8007\nVA Yard-Bombed Bus?-00-00-00\np8008\nsVtitle\np8009\nVMegx\'s Lego Bridge\np8010\nsVcreative_id\np8011\nV6005723994565\np8012\nsVpreview_url\np8013\nVhttp://www.facebook.com/ads/api/creative_preview.php?cid=6005723994565\np8014\nsVid\np8015\nV6005723994565\np8016\nsVimage_url\np8017\nVhttps://fbcdn-creative-a.akamaihd.net/hads-ak-prn1/s110x80/708192_6006845296765_46704_n.jpg\np8018\nsVcount_current_adgroups\np8019\nI2\nsVrun_status\np8020\nI1\nsVtype\np8021\nI1\nsVlink_url\np8022\nVhttp://ad.doubleclick.net/clk;261418168;85613884;t%3fhttp://www.buzzfeed.com/h1/fbad/smartcar/17-awesome-works-of-art-in-unexpected-places-5yip\np8023\nsVview_tag\np8024\ng36\nsa(dp8025\nValt_view_tags\np8026\n(lp8027\nsVbody\np8028\nVSure looks like it.Check out more "Awesome Works Of Art In U'
p6
sS'hash'
p7
S'057ed9ef6861c094e514d4776db0c6327d1c84eb'
p8
sS'stack'
p9
S''
s.