(dp1
S'args'
p2
S''
sS'methodname'
p3
S''
sS'packet_num'
p4
I64
sS'returnval'
p5
S'd\np8559\nV6005653311165\np8560\nsVpreview_url\np8561\nVhttp://www.facebook.com/ads/api/creative_preview.php?cid=6005653311165\np8562\nsVid\np8563\nV6005653311165\np8564\nsVimage_url\np8565\nVhttps://fbcdn-creative-a.akamaihd.net/hads-ak-ash3/s110x80/701896_6006844220365_19856_n.jpg\np8566\nsVcount_current_adgroups\np8567\nI1\nsVrun_status\np8568\nI1\nsVtype\np8569\nI1\nsVlink_url\np8570\nVhttp://www.buzzfeed.com/h1/fbtestthree/duplicator/a-timeline-of-jennifer-anistons-relationships-1\np8571\nsVview_tag\np8572\ng36\nsa(dp8573\nValt_view_tags\np8574\n(lp8575\nsVbody\np8576\nVSee them all in "A Timeline Of Jennifer Aniston\'s Relationships" only on BuzzFeed!\np8577\nsVimage_hash\np8578\nV79fdaa82b26cc634acccaaabba4ef5e7\np8579\nsVname\np8580\nVJennifer Aniston\'s Exes-00\np8581\nsVtitle\np8582\nVJen Dated Him? OMG!\np8583\nsVcreative_id\np8584\nV6005653317565\np8585\nsVpreview_url\np8586\nVhttp://www.facebook.com/ads/api/creative_preview.php?cid=6005653317565\np8587\nsVid\np8588\nV6005653317565\np8589\nsVimage_url\np8590\nVhttps://fbcdn-creative-a.akamaihd.net/hads-ak-prn1/s110x80/708196_6006844785965_42688_n.jpg\np8591\nsVcount_current_adgroups\np8592\nI1\nsVrun_status\np8593\nI1\nsVtype\np8594\nI1\nsVlink_url\np8595\nVhttp://www.buzzfeed.com/h1/fbtestthree/duplicator/a-timeline-of-jennifer-anistons-relationships-1\np8596\nsVview_tag\np8597\ng36\nsa(dp8598\nValt_view_tags\np8599\n(lp8600\nsVbody\np8601\nVSee them all in "A Timeline Of Jennifer Aniston\'s Relationships" only on BuzzFeed!\np8602\nsVimage_hash\np8603\nVa7ef26044add9cc202848d20b8b60705\np8604\nsVname\np8605\nVJennifer Aniston\'s Exes-00-00\np8606\nsVtitle\np8607\nVJen Dated Him? OMG!\np8608\nsVcreative_id\np8609\nV6005653488365\np8610\nsVpreview_url\np8611\nVhttp://www.facebook.com/ads/api/creative_preview.php?cid=6005653488365\np8612\nsVid\np8613\nV6005653488365\np8614\nsVimage_url\np8615\nVhttps://fbcdn-creative-a.akamaihd.net/hads-ak-prn1/s110x80/708184_6006845060965_10452_n.jpg\np8616\nsVcount_current_adgroups\np8617\nI1\nsVrun_status\np8618\nI1\nsVtype\np8619\nI1\nsVlink_url\np8620\nVhttp://www.buzzfeed.com/h1/fbtestthree/duplicator/a-timeline-of-jennifer-anistons-relationships-1\np8621\nsVview_tag\np8622\ng36\nsa(dp8623\nValt_view_tags\np8624\n(lp8625\nsVbody\np8626\nVCheck out "16 Celebrities You Probably Knew Weren\'t Always Cool" on BuzzFeed!\np8627\nsVimage_hash\np8628\nV83f90ce6123466874655cbccff9efbfe\np8629\nsVname\np8630\nVIs that Lady Gaga?\np8631\nsVtitle\np8632\nVIs that Lady Gaga?\np8633\nsVcreative_id\np8634\nV6005644812365\np8635\nsVpreview_url\np8636\nVhttp://www.facebook.com/ads/api/creative_preview.php?cid=6005644812365\np8637\nsVid\np8638\nV6005644812365\np8639\nsVimage_url\np8640\nVhttps://fbcdn-creative-a.akamaihd.net/hads-ak-prn1/s110x80/708180_6006844840365_60792_n.jpg\np8641\nsVcount_current_adgroups\np8642\nI1\nsVrun_status\np8643\nI1\nsVtype\np8644\nI1\nsVlink_url\np8645\nVhttp://www.buzzfeed.com/h1/fbad/theinbetweeners/16-celebrities-you-probably-knew-werent-always-co\np8646\nsVview_tag\np8647\ng36\nsa(dp8648\nValt_view_tags\np8649\n(lp8650\nsVbody\np8651\nVCheck out "16 Celebrities You Probably Knew Weren\'t Always Cool" on BuzzFeed!\np8652\nsVimage_hash\np8653\nV405b947feef38c504e1c7e5252ae6bbd\np8654\nsVname\np8655\nVIs that Lady Gaga?-00\np8656\nsVtitle\np8657\nVIs that Steve Carell?\np8658\nsVcreative_id\np8659\nV6005644853165\np8660\nsVpreview_url\np8661\nVhttp://www.facebook.com/ads/api/creative_preview.php?cid=6005644853165\np8662\nsVid\np8663\nV6005644853165\np8664\nsVimage_url\np8665\nVhttps://fbcdn-creative-a.akamaihd.net/hads-ak-prn1/s110x80/708192_6006844429165_31941_n.jpg\np8666\nsVcount_current_adgroups\np8667\nI1\nsVrun_status\np8668\nI1\nsVtype\np8669\nI1\nsVlink_url\np8670\nVhttp://www.buzzfeed.com/h1/fbad/theinbetweeners/16-celebrities-you-probably-knew-werent-always-co\np8671\nsVview_tag\np8672\ng36\nsa(dp8673\nValt_view_tags\np8674\n(lp8675\nsVbody\np8676\nVCheck out "16 Celebrities You Probably Knew Weren\'t Always Cool" on BuzzFeed!\np8677\nsVimage_hash\np8678\nV8193d4e8675e6882c2fd40ae1384bb5a\np8679\nsVname\np8680\nVIs that Lady Gaga?-01\np8681\nsVtitle\np8682\nVIs that Katie Holmes?\np8683\nsVcreative_id\np8684\nV6005644938565\np8685\nsVpreview_url\np8686\nVhttp://www.facebook.com/ads/api/creative_preview.php?cid=6005644938565\np8687\nsVid\np8688\nV6005644938565\np8689\nsVim'
p6
sS'hash'
p7
S'057ed9ef6861c094e514d4776db0c6327d1c84eb'
p8
sS'stack'
p9
S''
s.