(dp1
S'args'
p2
S''
sS'methodname'
p3
S''
sS'packet_num'
p4
I7
sS'returnval'
p5
S'89678365\np948\nsVimage_url\np949\nVhttps://fbcdn-creative-a.akamaihd.net/hads-ak-prn1/s110x80/708205_6006844868365_131_n.jpg\np950\nsVcount_current_adgroups\np951\nI1\nsVrun_status\np952\nI1\nsVtype\np953\nI1\nsVlink_url\np954\nVhttp://www.buzzfeed.com/h1/fbad/frankenweenie/the-ultimate-collection-of-tim-burton-gifs\np955\nsVview_tag\np956\ng36\nsa(dp957\nValt_view_tags\np958\n(lp959\nsVbody\np960\nVCheck Out "The Ultimate Collection Of Tim Burton GIFs" on BuzzFeed!\np961\nsVimage_hash\np962\nV60e89141d140cbade1f59e631d1b03d4\np963\nsVname\np964\nVEdward Scissorhands GIF\np965\nsVtitle\np966\nVEdward Scissorhands GIF\np967\nsVcreative_id\np968\nV6005889659165\np969\nsVpreview_url\np970\nVhttp://www.facebook.com/ads/api/creative_preview.php?cid=6005889659165\np971\nsVid\np972\nV6005889659165\np973\nsVimage_url\np974\nVhttps://fbcdn-creative-a.akamaihd.net/hads-ak-ash3/s110x80/701903_6006844642965_48947_n.jpg\np975\nsVcount_current_adgroups\np976\nI1\nsVrun_status\np977\nI1\nsVtype\np978\nI1\nsVlink_url\np979\nVhttp://www.buzzfeed.com/h1/fbad/frankenweenie/the-ultimate-collection-of-tim-burton-gifs\np980\nsVview_tag\np981\ng36\nsa(dp982\nValt_view_tags\np983\n(lp984\nsVbody\np985\nVCheck out how they\'re connected in "The 6 Degrees Of Tuesday Night Sitcoms!"\np986\nsVimage_hash\np987\nVc99336a92612ebc3e22facd38f1115e2\np988\nsVname\np989\nVLove "The New Girl?"-02-00\np990\nsVtitle\np991\nVMindy & Kevin Bacon?\np992\nsVcreative_id\np993\nV6005961643965\np994\nsVpreview_url\np995\nVhttp://www.facebook.com/ads/api/creative_preview.php?cid=6005961643965\np996\nsVid\np997\nV6005961643965\np998\nsVimage_url\np999\nVhttps://fbcdn-creative-a.akamaihd.net/hads-ak-prn1/s110x80/708172_6006845256565_6940_n.jpg\np1000\nsVcount_current_adgroups\np1001\nI1\nsVrun_status\np1002\nI1\nsVtype\np1003\nI1\nsVlink_url\np1004\nVhttp://www.buzzfeed.com/h1/fbad/fox/the-6-degrees-of-tuesday-night-sitcoms-7juf\np1005\nsVview_tag\np1006\ng36\nsa(dp1007\nVname\np1008\nVAd from a Page post #6005964606365\np1009\nsVauto_update\np1010\ng36\nsVurl_tags\np1011\ng36\nsVcreative_id\np1012\nV6005964606365\np1013\nsVaction_t\np1014\nVBgABAQcIAAZQZ0UxCgAQAAAABRk9i6gNABoGCgAAAAwBCgAAAAAAAABQALgAANDqA1oGGgC5AAAAAAAAAGQAugAAZ1rE8B82AiMAAAAAAAAAAADDAAAAT1RSNB4BuwAAAAAAAABqAcoAANDqA1oGGgEeAAAAAO4NltIAAQAA0OoDWgYaAbYAAAAAUGdFMQHkAADQ6gNaBhoNABsGCwAAAAFAAwAAAJVUaGlzIHBvc3Qgd2FzIHN1cGVyIHZpcmFsIHRoaXMgd2Vlay4gb29vb28gQ2FuIFlvdSBNYWtlIEl0IFRocm91Z2ggVGhpcyBQb3N0IFdpdGhvdXQgV2FudGluZyBUbyBCZSBJbiA1dGggR3JhZGUgQWdhaW4/IG9vb29vIExldCdzIGdvIGJhY2sgdG8gc2Nob29sLgoAHAAA0OoDWgYaAA==\np1015\nsVpreview_url\np1016\nVhttp://www.facebook.com/ads/api/creative_preview.php?cid=6005964606365\np1017\nsVobject_id\np1018\nV21898300328\np1019\nsVaction_spec\np1020\nNsVcount_current_adgroups\np1021\nI1\nsVstory_id\np1022\nV229703497156122\np1023\nsVrun_status\np1024\nI1\nsVtype\np1025\nI27\nsVid\np1026\nV6005964606365\np1027\nsVlink_type\np1028\ng36\nsa(dp1029\nVname\np1030\nVSponsored story #6005964608165\np1031\nsVcreative_id\np1032\nV6005964608165\np1033\nsVpreview_url\np1034\nVhttp://www.facebook.com/ads/api/creative_preview.php?cid=6005964608165\np1035\nsVobject_id\np1036\nV21898300328\np1037\nsVaction_spec\np1038\n(lp1039\n(dp1040\nVpost\np1041\nV229703497156122\np1042\nsVaction.type\np1043\nVlike\np1044\nsa(dp1045\nVpost\np1046\nV229703497156122\np1047\nsVaction.type\np1048\nVcomment\np1049\nsa(dp1050\nVpost.object\np1051\nV229703497156122\np1052\nsVaction.type\np1053\nVpost\np1054\nsasVcluster_id\np1055\nI6005957666165\nsVcount_current_adgroups\np1056\nI1\nsVrun_status\np1057\nI1\nsVtype\np1058\nI25\nsVid\np1059\nV6005964608165\np1060\nsa(dp1061\nVrelated_fan_page\np1062\nI1\nsVimage_hash\np1063\ng36\nsVname\np1064\nVAd from a Page post #6005964275565\np1065\nsVauto_update\np1066\ng36\nsVurl_tags\np1067\ng36\nsVcreative_id\np1068\nV6005964275565\np1069\nsVcount_current_adgroups\np1070\nI1\nsVpreview_url\np1071\nVhttp://www.facebook.com/ads/api/creative_preview.php?cid=6005964275565\np1072\nsVobject_id\np1073\nV21898300328\np1074\nsVaction_t\np1075\nVBgABAQcIAAZQZ0UxCgAQAAAABRk9i6gNABoGCgAAAAwBCgAAAAAAAABQALgAANDqA1oGGgC5AAAAAAAAAGQAugAAZ1rE8B82AiMAAAAAAAAAAADDAAAAT1RSNB4BuwAAAAAAAABqAcoAANDqA1oGGgEeAAAAAO4NltIAAQAA0OoDWgYaAbYAAAAAUGdFMQHkAADQ6gNaBhoNABsGCwAAAAFAAwAAAJVUaGlzIHBvc3Qgd2FzIHN1cGVyIHZpcmFsIHRoaXMgd2Vlay4gb29vb28gQ2FuIFlvdSBNYWtlIEl0IFRoc'
p6
sS'hash'
p7
S'057ed9ef6861c094e514d4776db0c6327d1c84eb'
p8
sS'stack'
p9
S''
s.