(dp1
S'args'
p2
S''
sS'methodname'
p3
S''
sS'packet_num'
p4
I10
sS'returnval'
p5
S'k out the rest of  "The Definitive \\u201cBlown Away\\u201d Reaction Gifs" on BuzzFeed !\np1334\nsVimage_hash\np1335\nV98fe8eb9142795cc8e9580d5dde7b91a\np1336\nsVname\np1337\nVLOL Cat\np1338\nsVtitle\np1339\nVLOL Cat\np1340\nsVcreative_id\np1341\nV6005954248965\np1342\nsVpreview_url\np1343\nVhttp://www.facebook.com/ads/api/creative_preview.php?cid=6005954248965\np1344\nsVid\np1345\nV6005954248965\np1346\nsVimage_url\np1347\nVhttps://fbcdn-creative-a.akamaihd.net/hads-ak-ash3/s110x80/708176_6006844962365_48265_n.jpg\np1348\nsVcount_current_adgroups\np1349\nI1\nsVrun_status\np1350\nI1\nsVtype\np1351\nI1\nsVlink_url\np1352\nVhttp://www.buzzfeed.com/h1/fbad/gravityfalls/the-definitive-blown-away-reaction-gifs\np1353\nsVview_tag\np1354\ng36\nsa(dp1355\nValt_view_tags\np1356\n(lp1357\nsVbody\np1358\nVCheck out the rest of  "The Definitive \\u201cBlown Away\\u201d Reaction Gifs" on BuzzFeed !\np1359\nsVimage_hash\np1360\nV1909e30728b67dbe7f2f452fcb02f068\np1361\nsVname\np1362\nVLOL Cat-00\np1363\nsVtitle\np1364\nVChris Colfer\np1365\nsVcreative_id\np1366\nV6005954285565\np1367\nsVpreview_url\np1368\nVhttp://www.facebook.com/ads/api/creative_preview.php?cid=6005954285565\np1369\nsVid\np1370\nV6005954285565\np1371\nsVimage_url\np1372\nVhttps://fbcdn-creative-a.akamaihd.net/hads-ak-ash3/s110x80/701891_6006844210165_5433_n.jpg\np1373\nsVcount_current_adgroups\np1374\nI1\nsVrun_status\np1375\nI1\nsVtype\np1376\nI1\nsVlink_url\np1377\nVhttp://www.buzzfeed.com/h1/fbad/gravityfalls/the-definitive-blown-away-reaction-gifs\np1378\nsVview_tag\np1379\ng36\nsa(dp1380\nValt_view_tags\np1381\n(lp1382\nsVbody\np1383\nVCheck out the rest of  "The Definitive \\u201cBlown Away\\u201d Reaction Gifs" on BuzzFeed !\np1384\nsVimage_hash\np1385\nV71ef08bb0d474fa9a317d8279de0c322\np1386\nsVname\np1387\nVLOL Cat-01\np1388\nsVtitle\np1389\nVDonald Glover \np1390\nsVcreative_id\np1391\nV6005954342765\np1392\nsVpreview_url\np1393\nVhttp://www.facebook.com/ads/api/creative_preview.php?cid=6005954342765\np1394\nsVid\np1395\nV6005954342765\np1396\nsVimage_url\np1397\nVhttps://fbcdn-creative-a.akamaihd.net/hads-ak-ash3/s110x80/708190_6006844736365_11226_n.jpg\np1398\nsVcount_current_adgroups\np1399\nI1\nsVrun_status\np1400\nI1\nsVtype\np1401\nI1\nsVlink_url\np1402\nVhttp://www.buzzfeed.com/h1/fbad/gravityfalls/the-definitive-blown-away-reaction-gifs\np1403\nsVview_tag\np1404\ng36\nsa(dp1405\nValt_view_tags\np1406\n(lp1407\nsVbody\np1408\nVThey made the list of "The 11 Craziest Things Ever Expensed On A Business Trip." See more!\np1409\nsVimage_hash\np1410\nVdbffa4c4a2e1615a44a7e6a170e8e5cc\np1411\nsVname\np1412\nVTollbooth Accidents?\np1413\nsVtitle\np1414\nVTollbooth Accidents?\np1415\nsVcreative_id\np1416\nV6005954988565\np1417\nsVpreview_url\np1418\nVhttp://www.facebook.com/ads/api/creative_preview.php?cid=6005954988565\np1419\nsVid\np1420\nV6005954988565\np1421\nsVimage_url\np1422\nVhttps://fbcdn-creative-a.akamaihd.net/hads-ak-prn1/s110x80/708191_6006845368165_8143_n.jpg\np1423\nsVcount_current_adgroups\np1424\nI1\nsVrun_status\np1425\nI1\nsVtype\np1426\nI1\nsVlink_url\np1427\nVhttp://www.buzzfeed.com/h1/fbad/marriott/the-11-craziest-things-ever-expensed-on-a-business-7bu6\np1428\nsVview_tag\np1429\ng36\nsa(dp1430\nValt_view_tags\np1431\n(lp1432\nsVbody\np1433\nVThey made the list of "The 11 Craziest Things Ever Expensed On A Business Trip." See more!\np1434\nsVimage_hash\np1435\nVa5703cc58d627ae0b3155807d6aa135d\np1436\nsVname\np1437\nVTollbooth Accidents?-00\np1438\nsVtitle\np1439\nVLuxury Golf Clubs?\np1440\nsVcreative_id\np1441\nV6005954998765\np1442\nsVpreview_url\np1443\nVhttp://www.facebook.com/ads/api/creative_preview.php?cid=6005954998765\np1444\nsVid\np1445\nV6005954998765\np1446\nsVimage_url\np1447\nVhttps://fbcdn-creative-a.akamaihd.net/hads-ak-ash3/s110x80/701888_6006845043965_44005_n.jpg\np1448\nsVcount_current_adgroups\np1449\nI1\nsVrun_status\np1450\nI1\nsVtype\np1451\nI1\nsVlink_url\np1452\nVhttp://www.buzzfeed.com/h1/fbad/marriott/the-11-craziest-things-ever-expensed-on-a-business-7bu6\np1453\nsVview_tag\np1454\ng36\nsa(dp1455\nValt_view_tags\np1456\n(lp1457\nsVbody\np1458\nVAnd they\'re ready to prank call you! Check it out on BuzzFeed!\np1459\nsVimage_hash\np1460\nVa6dcaabe852d331a4d6e5513048f0688\np1461\nsVname\np1462\nVPrank Calling w/Furby?-00\np1463\nsVtitle\np1464\nVFurby\'s are Back!\np1465\nsVcreative_id\n'
p6
sS'hash'
p7
S'057ed9ef6861c094e514d4776db0c6327d1c84eb'
p8
sS'stack'
p9
S''
s.