(dp1
S'args'
p2
S''
sS'methodname'
p3
S''
sS'packet_num'
p4
I22
sS'returnval'
p5
S'w.facebook.com/ads/api/creative_preview.php?cid=6005924558565\np2892\nsVid\np2893\nV6005924558565\np2894\nsVimage_url\np2895\nVhttps://fbcdn-creative-a.akamaihd.net/hads-ak-ash3/s110x80/708195_6006844695565_63973_n.jpg\np2896\nsVcount_current_adgroups\np2897\nI1\nsVrun_status\np2898\nI1\nsVtype\np2899\nI1\nsVlink_url\np2900\nVhttp://www.buzzfeed.com/h1/fbad/totinos/what-parents-see-vs-what-kids-see-2wvj\np2901\nsVview_tag\np2902\ng36\nsa(dp2903\nValt_view_tags\np2904\n(lp2905\nsVbody\np2906\nVCheck out more "The Hottest Dudes Of NASCAR" on BuzzFeed!\np2907\nsVimage_hash\np2908\nVf14ff752c69660320b28abc2c5a2f525\np2909\nsVname\np2910\nVNASCAR\'s Kacey Kahne\np2911\nsVtitle\np2912\nVNASCAR\'s Kacey Kahne\np2913\nsVcreative_id\np2914\nV6005924085365\np2915\nsVpreview_url\np2916\nVhttp://www.facebook.com/ads/api/creative_preview.php?cid=6005924085365\np2917\nsVid\np2918\nV6005924085365\np2919\nsVimage_url\np2920\nVhttps://fbcdn-creative-a.akamaihd.net/hads-ak-ash3/s110x80/701894_6006845514965_33301_n.jpg\np2921\nsVcount_current_adgroups\np2922\nI1\nsVrun_status\np2923\nI1\nsVtype\np2924\nI1\nsVlink_url\np2925\nVhttp://ad.doubleclick.net/click;h=v2|3F93|0|0|%2a|s;260122121;0-0;0;83711970;31-1|1;49332344|49327572|1;;;pc=[TPAS_ID]%3fhttp://www.buzzfeed.com/h1/fbad/randomactsoffusion/the-hottest-dudes-of-nascar\np2926\nsVview_tag\np2927\ng36\nsa(dp2928\nValt_view_tags\np2929\n(lp2930\nsVbody\np2931\nVJust One of "The Most Inspiring Love Stories Of All Time" on BuzzFeed!\np2932\nsVimage_hash\np2933\nV3821a8642c043bdc8580dcbe0fe5ac62\np2934\nsVname\np2935\nVRomeo & Juliet\np2936\nsVtitle\np2937\nVRomeo & Juliet\np2938\nsVcreative_id\np2939\nV6005923573565\np2940\nsVpreview_url\np2941\nVhttp://www.facebook.com/ads/api/creative_preview.php?cid=6005923573565\np2942\nsVid\np2943\nV6005923573565\np2944\nsVimage_url\np2945\nVhttps://fbcdn-creative-a.akamaihd.net/hads-ak-ash3/s110x80/708193_6006844378165_50559_n.jpg\np2946\nsVcount_current_adgroups\np2947\nI1\nsVrun_status\np2948\nI1\nsVtype\np2949\nI1\nsVlink_url\np2950\nVhttp://www.buzzfeed.com/h1/fbad/beautyandthebeast/the-most-inspiring-love-stories-of-all-time-793j\np2951\nsVview_tag\np2952\ng36\nsa(dp2953\nValt_view_tags\np2954\n(lp2955\nsVbody\np2956\nVCheck Out More "Surprising Cartoon Cameos You Probably Missed" on BuzzFeed!\np2957\nsVimage_hash\np2958\nVf389dd3b62705ca11a95018d61baffb6\np2959\nsVname\np2960\nVHomer vs. Peter-00-00-00-00-00\np2961\nsVtitle\np2962\nVIs that Dustin Hoffman?\np2963\nsVcreative_id\np2964\nV6005924751365\np2965\nsVpreview_url\np2966\nVhttp://www.facebook.com/ads/api/creative_preview.php?cid=6005924751365\np2967\nsVid\np2968\nV6005924751365\np2969\nsVimage_url\np2970\nVhttps://fbcdn-creative-a.akamaihd.net/hads-ak-ash3/s110x80/701891_6006845523765_6197_n.jpg\np2971\nsVcount_current_adgroups\np2972\nI1\nsVrun_status\np2973\nI1\nsVtype\np2974\nI1\nsVlink_url\np2975\nVhttp://www.buzzfeed.com/h1/fbad/animationdomination/family-guys-vs-the-simpsons-who-did-it-best-7f8p\np2976\nsVview_tag\np2977\ng36\nsa(dp2978\nValt_view_tags\np2979\n(lp2980\nsVbody\np2981\nVCheck out more "The Hottest Dudes Of NASCAR" on BuzzFeed!\np2982\nsVimage_hash\np2983\nVec004fb9bdcceae24cd6350767f7bb34\np2984\nsVname\np2985\nVNASCAR\'s Kacey Kahne-00\np2986\nsVtitle\np2987\nVNASCAR\'s Jeff Gordon\np2988\nsVcreative_id\np2989\nV6005924101965\np2990\nsVpreview_url\np2991\nVhttp://www.facebook.com/ads/api/creative_preview.php?cid=6005924101965\np2992\nsVid\np2993\nV6005924101965\np2994\nsVimage_url\np2995\nVhttps://fbcdn-creative-a.akamaihd.net/hads-ak-prn1/s110x80/708164_6006845475565_27199_n.jpg\np2996\nsVcount_current_adgroups\np2997\nI1\nsVrun_status\np2998\nI1\nsVtype\np2999\nI1\nsVlink_url\np3000\nVhttp://ad.doubleclick.net/click;h=v2|3F93|0|0|%2a|s;260122121;0-0;0;83711970;31-1|1;49332344|49327572|1;;;pc=[TPAS_ID]%3fhttp://www.buzzfeed.com/h1/fbad/randomactsoffusion/the-hottest-dudes-of-nascar\np3001\nsVview_tag\np3002\ng36\nsa(dp3003\nValt_view_tags\np3004\n(lp3005\nsVbody\np3006\nVCheck out more "The Hottest Dudes Of NASCAR" on BuzzFeed!\np3007\nsVimage_hash\np3008\nV1df0e153be193b35a8147a3d9a20df7d\np3009\nsVname\np3010\nVNASCAR\'s Kacey Kahne-00-00\np3011\nsVtitle\np3012\nVNASCAR\'s Trevor Bayne\np3013\nsVcreative_id\np3014\nV6005924233765\np3015\nsVpreview_url\np3016\nVhttp://www.facebook.com/ads/api/creative_preview.php?cid=60059242'
p6
sS'hash'
p7
S'057ed9ef6861c094e514d4776db0c6327d1c84eb'
p8
sS'stack'
p9
S''
s.