(dp1
S'args'
p2
S''
sS'methodname'
p3
S''
sS'packet_num'
p4
I48
sS'returnval'
p5
S'6469\nsVimage_url\np6470\nVhttps://fbcdn-creative-a.akamaihd.net/hads-ak-prn1/s110x80/708178_6006845195565_52596_n.jpg\np6471\nsVcount_current_adgroups\np6472\nI1\nsVrun_status\np6473\nI1\nsVtype\np6474\nI1\nsVlink_url\np6475\nVhttp://www.buzzfeed.com/h1/fbad/pedigree/20-reasons-why-dogs-are-mans-best-friend\np6476\nsVview_tag\np6477\ng36\nsa(dp6478\nValt_view_tags\np6479\n(lp6480\nsVbody\np6481\nVCheck out "24 Double Takes That Will Leave You Puzzled" on BuzzFeed!\np6482\nsVimage_hash\np6483\nV70efbaa3c6a272e3df34853b567fd8ec\np6484\nsVname\np6485\nVBotched Ecce Homo?\np6486\nsVtitle\np6487\nVBotched Ecce Homo?\np6488\nsVcreative_id\np6489\nV6005812271165\np6490\nsVpreview_url\np6491\nVhttp://www.facebook.com/ads/api/creative_preview.php?cid=6005812271165\np6492\nsVid\np6493\nV6005812271165\np6494\nsVimage_url\np6495\nVhttps://fbcdn-creative-a.akamaihd.net/hads-ak-ash3/s110x80/701899_6006844730165_34449_n.jpg\np6496\nsVcount_current_adgroups\np6497\nI1\nsVrun_status\np6498\nI1\nsVtype\np6499\nI1\nsVlink_url\np6500\nVhttp://www.buzzfeed.com/h1/fbad/starbucks/24-double-takes-that-will-leave-you-puzzled-78m6\np6501\nsVview_tag\np6502\ng36\nsa(dp6503\nValt_view_tags\np6504\n(lp6505\nsVbody\np6506\nVIt\'s Rob Pattinson & his Stunt Double! Check out more on BuzzFeed!\np6507\nsVimage_hash\np6508\nVa112f53b08af89fe6c7d1c86c9932746\np6509\nsVname\np6510\nVSeeing Double?\np6511\nsVtitle\np6512\nVSeeing Double?\np6513\nsVcreative_id\np6514\nV6005812237165\np6515\nsVpreview_url\np6516\nVhttp://www.facebook.com/ads/api/creative_preview.php?cid=6005812237165\np6517\nsVid\np6518\nV6005812237165\np6519\nsVimage_url\np6520\nVhttps://fbcdn-creative-a.akamaihd.net/hads-ak-ash3/s110x80/701896_6006845015765_58851_n.jpg\np6521\nsVcount_current_adgroups\np6522\nI1\nsVrun_status\np6523\nI1\nsVtype\np6524\nI1\nsVlink_url\np6525\nVhttp://www.buzzfeed.com/h1/fbad/starbucks/14-sweet-shots-of-celebs-with-their-stunt-doubles-78m6\np6526\nsVview_tag\np6527\ng36\nsa(dp6528\nValt_view_tags\np6529\n(lp6530\nsVbody\np6531\nVCheck out the rest of the "17 Awesome Political Bumper Stickers" on Buzzfeed!\np6532\nsVimage_hash\np6533\nV4536ca4e2fffc6e1982c7c365fdd4904\np6534\nsVname\np6535\nVVoldemort Is Conservative\np6536\nsVtitle\np6537\nVVoldemort Is Conservative\np6538\nsVcreative_id\np6539\nV6005812072165\np6540\nsVpreview_url\np6541\nVhttp://www.facebook.com/ads/api/creative_preview.php?cid=6005812072165\np6542\nsVid\np6543\nV6005812072165\np6544\nsVimage_url\np6545\nVhttps://fbcdn-creative-a.akamaihd.net/hads-ak-prn1/s110x80/708174_6006844469165_57595_n.jpg\np6546\nsVcount_current_adgroups\np6547\nI1\nsVrun_status\np6548\nI1\nsVtype\np6549\nI1\nsVlink_url\np6550\nVhttp://www.buzzfeed.com/h1/fbad/virginmobilelive/17-awesome-political-bumper-stickers-5l87\np6551\nsVview_tag\np6552\ng36\nsa(dp6553\nValt_view_tags\np6554\n(lp6555\nsVbody\np6556\nVHe\'s had quite the career so far. Check out his official career timeline on Buzzfeed!\np6557\nsVimage_hash\np6558\nV6e32b23947254e4c6161d15facd51b9e\np6559\nsVname\np6560\nVJoseph Gordon Levitt-00\np6561\nsVtitle\np6562\nVJoseph Gordon Levitt\np6563\nsVcreative_id\np6564\nV6005806479965\np6565\nsVpreview_url\np6566\nVhttp://www.facebook.com/ads/api/creative_preview.php?cid=6005806479965\np6567\nsVid\np6568\nV6005806479965\np6569\nsVimage_url\np6570\nVhttps://fbcdn-creative-a.akamaihd.net/hads-ak-ash3/s110x80/701898_6006844718565_51959_n.jpg\np6571\nsVcount_current_adgroups\np6572\nI1\nsVrun_status\np6573\nI1\nsVtype\np6574\nI1\nsVlink_url\np6575\nVhttp://www.buzzfeed.com/h1/fbad/loopermovie/the-official-career-timeline-of-joseph-gordon-levi\np6576\nsVview_tag\np6577\ng36\nsa(dp6578\nValt_view_tags\np6579\n(lp6580\nsVbody\np6581\nVIf you love this, then check out the rest of the "15 Sweet Animal/Human Friendships" here!\np6582\nsVimage_hash\np6583\nVe321b6e13adcf8fd6433d238325efc03\np6584\nsVname\np6585\nVJust A Baby And Her Cat\np6586\nsVtitle\np6587\nVJust A Baby And Her Cat\np6588\nsVcreative_id\np6589\nV6005804961965\np6590\nsVpreview_url\np6591\nVhttp://www.facebook.com/ads/api/creative_preview.php?cid=6005804961965\np6592\nsVid\np6593\nV6005804961965\np6594\nsVimage_url\np6595\nVhttps://fbcdn-creative-a.akamaihd.net/hads-ak-prn1/s110x80/708169_6006845419765_4037_n.jpg\np6596\nsVcount_current_adgroups\np6597\nI1\nsVrun_status\np6598\nI1\nsVtype\np6599\nI1\nsVlink_url\np6600\nVhttp:'
p6
sS'hash'
p7
S'057ed9ef6861c094e514d4776db0c6327d1c84eb'
p8
sS'stack'
p9
S''
s.