(dp1
S'args'
p2
S''
sS'methodname'
p3
S''
sS'packet_num'
p4
I9
sS'returnval'
p5
S'99\nI1\nsVrun_status\np1200\nI1\nsVtype\np1201\nI1\nsVlink_url\np1202\nVhttp://www.buzzfeed.com/h1/fbad/itsalwayssunny/meet-the-new-cast-of-its-always-sunny-in-philadel\np1203\nsVview_tag\np1204\ng36\nsa(dp1205\nValt_view_tags\np1206\n(lp1207\nsVbody\np1208\nVMeet The New Cast Of It\'s Always Sunny In Philadelphia - Only on BuzzFeed!\np1209\nsVimage_hash\np1210\nV96660c5bab1388dc0550997a2d7e39ec\np1211\nsVname\np1212\nVSweet Dee as... XZIBIT?-01-00\np1213\nsVtitle\np1214\nVHaley Joel Osmont is Mac?\np1215\nsVcreative_id\np1216\nV6005927972565\np1217\nsVpreview_url\np1218\nVhttp://www.facebook.com/ads/api/creative_preview.php?cid=6005927972565\np1219\nsVid\np1220\nV6005927972565\np1221\nsVimage_url\np1222\nVhttps://fbcdn-creative-a.akamaihd.net/hads-ak-prn1/s110x80/708172_6006844950565_42325_n.jpg\np1223\nsVcount_current_adgroups\np1224\nI1\nsVrun_status\np1225\nI1\nsVtype\np1226\nI1\nsVlink_url\np1227\nVhttp://www.buzzfeed.com/h1/fbad/itsalwayssunny/meet-the-new-cast-of-its-always-sunny-in-philadel\np1228\nsVview_tag\np1229\ng36\nsa(dp1230\nValt_view_tags\np1231\n(lp1232\nsVbody\np1233\nVCheck Out Other "Celebs Who Are Feeling The Heat" on BuzzFeed!\np1234\nsVimage_hash\np1235\nV32b5c3a80ac882337f61d45e428be29c\np1236\nsVname\np1237\nVTom Cruise, Sweat Much?-00\np1238\nsVtitle\np1239\nVSweaty Rob Pattinson?\np1240\nsVcreative_id\np1241\nV6005955451565\np1242\nsVpreview_url\np1243\nVhttp://www.facebook.com/ads/api/creative_preview.php?cid=6005955451565\np1244\nsVid\np1245\nV6005955451565\np1246\nsVimage_url\np1247\nVhttps://fbcdn-creative-a.akamaihd.net/hads-ak-prn1/s110x80/708164_6006844350765_7886_n.jpg\np1248\nsVcount_current_adgroups\np1249\nI1\nsVrun_status\np1250\nI1\nsVtype\np1251\nI1\nsVlink_url\np1252\nVhttp://www.buzzfeed.com/h1/fbad/emilyowensmd/celebs-who-are-feeling-the-heat\np1253\nsVview_tag\np1254\ng36\nsa(dp1255\nValt_view_tags\np1256\n(lp1257\nsVbody\np1258\nVCheck Out Other "Celebs Who Are Feeling The Heat" on BuzzFeed!\np1259\nsVimage_hash\np1260\nV72614a6afa2a2dde18b3110b34df344f\np1261\nsVname\np1262\nVTom Cruise, Sweat Much?-00-00\np1263\nsVtitle\np1264\nVJude Law, Sweat Much?\np1265\nsVcreative_id\np1266\nV6005955477365\np1267\nsVpreview_url\np1268\nVhttp://www.facebook.com/ads/api/creative_preview.php?cid=6005955477365\np1269\nsVid\np1270\nV6005955477365\np1271\nsVimage_url\np1272\nVhttps://fbcdn-creative-a.akamaihd.net/hads-ak-ash3/s110x80/708190_6006844738765_14342_n.jpg\np1273\nsVcount_current_adgroups\np1274\nI1\nsVrun_status\np1275\nI1\nsVtype\np1276\nI1\nsVlink_url\np1277\nVhttp://www.buzzfeed.com/h1/fbad/emilyowensmd/celebs-who-are-feeling-the-heat\np1278\nsVview_tag\np1279\ng36\nsa(dp1280\nValt_view_tags\np1281\n(lp1282\nsVbody\np1283\nVCheck Out the Best Arnold Schwarzenegger Gifs - Only on BuzzFeed!\np1284\nsVimage_hash\np1285\nV862639ffbeac44e3fd0fc3691a680a9f\np1286\nsVname\np1287\nVArnold Going Mad!-00\np1288\nsVtitle\np1289\nVArnold in "Total Recall"\np1290\nsVcreative_id\np1291\nV6005913246165\np1292\nsVpreview_url\np1293\nVhttp://www.facebook.com/ads/api/creative_preview.php?cid=6005913246165\np1294\nsVid\np1295\nV6005913246165\np1296\nsVimage_url\np1297\nVhttps://fbcdn-creative-a.akamaihd.net/hads-ak-prn1/s110x80/708187_6006844851165_54564_n.jpg\np1298\nsVcount_current_adgroups\np1299\nI1\nsVrun_status\np1300\nI1\nsVtype\np1301\nI1\nsVlink_url\np1302\nVhttp://www.buzzfeed.com/h1/fbad/totalrecall/18-of-the-best-gifs-from-arnold-schwarzeneggers-b-7etv\np1303\nsVview_tag\np1304\ng36\nsa(dp1305\nValt_view_tags\np1306\n(lp1307\nsVbody\np1308\nVThen you need to check out "17 Gravity Falls GIFs To Brighten Up Your Day" on Buzzfeed!\np1309\nsVimage_hash\np1310\nV3ce093cfb149858c79bb590ddebc5494\np1311\nsVname\np1312\nVFeeling Sad ? \np1313\nsVtitle\np1314\nVFeeling Sad ? \np1315\nsVcreative_id\np1316\nV6005916106965\np1317\nsVpreview_url\np1318\nVhttp://www.facebook.com/ads/api/creative_preview.php?cid=6005916106965\np1319\nsVid\np1320\nV6005916106965\np1321\nsVimage_url\np1322\nVhttps://fbcdn-creative-a.akamaihd.net/hads-ak-prn1/s110x80/708161_6006844410765_58124_n.jpg\np1323\nsVcount_current_adgroups\np1324\nI1\nsVrun_status\np1325\nI1\nsVtype\np1326\nI1\nsVlink_url\np1327\nVhttp://www.buzzfeed.com/h1/fbad/gravityfalls/17-gravity-falls-gifs-to-brighten-up-your-day-75ne\np1328\nsVview_tag\np1329\ng36\nsa(dp1330\nValt_view_tags\np1331\n(lp1332\nsVbody\np1333\nVChec'
p6
sS'hash'
p7
S'057ed9ef6861c094e514d4776db0c6327d1c84eb'
p8
sS'stack'
p9
S''
s.