(dp1
S'args'
p2
S''
sS'methodname'
p3
S''
sS'packet_num'
p4
I71
sS'returnval'
p5
S'Vimage_hash\np9478\nV94f736e73d9189c794ca2066b364834a\np9479\nsVname\np9480\nV"Hi Everybody!"\np9481\nsVtitle\np9482\nV"Hi Everybody!"\np9483\nsVcreative_id\np9484\nV6005611491365\np9485\nsVpreview_url\np9486\nVhttp://www.facebook.com/ads/api/creative_preview.php?cid=6005611491365\np9487\nsVid\np9488\nV6005611491365\np9489\nsVimage_url\np9490\nVhttps://fbcdn-creative-a.akamaihd.net/hads-ak-ash3/s110x80/708196_6006844943565_26133_n.jpg\np9491\nsVcount_current_adgroups\np9492\nI1\nsVrun_status\np9493\nI1\nsVtype\np9494\nI1\nsVlink_url\np9495\nVhttp://www.buzzfeed.com/h1/fbad/childrensntsf/tvs-10-most-outrageous-doctors\np9496\nsVview_tag\np9497\ng36\nsa(dp9498\nValt_view_tags\np9499\n(lp9500\nsVbody\np9501\nVHe made the list of "The 10 Best Gravel-Voiced Characters In TV And Film." See the rest!\np9502\nsVimage_hash\np9503\nVb8d2eb391db818d10798fe17587ba1c9\np9504\nsVname\np9505\nVSnake Plissken-00-00\np9506\nsVtitle\np9507\nVThe Dark Knight\np9508\nsVcreative_id\np9509\nV6005611529565\np9510\nsVpreview_url\np9511\nVhttp://www.facebook.com/ads/api/creative_preview.php?cid=6005611529565\np9512\nsVid\np9513\nV6005611529565\np9514\nsVimage_url\np9515\nVhttps://fbcdn-creative-a.akamaihd.net/hads-ak-prn1/s110x80/708169_6006845159565_21075_n.jpg\np9516\nsVcount_current_adgroups\np9517\nI1\nsVrun_status\np9518\nI1\nsVtype\np9519\nI1\nsVlink_url\np9520\nVhttp://www.buzzfeed.com/h1/fbad/childrensntsf/the-10-best-gravel-voiced-badasses-in-tv-and-film\np9521\nsVview_tag\np9522\ng36\nsa(dp9523\nValt_view_tags\np9524\n(lp9525\nsVbody\np9526\nVIt\'s science and an art. Check out this "Ultimate Guide To Photobombing" on BuzzFeed.\\u000a\np9527\nsVimage_hash\np9528\nVb46f4ed7e268e850d39cab5042df3905\np9529\nsVname\np9530\nVThe Best Photbombs!-00\np9531\nsVtitle\np9532\nVThe Best Photobombs!\np9533\nsVcreative_id\np9534\nV6005610374965\np9535\nsVpreview_url\np9536\nVhttp://www.facebook.com/ads/api/creative_preview.php?cid=6005610374965\np9537\nsVid\np9538\nV6005610374965\np9539\nsVimage_url\np9540\nVhttps://fbcdn-creative-a.akamaihd.net/hads-ak-snc7/s110x80/701899_6006845139365_37567_n.jpg\np9541\nsVcount_current_adgroups\np9542\nI2\nsVrun_status\np9543\nI1\nsVtype\np9544\nI1\nsVlink_url\np9545\nVhttp://bzfd.it/MGL9Hk\np9546\nsVview_tag\np9547\ng36\nsa(dp9548\nValt_view_tags\np9549\n(lp9550\nsVbody\np9551\nVCheck out the "16 Best Special Effects Makeup Before And Afters" on BuzzFeed!\np9552\nsVimage_hash\np9553\nVcc3b6210472c2786ec283eecd7845b88\np9554\nsVname\np9555\nVBeetlejuice Beetlejuice!\np9556\nsVtitle\np9557\nVBeetlejuice Beetlejuice!\np9558\nsVcreative_id\np9559\nV6005607725965\np9560\nsVpreview_url\np9561\nVhttp://www.facebook.com/ads/api/creative_preview.php?cid=6005607725965\np9562\nsVid\np9563\nV6005607725965\np9564\nsVimage_url\np9565\nVhttps://fbcdn-creative-a.akamaihd.net/hads-ak-prn1/s110x80/708171_6006845275165_39064_n.jpg\np9566\nsVcount_current_adgroups\np9567\nI1\nsVrun_status\np9568\nI1\nsVtype\np9569\nI1\nsVlink_url\np9570\nVhttp://www.buzzfeed.com/h1/fbad/syfy/the-16-best-special-effects-makeup-before-and-afte-6wms\np9571\nsVview_tag\np9572\ng36\nsa(dp9573\nValt_view_tags\np9574\n(lp9575\nsVbody\np9576\nVCheck out the "16 Best Special Effects Makeup Before And Afters" on BuzzFeed!\np9577\nsVimage_hash\np9578\nV576bb66483964e6511bed98e30eef49f\np9579\nsVname\np9580\nVBeetlejuice Beetlejuice!-00\np9581\nsVtitle\np9582\nVIt\'s Just a Thriller!\np9583\nsVcreative_id\np9584\nV6005653030765\np9585\nsVpreview_url\np9586\nVhttp://www.facebook.com/ads/api/creative_preview.php?cid=6005653030765\np9587\nsVid\np9588\nV6005653030765\np9589\nsVimage_url\np9590\nVhttps://fbcdn-creative-a.akamaihd.net/hads-ak-ash3/s110x80/708176_6006844593965_4640_n.jpg\np9591\nsVcount_current_adgroups\np9592\nI1\nsVrun_status\np9593\nI1\nsVtype\np9594\nI1\nsVlink_url\np9595\nVhttp://www.buzzfeed.com/h1/fbad/syfy/the-16-best-special-effects-makeup-before-and-afte-6wms\np9596\nsVview_tag\np9597\ng36\nsa(dp9598\nValt_view_tags\np9599\n(lp9600\nsVbody\np9601\nVYou\'ll Never Guess Who These Celebrities Really Are. See the rest on BuzzFeed!\np9602\nsVimage_hash\np9603\nV3d2abec5338fc094c039499cfb9e6c12\np9604\nsVname\np9605\nVMrs. Doubtfire-00-00-00\np9606\nsVtitle\np9607\nVIs this Angelina?\np9608\nsVcreative_id\np9609\nV6005667380965\np9610\nsVpreview_url\np9611\nVhttp://www.facebook.com/ads/api/creative_preview.php?cid=6005667'
p6
sS'hash'
p7
S'057ed9ef6861c094e514d4776db0c6327d1c84eb'
p8
sS'stack'
p9
S''
s.