(dp1
S'args'
p2
S''
sS'methodname'
p3
S''
sS'packet_num'
p4
I28
sS'returnval'
p5
S'hp?cid=6005915816165\np3746\nsVid\np3747\nV6005915816165\np3748\nsVimage_url\np3749\nVhttps://fbcdn-creative-a.akamaihd.net/hads-ak-prn1/s110x80/708172_6006844309165_33910_n.jpg\np3750\nsVcount_current_adgroups\np3751\nI1\nsVrun_status\np3752\nI1\nsVtype\np3753\nI1\nsVlink_url\np3754\nVhttp://www.buzzfeed.com/h1/fbad/animationdomination/24-sunday-night-cartoon-celebrity-dopplegangers-7f8p\np3755\nsVview_tag\np3756\ng36\nsa(dp3757\nValt_view_tags\np3758\n(lp3759\nsVbody\np3760\nVFunny how they\'re great as kids. See more differences between what kids and parents see!\np3761\nsVimage_hash\np3762\nV19ca076e16af77506977dad720a42df1\np3763\nsVname\np3764\nVSnow Days!\np3765\nsVtitle\np3766\nVSnow Days!\np3767\nsVcreative_id\np3768\nV6005915635965\np3769\nsVpreview_url\np3770\nVhttp://www.facebook.com/ads/api/creative_preview.php?cid=6005915635965\np3771\nsVid\np3772\nV6005915635965\np3773\nsVimage_url\np3774\nVhttps://fbcdn-creative-a.akamaihd.net/hads-ak-ash3/s110x80/701891_6006844212565_65281_n.jpg\np3775\nsVcount_current_adgroups\np3776\nI1\nsVrun_status\np3777\nI1\nsVtype\np3778\nI1\nsVlink_url\np3779\nVhttp://www.buzzfeed.com/h1/fbad/totinos/what-parents-see-vs-what-kids-see-2wvj\np3780\nsVview_tag\np3781\ng36\nsa(dp3782\nValt_view_tags\np3783\n(lp3784\nsVbody\np3785\nVCheck out "11 Ways To Have Ranch With Your Breakfast" on Buzzfeed!\np3786\nsVimage_hash\np3787\nVb70f279be7e62547c5df16f23fa4ee26\np3788\nsVname\np3789\nVRe-Invent Eggs Benedict\np3790\nsVtitle\np3791\nVRe-Invent Eggs Benedict\np3792\nsVcreative_id\np3793\nV6005904026165\np3794\nsVpreview_url\np3795\nVhttp://www.facebook.com/ads/api/creative_preview.php?cid=6005904026165\np3796\nsVid\np3797\nV6005904026165\np3798\nsVimage_url\np3799\nVhttps://fbcdn-creative-a.akamaihd.net/hads-ak-prn1/s110x80/708173_6006845150165_45451_n.jpg\np3800\nsVcount_current_adgroups\np3801\nI1\nsVrun_status\np3802\nI1\nsVtype\np3803\nI1\nsVlink_url\np3804\nVhttp://www.buzzfeed.com/h1/fbad/hiddenvalleyranch/11-ways-to-have-ranch-with-your-breakfast\np3805\nsVview_tag\np3806\ng36\nsa(dp3807\nValt_view_tags\np3808\n(lp3809\nsVbody\np3810\nVCheck out "11 Ways To Have Ranch With Your Breakfast" on Buzzfeed!\np3811\nsVimage_hash\np3812\nVc031a2945bf207e3c38a0dc08b350c02\np3813\nsVname\np3814\nVRe-Invent Eggs Benedict-00\np3815\nsVtitle\np3816\nVBeef Up Corned Beef Hash\np3817\nsVcreative_id\np3818\nV6005904030565\np3819\nsVpreview_url\np3820\nVhttp://www.facebook.com/ads/api/creative_preview.php?cid=6005904030565\np3821\nsVid\np3822\nV6005904030565\np3823\nsVimage_url\np3824\nVhttps://fbcdn-creative-a.akamaihd.net/hads-ak-prn1/s110x80/708192_6006845204165_36834_n.jpg\np3825\nsVcount_current_adgroups\np3826\nI1\nsVrun_status\np3827\nI1\nsVtype\np3828\nI1\nsVlink_url\np3829\nVhttp://www.buzzfeed.com/h1/fbad/hiddenvalleyranch/11-ways-to-have-ranch-with-your-breakfast\np3830\nsVview_tag\np3831\ng36\nsa(dp3832\nValt_view_tags\np3833\n(lp3834\nsVbody\np3835\nVCheck out "11 Ways To Have Ranch With Your Breakfast" on Buzzfeed!\np3836\nsVimage_hash\np3837\nV9ae4c76f6af412aa934e715e1895f81f\np3838\nsVname\np3839\nVRe-Invent Eggs Benedict-00-00\np3840\nsVtitle\np3841\nVFor Breakfast Lovers!\np3842\nsVcreative_id\np3843\nV6005904037765\np3844\nsVpreview_url\np3845\nVhttp://www.facebook.com/ads/api/creative_preview.php?cid=6005904037765\np3846\nsVid\np3847\nV6005904037765\np3848\nsVimage_url\np3849\nVhttps://fbcdn-creative-a.akamaihd.net/hads-ak-prn1/s110x80/708163_6006844972965_57944_n.jpg\np3850\nsVcount_current_adgroups\np3851\nI1\nsVrun_status\np3852\nI1\nsVtype\np3853\nI1\nsVlink_url\np3854\nVhttp://www.buzzfeed.com/h1/fbad/hiddenvalleyranch/11-ways-to-have-ranch-with-your-breakfast\np3855\nsVview_tag\np3856\ng36\nsa(dp3857\nValt_view_tags\np3858\n(lp3859\nsVbody\np3860\nVCheck out More "Hilarious Displays Of Sibling Rivalry" on BuzzFeed!\np3861\nsVimage_hash\np3862\nV8072340d2c1173177e1683b183414438\np3863\nsVname\np3864\nVBaby\'s Flippin\' You Off?-00-00-00-00-00\np3865\nsVtitle\np3866\nVOh, Brotherly Love!\np3867\nsVcreative_id\np3868\nV6005918425165\np3869\nsVpreview_url\np3870\nVhttp://www.facebook.com/ads/api/creative_preview.php?cid=6005918425165\np3871\nsVid\np3872\nV6005918425165\np3873\nsVimage_url\np3874\nVhttps://fbcdn-creative-a.akamaihd.net/hads-ak-prn1/s110x80/708196_6006844821365_46546_n.jpg\np3875\nsVcount_current_adgroups\np3876\nI1\nsVrun_status\np'
p6
sS'hash'
p7
S'057ed9ef6861c094e514d4776db0c6327d1c84eb'
p8
sS'stack'
p9
S''
s.