(dp1
S'args'
p2
S''
sS'methodname'
p3
S''
sS'packet_num'
p4
I46
sS'returnval'
p5
S's." Check out the rest on Buzzfeed!\np6207\nsVimage_hash\np6208\nV6f9dcb0cee3a2bb2563039d4b706435c\np6209\nsVname\np6210\nVGeorge Bluth\'s Kippah-00\np6211\nsVtitle\np6212\nVGreen Lantern Kippah?\np6213\nsVcreative_id\np6214\nV6005836165565\np6215\nsVpreview_url\np6216\nVhttp://www.facebook.com/ads/api/creative_preview.php?cid=6005836165565\np6217\nsVid\np6218\nV6005836165565\np6219\nsVimage_url\np6220\nVhttps://fbcdn-creative-a.akamaihd.net/hads-ak-ash3/s110x80/701899_6006844726365_20702_n.jpg\np6221\nsVcount_current_adgroups\np6222\nI1\nsVrun_status\np6223\nI1\nsVtype\np6224\nI1\nsVlink_url\np6225\nVhttp://www.buzzfeed.com/h1/fbad/virginmobilelive/15-kick-ass-kippahs-5l87\np6226\nsVview_tag\np6227\ng36\nsa(dp6228\nValt_view_tags\np6229\n(lp6230\nsVbody\np6231\nVRemember the coolest decade? Check out "10 Things We Miss From the 1970\'s" on Buzzfeed!\np6232\nsVimage_hash\np6233\nV3aeca1b56f223cbcd72e32a3dbaffc0f\np6234\nsVname\np6235\nV1970\'s Fashion-00\np6236\nsVtitle\np6237\nV1970\'s Hair\np6238\nsVcreative_id\np6239\nV6005831937565\np6240\nsVpreview_url\np6241\nVhttp://www.facebook.com/ads/api/creative_preview.php?cid=6005831937565\np6242\nsVid\np6243\nV6005831937565\np6244\nsVimage_url\np6245\nVhttps://fbcdn-creative-a.akamaihd.net/hads-ak-prn1/s110x80/708206_6006844393965_51729_n.jpg\np6246\nsVcount_current_adgroups\np6247\nI1\nsVrun_status\np6248\nI1\nsVtype\np6249\nI1\nsVlink_url\np6250\nVhttp://www.buzzfeed.com/h1/fbad/blackdynamite/10-things-we-miss-from-the-1970s-5e97\np6251\nsVview_tag\np6252\ng36\nsa(dp6253\nValt_view_tags\np6254\n(lp6255\nsVbody\np6256\nVThis dog definitely doesn\'t need your help. See more animals that are smarter than you!\np6257\nsVimage_hash\np6258\nV947009b4889e95f00e7487b36c59f575\np6259\nsVname\np6260\nVSkateboarding Bulldog!-00\np6261\nsVtitle\np6262\nVCleaning Up After Himself\np6263\nsVcreative_id\np6264\nV6005831678365\np6265\nsVpreview_url\np6266\nVhttp://www.facebook.com/ads/api/creative_preview.php?cid=6005831678365\np6267\nsVid\np6268\nV6005831678365\np6269\nsVimage_url\np6270\nVhttps://fbcdn-creative-a.akamaihd.net/hads-ak-ash3/s110x80/708188_6006844937165_53357_n.jpg\np6271\nsVcount_current_adgroups\np6272\nI1\nsVrun_status\np6273\nI1\nsVtype\np6274\nI1\nsVlink_url\np6275\nVhttp://www.buzzfeed.com/h1/fbad/animalpractice/27-animals-that-are-probably-smarter-than-you-7auw\np6276\nsVview_tag\np6277\ng36\nsa(dp6278\nValt_view_tags\np6279\n(lp6280\nsVbody\np6281\nVJust One of the "10 Animal Celebrities That Are Ready For Halloween" - Only on BuzzFeed!\np6282\nsVimage_hash\np6283\nV01180b64a26703bb841b1b4abe39a9e5\np6284\nsVname\np6285\nVLending A Helping Hand-00-00\np6286\nsVtitle\np6287\nVQuite Literally, "BOO!"\np6288\nsVcreative_id\np6289\nV6005826657165\np6290\nsVpreview_url\np6291\nVhttp://www.facebook.com/ads/api/creative_preview.php?cid=6005826657165\np6292\nsVid\np6293\nV6005826657165\np6294\nsVimage_url\np6295\nVhttps://fbcdn-creative-a.akamaihd.net/hads-ak-prn1/s110x80/708174_6006844056765_2974_n.jpg\np6296\nsVcount_current_adgroups\np6297\nI1\nsVrun_status\np6298\nI1\nsVtype\np6299\nI1\nsVlink_url\np6300\nVhttp://www.buzzfeed.com/h1/fbad/frankenweenie/10-animal-celebrities-that-are-ready-for-halloween\np6301\nsVview_tag\np6302\ng36\nsa(dp6303\nValt_view_tags\np6304\n(lp6305\nsVbody\np6306\nVJust One of the "10 Animal Celebrities That Are Ready For Halloween" - Only on BuzzFeed!\np6307\nsVimage_hash\np6308\nVa23f27af7a9e3c7120bf4d31d7c1920e\np6309\nsVname\np6310\nVLending A Helping Hand-00-00-00\np6311\nsVtitle\np6312\nVMaru Taro as Frankenstein\np6313\nsVcreative_id\np6314\nV6005826683165\np6315\nsVpreview_url\np6316\nVhttp://www.facebook.com/ads/api/creative_preview.php?cid=6005826683165\np6317\nsVid\np6318\nV6005826683165\np6319\nsVimage_url\np6320\nVhttps://fbcdn-creative-a.akamaihd.net/hads-ak-ash3/s110x80/701898_6006845023965_25338_n.jpg\np6321\nsVcount_current_adgroups\np6322\nI1\nsVrun_status\np6323\nI1\nsVtype\np6324\nI1\nsVlink_url\np6325\nVhttp://www.buzzfeed.com/h1/fbad/frankenweenie/10-animal-celebrities-that-are-ready-for-halloween\np6326\nsVview_tag\np6327\ng36\nsa(dp6328\nValt_view_tags\np6329\n(lp6330\nsVbody\np6331\nVJust One of the "10 Animal Celebrities That Are Ready For Halloween" - Only on BuzzFeed!\np6332\nsVimage_hash\np6333\nV4fb1cfbf2bbc8aaf1c30e59cc1195f5e\np6334\nsVname\np6335\nVLending A Helping Hand-00-00-'
p6
sS'hash'
p7
S'057ed9ef6861c094e514d4776db0c6327d1c84eb'
p8
sS'stack'
p9
S''
s.