(dp1
S'args'
p2
S''
sS'methodname'
p3
S''
sS'packet_num'
p4
I23
sS'returnval'
p5
S'33765\np3017\nsVid\np3018\nV6005924233765\np3019\nsVimage_url\np3020\nVhttps://fbcdn-creative-a.akamaihd.net/hads-ak-prn1/s110x80/701889_6006844237365_37972_n.jpg\np3021\nsVcount_current_adgroups\np3022\nI1\nsVrun_status\np3023\nI1\nsVtype\np3024\nI1\nsVlink_url\np3025\nVhttp://ad.doubleclick.net/click;h=v2|3F93|0|0|%2a|s;260122121;0-0;0;83711970;31-1|1;49332344|49327572|1;;;pc=[TPAS_ID]%3fhttp://www.buzzfeed.com/h1/fbad/randomactsoffusion/the-hottest-dudes-of-nascar\np3026\nsVview_tag\np3027\ng36\nsa(dp3028\nValt_view_tags\np3029\n(lp3030\nsVbody\np3031\nVCheck Out More "Surprising Cartoon Cameos You Probably Missed" on BuzzFeed!\np3032\nsVimage_hash\np3033\nVeee6bb0e140d1366c9679bb93ee9d977\np3034\nsVname\np3035\nVHomer vs. Peter-00-00-00-00-01\np3036\nsVtitle\np3037\nVIs That Will Ferrell?\np3038\nsVcreative_id\np3039\nV6005924752565\np3040\nsVpreview_url\np3041\nVhttp://www.facebook.com/ads/api/creative_preview.php?cid=6005924752565\np3042\nsVid\np3043\nV6005924752565\np3044\nsVimage_url\np3045\nVhttps://fbcdn-creative-a.akamaihd.net/hads-ak-prn1/s110x80/708206_6006845497565_18262_n.jpg\np3046\nsVcount_current_adgroups\np3047\nI1\nsVrun_status\np3048\nI1\nsVtype\np3049\nI1\nsVlink_url\np3050\nVhttp://www.buzzfeed.com/h1/fbad/animationdomination/family-guys-vs-the-simpsons-who-did-it-best-7f8p\np3051\nsVview_tag\np3052\ng36\nsa(dp3053\nValt_view_tags\np3054\n(lp3055\nsVbody\np3056\nVCheck out more "10 Beautiful Acts Of Bravery In The Name Of Love" on BuzzFeed!\np3057\nsVimage_hash\np3058\nV938cc4eecda7f70f5ddb706b8b494601\np3059\nsVname\np3060\nVLloyd\'s Boombox Moment-00-00\np3061\nsVtitle\np3062\nVWesley\'s Rescue\np3063\nsVcreative_id\np3064\nV6005923547565\np3065\nsVpreview_url\np3066\nVhttp://www.facebook.com/ads/api/creative_preview.php?cid=6005923547565\np3067\nsVid\np3068\nV6005923547565\np3069\nsVimage_url\np3070\nVhttps://fbcdn-creative-a.akamaihd.net/hads-ak-prn1/s110x80/708188_6006844933165_53862_n.jpg\np3071\nsVcount_current_adgroups\np3072\nI1\nsVrun_status\np3073\nI1\nsVtype\np3074\nI1\nsVlink_url\np3075\nVhttp://www.buzzfeed.com/h1/fbad/beautyandthebeast/10-beautiful-acts-of-bravery-in-the-name-of-love-793j\np3076\nsVview_tag\np3077\ng36\nsa(dp3078\nValt_view_tags\np3079\n(lp3080\nsVbody\np3081\nVFunny how they suck for adults. See more differences between what kids and parents see!\np3082\nsVimage_hash\np3083\nVfd29b430c4fd3caac70bd4a0d83ec46b\np3084\nsVname\np3085\nVSnow Days!-00\np3086\nsVtitle\np3087\nVSnow Days!\np3088\nsVcreative_id\np3089\nV6005915639165\np3090\nsVpreview_url\np3091\nVhttp://www.facebook.com/ads/api/creative_preview.php?cid=6005915639165\np3092\nsVid\np3093\nV6005915639165\np3094\nsVimage_url\np3095\nVhttps://fbcdn-creative-a.akamaihd.net/hads-ak-prn1/s110x80/708187_6006845585765_58716_n.jpg\np3096\nsVcount_current_adgroups\np3097\nI1\nsVrun_status\np3098\nI1\nsVtype\np3099\nI1\nsVlink_url\np3100\nVhttp://www.buzzfeed.com/h1/fbad/totinos/what-parents-see-vs-what-kids-see-2wvj\np3101\nsVview_tag\np3102\ng36\nsa(dp3103\nValt_view_tags\np3104\n(lp3105\nsVbody\np3106\nVCheck out more "10 Beautiful Acts Of Bravery In The Name Of Love" on BuzzFeed!\np3107\nsVimage_hash\np3108\nV581b2ad55158ea9ed1cd10be9cc598e7\np3109\nsVname\np3110\nVLloyd\'s Boombox Moment-00\np3111\nsVtitle\np3112\nVRoss & Rachel\np3113\nsVcreative_id\np3114\nV6005923538965\np3115\nsVpreview_url\np3116\nVhttp://www.facebook.com/ads/api/creative_preview.php?cid=6005923538965\np3117\nsVid\np3118\nV6005923538965\np3119\nsVimage_url\np3120\nVhttps://fbcdn-creative-a.akamaihd.net/hads-ak-prn1/s110x80/708167_6006844598765_34222_n.jpg\np3121\nsVcount_current_adgroups\np3122\nI1\nsVrun_status\np3123\nI1\nsVtype\np3124\nI1\nsVlink_url\np3125\nVhttp://www.buzzfeed.com/h1/fbad/beautyandthebeast/10-beautiful-acts-of-bravery-in-the-name-of-love-793j\np3126\nsVview_tag\np3127\ng36\nsa(dp3128\nValt_view_tags\np3129\n(lp3130\nsVbody\np3131\nVJust One of "The Most Inspiring Love Stories Of All Time" on BuzzFeed!\np3132\nsVimage_hash\np3133\nV884781c83feebcf656b05b889b96edcf\np3134\nsVname\np3135\nVRomeo & Juliet-00\np3136\nsVtitle\np3137\nVLady & the Tramp\np3138\nsVcreative_id\np3139\nV6005923581365\np3140\nsVpreview_url\np3141\nVhttp://www.facebook.com/ads/api/creative_preview.php?cid=6005923581365\np3142\nsVid\np3143\nV6005923581365\np3144\nsVimage_url\np3145\nVhttps://fbcdn-creative-a.akamaihd.'
p6
sS'hash'
p7
S'057ed9ef6861c094e514d4776db0c6327d1c84eb'
p8
sS'stack'
p9
S''
s.