(dp1
S'args'
p2
S''
sS'methodname'
p3
S''
sS'packet_num'
p4
I49
sS'returnval'
p5
S'//www.buzzfeed.com/h1/fbad/animalpractice/15-sweet-animalhuman-friendships\np6601\nsVview_tag\np6602\ng36\nsa(dp6603\nValt_view_tags\np6604\n(lp6605\nsVbody\np6606\nVThink it\'s time for YOLO to finally die? See more examples why this phrase should be done!\np6607\nsVimage_hash\np6608\nVcef015d4722c5040d85fecfedfd47187\np6609\nsVname\np6610\nVYOLO? Oh No!\np6611\nsVtitle\np6612\nVYOLO? Oh No!\np6613\nsVcreative_id\np6614\nV6005802874765\np6615\nsVpreview_url\np6616\nVhttp://www.facebook.com/ads/api/creative_preview.php?cid=6005802874765\np6617\nsVid\np6618\nV6005802874765\np6619\nsVimage_url\np6620\nVhttps://fbcdn-creative-a.akamaihd.net/hads-ak-prn1/s110x80/708196_6006845289965_33796_n.jpg\np6621\nsVcount_current_adgroups\np6622\nI1\nsVrun_status\np6623\nI1\nsVtype\np6624\nI1\nsVlink_url\np6625\nVhttp://www.buzzfeed.com/h1/fbad/virginmobilelive/23-wildly-inappropriate-yolos-5l87\np6626\nsVview_tag\np6627\ng36\nsa(dp6628\nValt_view_tags\np6629\n(lp6630\nsVbody\np6631\nVThe Asylum opens in October. Check out some teaser posters if you aren\'t already afraid!\np6632\nsVimage_hash\np6633\nV48c5bc54466d202b014b3c04f33e91a2\np6634\nsVname\np6635\nVThe Horror Returns!\np6636\nsVtitle\np6637\nVThe Horror Returns!\np6638\nsVcreative_id\np6639\nV6005802602765\np6640\nsVpreview_url\np6641\nVhttp://www.facebook.com/ads/api/creative_preview.php?cid=6005802602765\np6642\nsVid\np6643\nV6005802602765\np6644\nsVimage_url\np6645\nVhttps://fbcdn-creative-a.akamaihd.net/hads-ak-prn1/s110x80/708187_6006844491565_28765_n.jpg\np6646\nsVcount_current_adgroups\np6647\nI1\nsVrun_status\np6648\nI1\nsVtype\np6649\nI1\nsVlink_url\np6650\nVhttp://www.buzzfeed.com/h1/fbad/americanhorrorstory/new-teaser-posters-for-american-horror-story-a\np6651\nsVview_tag\np6652\ng36\nsa(dp6653\nValt_view_tags\np6654\n(lp6655\nsVbody\np6656\nVThe Asylum opens on October 17th. Check out some teaser posters if you\'re not afraid yet!\np6657\nsVimage_hash\np6658\nVee1d5c2e5a6bddc151598ee6cbad809c\np6659\nsVname\np6660\nVAmerican Horror Story-00\np6661\nsVtitle\np6662\nVAmerican Horror Story\np6663\nsVcreative_id\np6664\nV6005802517165\np6665\nsVpreview_url\np6666\nVhttp://www.facebook.com/ads/api/creative_preview.php?cid=6005802517165\np6667\nsVid\np6668\nV6005802517165\np6669\nsVimage_url\np6670\nVhttps://fbcdn-creative-a.akamaihd.net/hads-ak-ash3/s110x80/708169_6006845491565_9756_n.jpg\np6671\nsVcount_current_adgroups\np6672\nI1\nsVrun_status\np6673\nI1\nsVtype\np6674\nI1\nsVlink_url\np6675\nVhttp://www.buzzfeed.com/h1/fbad/americanhorrorstory/more-ominous-teasers-for-american-horror-story\np6676\nsVview_tag\np6677\ng36\nsa(dp6678\nValt_view_tags\np6679\n(lp6680\nsVbody\np6681\nVThe Horror returns in October. Check out some new teaser posters here!\np6682\nsVimage_hash\np6683\nV8bf893ade405cf6800017c058a693fab\np6684\nsVname\np6685\nVAmerican Horror Story\np6686\nsVtitle\np6687\nVAmerican Horror Story\np6688\nsVcreative_id\np6689\nV6005802484365\np6690\nsVpreview_url\np6691\nVhttp://www.facebook.com/ads/api/creative_preview.php?cid=6005802484365\np6692\nsVid\np6693\nV6005802484365\np6694\nsVimage_url\np6695\nVhttps://fbcdn-creative-a.akamaihd.net/hads-ak-ash3/s110x80/708199_6006844884365_21223_n.jpg\np6696\nsVcount_current_adgroups\np6697\nI1\nsVrun_status\np6698\nI1\nsVtype\np6699\nI1\nsVlink_url\np6700\nVhttp://www.buzzfeed.com/h1/fbad/americanhorrorstory/check-out-these-terrifying-teasers-from-america\np6701\nsVview_tag\np6702\ng36\nsa(dp6703\nValt_view_tags\np6704\n(lp6705\nsVbody\np6706\nVThomas Edison Has A Crush On You! Check out more "Hey Girl" memes on BuzzFeed!\np6707\nsVimage_hash\np6708\nV63e0312a56c31bf243e4551bb80ad940\np6709\nsVname\np6710\nVHey Girl...\np6711\nsVtitle\np6712\nVHey Girl...\np6713\nsVcreative_id\np6714\nV6005801730165\np6715\nsVpreview_url\np6716\nVhttp://www.facebook.com/ads/api/creative_preview.php?cid=6005801730165\np6717\nsVid\np6718\nV6005801730165\np6719\nsVimage_url\np6720\nVhttps://fbcdn-creative-a.akamaihd.net/hads-ak-ash3/s110x80/708177_6006844659765_28666_n.jpg\np6721\nsVcount_current_adgroups\np6722\nI1\nsVrun_status\np6723\nI1\nsVtype\np6724\nI1\nsVlink_url\np6725\nVhttp://www.buzzfeed.com/h1/fbad/generalelectric/thomas-edison-and-henry-ford-bffs-6ieg\np6726\nsVview_tag\np6727\ng36\nsa(dp6728\nValt_view_tags\np6729\n(lp6730\nsVbody\np6731\nVJust one of "The 10 Most Epic Turnarounds" on BuzzFe'
p6
sS'hash'
p7
S'057ed9ef6861c094e514d4776db0c6327d1c84eb'
p8
sS'stack'
p9
S''
s.