(dp1
S'args'
p2
S''
sS'methodname'
p3
S''
sS'packet_num'
p4
I89
sS'returnval'
p5
S'image_hash\np11796\nV93c599511aaa76e3711aa683794ca45f\np11797\nsVname\np11798\nVLisa Leslie-00-00-00\np11799\nsVtitle\np11800\nVMichelle Wie\np11801\nsVcreative_id\np11802\nV6005458312765\np11803\nsVpreview_url\np11804\nVhttp://www.facebook.com/ads/api/creative_preview.php?cid=6005458312765\np11805\nsVid\np11806\nV6005458312765\np11807\nsVimage_url\np11808\nVhttps://fbcdn-creative-a.akamaihd.net/hads-ak-prn1/s110x80/708188_6006844934565_16880_n.jpg\np11809\nsVcount_current_adgroups\np11810\nI1\nsVrun_status\np11811\nI1\nsVtype\np11812\nI1\nsVlink_url\np11813\nVhttp://www.buzzfeed.com/h1/fbad/jordanriseabove/10-of-the-worlds-most-inspirational-female-athlet-6peo\np11814\nsVview_tag\np11815\ng36\nsa(dp11816\nValt_view_tags\np11817\n(lp11818\nsVbody\np11819\nVSo do these guys! Check out "10 Places Around The World That Are Crazy About Basketball"\np11820\nsVimage_hash\np11821\nV7a3ed72c433dff9403d22997ec909c31\np11822\nsVname\np11823\nVLove Basketball?\np11824\nsVtitle\np11825\nVLove Basketball?\np11826\nsVcreative_id\np11827\nV6005457838165\np11828\nsVpreview_url\np11829\nVhttp://www.facebook.com/ads/api/creative_preview.php?cid=6005457838165\np11830\nsVid\np11831\nV6005457838165\np11832\nsVimage_url\np11833\nVhttps://fbcdn-creative-a.akamaihd.net/hads-ak-prn1/s110x80/708196_6006844786965_53629_n.jpg\np11834\nsVcount_current_adgroups\np11835\nI1\nsVrun_status\np11836\nI1\nsVtype\np11837\nI1\nsVlink_url\np11838\nVhttp://www.buzzfeed.com/h1/fbad/jordanriseabove/10-places-around-the-world-that-are-crazy-about-ba-6peo\np11839\nsVview_tag\np11840\ng36\nsa(dp11841\nValt_view_tags\np11842\n(lp11843\nsVbody\np11844\nVOne of the "10 Places Around The World That Are Crazy About Basketball." Only on BuzzFeed!\np11845\nsVimage_hash\np11846\nV4097b5cfb469051db2f9984b6eb9333d\np11847\nsVname\np11848\nVLove Basketball?-00\np11849\nsVtitle\np11850\nVBasketball in Mongolia\np11851\nsVcreative_id\np11852\nV6005457903365\np11853\nsVpreview_url\np11854\nVhttp://www.facebook.com/ads/api/creative_preview.php?cid=6005457903365\np11855\nsVid\np11856\nV6005457903365\np11857\nsVimage_url\np11858\nVhttps://fbcdn-creative-a.akamaihd.net/hads-ak-prn1/s110x80/708192_6006844430365_64859_n.jpg\np11859\nsVcount_current_adgroups\np11860\nI1\nsVrun_status\np11861\nI1\nsVtype\np11862\nI1\nsVlink_url\np11863\nVhttp://www.buzzfeed.com/h1/fbad/jordanriseabove/10-places-around-the-world-that-are-crazy-about-ba-6peo\np11864\nsVview_tag\np11865\ng36\nsa(dp11866\nValt_view_tags\np11867\n(lp11868\nsVbody\np11869\nVOne of the "10 Places Around The World That Are Crazy About Basketball." Only on BuzzFeed!\np11870\nsVimage_hash\np11871\nV94345984409c33232ae5b2666602b7c7\np11872\nsVname\np11873\nVLove Basketball?-00-00\np11874\nsVtitle\np11875\nVBasketball in Latvia\np11876\nsVcreative_id\np11877\nV6005457977565\np11878\nsVpreview_url\np11879\nVhttp://www.facebook.com/ads/api/creative_preview.php?cid=6005457977565\np11880\nsVid\np11881\nV6005457977565\np11882\nsVimage_url\np11883\nVhttps://fbcdn-creative-a.akamaihd.net/hads-ak-ash3/s110x80/708188_6006844936165_28059_n.jpg\np11884\nsVcount_current_adgroups\np11885\nI1\nsVrun_status\np11886\nI1\nsVtype\np11887\nI1\nsVlink_url\np11888\nVhttp://www.buzzfeed.com/h1/fbad/jordanriseabove/10-places-around-the-world-that-are-crazy-about-ba-6peo\np11889\nsVview_tag\np11890\ng36\nsa(dp11891\nValt_view_tags\np11892\n(lp11893\nsVbody\np11894\nVCheck out The Office and Family Matters mashup. See more awesome mashups on BuzzFeed!\np11895\nsVimage_hash\np11896\nVac149f9c608648d40c9c539bb7baec4a\np11897\nsVname\np11898\nVHave you seen this?-00\np11899\nsVtitle\np11900\nVHave you seen this?\np11901\nsVcreative_id\np11902\nV6005457639765\np11903\nsVpreview_url\np11904\nVhttp://www.facebook.com/ads/api/creative_preview.php?cid=6005457639765\np11905\nsVid\np11906\nV6005457639765\np11907\nsVimage_url\np11908\nVhttps://fbcdn-creative-a.akamaihd.net/hads-ak-ash3/s110x80/708189_6006845086365_15137_n.jpg\np11909\nsVcount_current_adgroups\np11910\nI1\nsVrun_status\np11911\nI1\nsVtype\np11912\nI1\nsVlink_url\np11913\nVhttp://www.buzzfeed.com/h1/fbad/rockyoursummer/10-surprising-pop-culture-mashups-that-just-work\np11914\nsVview_tag\np11915\ng36\nsa(dp11916\nValt_view_tags\np11917\n(lp11918\nsVbody\np11919\nVCheck out The Office and Family Matters mashup. See more awesome mashups on BuzzFeed!\np11920\ns'
p6
sS'hash'
p7
S'057ed9ef6861c094e514d4776db0c6327d1c84eb'
p8
sS'stack'
p9
S''
s.