(dp1
S'args'
p2
S''
sS'methodname'
p3
S''
sS'packet_num'
p4
I335
sS'returnval'
p5
S"10790165\nsVaccount_id\np61879\nI40156177\nsVstart_time\np61880\nNsVlocations\np61881\n(lp61882\nI3\nasVadgroup_status\np61883\nI1\nsVad_status\np61884\nI1\nsVimpression_control_map\np61885\n(lp61886\n(dp61887\nVcontrol\np61888\n(dp61889\nVuser_impression_limit_period\np61890\nI24\nsVuser_impression_limit\np61891\nI3\nsVuser_impression_limit_period_unit\np61892\nI0\nsVimpression_control_type\np61893\nI2\nssVlocation\np61894\nI3\nsasVcreative_ids\np61895\n(lp61896\nI6007484195765\nasVtracking_pixel_ids\np61897\n(lp61898\nsVbid_type\np61899\nI1\nsVname\np61900\nVhttp://www.buzzfeed.com/h1/fbad/thecarriediaries/15-reasons-why-nyc-was-better-in-the-80s - Ad 1\np61901\nsVupdated_time\np61902\nV2013-01-03T21:43:02+0000\np61903\nsVend_time\np61904\nNsa(dp61905\nVbid_info\np61906\n(dp61907\nV1\np61908\nV70\np61909\nssVcampaign_id\np61910\nI6007484195165\nsVlast_updated_by_app_id\np61911\nI6802152230\nsVcreated_time\np61912\nV2013-01-03T23:40:06+0000\np61913\nsVconversion_specs\np61914\n(lp61915\nsVadgroup_id\np61916\nI6007513082365\nsVtargeting\np61917\n(dp61918\nVkeywords\np61919\n(lp61920\nV#Upper East Side\np61921\naV#New York Yankees\np61922\naV#Ellis Island\np61923\naV#New York\np61924\naV#Queens\np61925\naV#Brooklyn\np61926\naV#I Love the '80s (U.S. TV series)\np61927\naV#VH1\np61928\naV#Soho\np61929\naV#Harlem\np61930\naV#New York Giants\np61931\naV#Statue of Liberty\np61932\naV#New York City\np61933\nasVage_max\np61934\nI65\nsVcountries\np61935\n(lp61936\nVUS\np61937\nasVbroad_age\np61938\nI1\nsVage_min\np61939\nI13\nssVid\np61940\nV6007513082365\np61941\nsVobjective\np61942\nI2\nsVmax_bid\np61943\nV70\np61944\nsVad_id\np61945\nI6007513082365\nsVaccount_id\np61946\nI40156177\nsVstart_time\np61947\nNsVlocations\np61948\n(lp61949\nI3\nasVadgroup_status\np61950\nI1\nsVad_status\np61951\nI1\nsVimpression_control_map\np61952\n(lp61953\n(dp61954\nVcontrol\np61955\n(dp61956\nVuser_impression_limit_period\np61957\nI24\nsVuser_impression_limit\np61958\nI3\nsVuser_impression_limit_period_unit\np61959\nI0\nsVimpression_control_type\np61960\nI2\nssVlocation\np61961\nI3\nsasVcreative_ids\np61962\n(lp61963\nI6007484195765\nasVtracking_pixel_ids\np61964\n(lp61965\nsVbid_type\np61966\nI1\nsVname\np61967\nVhttp://www.buzzfeed.com/h1/fbad/thecarriediaries/15-reasons-why-nyc-was-better-in-the-80s - Ad 2\np61968\nsVupdated_time\np61969\nV2013-01-03T23:45:19+0000\np61970\nsVend_time\np61971\nNsa(dp61972\nVbid_info\np61973\n(dp61974\nV1\np61975\nV65\np61976\nssVcampaign_id\np61977\nI6007484195165\nsVlast_updated_by_app_id\np61978\nI6802152230\nsVcreated_time\np61979\nV2013-01-02T19:21:08+0000\np61980\nsVconversion_specs\np61981\n(lp61982\nsVadgroup_id\np61983\nI6007484196165\nsVtargeting\np61984\n(dp61985\nVkeywords\np61986\n(lp61987\nV#New York Yankees\np61988\naV#New York\np61989\naV#I Love the '80s (U.S. TV series)\np61990\naV#VH1\np61991\naV#New York City\np61992\nasVage_max\np61993\nI65\nsVcountries\np61994\n(lp61995\nVUS\np61996\nasVbroad_age\np61997\nI1\nsVage_min\np61998\nI13\nssVid\np61999\nV6007484196165\np62000\nsVobjective\np62001\nI2\nsVmax_bid\np62002\nV65\np62003\nsVad_id\np62004\nI6007484196165\nsVaccount_id\np62005\nI40156177\nsVstart_time\np62006\nNsVlocations\np62007\n(lp62008\nI3\nasVadgroup_status\np62009\nI9\nsVad_status\np62010\nI2\nsVimpression_control_map\np62011\n(lp62012\n(dp62013\nVcontrol\np62014\n(dp62015\nVuser_impression_limit_period\np62016\nI24\nsVuser_impression_limit\np62017\nI6\nsVuser_impression_limit_period_unit\np62018\nI0\nsVimpression_control_type\np62019\nI2\nssVlocation\np62020\nI3\nsasVcreative_ids\np62021\n(lp62022\nI6007484195765\nasVtracking_pixel_ids\np62023\n(lp62024\nsVbid_type\np62025\nI1\nsVname\np62026\nVhttp://www.buzzfeed.com/h1/fbad/thecarriediaries/15-reasons-why-nyc-was-better-in-the-80s - Ad\np62027\nsVupdated_time\np62028\nV2013-01-03T23:39:14+0000\np62029\nsVend_time\np62030\nNsa(dp62031\nVbid_info\np62032\n(dp62033\nV1\np62034\nV65\np62035\nssVcampaign_id\np62036\nI6007484290565\nsVlast_updated_by_app_id\np62037\nI209787012415271\nsVcreated_time\np62038\nV2013-01-02T19:27:03+0000\np62039\nsVconversion_specs\np62040\n(lp62041\nsVadgroup_id\np62042\nI6007484291565\nsVtargeting\np62043\n(dp62044\nVkeywords\np62045\n(lp62046\nV#Whitesnake (album)\np62047\naV#Is This Love (Whitesnake song)\np62048\naV#AC/DC\np62049\naV#Billy Idol\np62050\naV#Madonna (entertainer)\np62051\naV#Def Leppard\np62052\naV#Aerosmith\np62053\naV#Scorpions (band)\np62054\naV"
p6
sS'hash'
p7
S'0acbf1c012fb626abe9e254b9a99568c3dfbb2ec'
p8
sS'stack'
p9
S''
s.