(dp1
S'args'
p2
S''
sS'methodname'
p3
S''
sS'packet_num'
p4
I186
sS'returnval'
p5
S"4253\nasVbroad_age\np34254\nI1\nsVage_min\np34255\nI13\nssVid\np34256\nV6006574753565\np34257\nsVobjective\np34258\nI2\nsVmax_bid\np34259\nV65\np34260\nsVad_id\np34261\nI6006574753565\nsVaccount_id\np34262\nI40156177\nsVstart_time\np34263\nNsVlocations\np34264\n(lp34265\nI3\nasVadgroup_status\np34266\nI1\nsVad_status\np34267\nI1\nsVimpression_control_map\np34268\n(lp34269\n(dp34270\nVcontrol\np34271\n(dp34272\nVuser_impression_limit_period\np34273\nI24\nsVuser_impression_limit\np34274\nI3\nsVuser_impression_limit_period_unit\np34275\nI0\nsVimpression_control_type\np34276\nI2\nssVlocation\np34277\nI3\nsasVcreative_ids\np34278\n(lp34279\nI6006574753165\nasVtracking_pixel_ids\np34280\n(lp34281\nsVbid_type\np34282\nI1\nsVname\np34283\nVZelda\np34284\nsVupdated_time\np34285\nV2012-12-04T02:49:14+0000\np34286\nsVend_time\np34287\nNsa(dp34288\nVbid_info\np34289\n(dp34290\nV1\np34291\nV65\np34292\nssVcampaign_id\np34293\nI6006574752565\nsVlast_updated_by_app_id\np34294\nI207192552749284\nsVcreated_time\np34295\nV2012-12-03T22:21:24+0000\np34296\nsVconversion_specs\np34297\n(lp34298\nsVadgroup_id\np34299\nI6006574796365\nsVtargeting\np34300\n(dp34301\nVkeywords\np34302\n(lp34303\nV#Donkey Kong Country\np34304\naV#Diddy Kong Racing\np34305\naV#Super Mario Bros.\np34306\naV#Arcade game\np34307\naV#Donkey Kong Country 2: Diddy's Kong Quest\np34308\naV#Pac-Man\np34309\naV#The King of Kong: A Fistful of Quarters\np34310\naV#Donkey Kong\np34311\naV#New Super Mario Bros. Wii\np34312\naV#Mario Kart Wii\np34313\naV#Game over\np34314\naV#Super Mario World (TV series)\np34315\naV#Tetris\np34316\naV#Donkey Kong Country Returns\np34317\naV#Nintendo Entertainment System\np34318\naV#Super Mario 64\np34319\naV#Wreck-It Ralph\np34320\naV#Super Mario World\np34321\naV#Donkey Kong (video game)\np34322\naV#Super Mario (series)\np34323\nasVage_max\np34324\nI65\nsVcountries\np34325\n(lp34326\nVUS\np34327\nasVbroad_age\np34328\nI1\nsVage_min\np34329\nI13\nssVid\np34330\nV6006574796365\np34331\nsVobjective\np34332\nI2\nsVmax_bid\np34333\nV65\np34334\nsVad_id\np34335\nI6006574796365\nsVaccount_id\np34336\nI40156177\nsVstart_time\np34337\nNsVlocations\np34338\n(lp34339\nI3\nasVadgroup_status\np34340\nI1\nsVad_status\np34341\nI1\nsVimpression_control_map\np34342\n(lp34343\n(dp34344\nVcontrol\np34345\n(dp34346\nVuser_impression_limit_period\np34347\nI24\nsVuser_impression_limit\np34348\nI3\nsVuser_impression_limit_period_unit\np34349\nI0\nsVimpression_control_type\np34350\nI2\nssVlocation\np34351\nI3\nsasVcreative_ids\np34352\n(lp34353\nI6006574795965\nasVtracking_pixel_ids\np34354\n(lp34355\nsVbid_type\np34356\nI1\nsVname\np34357\nVDonkey Kong\np34358\nsVupdated_time\np34359\nV2012-12-03T23:59:07+0000\np34360\nsVend_time\np34361\nNsa(dp34362\nVbid_info\np34363\n(dp34364\nV1\np34365\nV65\np34366\nssVcampaign_id\np34367\nI6006574752565\nsVlast_updated_by_app_id\np34368\nI207192552749284\nsVcreated_time\np34369\nV2012-12-03T22:24:29+0000\np34370\nsVconversion_specs\np34371\n(lp34372\nsVadgroup_id\np34373\nI6006574832165\nsVtargeting\np34374\n(dp34375\nVkeywords\np34376\n(lp34377\nV#Team Pacman\np34378\naV#Jr. Pac-Man\np34379\naV#Super Mario Bros.\np34380\naV#Pac-Man\np34381\naV#Ms. Pac-Man Maze Madness\np34382\naV#Atari\np34383\naV#Tetris\np34384\naV#Ms. Pac-Man\np34385\naV#Wreck-It Ralph\np34386\naV#Pac-Mania\np34387\naV#Pac-Man Games\np34388\nasVage_max\np34389\nI65\nsVcountries\np34390\n(lp34391\nVUS\np34392\nasVbroad_age\np34393\nI1\nsVage_min\np34394\nI13\nssVid\np34395\nV6006574832165\np34396\nsVobjective\np34397\nI2\nsVmax_bid\np34398\nV65\np34399\nsVad_id\np34400\nI6006574832165\nsVaccount_id\np34401\nI40156177\nsVstart_time\np34402\nNsVlocations\np34403\n(lp34404\nI3\nasVadgroup_status\np34405\nI1\nsVad_status\np34406\nI1\nsVimpression_control_map\np34407\n(lp34408\n(dp34409\nVcontrol\np34410\n(dp34411\nVuser_impression_limit_period\np34412\nI24\nsVuser_impression_limit\np34413\nI6\nsVuser_impression_limit_period_unit\np34414\nI0\nsVimpression_control_type\np34415\nI2\nssVlocation\np34416\nI3\nsasVcreative_ids\np34417\n(lp34418\nI6006574831765\nasVtracking_pixel_ids\np34419\n(lp34420\nsVbid_type\np34421\nI1\nsVname\np34422\nVPac Man\np34423\nsVupdated_time\np34424\nV2012-12-03T23:23:19+0000\np34425\nsVend_time\np34426\nNsa(dp34427\nVbid_info\np34428\n(dp34429\nV1\np34430\nV66\np34431\nssVcampaign_id\np34432\nI6006574920565\nsVlast_updated_by_app_id\np34433\nI6802152230\nsVcreated_time\np34434\nV2012-12-03T22:32:38+0000\np34435\nsV"
p6
sS'hash'
p7
S'0acbf1c012fb626abe9e254b9a99568c3dfbb2ec'
p8
sS'stack'
p9
S''
s.