(dp1
S'args'
p2
S''
sS'methodname'
p3
S''
sS'packet_num'
p4
I41
sS'returnval'
p5
S"n_id\np7916\nI6006103734565\nsVcreated_time\np7917\nV2012-10-24T19:52:01+0000\np7918\nsVconversion_specs\np7919\n(lp7920\nsVadgroup_id\np7921\nI6006103735565\nsVtargeting\np7922\n(dp7923\nVkeywords\np7924\n(lp7925\nV#The Colbert Report\np7926\naV#Michelle Obama\np7927\naV#Barack Obama\np7928\naV#The Onion\np7929\naV#The Daily Show\np7930\naV#Joe Biden\np7931\naV#The Huffington Post\np7932\nasVage_max\np7933\nI65\nsVcountries\np7934\n(lp7935\nVUS\np7936\nasVbroad_age\np7937\nI1\nsVage_min\np7938\nI13\nssVid\np7939\nV6006103735565\np7940\nsVobjective\np7941\nI2\nsVmax_bid\np7942\nV65\np7943\nsVad_id\np7944\nI6006103735565\nsVaccount_id\np7945\nI40156177\nsVstart_time\np7946\nNsVlocations\np7947\n(lp7948\nI3\nasVadgroup_status\np7949\nI1\nsVad_status\np7950\nI1\nsVimpression_control_map\np7951\n(lp7952\n(dp7953\nVcontrol\np7954\n(dp7955\nVuser_impression_limit_period\np7956\nI24\nsVuser_impression_limit\np7957\nI3\nsVuser_impression_limit_period_unit\np7958\nI0\nsVimpression_control_type\np7959\nI2\nssVlocation\np7960\nI3\nsasVcreative_ids\np7961\n(lp7962\nI6006103735165\nasVtracking_pixel_ids\np7963\n(lp7964\nsVbid_type\np7965\nI1\nsVname\np7966\nVBiden\np7967\nsVupdated_time\np7968\nV2012-10-24T21:27:15+0000\np7969\nsVend_time\np7970\nNsa(dp7971\nVbid_info\np7972\n(dp7973\nV1\np7974\nV65\np7975\nssVcampaign_id\np7976\nI6006103734565\nsVcreated_time\np7977\nV2012-10-24T19:53:05+0000\np7978\nsVconversion_specs\np7979\n(lp7980\nsVadgroup_id\np7981\nI6006103745765\nsVtargeting\np7982\n(dp7983\nVkeywords\np7984\n(lp7985\nV#Media Research Center\np7986\naV#FreedomWorks\np7987\naV#The Colbert Report\np7988\naV#Michelle Obama\np7989\naV#Barack Obama\np7990\naV#The Onion\np7991\naV#The Daily Show\np7992\naV#Mitt Romney\np7993\naV#Joe Biden\np7994\naV#Paul Ryan\np7995\naV#Sean Hannity\np7996\naV#The Huffington Post\np7997\nasVage_max\np7998\nI65\nsVcountries\np7999\n(lp8000\nVUS\np8001\nasVbroad_age\np8002\nI1\nsVage_min\np8003\nI13\nssVid\np8004\nV6006103745765\np8005\nsVobjective\np8006\nI2\nsVmax_bid\np8007\nV65\np8008\nsVad_id\np8009\nI6006103745765\nsVaccount_id\np8010\nI40156177\nsVstart_time\np8011\nNsVlocations\np8012\n(lp8013\nI3\nasVadgroup_status\np8014\nI1\nsVad_status\np8015\nI1\nsVimpression_control_map\np8016\n(lp8017\n(dp8018\nVcontrol\np8019\n(dp8020\nVuser_impression_limit_period\np8021\nI24\nsVuser_impression_limit\np8022\nI3\nsVuser_impression_limit_period_unit\np8023\nI0\nsVimpression_control_type\np8024\nI2\nssVlocation\np8025\nI3\nsasVcreative_ids\np8026\n(lp8027\nI6006103745365\nasVtracking_pixel_ids\np8028\n(lp8029\nsVbid_type\np8030\nI1\nsVname\np8031\nVPaul Ryan\np8032\nsVupdated_time\np8033\nV2012-10-24T21:21:22+0000\np8034\nsVend_time\np8035\nNsa(dp8036\nVbid_info\np8037\n(dp8038\nV1\np8039\nV65\np8040\nssVcampaign_id\np8041\nI6006103734565\nsVcreated_time\np8042\nV2012-10-24T19:54:42+0000\np8043\nsVconversion_specs\np8044\n(lp8045\nsVadgroup_id\np8046\nI6006103753165\nsVtargeting\np8047\n(dp8048\nVkeywords\np8049\n(lp8050\nV#Media Research Center\np8051\naV#FreedomWorks\np8052\naV#The Colbert Report\np8053\naV#Tea Party Patriots\np8054\naV#The Onion\np8055\naV#Bill O'Reilly (political commentator)\np8056\naV#The Daily Show\np8057\naV#Mitt Romney\np8058\naV#Joe Biden\np8059\naV#The Rush Limbaugh Show\np8060\naV#Glenn Beck\np8061\naV#Paul Ryan\np8062\naV#Sean Hannity\np8063\naV#Michelle Malkin\np8064\naV#Mitch McConnell\np8065\naV#The Huffington Post\np8066\nasVage_max\np8067\nI65\nsVcountries\np8068\n(lp8069\nVUS\np8070\nasVbroad_age\np8071\nI1\nsVage_min\np8072\nI13\nssVid\np8073\nV6006103753165\np8074\nsVobjective\np8075\nI2\nsVmax_bid\np8076\nV65\np8077\nsVad_id\np8078\nI6006103753165\nsVaccount_id\np8079\nI40156177\nsVstart_time\np8080\nNsVlocations\np8081\n(lp8082\nI3\nasVadgroup_status\np8083\nI1\nsVad_status\np8084\nI1\nsVimpression_control_map\np8085\n(lp8086\n(dp8087\nVcontrol\np8088\n(dp8089\nVuser_impression_limit_period\np8090\nI24\nsVuser_impression_limit\np8091\nI3\nsVuser_impression_limit_period_unit\np8092\nI0\nsVimpression_control_type\np8093\nI2\nssVlocation\np8094\nI3\nsasVcreative_ids\np8095\n(lp8096\nI6006103752765\nasVtracking_pixel_ids\np8097\n(lp8098\nsVbid_type\np8099\nI1\nsVname\np8100\nVMitch\np8101\nsVupdated_time\np8102\nV2012-10-24T21:20:05+0000\np8103\nsVend_time\np8104\nNsa(dp8105\nVbid_info\np8106\n(dp8107\nV1\np8108\nV65\np8109\nssVcampaign_id\np8110\nI6006104085565\nsVlast_updated_by_app_id\np8111\nI6802152230\nsVcreated_time\np8112\nV2012-10-24T20:38:39+0000\np8113\nsVconvers"
p6
sS'hash'
p7
S'0acbf1c012fb626abe9e254b9a99568c3dfbb2ec'
p8
sS'stack'
p9
S''
s.