(dp1
S'args'
p2
S''
sS'methodname'
p3
S''
sS'packet_num'
p4
I147
sS'returnval'
p5
S"bid_type\np27243\nI1\nsVname\np27244\nVhttp://ad.doubleclick.net/clk;264963874;90417923;x?http://www.buzzfeed.com/h1/fbad/oldnavy/1 - Ad 1\np27245\nsVupdated_time\np27246\nV2012-11-21T15:38:33+0000\np27247\nsVend_time\np27248\nNsa(dp27249\nVbid_info\np27250\n(dp27251\nV1\np27252\nV65\np27253\nssVcampaign_id\np27254\nI6006302758965\nsVlast_updated_by_app_id\np27255\nI6802152230\nsVcreated_time\np27256\nV2012-11-19T17:00:07+0000\np27257\nsVconversion_specs\np27258\n(lp27259\nsVadgroup_id\np27260\nI6006302759965\nsVtargeting\np27261\n(dp27262\nVkeywords\np27263\n(lp27264\nV#Black Friday (shopping)\np27265\naV#Parks and Recreation\np27266\naV#Kmart\np27267\naV#Walmart\np27268\naV#Target Corporation\np27269\nasVage_max\np27270\nI65\nsVcountries\np27271\n(lp27272\nVUS\np27273\nasVbroad_age\np27274\nI1\nsVage_min\np27275\nI13\nssVid\np27276\nV6006302759965\np27277\nsVobjective\np27278\nI2\nsVmax_bid\np27279\nV65\np27280\nsVad_id\np27281\nI6006302759965\nsVaccount_id\np27282\nI40156177\nsVstart_time\np27283\nNsVlocations\np27284\n(lp27285\nI3\nasVadgroup_status\np27286\nI9\nsVad_status\np27287\nI2\nsVimpression_control_map\np27288\n(lp27289\n(dp27290\nVcontrol\np27291\n(dp27292\nVuser_impression_limit_period\np27293\nI24\nsVuser_impression_limit\np27294\nI6\nsVuser_impression_limit_period_unit\np27295\nI0\nsVimpression_control_type\np27296\nI2\nssVlocation\np27297\nI3\nsasVcreative_ids\np27298\n(lp27299\nI6006302759565\nasVtracking_pixel_ids\np27300\n(lp27301\nsVbid_type\np27302\nI1\nsVname\np27303\nVhttp://ad.doubleclick.net/clk;264963874;90417923;x?http://www.buzzfeed.com/h1/fbad/oldnavy/1... - Ad\np27304\nsVupdated_time\np27305\nV2012-11-21T15:36:56+0000\np27306\nsVend_time\np27307\nV2012-11-22T07:45:00+0000\np27308\nsa(dp27309\nVbid_info\np27310\n(dp27311\nV1\np27312\nV65\np27313\nssVcampaign_id\np27314\nI6006302758965\nsVlast_updated_by_app_id\np27315\nI6802152230\nsVcreated_time\np27316\nV2012-11-20T14:48:03+0000\np27317\nsVconversion_specs\np27318\n(lp27319\nsVadgroup_id\np27320\nI6006315350765\nsVtargeting\np27321\n(dp27322\nVkeywords\np27323\n(lp27324\nV#Shopping\np27325\naV#Black Friday (shopping)\np27326\naV#Parks and Recreation\np27327\naV#Walmart\np27328\naV#Best Buy\np27329\nasVage_max\np27330\nI65\nsVcountries\np27331\n(lp27332\nVUS\np27333\nasVbroad_age\np27334\nI1\nsVage_min\np27335\nI13\nssVid\np27336\nV6006315350765\np27337\nsVobjective\np27338\nI2\nsVmax_bid\np27339\nV65\np27340\nsVad_id\np27341\nI6006315350765\nsVaccount_id\np27342\nI40156177\nsVstart_time\np27343\nNsVlocations\np27344\n(lp27345\nI3\nasVadgroup_status\np27346\nI9\nsVad_status\np27347\nI2\nsVimpression_control_map\np27348\n(lp27349\n(dp27350\nVcontrol\np27351\n(dp27352\nVuser_impression_limit_period\np27353\nI24\nsVuser_impression_limit\np27354\nI3\nsVuser_impression_limit_period_unit\np27355\nI0\nsVimpression_control_type\np27356\nI2\nssVlocation\np27357\nI3\nsasVcreative_ids\np27358\n(lp27359\nI6006302759565\nasVtracking_pixel_ids\np27360\n(lp27361\nsVbid_type\np27362\nI1\nsVname\np27363\nVhttp://ad.doubleclick.net/clk;264963874;90417923;x?http://www.buzzfeed.com/h1/fbad/oldnavy/1- Ad 1\np27364\nsVupdated_time\np27365\nV2012-11-21T15:37:00+0000\np27366\nsVend_time\np27367\nV2012-11-22T07:45:00+0000\np27368\nsa(dp27369\nVbid_info\np27370\n(dp27371\nV1\np27372\nV65\np27373\nssVcampaign_id\np27374\nI6006303757765\nsVlast_updated_by_app_id\np27375\nI207192552749284\nsVcreated_time\np27376\nV2012-11-19T18:48:20+0000\np27377\nsVconversion_specs\np27378\n(lp27379\nsVadgroup_id\np27380\nI6006303758765\nsVtargeting\np27381\n(dp27382\nVkeywords\np27383\n(lp27384\nV#Spud Webb\np27385\naV#NBA All-Star Game\np27386\naV#Scottie Pippen\np27387\naV#Michael Jordan\np27388\naV#National Basketball Association\np27389\naV#NBA 2K11\np27390\naV#Julius Erving\np27391\naV#Kyrie Irving\np27392\naV#Kobe Bryant\np27393\naV#Patrick Ewing\np27394\naV#NBA on TNT\np27395\naV#NBA on ESPN\np27396\naV#Chandler Parsons\np27397\naV#NBA on ABC\np27398\naV#Shaquille O'Neal\np27399\naV#NBA TV\np27400\naV#College basketball\np27401\naV#Vince Carter\np27402\naV#JaVale McGee\np27403\naV#Dwight Howard\np27404\naV#Blake Griffin\np27405\naV#Dominique Wilkins\np27406\naV#NBA 2K12\np27407\naV#NBA 2K (series)\np27408\naV#NBA Live series\np27409\nasVage_max\np27410\nI65\nsVcountries\np27411\n(lp27412\nVUS\np27413\nasVbroad_age\np27414\nI1\nsVage_min\np27415\nI13\nssVid\np27416\nV6006303758765\np27417\nsVobjective\np27418\nI2\nsVmax_bid\np27419\nV65\np2"
p6
sS'hash'
p7
S'0acbf1c012fb626abe9e254b9a99568c3dfbb2ec'
p8
sS'stack'
p9
S''
s.