(dp1
S'args'
p2
S''
sS'methodname'
p3
S''
sS'packet_num'
p4
I141
sS'returnval'
p5
S"lle bachmann\np26194\naV#Office of Global Women's Issues\np26195\naV#Association for Women's Rights in Development\np26196\naV#Marissa Mayer\np26197\naV#Gloria Macapagal-Arroyo\np26198\nasVage_max\np26199\nI65\nsVcountries\np26200\n(lp26201\nVUS\np26202\nasVbroad_age\np26203\nI1\nsVage_min\np26204\nI13\nssVid\np26205\nV6006299609365\np26206\nsVobjective\np26207\nI2\nsVmax_bid\np26208\nV65\np26209\nsVad_id\np26210\nI6006299609365\nsVaccount_id\np26211\nI40156177\nsVstart_time\np26212\nNsVlocations\np26213\n(lp26214\nI3\nasVadgroup_status\np26215\nI9\nsVad_status\np26216\nI2\nsVimpression_control_map\np26217\n(lp26218\n(dp26219\nVcontrol\np26220\n(dp26221\nVuser_impression_limit_period\np26222\nI24\nsVuser_impression_limit\np26223\nI6\nsVuser_impression_limit_period_unit\np26224\nI0\nsVimpression_control_type\np26225\nI2\nssVlocation\np26226\nI3\nsasVcreative_ids\np26227\n(lp26228\nI6006299608965\nasVtracking_pixel_ids\np26229\n(lp26230\nsVbid_type\np26231\nI1\nsVname\np26232\nVWomen Target 2\np26233\nsVupdated_time\np26234\nV2012-11-20T20:10:39+0000\np26235\nsVend_time\np26236\nNsa(dp26237\nVbid_info\np26238\n(dp26239\nV1\np26240\nV65\np26241\nssVcampaign_id\np26242\nI6006299589965\nsVlast_updated_by_app_id\np26243\nI6802152230\nsVcreated_time\np26244\nV2012-11-19T15:16:15+0000\np26245\nsVconversion_specs\np26246\n(lp26247\nsVadgroup_id\np26248\nI6006299630965\nsVtargeting\np26249\n(dp26250\nVkeywords\np26251\n(lp26252\nV#Time (magazine)\np26253\naV#Bloomberg Businessweek\np26254\naV#The Washington Post\np26255\naV#Billionaire\np26256\naV#MarketWatch\np26257\naV#Harvard Business Review\np26258\naV#LinkedIn\np26259\naV#Entrepreneur (magazine)\np26260\naV#Reuters\np26261\naV#World Bank\np26262\naV#Fast Company (magazine)\np26263\naV#Warren Buffett\np26264\naV#Financial Times\np26265\naV#Business Insider\np26266\naV#Forbes\np26267\naV#The Wall Street Journal\np26268\naV#Inc. (magazine)\np26269\naV#McKinsey Quarterly\np26270\naV#Forbes list of billionaires (2011)\np26271\nasVage_max\np26272\nI65\nsVcountries\np26273\n(lp26274\nVUS\np26275\nasVbroad_age\np26276\nI1\nsVage_min\np26277\nI13\nssVid\np26278\nV6006299630965\np26279\nsVobjective\np26280\nI2\nsVmax_bid\np26281\nV65\np26282\nsVad_id\np26283\nI6006299630965\nsVaccount_id\np26284\nI40156177\nsVstart_time\np26285\nNsVlocations\np26286\n(lp26287\nI3\nasVadgroup_status\np26288\nI9\nsVad_status\np26289\nI2\nsVimpression_control_map\np26290\n(lp26291\n(dp26292\nVcontrol\np26293\n(dp26294\nVuser_impression_limit_period\np26295\nI24\nsVuser_impression_limit\np26296\nI6\nsVuser_impression_limit_period_unit\np26297\nI0\nsVimpression_control_type\np26298\nI2\nssVlocation\np26299\nI3\nsasVcreative_ids\np26300\n(lp26301\nI6006299608965\nasVtracking_pixel_ids\np26302\n(lp26303\nsVbid_type\np26304\nI1\nsVname\np26305\nVBusiness Target\np26306\nsVupdated_time\np26307\nV2012-11-20T20:08:41+0000\np26308\nsVend_time\np26309\nNsa(dp26310\nVbid_info\np26311\n(dp26312\nV1\np26313\nV55\np26314\nssVcampaign_id\np26315\nI6006299625765\nsVlast_updated_by_app_id\np26316\nI207192552749284\nsVcreated_time\np26317\nV2012-11-19T15:16:07+0000\np26318\nsVconversion_specs\np26319\n(lp26320\nsVadgroup_id\np26321\nI6006299626965\nsVtargeting\np26322\n(dp26323\nVage_max\np26324\nI65\nsVcountries\np26325\n(lp26326\nVUS\np26327\nasVbroad_age\np26328\nI1\nsVage_min\np26329\nI13\nsVkeywords\np26330\n(lp26331\nV#Taylor Swift\np26332\naV#Twilight (series)\np26333\naV#Twilight (2008 film)\np26334\naV#BuzzFeed\np26335\naV#Katy Perry\np26336\naV#Instagram\np26337\naV#Pinterest\np26338\naV#TMZ (website)\np26339\nasVgenders\np26340\n(lp26341\nI2\nassVid\np26342\nV6006299626965\np26343\nsVobjective\np26344\nI2\nsVmax_bid\np26345\nV55\np26346\nsVad_id\np26347\nI6006299626965\nsVaccount_id\np26348\nI40156177\nsVstart_time\np26349\nNsVlocations\np26350\n(lp26351\nI3\nasVadgroup_status\np26352\nI1\nsVad_status\np26353\nI1\nsVimpression_control_map\np26354\n(lp26355\n(dp26356\nVcontrol\np26357\n(dp26358\nVuser_impression_limit_period\np26359\nI24\nsVuser_impression_limit\np26360\nI6\nsVuser_impression_limit_period_unit\np26361\nI0\nsVimpression_control_type\np26362\nI2\nssVlocation\np26363\nI3\nsasVcreative_ids\np26364\n(lp26365\nI6006299626565\nasVtracking_pixel_ids\np26366\n(lp26367\nsVbid_type\np26368\nI1\nsVname\np26369\nVBuzzFeed Partner - Ad\np26370\nsVupdated_time\np26371\nV2012-11-19T15:17:14+0000\np26372\nsVend_time\np26373\nNsa(dp26374\nVbid_info\np26375\n(dp26376\nV1\np26377\nV55\np26378\nssVca"
p6
sS'hash'
p7
S'0acbf1c012fb626abe9e254b9a99568c3dfbb2ec'
p8
sS'stack'
p9
S''
s.