(dp1
S'args'
p2
S''
sS'methodname'
p3
S''
sS'packet_num'
p4
I298
sS'returnval'
p5
S"090\nI65\nsVcountries\np55091\n(lp55092\nVUS\np55093\nasVbroad_age\np55094\nI1\nsVage_min\np55095\nI13\nssVid\np55096\nV6007316920965\np55097\nsVobjective\np55098\nI2\nsVmax_bid\np55099\nV75\np55100\nsVad_id\np55101\nI6007316920965\nsVaccount_id\np55102\nI40156177\nsVstart_time\np55103\nNsVlocations\np55104\n(lp55105\nI3\nasVadgroup_status\np55106\nI1\nsVad_status\np55107\nI1\nsVimpression_control_map\np55108\n(lp55109\n(dp55110\nVcontrol\np55111\n(dp55112\nVuser_impression_limit_period\np55113\nI24\nsVuser_impression_limit\np55114\nI6\nsVuser_impression_limit_period_unit\np55115\nI0\nsVimpression_control_type\np55116\nI2\nssVlocation\np55117\nI3\nsasVcreative_ids\np55118\n(lp55119\nI6007316920565\nasVtracking_pixel_ids\np55120\n(lp55121\nsVbid_type\np55122\nI1\nsVname\np55123\nVvegas 3\np55124\nsVupdated_time\np55125\nV2012-12-29T02:20:06+0000\np55126\nsVend_time\np55127\nV2012-12-30T04:30:00+0000\np55128\nsa(dp55129\nVbid_info\np55130\n(dp55131\nV1\np55132\nV80\np55133\nssVcampaign_id\np55134\nI6007190442365\nsVlast_updated_by_app_id\np55135\nI6802152230\nsVcreated_time\np55136\nV2012-12-27T04:14:58+0000\np55137\nsVconversion_specs\np55138\n(lp55139\nsVadgroup_id\np55140\nI6007316937365\nsVtargeting\np55141\n(dp55142\nVkeywords\np55143\n(lp55144\nV#Treasure Island Hotel and Casino\np55145\naV#MGM Grand Las Vegas\np55146\naV#Las Vegas Strip\np55147\naV#The Venetian, Las Vegas\np55148\naV#The Mirage\np55149\naV#Caesars Palace\np55150\naV#Las Vegas\np55151\naV#Wynn Las Vegas\np55152\naV#Las Vegas, Nevada\np55153\naV#Excalibur Hotel and Casino\np55154\naV#Encore Las Vegas\np55155\naV#Harrah's Las Vegas\np55156\naV#Las Vegas Valley\np55157\naV#Casino\np55158\naV#Bellagio (hotel and casino)\np55159\naV#Mandalay Bay\np55160\naV#Monte Carlo Resort and Casino\np55161\naV#Luxor Las Vegas\np55162\naV#VICE (magazine)\np55163\nasVage_max\np55164\nI65\nsVcountries\np55165\n(lp55166\nVUS\np55167\nasVbroad_age\np55168\nI1\nsVage_min\np55169\nI13\nssVid\np55170\nV6007316937365\np55171\nsVobjective\np55172\nI2\nsVmax_bid\np55173\nV80\np55174\nsVad_id\np55175\nI6007316937365\nsVaccount_id\np55176\nI40156177\nsVstart_time\np55177\nNsVlocations\np55178\n(lp55179\nI3\nasVadgroup_status\np55180\nI1\nsVad_status\np55181\nI1\nsVimpression_control_map\np55182\n(lp55183\n(dp55184\nVcontrol\np55185\n(dp55186\nVuser_impression_limit_period\np55187\nI24\nsVuser_impression_limit\np55188\nI6\nsVuser_impression_limit_period_unit\np55189\nI0\nsVimpression_control_type\np55190\nI2\nssVlocation\np55191\nI3\nsasVcreative_ids\np55192\n(lp55193\nI6007316936565\nasVtracking_pixel_ids\np55194\n(lp55195\nsVbid_type\np55196\nI1\nsVname\np55197\nVvegas 4\np55198\nsVupdated_time\np55199\nV2012-12-29T02:20:16+0000\np55200\nsVend_time\np55201\nV2012-12-30T04:30:00+0000\np55202\nsa(dp55203\nVbid_info\np55204\n(dp55205\nV1\np55206\nV80\np55207\nssVcampaign_id\np55208\nI6007190742765\nsVlast_updated_by_app_id\np55209\nI6802152230\nsVcreated_time\np55210\nV2012-12-21T18:16:42+0000\np55211\nsVconversion_specs\np55212\n(lp55213\nsVadgroup_id\np55214\nI6007190743765\nsVtargeting\np55215\n(dp55216\nVkeywords\np55217\n(lp55218\nV#Mashable\np55219\naV#The Hangover\np55220\naV#CollegeHumor\np55221\naV#Cracked.com\np55222\naV#Reddit\np55223\naV#BuzzFeed\np55224\naV#Funny or Die\np55225\naV#Urban Dictionary\np55226\naV#Bridesmaids (2011 film)\np55227\naV#Instagram\np55228\naV#Judd Apatow\np55229\naV#TechCrunch\np55230\naV#Foursquare\np55231\nasVage_max\np55232\nI65\nsVcountries\np55233\n(lp55234\nVUS\np55235\nasVbroad_age\np55236\nI1\nsVage_min\np55237\nI13\nssVid\np55238\nV6007190743765\np55239\nsVobjective\np55240\nI2\nsVmax_bid\np55241\nV80\np55242\nsVad_id\np55243\nI6007190743765\nsVaccount_id\np55244\nI40156177\nsVstart_time\np55245\nNsVlocations\np55246\n(lp55247\nI3\nasVadgroup_status\np55248\nI1\nsVad_status\np55249\nI1\nsVimpression_control_map\np55250\n(lp55251\n(dp55252\nVcontrol\np55253\n(dp55254\nVuser_impression_limit_period\np55255\nI24\nsVuser_impression_limit\np55256\nI6\nsVuser_impression_limit_period_unit\np55257\nI0\nsVimpression_control_type\np55258\nI2\nssVlocation\np55259\nI3\nsasVcreative_ids\np55260\n(lp55261\nI6007190743365\nasVtracking_pixel_ids\np55262\n(lp55263\nsVbid_type\np55264\nI1\nsVname\np55265\nVtoilet\np55266\nsVupdated_time\np55267\nV2012-12-21T18:17:13+0000\np55268\nsVend_time\np55269\nNsa(dp55270\nVbid_info\np55271\n(dp55272\nV1\np55273\nV80\np55274\nssVcampaign_id\np55275\nI6007190742765\nsVlast_updated_by_app_id\np55276\nI6"
p6
sS'hash'
p7
S'0acbf1c012fb626abe9e254b9a99568c3dfbb2ec'
p8
sS'stack'
p9
S''
s.