(dp1
S'args'
p2
S''
sS'methodname'
p3
S''
sS'packet_num'
p4
I176
sS'returnval'
p5
S"2443\nVbid_info\np32444\n(dp32445\nV1\np32446\nV65\np32447\nssVcampaign_id\np32448\nI6006457655365\nsVlast_updated_by_app_id\np32449\nI6802152230\nsVcreated_time\np32450\nV2012-11-27T22:39:28+0000\np32451\nsVconversion_specs\np32452\n(lp32453\nsVadgroup_id\np32454\nI6006457656565\nsVtargeting\np32455\n(dp32456\nVkeywords\np32457\n(lp32458\nV#Star Wars Episode V: The Empire Strikes Back\np32459\naV#Han Solo\np32460\naV#Star Wars: The Force Unleashed II\np32461\naV#Darth Maul\np32462\naVstorm troopers\np32463\naV#Death Star\np32464\naV#Chewbacca\np32465\naV#Star Wars: The Old Republic (comics)\np32466\naV#George Lucas\np32467\naV#Star Wars Episode I: The Phantom Menace\np32468\naV#Jedi\np32469\naV#Star Wars: The Old Republic\np32470\naV#Lucasfilm\np32471\naV#Yoda\np32472\naV#Luke Skywalker\np32473\naV#Star Wars Episode III: Revenge of the Sith\np32474\naV#Sith\np32475\naV#Star Wars Episode IV: A New Hope\np32476\naV#Star Wars: The Clone Wars (2008 TV series)\np32477\naV#Princess Leia\np32478\naV#Star Wars\np32479\naV#Darth Vader\np32480\nasVage_max\np32481\nI65\nsVcountries\np32482\n(lp32483\nVUS\np32484\nasVbroad_age\np32485\nI1\nsVage_min\np32486\nI13\nssVid\np32487\nV6006457656565\np32488\nsVobjective\np32489\nI2\nsVmax_bid\np32490\nV65\np32491\nsVad_id\np32492\nI6006457656565\nsVaccount_id\np32493\nI40156177\nsVstart_time\np32494\nNsVlocations\np32495\n(lp32496\nI3\nasVadgroup_status\np32497\nI9\nsVad_status\np32498\nI2\nsVimpression_control_map\np32499\n(lp32500\n(dp32501\nVcontrol\np32502\n(dp32503\nVuser_impression_limit_period\np32504\nI24\nsVuser_impression_limit\np32505\nI3\nsVuser_impression_limit_period_unit\np32506\nI0\nsVimpression_control_type\np32507\nI2\nssVlocation\np32508\nI3\nsasVcreative_ids\np32509\n(lp32510\nI6006457656165\nasVtracking_pixel_ids\np32511\n(lp32512\nsVbid_type\np32513\nI1\nsVname\np32514\nVhttp://ad.doubleclick.net/clk;265349090;91012994;m?http://www.buzzfeed.com/h1/fbad/quiznos/1... - Ad\np32515\nsVupdated_time\np32516\nV2012-11-30T15:36:38+0000\np32517\nsVend_time\np32518\nV2012-12-01T07:45:00+0000\np32519\nsa(dp32520\nVbid_info\np32521\n(dp32522\nV1\np32523\nV65\np32524\nssVcampaign_id\np32525\nI6006457655365\nsVlast_updated_by_app_id\np32526\nI6802152230\nsVcreated_time\np32527\nV2012-11-29T19:15:23+0000\np32528\nsVconversion_specs\np32529\n(lp32530\nsVadgroup_id\np32531\nI6006490960165\nsVtargeting\np32532\n(dp32533\nVkeywords\np32534\n(lp32535\nV#Poet\np32536\naV#Band of Brothers (TV miniseries)\np32537\naV#The Green Mile (film)\np32538\naV#Verse (poetry)\np32539\naV#Jimmy Fallon\np32540\naV#Toy Story 3\np32541\naV#Rita Wilson\np32542\naV#Forrest Gump\np32543\naV#Toy Story\np32544\naV#Joe Versus the Volcano\np32545\naV#Toy Story (franchise)\np32546\naV#The Terminal\np32547\naV#Poetry\np32548\naV#Dragnet (1987 film)\np32549\naV#The Da Vinci Code (film)\np32550\naV#Tom Hanks\np32551\naV#That Thing You Do!\np32552\naV#Catch Me If You Can\np32553\naV#A League of Their Own\np32554\naV#Sleepless in Seattle\np32555\naVangels demons\np32556\naV#Late Night with Jimmy Fallon\np32557\naV#The Polar Express (film)\np32558\naV#Larry Crowne\np32559\naV#Saving Private Ryan\np32560\naV#Castaway\np32561\naV#Splash (film)\np32562\naV#Philadelphia (film)\np32563\naV#Road to Perdition\np32564\naV#Apollo 13 (film)\np32565\naV#Charlie Wilson's War\np32566\naV#Poetry slam\np32567\naV#The Pacific (TV miniseries)\np32568\naV#Cloud Atlas (film)\np32569\nasVage_max\np32570\nI65\nsVcountries\np32571\n(lp32572\nVUS\np32573\nasVbroad_age\np32574\nI1\nsVage_min\np32575\nI13\nssVid\np32576\nV6006490960165\np32577\nsVobjective\np32578\nI2\nsVmax_bid\np32579\nV65\np32580\nsVad_id\np32581\nI6006490960165\nsVaccount_id\np32582\nI40156177\nsVstart_time\np32583\nNsVlocations\np32584\n(lp32585\nI3\nasVadgroup_status\np32586\nI9\nsVad_status\np32587\nI2\nsVimpression_control_map\np32588\n(lp32589\n(dp32590\nVcontrol\np32591\n(dp32592\nVuser_impression_limit_period\np32593\nI24\nsVuser_impression_limit\np32594\nI3\nsVuser_impression_limit_period_unit\np32595\nI0\nsVimpression_control_type\np32596\nI2\nssVlocation\np32597\nI3\nsasVcreative_ids\np32598\n(lp32599\nI6006490959765\nasVtracking_pixel_ids\np32600\n(lp32601\nsVbid_type\np32602\nI1\nsVname\np32603\nVhttp://ad.doubleclick.net/clk;265349090;91012994;m?http://www.buzzfeed.com/h1/fbad/quiznos/1 - Ad 1\np32604\nsVupdated_time\np32605\nV2012-11-30T19:23:46+0000\np32606\nsVend_time\np32607\nV2012-12-01T07:4"
p6
sS'hash'
p7
S'0acbf1c012fb626abe9e254b9a99568c3dfbb2ec'
p8
sS'stack'
p9
S''
s.