(dp1
S'args'
p2
S''
sS'methodname'
p3
S''
sS'packet_num'
p4
I127
sS'returnval'
p5
S'I2\nssVlocation\np23678\nI3\nsasVcreative_ids\np23679\n(lp23680\nI6006243818165\nasVtracking_pixel_ids\np23681\n(lp23682\nsVbid_type\np23683\nI1\nsVname\np23684\nVBuzzFeed Partner - Ad\np23685\nsVupdated_time\np23686\nV2012-11-14T17:01:01+0000\np23687\nsVend_time\np23688\nNsa(dp23689\nVbid_info\np23690\n(dp23691\nV1\np23692\nV50\np23693\nssVcampaign_id\np23694\nI6006246563165\nsVlast_updated_by_app_id\np23695\nI207192552749284\nsVcreated_time\np23696\nV2012-11-14T23:29:23+0000\np23697\nsVconversion_specs\np23698\n(lp23699\n(dp23700\nVpage\np23701\nI238205562866018\nsVaction.type\np23702\nVpage_engagement\np23703\nsasVadgroup_id\np23704\nI6006246564165\nsVtargeting\np23705\n(dp23706\nVkeywords\np23707\n(lp23708\nV#Al Gore\np23709\naV#Hurricane Rita\np23710\naV#Storm chasing\np23711\naV#Adaptation to global warming\np23712\naV#James Dwight Dana\np23713\naV#Environmentally friendly\np23714\naVstorm chasers\np23715\naV#Climate\np23716\naV#The Weather Channel\np23717\naV#Hurricane Katrina\np23718\naV#National Oceanic and Atmospheric Administration\np23719\naV#Discovery Channel\np23720\naV#Joshua Wurman\np23721\naV#American Meteorological Society\np23722\naV#Multi-Environment Real-Time\np23723\naV#Global warming\np23724\naV#National Geographic Channel\np23725\naV#Bureau of Meteorology\np23726\naV#Reed Timmer\np23727\naV#Reddit\np23728\naV#Climate change mitigation\np23729\naV#Environmental movement\np23730\naV#NPR\np23731\naV#Environmentalist\np23732\naV#Natural environment\np23733\naV#The Daily Show\np23734\naV#Hurricane Wilma\np23735\naV#National Weather Service\np23736\naV#Meteorology\np23737\naV#An Inconvenient Truth\np23738\naV#Weather Report\np23739\naV#Climate change\np23740\naV#Jim Cantore\np23741\naV#Man vs. Wild\np23742\naV#Weather\np23743\naV#Tony Laubach\np23744\naV#Sean Casey (filmmaker)\np23745\naV#Storm Chasers (TV series)\np23746\naV#Environmentalism\np23747\naV#Climate Reality Project\np23748\naV#Effects of global warming\np23749\naV#The Weather Network\np23750\naV#Global warming controversy\np23751\nasVage_max\np23752\nI65\nsVcountries\np23753\n(lp23754\nVUS\np23755\nasVbroad_age\np23756\nI1\nsVage_min\np23757\nI13\nssVid\np23758\nV6006246564165\np23759\nsVobjective\np23760\nI2\nsVmax_bid\np23761\nV50\np23762\nsVad_id\np23763\nI6006246564165\nsVaccount_id\np23764\nI40156177\nsVstart_time\np23765\nNsVlocations\np23766\n(lp23767\nI3\nasVadgroup_status\np23768\nI1\nsVad_status\np23769\nI1\nsVimpression_control_map\np23770\n(lp23771\n(dp23772\nVcontrol\np23773\n(dp23774\nVuser_impression_limit_period\np23775\nI24\nsVuser_impression_limit\np23776\nI6\nsVuser_impression_limit_period_unit\np23777\nI0\nsVimpression_control_type\np23778\nI2\nssVlocation\np23779\nI3\nsasVcreative_ids\np23780\n(lp23781\nI6006246569165\nasVtracking_pixel_ids\np23782\n(lp23783\nsVbid_type\np23784\nI1\nsVname\np23785\nVBuzzFeed Partner - Ad\np23786\nsVupdated_time\np23787\nV2012-11-14T23:30:50+0000\np23788\nsVend_time\np23789\nNsa(dp23790\nVbid_info\np23791\n(dp23792\nV1\np23793\nV50\np23794\nssVcampaign_id\np23795\nI6006246563165\nsVcreated_time\np23796\nV2012-11-14T23:29:24+0000\np23797\nsVconversion_specs\np23798\n(lp23799\n(dp23800\nVpage\np23801\nI238205562866018\nsVaction.type\np23802\nVpage_engagement\np23803\nsasVadgroup_id\np23804\nI6006246565965\nsVtargeting\np23805\n(dp23806\nVage_max\np23807\nI65\nsVcountries\np23808\n(lp23809\nVUS\np23810\nasVbroad_age\np23811\nI1\nsVage_min\np23812\nI13\nssVid\np23813\nV6006246565965\np23814\nsVobjective\np23815\nI2\nsVmax_bid\np23816\nV50\np23817\nsVad_id\np23818\nI6006246565965\nsVaccount_id\np23819\nI40156177\nsVstart_time\np23820\nNsVlocations\np23821\n(lp23822\nI3\nasVadgroup_status\np23823\nI1\nsVad_status\np23824\nI1\nsVimpression_control_map\np23825\n(lp23826\n(dp23827\nVcontrol\np23828\n(dp23829\nVuser_impression_limit_period\np23830\nI24\nsVuser_impression_limit\np23831\nI6\nsVuser_impression_limit_period_unit\np23832\nI0\nsVimpression_control_type\np23833\nI2\nssVlocation\np23834\nI3\nsasVcreative_ids\np23835\n(lp23836\nI6006246565565\nasVtracking_pixel_ids\np23837\n(lp23838\nsVbid_type\np23839\nI1\nsVname\np23840\nVBuzzFeed Partner - Sponsored Stories\np23841\nsVupdated_time\np23842\nV2012-11-15T00:59:56+0000\np23843\nsVend_time\np23844\nNsa(dp23845\nVbid_info\np23846\n(dp23847\nV1\np23848\nV65\np23849\nssVcampaign_id\np23850\nI6006249776165\nsVlast_updated_by_app_id\np23851\nI207192552749284\nsVcreated_time\np23852\nV2012-11-15T19:23:48+0'
p6
sS'hash'
p7
S'0acbf1c012fb626abe9e254b9a99568c3dfbb2ec'
p8
sS'stack'
p9
S''
s.