(dp1
S'args'
p2
S''
sS'methodname'
p3
S''
sS'packet_num'
p4
I87
sS'returnval'
p5
S"I40156177\nsVstart_time\np16503\nNsVlocations\np16504\n(lp16505\nI3\nasVadgroup_status\np16506\nI1\nsVad_status\np16507\nI1\nsVimpression_control_map\np16508\n(lp16509\n(dp16510\nVcontrol\np16511\n(dp16512\nVuser_impression_limit_period\np16513\nI24\nsVuser_impression_limit\np16514\nI6\nsVuser_impression_limit_period_unit\np16515\nI0\nsVimpression_control_type\np16516\nI2\nssVlocation\np16517\nI3\nsasVcreative_ids\np16518\n(lp16519\nI6006208455165\nasVtracking_pixel_ids\np16520\n(lp16521\nsVbid_type\np16522\nI1\nsVname\np16523\nVBuzzFeed Partner - Ad\np16524\nsVupdated_time\np16525\nV2012-11-08T19:58:34+0000\np16526\nsVend_time\np16527\nNsa(dp16528\nVbid_info\np16529\n(dp16530\nV1\np16531\nV50\np16532\nssVcampaign_id\np16533\nI6006208454565\nsVlast_updated_by_app_id\np16534\nI6802152230\nsVcreated_time\np16535\nV2012-11-08T19:57:49+0000\np16536\nsVconversion_specs\np16537\n(lp16538\nsVadgroup_id\np16539\nI6006208457365\nsVtargeting\np16540\n(dp16541\nVage_max\np16542\nI65\nsVcountries\np16543\n(lp16544\nVUS\np16545\nasVbroad_age\np16546\nI1\nsVage_min\np16547\nI13\nssVid\np16548\nV6006208457365\np16549\nsVobjective\np16550\nI2\nsVmax_bid\np16551\nV50\np16552\nsVad_id\np16553\nI6006208457365\nsVaccount_id\np16554\nI40156177\nsVstart_time\np16555\nNsVlocations\np16556\n(lp16557\nI3\nasVadgroup_status\np16558\nI1\nsVad_status\np16559\nI1\nsVimpression_control_map\np16560\n(lp16561\n(dp16562\nVcontrol\np16563\n(dp16564\nVuser_impression_limit_period\np16565\nI24\nsVuser_impression_limit\np16566\nI6\nsVuser_impression_limit_period_unit\np16567\nI0\nsVimpression_control_type\np16568\nI2\nssVlocation\np16569\nI3\nsasVcreative_ids\np16570\n(lp16571\nI6006208456965\nasVtracking_pixel_ids\np16572\n(lp16573\nsVbid_type\np16574\nI1\nsVname\np16575\nVBuzzFeed Partner - Sponsored Stories\np16576\nsVupdated_time\np16577\nV2012-11-08T21:33:26+0000\np16578\nsVend_time\np16579\nNsa(dp16580\nVbid_info\np16581\n(dp16582\nV1\np16583\nV40\np16584\nssVcampaign_id\np16585\nI6006208454565\nsVcreated_time\np16586\nV2012-11-08T19:58:42+0000\np16587\nsVconversion_specs\np16588\n(lp16589\nsVadgroup_id\np16590\nI6006208464365\nsVtargeting\np16591\n(dp16592\nVcountries\np16593\n(lp16594\nVUS\np16595\nasVbroad_age\np16596\nI1\nsVpage_types\np16597\n(lp16598\nVmobile\np16599\nasVage_min\np16600\nI13\nsVkeywords\np16601\n(lp16602\nV#Google Chrome\np16603\naV#IPhone\np16604\naV#Entrepreneurs' Organization\np16605\naV#Mashable\np16606\naV#Entrepreneurship\np16607\naV#Newegg\np16608\naV#Wired (magazine)\np16609\naVsocial media games\np16610\naV#Engadget\np16611\naV#T-Mobile\np16612\naV#IPad\np16613\naV#Entrepreneur (magazine)\np16614\naV#Tumblr\np16615\naV#Smartphone\np16616\naV#HTC Desire\np16617\naV#IPad 2\np16618\naV#T-Mobile USA\np16619\naV#Entrepreneur\np16620\naV#Social media marketing\np16621\naV#Twitter\np16622\naV#IPod\np16623\naV#Gizmodo\np16624\naV#Facebook features\np16625\naV#Lifehacker\np16626\naV#Geek\np16627\naV#Geekologie\np16628\naV#Instagram\np16629\naV#Pinterest\np16630\naV#Social media\np16631\naV#TechCrunch\np16632\naV#VentureBeat\np16633\naV#Geek.com\np16634\nasVage_max\np16635\nI65\nssVid\np16636\nV6006208464365\np16637\nsVobjective\np16638\nI2\nsVmax_bid\np16639\nV40\np16640\nsVad_id\np16641\nI6006208464365\nsVaccount_id\np16642\nI40156177\nsVstart_time\np16643\nNsVlocations\np16644\n(lp16645\nI3\nasVadgroup_status\np16646\nI1\nsVad_status\np16647\nI1\nsVimpression_control_map\np16648\n(lp16649\n(dp16650\nVcontrol\np16651\n(dp16652\nVuser_impression_limit_period\np16653\nI24\nsVuser_impression_limit\np16654\nI6\nsVuser_impression_limit_period_unit\np16655\nI0\nsVimpression_control_type\np16656\nI2\nssVlocation\np16657\nI3\nsasVcreative_ids\np16658\n(lp16659\nI6006208463965\nasVtracking_pixel_ids\np16660\n(lp16661\nsVbid_type\np16662\nI1\nsVname\np16663\nVBuzzFeed Partner - Ad (Mobile)\np16664\nsVupdated_time\np16665\nV2012-11-08T20:12:38+0000\np16666\nsVend_time\np16667\nNsa(dp16668\nVbid_info\np16669\n(dp16670\nV1\np16671\nV55\np16672\nssVcampaign_id\np16673\nI6006209585365\nsVlast_updated_by_app_id\np16674\nI6802152230\nsVcreated_time\np16675\nV2012-11-08T21:35:58+0000\np16676\nsVconversion_specs\np16677\n(lp16678\nsVadgroup_id\np16679\nI6006209628965\nsVtargeting\np16680\n(dp16681\nVkeywords\np16682\n(lp16683\nV#Small business\np16684\naVsocial media examiner\np16685\naV#Intuit\np16686\naVsocial media today\np16687\naV#Mashable\np16688\naV#Wired (magazine)\np16689\naV#Seth Godin\np16690\naV#ReadWriteWeb\np16691\naVt"
p6
sS'hash'
p7
S'0acbf1c012fb626abe9e254b9a99568c3dfbb2ec'
p8
sS'stack'
p9
S''
s.