(dp1
S'args'
p2
S''
sS'methodname'
p3
S''
sS'packet_num'
p4
I166
sS'returnval'
p5
S'ies\np30669\n(lp30670\nVUS\np30671\nasVbroad_age\np30672\nI1\nsVage_min\np30673\nI13\nssVid\np30674\nV6006452616365\np30675\nsVobjective\np30676\nI2\nsVmax_bid\np30677\nV65\np30678\nsVad_id\np30679\nI6006452616365\nsVaccount_id\np30680\nI40156177\nsVstart_time\np30681\nNsVlocations\np30682\n(lp30683\nI3\nasVadgroup_status\np30684\nI1\nsVad_status\np30685\nI1\nsVimpression_control_map\np30686\n(lp30687\n(dp30688\nVcontrol\np30689\n(dp30690\nVuser_impression_limit_period\np30691\nI24\nsVuser_impression_limit\np30692\nI6\nsVuser_impression_limit_period_unit\np30693\nI0\nsVimpression_control_type\np30694\nI2\nssVlocation\np30695\nI3\nsasVcreative_ids\np30696\n(lp30697\nI6006452615965\nasVtracking_pixel_ids\np30698\n(lp30699\nsVbid_type\np30700\nI1\nsVname\np30701\nVhttp://www.buzzfeed.com/h1/fbad/beatsbydre/now-and-then-1-pop-hits-around-the-globe-7jsw - Ad 1\np30702\nsVupdated_time\np30703\nV2012-11-27T17:08:45+0000\np30704\nsVend_time\np30705\nNsa(dp30706\nVbid_info\np30707\n(dp30708\nV1\np30709\nV65\np30710\nssVcampaign_id\np30711\nI6006433968565\nsVlast_updated_by_app_id\np30712\nI6802152230\nsVcreated_time\np30713\nV2012-11-26T18:59:47+0000\np30714\nsVconversion_specs\np30715\n(lp30716\nsVadgroup_id\np30717\nI6006433969565\nsVtargeting\np30718\n(dp30719\nVkeywords\np30720\n(lp30721\nV#Linkin Park\np30722\naV#Green Day\np30723\naV#Nickelback\np30724\naV#Incubus (band)\np30725\naV#Creed (band)\np30726\naV#Three Days Grace\np30727\naV#Evanescence\np30728\nasVage_max\np30729\nI65\nsVcountries\np30730\n(lp30731\nVUS\np30732\nasVbroad_age\np30733\nI1\nsVage_min\np30734\nI13\nssVid\np30735\nV6006433969565\np30736\nsVobjective\np30737\nI2\nsVmax_bid\np30738\nV65\np30739\nsVad_id\np30740\nI6006433969565\nsVaccount_id\np30741\nI40156177\nsVstart_time\np30742\nNsVlocations\np30743\n(lp30744\nI3\nasVadgroup_status\np30745\nI9\nsVad_status\np30746\nI2\nsVimpression_control_map\np30747\n(lp30748\n(dp30749\nVcontrol\np30750\n(dp30751\nVuser_impression_limit_period\np30752\nI24\nsVuser_impression_limit\np30753\nI3\nsVuser_impression_limit_period_unit\np30754\nI0\nsVimpression_control_type\np30755\nI2\nssVlocation\np30756\nI3\nsasVcreative_ids\np30757\n(lp30758\nI6006433969165\nasVtracking_pixel_ids\np30759\n(lp30760\nsVbid_type\np30761\nI1\nsVname\np30762\nVhttp://www.buzzfeed.com/h1/fbad/beatsbydre/now-and-then-1-pop-hits-around-the-globe-7jsw - Ad\np30763\nsVupdated_time\np30764\nV2012-11-27T17:00:02+0000\np30765\nsVend_time\np30766\nNsa(dp30767\nVbid_info\np30768\n(dp30769\nV1\np30770\nV65\np30771\nssVcampaign_id\np30772\nI6006434805365\nsVlast_updated_by_app_id\np30773\nI207192552749284\nsVcreated_time\np30774\nV2012-11-26T20:08:23+0000\np30775\nsVconversion_specs\np30776\n(lp30777\nsVadgroup_id\np30778\nI6006434806365\nsVtargeting\np30779\n(dp30780\nVkeywords\np30781\n(lp30782\nV#Mashable\np30783\naV#Aziz Ansari\np30784\naV#Community (TV series)\np30785\naV#Steve Carell\np30786\naV#Internet meme\np30787\naV#Digg\np30788\naV#The Office (U.S. TV series)\np30789\naV#The Onion\np30790\naV#CollegeHumor\np30791\naV#Cracked.com\np30792\naV#Reddit\np30793\naV#BuzzFeed\np30794\naV#Parks and Recreation\np30795\naV#Comedy Central\np30796\naV#Funny or Die\np30797\naV#Zach Galifianakis\np30798\nasVage_max\np30799\nI65\nsVcountries\np30800\n(lp30801\nVUS\np30802\nasVbroad_age\np30803\nI1\nsVage_min\np30804\nI13\nssVid\np30805\nV6006434806365\np30806\nsVobjective\np30807\nI2\nsVmax_bid\np30808\nV65\np30809\nsVad_id\np30810\nI6006434806365\nsVaccount_id\np30811\nI40156177\nsVstart_time\np30812\nNsVlocations\np30813\n(lp30814\nI3\nasVadgroup_status\np30815\nI1\nsVad_status\np30816\nI1\nsVimpression_control_map\np30817\n(lp30818\n(dp30819\nVcontrol\np30820\n(dp30821\nVuser_impression_limit_period\np30822\nI24\nsVuser_impression_limit\np30823\nI3\nsVuser_impression_limit_period_unit\np30824\nI0\nsVimpression_control_type\np30825\nI2\nssVlocation\np30826\nI3\nsasVcreative_ids\np30827\n(lp30828\nI6006434805965\nasVtracking_pixel_ids\np30829\n(lp30830\nsVbid_type\np30831\nI1\nsVname\np30832\nVHaunted House\np30833\nsVupdated_time\np30834\nV2012-11-26T21:15:19+0000\np30835\nsVend_time\np30836\nNsa(dp30837\nVbid_info\np30838\n(dp30839\nV1\np30840\nV65\np30841\nssVcampaign_id\np30842\nI6006434805365\nsVlast_updated_by_app_id\np30843\nI207192552749284\nsVcreated_time\np30844\nV2012-11-26T20:10:16+0000\np30845\nsVconversion_specs\np30846\n(lp30847\nsVadgroup_id\np30848\nI6006434839765\nsVtargeting\np30849\n(dp30850\nVkeywords\np30851\n('
p6
sS'hash'
p7
S'0acbf1c012fb626abe9e254b9a99568c3dfbb2ec'
p8
sS'stack'
p9
S''
s.