(dp1
S'args'
p2
S''
sS'methodname'
p3
S''
sS'packet_num'
p4
I74
sS'returnval'
p5
S'Vbuzzfeed\np14103\naV#Coca-Cola\np14104\naV#Mashable\np14105\naV#Hurricane Katrina\np14106\naVsocial networks\np14107\naV#Federal Emergency Management Agency\np14108\naV#Hurricane Bob\np14109\naV#Foundation (non-profit)\np14110\naV#New Jersey\np14111\naV#BuzzFeed\np14112\naV#Walmart\np14113\naV#American Red Cross\np14114\naV#New York City\np14115\naV#Hurricane Irene\np14116\nasVbroad_age\np14117\nI1\nsVpage_types\np14118\n(lp14119\nVfeed\np14120\nasVcountries\np14121\n(lp14122\nVUS\np14123\nassVbid_info\np14124\n(dp14125\nV1\np14126\nV35\np14127\nsV55\np14128\nV0\np14129\nsV44\np14130\nV0\np14131\nsV38\np14132\nV0\np14133\nssVstart_time\np14134\nNsVad_status\np14135\nI1\nsVcampaign_id\np14136\nI6006191077965\nsVlocations\np14137\n(lp14138\nI3\nasVcreated_time\np14139\nV2012-11-06T18:11:44+0000\np14140\nsVend_time\np14141\nNsVadgroup_status\np14142\nI1\nsVid\np14143\nV6006191079365\np14144\nsVad_id\np14145\nI6006191079365\nsVimpression_control_map\np14146\n(lp14147\n(dp14148\nVcontrol\np14149\n(dp14150\nVuser_impression_limit_period\np14151\nI24\nsVuser_impression_limit\np14152\nI6\nsVuser_impression_limit_period_unit\np14153\nI0\nsVimpression_control_type\np14154\nI2\nssVlocation\np14155\nI3\nsasVcreative_ids\np14156\n(lp14157\nI6006191078765\nasVmax_bid\np14158\nV35\np14159\nsVadgroup_id\np14160\nI6006191079365\nsVaccount_id\np14161\nI40156177\nsa(dp14162\nVconversion_specs\np14163\n(lp14164\nsVupdated_time\np14165\nV2012-11-06T18:11:59+0000\np14166\nsVbid_type\np14167\nI7\nsVname\np14168\nVSandy_Mobile Only (Story)\np14169\nsVtracking_pixel_ids\np14170\n(lp14171\nsVtargeting\np14172\n(dp14173\nVbroad_age\np14174\nI1\nsVpage_types\np14175\n(lp14176\nVfeed\np14177\nasVcountries\np14178\n(lp14179\nVUS\np14180\nassVbid_info\np14181\n(dp14182\nV1\np14183\nV35\np14184\nsV55\np14185\nV0\np14186\nsV44\np14187\nV0\np14188\nsV38\np14189\nV0\np14190\nssVstart_time\np14191\nNsVad_status\np14192\nI1\nsVcampaign_id\np14193\nI6006191077965\nsVlocations\np14194\n(lp14195\nI3\nasVcreated_time\np14196\nV2012-11-06T18:11:45+0000\np14197\nsVend_time\np14198\nNsVadgroup_status\np14199\nI1\nsVid\np14200\nV6006191081165\np14201\nsVad_id\np14202\nI6006191081165\nsVimpression_control_map\np14203\n(lp14204\n(dp14205\nVcontrol\np14206\n(dp14207\nVuser_impression_limit_period\np14208\nI24\nsVuser_impression_limit\np14209\nI6\nsVuser_impression_limit_period_unit\np14210\nI0\nsVimpression_control_type\np14211\nI2\nssVlocation\np14212\nI3\nsasVcreative_ids\np14213\n(lp14214\nI6006191079765\nasVmax_bid\np14215\nV35\np14216\nsVadgroup_id\np14217\nI6006191081165\nsVaccount_id\np14218\nI40156177\nsa(dp14219\nVconversion_specs\np14220\n(lp14221\nsVupdated_time\np14222\nV2012-11-06T18:28:26+0000\np14223\nsVbid_type\np14224\nI7\nsVname\np14225\nVSandy_Mobile Only 1 (Edit)\np14226\nsVtracking_pixel_ids\np14227\n(lp14228\nsVtargeting\np14229\n(dp14230\nVkeywords\np14231\n(lp14232\nV#Hurricane Rita\np14233\naVamerican red cross\np14234\naVbuzzfeed\np14235\naV#Coca-Cola\np14236\naV#Mashable\np14237\naV#Hurricane Katrina\np14238\naVsocial networks\np14239\naV#Federal Emergency Management Agency\np14240\naV#Hurricane Bob\np14241\naV#Foundation (non-profit)\np14242\naV#New Jersey\np14243\naV#BuzzFeed\np14244\naV#Walmart\np14245\naV#American Red Cross\np14246\naV#New York City\np14247\naV#Hurricane Irene\np14248\nasVbroad_age\np14249\nI1\nsVpage_types\np14250\n(lp14251\nVfeed\np14252\nasVcountries\np14253\n(lp14254\nVUS\np14255\nassVbid_info\np14256\n(dp14257\nV1\np14258\nV35\np14259\nsV55\np14260\nV0\np14261\nsV44\np14262\nV0\np14263\nsV38\np14264\nV0\np14265\nssVstart_time\np14266\nNsVad_status\np14267\nI1\nsVcampaign_id\np14268\nI6006191154765\nsVlocations\np14269\n(lp14270\nI3\nasVcreated_time\np14271\nV2012-11-06T18:27:43+0000\np14272\nsVend_time\np14273\nNsVadgroup_status\np14274\nI1\nsVid\np14275\nV6006191157565\np14276\nsVad_id\np14277\nI6006191157565\nsVimpression_control_map\np14278\n(lp14279\n(dp14280\nVcontrol\np14281\n(dp14282\nVuser_impression_limit_period\np14283\nI24\nsVuser_impression_limit\np14284\nI6\nsVuser_impression_limit_period_unit\np14285\nI0\nsVimpression_control_type\np14286\nI2\nssVlocation\np14287\nI3\nsasVcreative_ids\np14288\n(lp14289\nI6006191155965\nasVmax_bid\np14290\nV35\np14291\nsVadgroup_id\np14292\nI6006191157565\nsVaccount_id\np14293\nI40156177\nsa(dp14294\nVconversion_specs\np14295\n(lp14296\nsVupdated_time\np14297\nV2012-11-06T18:28:09+0000\np14298\nsVbid_type\np14299\nI7\nsVname\np14300\nVSandy_Mobile Only (Story) (Edit)'
p6
sS'hash'
p7
S'0acbf1c012fb626abe9e254b9a99568c3dfbb2ec'
p8
sS'stack'
p9
S''
s.