(dp1
S'args'
p2
S''
sS'methodname'
p3
S''
sS'packet_num'
p4
I260
sS'returnval'
p5
S")\np48091\naV#Child's Play 2\np48092\naV#Day of the Dead (1985 film)\np48093\naV#Land of the Dead\np48094\naV#Halloween Horror Nights\np48095\naV#Saw II\np48096\naV#The Walking Dead (TV series)\np48097\naV#The Apparition\np48098\naV#A Nightmare on Elm Street 5: The Dream Child\np48099\naV#The Grudge (film series)\np48100\naV#The Nightmare Before Christmas\np48101\naV#Child's Play (film series)\np48102\naV#American Horror Story (season 1)\np48103\naV#A Nightmare on Elm Street 2: Freddy's Revenge\np48104\naV#Dawn of the Dead (2004 film)\np48105\naV#The Texas Chainsaw Massacre: The Beginning\np48106\naV#The Texas Chainsaw Massacre (2003 film)\np48107\naV#A Nightmare on Elm Street (franchise)\np48108\naV#Saw (film)\np48109\naV#Chucky (Child's Play)\np48110\naV#Friday the 13th (franchise)\np48111\naV#The Exorcist (film)\np48112\naV#28 Weeks Later\np48113\naV#Halloween (franchise)\np48114\naV#The Texas Chainsaw Massacre (franchise)\np48115\naV#A Nightmare on Elm Street (2010 film)\np48116\naV#Child's Play 3\np48117\naV#Horror film\np48118\naV#Child's Play (1988 film)\np48119\nasVage_max\np48120\nI65\nsVcountries\np48121\n(lp48122\nVUS\np48123\nasVbroad_age\np48124\nI1\nsVage_min\np48125\nI13\nssVid\np48126\nV6007120057565\np48127\nsVobjective\np48128\nI2\nsVmax_bid\np48129\nV65\np48130\nsVad_id\np48131\nI6007120057565\nsVaccount_id\np48132\nI40156177\nsVstart_time\np48133\nNsVlocations\np48134\n(lp48135\nI3\nasVadgroup_status\np48136\nI1\nsVad_status\np48137\nI1\nsVimpression_control_map\np48138\n(lp48139\n(dp48140\nVcontrol\np48141\n(dp48142\nVuser_impression_limit_period\np48143\nI24\nsVuser_impression_limit\np48144\nI6\nsVuser_impression_limit_period_unit\np48145\nI0\nsVimpression_control_type\np48146\nI2\nssVlocation\np48147\nI3\nsasVcreative_ids\np48148\n(lp48149\nI6007102853365\nasVtracking_pixel_ids\np48150\n(lp48151\nsVbid_type\np48152\nI1\nsVname\np48153\nVghost town horror\np48154\nsVupdated_time\np48155\nV2012-12-18T19:31:43+0000\np48156\nsVend_time\np48157\nNsa(dp48158\nVbid_info\np48159\n(dp48160\nV1\np48161\nV65\np48162\nssVcampaign_id\np48163\nI6007100877365\nsVlast_updated_by_app_id\np48164\nI207192552749284\nsVcreated_time\np48165\nV2012-12-17T18:52:57+0000\np48166\nsVconversion_specs\np48167\n(lp48168\nsVadgroup_id\np48169\nI6007100878365\nsVtargeting\np48170\n(dp48171\nVkeywords\np48172\n(lp48173\nV#National Football League\np48174\naV#Monday Night Football\np48175\naV#Madden NFL\np48176\naV#NFL on CBS\np48177\naV#NFL Live\np48178\naV#Madden NFL 11\np48179\naV#NFL on NBC\np48180\naV#Kansas City Chiefs\np48181\naV#NFL on Fox\np48182\naV#Madden NFL 12\np48183\naV#Sunday NFL Countdown\np48184\naV#NFL Network\np48185\naV#Madden NFL 13\np48186\nasVage_max\np48187\nI65\nsVcountries\np48188\n(lp48189\nVUS\np48190\nasVbroad_age\np48191\nI1\nsVage_min\np48192\nI13\nssVid\np48193\nV6007100878365\np48194\nsVobjective\np48195\nI2\nsVmax_bid\np48196\nV65\np48197\nsVad_id\np48198\nI6007100878365\nsVaccount_id\np48199\nI40156177\nsVstart_time\np48200\nNsVlocations\np48201\n(lp48202\nI3\nasVadgroup_status\np48203\nI1\nsVad_status\np48204\nI1\nsVimpression_control_map\np48205\n(lp48206\n(dp48207\nVcontrol\np48208\n(dp48209\nVuser_impression_limit_period\np48210\nI24\nsVuser_impression_limit\np48211\nI3\nsVuser_impression_limit_period_unit\np48212\nI0\nsVimpression_control_type\np48213\nI2\nssVlocation\np48214\nI3\nsasVcreative_ids\np48215\n(lp48216\nI6007100877965\nasVtracking_pixel_ids\np48217\n(lp48218\nsVbid_type\np48219\nI1\nsVname\np48220\nVhttp://ad.doubleclick.net/clk;264495462;89854573;e?http://www.buzzfeed.com/h1/fbad/lenovo/th... - Ad\np48221\nsVupdated_time\np48222\nV2012-12-20T14:55:47+0000\np48223\nsVend_time\np48224\nV2012-12-22T07:45:00+0000\np48225\nsa(dp48226\nVbid_info\np48227\n(dp48228\nV1\np48229\nV65\np48230\nssVcampaign_id\np48231\nI6007100877365\nsVlast_updated_by_app_id\np48232\nI207192552749284\nsVcreated_time\np48233\nV2012-12-18T14:38:05+0000\np48234\nsVconversion_specs\np48235\n(lp48236\nsVadgroup_id\np48237\nI6007115917765\nsVtargeting\np48238\n(dp48239\nVkeywords\np48240\n(lp48241\nV#Chicago Bears\np48242\naV#National Football League\np48243\naV#Monday Night Football\np48244\naV#Madden NFL\np48245\naV#NFL on CBS\np48246\naV#NFL Live\np48247\naV#Madden NFL 11\np48248\naV#NFL on NBC\np48249\naV#Matt Fort\xe9\np48250\naV#NFL on Fox\np48251\naV#Madden NFL 12\np48252\naV#Sunday NFL Countdown\np48253\naV#NFL Network\np48254\naV#Madden NFL "
p6
sS'hash'
p7
S'0acbf1c012fb626abe9e254b9a99568c3dfbb2ec'
p8
sS'stack'
p9
S''
s.