(dp1
S'args'
p2
S''
sS'methodname'
p3
S''
sS'packet_num'
p4
I62
sS'returnval'
p5
S'\nsVimpression_control_map\np11879\n(lp11880\n(dp11881\nVcontrol\np11882\n(dp11883\nVuser_impression_limit_period\np11884\nI24\nsVuser_impression_limit\np11885\nI6\nsVuser_impression_limit_period_unit\np11886\nI0\nsVimpression_control_type\np11887\nI2\nssVlocation\np11888\nI3\nsasVcreative_ids\np11889\n(lp11890\nI6006158443765\nasVtracking_pixel_ids\np11891\n(lp11892\nsVbid_type\np11893\nI1\nsVname\np11894\nVBuzzFeed Partner - Ad\np11895\nsVupdated_time\np11896\nV2012-11-01T15:57:18+0000\np11897\nsVend_time\np11898\nNsa(dp11899\nVbid_info\np11900\n(dp11901\nV1\np11902\nV80\np11903\nssVcampaign_id\np11904\nI6006158443165\nsVlast_updated_by_app_id\np11905\nI6802152230\nsVcreated_time\np11906\nV2012-11-02T02:09:59+0000\np11907\nsVconversion_specs\np11908\n(lp11909\nsVadgroup_id\np11910\nI6006166701965\nsVtargeting\np11911\n(dp11912\nVage_max\np11913\nI65\nsVcountries\np11914\n(lp11915\nVUS\np11916\nasVbroad_age\np11917\nI1\nsVage_min\np11918\nI13\nssVid\np11919\nV6006166701965\np11920\nsVobjective\np11921\nI2\nsVmax_bid\np11922\nV80\np11923\nsVad_id\np11924\nI6006166701965\nsVaccount_id\np11925\nI40156177\nsVstart_time\np11926\nNsVlocations\np11927\n(lp11928\nI3\nasVadgroup_status\np11929\nI1\nsVad_status\np11930\nI1\nsVimpression_control_map\np11931\n(lp11932\n(dp11933\nVcontrol\np11934\n(dp11935\nVuser_impression_limit_period\np11936\nI24\nsVuser_impression_limit\np11937\nI6\nsVuser_impression_limit_period_unit\np11938\nI0\nsVimpression_control_type\np11939\nI2\nssVlocation\np11940\nI3\nsasVcreative_ids\np11941\n(lp11942\nI6006158445565\nasVtracking_pixel_ids\np11943\n(lp11944\nsVbid_type\np11945\nI1\nsVname\np11946\nVSS - Action Spec Only\np11947\nsVupdated_time\np11948\nV2012-11-02T02:16:05+0000\np11949\nsVend_time\np11950\nNsa(dp11951\nVbid_info\np11952\n(dp11953\nV1\np11954\nV55\np11955\nssVcampaign_id\np11956\nI6006158443165\nsVlast_updated_by_app_id\np11957\nI6802152230\nsVcreated_time\np11958\nV2012-11-01T15:56:16+0000\np11959\nsVconversion_specs\np11960\n(lp11961\nsVadgroup_id\np11962\nI6006158445965\nsVtargeting\np11963\n(dp11964\nVkeywords\np11965\n(lp11966\nVlol cats\np11967\naV#Cats (musical)\np11968\naV#Cuteness\np11969\naV#Cats & Dogs\np11970\naV#Cats 101\np11971\naV#Friskies\np11972\naVtidy cats\np11973\naVi can haz cheezburger\np11974\nasVage_max\np11975\nI65\nsVcountries\np11976\n(lp11977\nVUS\np11978\nasVbroad_age\np11979\nI1\nsVage_min\np11980\nI13\nssVid\np11981\nV6006158445965\np11982\nsVobjective\np11983\nI2\nsVmax_bid\np11984\nV55\np11985\nsVad_id\np11986\nI6006158445965\nsVaccount_id\np11987\nI40156177\nsVstart_time\np11988\nNsVlocations\np11989\n(lp11990\nI3\nasVadgroup_status\np11991\nI9\nsVad_status\np11992\nI2\nsVimpression_control_map\np11993\n(lp11994\n(dp11995\nVcontrol\np11996\n(dp11997\nVuser_impression_limit_period\np11998\nI24\nsVuser_impression_limit\np11999\nI3\nsVuser_impression_limit_period_unit\np12000\nI0\nsVimpression_control_type\np12001\nI2\nssVlocation\np12002\nI3\nsasVcreative_ids\np12003\n(lp12004\nI6006158445565\nasVtracking_pixel_ids\np12005\n(lp12006\nsVbid_type\np12007\nI1\nsVname\np12008\nVBuzzFeed Partner - Sponsored Stories\np12009\nsVupdated_time\np12010\nV2012-11-02T02:10:23+0000\np12011\nsVend_time\np12012\nNsa(dp12013\nVbid_info\np12014\n(dp12015\nV1\np12016\nV65\np12017\nssVcampaign_id\np12018\nI6006158496965\nsVcreated_time\np12019\nV2012-11-01T16:07:25+0000\np12020\nsVconversion_specs\np12021\n(lp12022\nsVadgroup_id\np12023\nI6006158497965\nsVtargeting\np12024\n(dp12025\nVkeywords\np12026\n(lp12027\nV#Apocalyptic and post-apocalyptic fiction\np12028\naV#National Geographic Society\np12029\naV#National Geographic (magazine)\np12030\naV#Discovery Channel\np12031\naV#Animal Planet\np12032\naV#Squirrel\np12033\naV#Cuteness\np12034\naV#National Geographic Channel\np12035\naV#Chipmunk\np12036\naV#Alvin and the Chipmunks\np12037\naV#Apocalypse\np12038\naV#Doomsday Preppers\np12039\nasVage_max\np12040\nI65\nsVcountries\np12041\n(lp12042\nVUS\np12043\nasVbroad_age\np12044\nI1\nsVage_min\np12045\nI13\nssVid\np12046\nV6006158497965\np12047\nsVobjective\np12048\nI2\nsVmax_bid\np12049\nV65\np12050\nsVad_id\np12051\nI6006158497965\nsVaccount_id\np12052\nI40156177\nsVstart_time\np12053\nNsVlocations\np12054\n(lp12055\nI3\nasVadgroup_status\np12056\nI1\nsVad_status\np12057\nI1\nsVimpression_control_map\np12058\n(lp12059\n(dp12060\nVcontrol\np12061\n(dp12062\nVuser_impression_limit_period\np12063\nI24\nsVuser_impression_limit\np12064\nI6\nsVuser_impression_limit_p'
p6
sS'hash'
p7
S'0acbf1c012fb626abe9e254b9a99568c3dfbb2ec'
p8
sS'stack'
p9
S''
s.