(dp1
S'args'
p2
S''
sS'methodname'
p3
S''
sS'packet_num'
p4
I286
sS'returnval'
p5
S'52863\nssVcampaign_id\np52864\nI6007159949765\nsVlast_updated_by_app_id\np52865\nI6802152230\nsVcreated_time\np52866\nV2012-12-20T14:19:18+0000\np52867\nsVconversion_specs\np52868\n(lp52869\nsVadgroup_id\np52870\nI6007159950765\nsVtargeting\np52871\n(dp52872\nVkeywords\np52873\n(lp52874\nV#Urban Outfitters\np52875\naV#Cosmopolitan (magazine)\np52876\naVkentucky\np52877\naV#Just Jared\np52878\naV#Sex and the City 2\np52879\naV#Jezebel (website)\np52880\naV#H&M\np52881\naV#HBO\np52882\naV#Tiny Furniture\np52883\naV#Sex and the City\np52884\naV#Music Hall of Williamsburg\np52885\naV#Sex and the City (film)\np52886\naVbrooklyn\np52887\naV#Gossip Girl\np52888\naV#Judd Apatow\np52889\naV#Lena Dunham\np52890\naV#Allison Williams (actress)\np52891\naV#Jemima Kirke\np52892\nasVage_max\np52893\nI65\nsVcountries\np52894\n(lp52895\nVUS\np52896\nasVbroad_age\np52897\nI1\nsVage_min\np52898\nI13\nssVid\np52899\nV6007159950765\np52900\nsVobjective\np52901\nI2\nsVmax_bid\np52902\nV100\np52903\nsVad_id\np52904\nI6007159950765\nsVaccount_id\np52905\nI40156177\nsVstart_time\np52906\nNsVlocations\np52907\n(lp52908\nI3\nasVadgroup_status\np52909\nI1\nsVad_status\np52910\nI1\nsVimpression_control_map\np52911\n(lp52912\n(dp52913\nVcontrol\np52914\n(dp52915\nVuser_impression_limit_period\np52916\nI24\nsVuser_impression_limit\np52917\nI6\nsVuser_impression_limit_period_unit\np52918\nI0\nsVimpression_control_type\np52919\nI2\nssVlocation\np52920\nI3\nsasVcreative_ids\np52921\n(lp52922\nI6007159950365\nasVtracking_pixel_ids\np52923\n(lp52924\nsVbid_type\np52925\nI1\nsVname\np52926\nVeyebrows\np52927\nsVupdated_time\np52928\nV2012-12-21T21:19:31+0000\np52929\nsVend_time\np52930\nNsa(dp52931\nVbid_info\np52932\n(dp52933\nV1\np52934\nV120\np52935\nssVcampaign_id\np52936\nI6007159949765\nsVlast_updated_by_app_id\np52937\nI6802152230\nsVcreated_time\np52938\nV2012-12-20T14:21:10+0000\np52939\nsVconversion_specs\np52940\n(lp52941\nsVadgroup_id\np52942\nI6007159973165\nsVtargeting\np52943\n(dp52944\nVkeywords\np52945\n(lp52946\nV#Urban Outfitters\np52947\naV#Cosmopolitan (magazine)\np52948\naVkentucky\np52949\naV#Just Jared\np52950\naV#Sex and the City 2\np52951\naV#Jezebel (website)\np52952\naV#H&M\np52953\naV#HBO\np52954\naV#Tiny Furniture\np52955\naV#Sex and the City\np52956\naV#Music Hall of Williamsburg\np52957\naV#Sex and the City (film)\np52958\naVbrooklyn\np52959\naV#Gossip Girl\np52960\naV#Judd Apatow\np52961\naV#Lena Dunham\np52962\naV#Allison Williams (actress)\np52963\naV#Jemima Kirke\np52964\nasVage_max\np52965\nI65\nsVcountries\np52966\n(lp52967\nVUS\np52968\nasVbroad_age\np52969\nI1\nsVage_min\np52970\nI13\nssVid\np52971\nV6007159973165\np52972\nsVobjective\np52973\nI2\nsVmax_bid\np52974\nV120\np52975\nsVad_id\np52976\nI6007159973165\nsVaccount_id\np52977\nI40156177\nsVstart_time\np52978\nNsVlocations\np52979\n(lp52980\nI3\nasVadgroup_status\np52981\nI1\nsVad_status\np52982\nI1\nsVimpression_control_map\np52983\n(lp52984\n(dp52985\nVcontrol\np52986\n(dp52987\nVuser_impression_limit_period\np52988\nI24\nsVuser_impression_limit\np52989\nI6\nsVuser_impression_limit_period_unit\np52990\nI0\nsVimpression_control_type\np52991\nI2\nssVlocation\np52992\nI3\nsasVcreative_ids\np52993\n(lp52994\nI6007159972765\nasVtracking_pixel_ids\np52995\n(lp52996\nsVbid_type\np52997\nI1\nsVname\np52998\nVmarnie\np52999\nsVupdated_time\np53000\nV2012-12-21T21:19:31+0000\np53001\nsVend_time\np53002\nNsa(dp53003\nVbid_info\np53004\n(dp53005\nV1\np53006\nV110\np53007\nssVcampaign_id\np53008\nI6007159949765\nsVlast_updated_by_app_id\np53009\nI6802152230\nsVcreated_time\np53010\nV2012-12-20T14:22:11+0000\np53011\nsVconversion_specs\np53012\n(lp53013\nsVadgroup_id\np53014\nI6007159976765\nsVtargeting\np53015\n(dp53016\nVkeywords\np53017\n(lp53018\nV#Urban Outfitters\np53019\naV#Cosmopolitan (magazine)\np53020\naVkentucky\np53021\naV#Just Jared\np53022\naV#Sex and the City 2\np53023\naV#Jezebel (website)\np53024\naV#H&M\np53025\naV#HBO\np53026\naV#Tiny Furniture\np53027\naV#Sex and the City\np53028\naV#Music Hall of Williamsburg\np53029\naV#Sex and the City (film)\np53030\naVbrooklyn\np53031\naV#Gossip Girl\np53032\naV#Judd Apatow\np53033\naV#Lena Dunham\np53034\naV#Allison Williams (actress)\np53035\naV#Jemima Kirke\np53036\nasVage_max\np53037\nI65\nsVcountries\np53038\n(lp53039\nVUS\np53040\nasVbroad_age\np53041\nI1\nsVage_min\np53042\nI13\nssVid\np53043\nV6007159976765\np53044\nsVobjective\np53045\nI2\nsVmax_bid\np53046\nV110\np53047\nsVad_id\np530'
p6
sS'hash'
p7
S'0acbf1c012fb626abe9e254b9a99568c3dfbb2ec'
p8
sS'stack'
p9
S''
s.