(dp1
S'args'
p2
S''
sS'methodname'
p3
S''
sS'packet_num'
p4
I356
sS'returnval'
p5
S'Vadgroup_status\np65650\nI1\nsVad_status\np65651\nI1\nsVimpression_control_map\np65652\n(lp65653\n(dp65654\nVcontrol\np65655\n(dp65656\nVuser_impression_limit_period\np65657\nI24\nsVuser_impression_limit\np65658\nI6\nsVuser_impression_limit_period_unit\np65659\nI0\nsVimpression_control_type\np65660\nI2\nssVlocation\np65661\nI3\nsasVcreative_ids\np65662\n(lp65663\nI6007528671365\nasVtracking_pixel_ids\np65664\n(lp65665\nsVbid_type\np65666\nI1\nsVname\np65667\nVLedge_A\np65668\nsVupdated_time\np65669\nV2013-01-04T16:03:46+0000\np65670\nsVend_time\np65671\nNsa(dp65672\nVbid_info\np65673\n(dp65674\nV1\np65675\nV62\np65676\nssVcampaign_id\np65677\nI6007531695165\nsVlast_updated_by_app_id\np65678\nI209787012415271\nsVcreated_time\np65679\nV2013-01-04T18:54:32+0000\np65680\nsVconversion_specs\np65681\n(lp65682\nsVadgroup_id\np65683\nI6007531696565\nsVtargeting\np65684\n(dp65685\nVkeywords\np65686\n(lp65687\nV#Boardwalk Empire\np65688\naV#Breaking Bad\np65689\naV#Mad Men\np65690\naV#HBO\np65691\naV#Reality TV\np65692\naV#Game of Thrones (TV series)\np65693\nasVage_max\np65694\nI65\nsVcountries\np65695\n(lp65696\nVUS\np65697\nasVbroad_age\np65698\nI1\nsVage_min\np65699\nI13\nssVid\np65700\nV6007531696565\np65701\nsVobjective\np65702\nI2\nsVmax_bid\np65703\nV62\np65704\nsVad_id\np65705\nI6007531696565\nsVaccount_id\np65706\nI40156177\nsVstart_time\np65707\nNsVlocations\np65708\n(lp65709\nI3\nasVadgroup_status\np65710\nI8\nsVad_status\np65711\nI2\nsVimpression_control_map\np65712\n(lp65713\n(dp65714\nVcontrol\np65715\n(dp65716\nVuser_impression_limit_period\np65717\nI24\nsVuser_impression_limit\np65718\nI3\nsVuser_impression_limit_period_unit\np65719\nI0\nsVimpression_control_type\np65720\nI2\nssVlocation\np65721\nI3\nsasVcreative_ids\np65722\n(lp65723\nI6007531696165\nasVtracking_pixel_ids\np65724\n(lp65725\nsVbid_type\np65726\nI1\nsVname\np65727\nVBuzzFeed Partner - Ad\np65728\nsVupdated_time\np65729\nV2013-01-07T20:42:00+0000\np65730\nsVend_time\np65731\nV2013-01-08T06:00:00+0000\np65732\nsa(dp65733\nVbid_info\np65734\n(dp65735\nV1\np65736\nV62\np65737\nssVcampaign_id\np65738\nI6007531695165\nsVlast_updated_by_app_id\np65739\nI209787012415271\nsVcreated_time\np65740\nV2013-01-04T18:54:33+0000\np65741\nsVconversion_specs\np65742\n(lp65743\nsVadgroup_id\np65744\nI6007531698765\nsVtargeting\np65745\n(dp65746\nVkeywords\np65747\n(lp65748\nV#Boardwalk Empire\np65749\naV#Breaking Bad\np65750\naV#Mad Men\np65751\naV#HBO\np65752\naV#Reality TV\np65753\naV#Game of Thrones (TV series)\np65754\nasVage_max\np65755\nI65\nsVcountries\np65756\n(lp65757\nVUS\np65758\nasVbroad_age\np65759\nI1\nsVage_min\np65760\nI13\nssVid\np65761\nV6007531698765\np65762\nsVobjective\np65763\nI2\nsVmax_bid\np65764\nV62\np65765\nsVad_id\np65766\nI6007531698765\nsVaccount_id\np65767\nI40156177\nsVstart_time\np65768\nNsVlocations\np65769\n(lp65770\nI3\nasVadgroup_status\np65771\nI8\nsVad_status\np65772\nI2\nsVimpression_control_map\np65773\n(lp65774\n(dp65775\nVcontrol\np65776\n(dp65777\nVuser_impression_limit_period\np65778\nI24\nsVuser_impression_limit\np65779\nI3\nsVuser_impression_limit_period_unit\np65780\nI0\nsVimpression_control_type\np65781\nI2\nssVlocation\np65782\nI3\nsasVcreative_ids\np65783\n(lp65784\nI6007531698365\nasVtracking_pixel_ids\np65785\n(lp65786\nsVbid_type\np65787\nI1\nsVname\np65788\nVBuzzFeed Partner - Sponsored Stories\np65789\nsVupdated_time\np65790\nV2013-01-07T20:42:00+0000\np65791\nsVend_time\np65792\nV2013-01-08T06:00:00+0000\np65793\nsa(dp65794\nVbid_info\np65795\n(dp65796\nV1\np65797\nV62\np65798\nssVcampaign_id\np65799\nI6007532628365\nsVlast_updated_by_app_id\np65800\nI209787012415271\nsVcreated_time\np65801\nV2013-01-04T19:47:37+0000\np65802\nsVconversion_specs\np65803\n(lp65804\nsVadgroup_id\np65805\nI6007532629365\nsVtargeting\np65806\n(dp65807\nVkeywords\np65808\n(lp65809\nV#Boardwalk Empire\np65810\naV#True Blood\np65811\naV#Dexter (TV series)\np65812\naV#HBO\np65813\naV#Boardwalk\np65814\naV#Game of Thrones (TV series)\np65815\nasVage_max\np65816\nI65\nsVcountries\np65817\n(lp65818\nVUS\np65819\nasVbroad_age\np65820\nI1\nsVage_min\np65821\nI13\nssVid\np65822\nV6007532629365\np65823\nsVobjective\np65824\nI2\nsVmax_bid\np65825\nV62\np65826\nsVad_id\np65827\nI6007532629365\nsVaccount_id\np65828\nI40156177\nsVstart_time\np65829\nNsVlocations\np65830\n(lp65831\nI3\nasVadgroup_status\np65832\nI8\nsVad_status\np65833\nI2\nsVimpression_control_map\np65834\n(lp65835\n(dp65836\nVcontrol\np65837\n(dp65838\nVuser_impression_l'
p6
sS'hash'
p7
S'0acbf1c012fb626abe9e254b9a99568c3dfbb2ec'
p8
sS'stack'
p9
S''
s.