(dp1
S'args'
p2
S''
sS'methodname'
p3
S''
sS'packet_num'
p4
I261
sS'returnval'
p5
S'13\np48255\nasVage_max\np48256\nI65\nsVcountries\np48257\n(lp48258\nVUS\np48259\nasVbroad_age\np48260\nI1\nsVage_min\np48261\nI13\nssVid\np48262\nV6007115917765\np48263\nsVobjective\np48264\nI2\nsVmax_bid\np48265\nV65\np48266\nsVad_id\np48267\nI6007115917765\nsVaccount_id\np48268\nI40156177\nsVstart_time\np48269\nNsVlocations\np48270\n(lp48271\nI3\nasVadgroup_status\np48272\nI1\nsVad_status\np48273\nI1\nsVimpression_control_map\np48274\n(lp48275\n(dp48276\nVcontrol\np48277\n(dp48278\nVuser_impression_limit_period\np48279\nI24\nsVuser_impression_limit\np48280\nI3\nsVuser_impression_limit_period_unit\np48281\nI0\nsVimpression_control_type\np48282\nI2\nssVlocation\np48283\nI3\nsasVcreative_ids\np48284\n(lp48285\nI6007115917165\nasVtracking_pixel_ids\np48286\n(lp48287\nsVbid_type\np48288\nI1\nsVname\np48289\nVhttp://ad.doubleclick.net/clk;2495462;89854573;e?http://www.buzzfeed.com/h1/fbad/lenovo/th... - Ad 1\np48290\nsVupdated_time\np48291\nV2012-12-20T14:55:47+0000\np48292\nsVend_time\np48293\nV2012-12-22T07:45:00+0000\np48294\nsa(dp48295\nVbid_info\np48296\n(dp48297\nV1\np48298\nV100\np48299\nssVcampaign_id\np48300\nI6007100978965\nsVlast_updated_by_app_id\np48301\nI6802152230\nsVcreated_time\np48302\nV2012-12-17T20:12:04+0000\np48303\nsVconversion_specs\np48304\n(lp48305\nsVadgroup_id\np48306\nI6007101956765\nsVtargeting\np48307\n(dp48308\nVkeywords\np48309\n(lp48310\nV#Terry Crews\np48311\naV#National Football League\np48312\naV#White Chicks\np48313\naV#Idiocracy\np48314\naV#Get Smart (film)\np48315\naV#Michael Clarke Duncan\np48316\naV#Everybody Hates Chris\np48317\naV#Old Spice\np48318\naV#The Expendables (2010 film)\np48319\naV#Norbit\np48320\naV#Gamer (film)\np48321\naV#Bridesmaids (2011 film)\np48322\naV#The Longest Yard (2005 film)\np48323\naV#The Expendables 2\np48324\nasVage_max\np48325\nI65\nsVcountries\np48326\n(lp48327\nVUS\np48328\nasVbroad_age\np48329\nI1\nsVage_min\np48330\nI13\nssVid\np48331\nV6007101956765\np48332\nsVobjective\np48333\nI2\nsVmax_bid\np48334\nV100\np48335\nsVad_id\np48336\nI6007101956765\nsVaccount_id\np48337\nI40156177\nsVstart_time\np48338\nNsVlocations\np48339\n(lp48340\nI3\nasVadgroup_status\np48341\nI1\nsVad_status\np48342\nI1\nsVimpression_control_map\np48343\n(lp48344\n(dp48345\nVcontrol\np48346\n(dp48347\nVuser_impression_limit_period\np48348\nI24\nsVuser_impression_limit\np48349\nI3\nsVuser_impression_limit_period_unit\np48350\nI0\nsVimpression_control_type\np48351\nI2\nssVlocation\np48352\nI3\nsasVcreative_ids\np48353\n(lp48354\nI6007100979565\nasVtracking_pixel_ids\np48355\n(lp48356\nsVbid_type\np48357\nI1\nsVname\np48358\nVhttp://ad.doubleclick.net/clk;264495462;89854573;e?http://www.buzzfeed.com/h1/fbad/lenovo/10 - Ad 1\np48359\nsVupdated_time\np48360\nV2012-12-20T20:26:27+0000\np48361\nsVend_time\np48362\nNsa(dp48363\nVbid_info\np48364\n(dp48365\nV1\np48366\nV75\np48367\nssVcampaign_id\np48368\nI6007100978965\nsVlast_updated_by_app_id\np48369\nI209787012415271\nsVcreated_time\np48370\nV2012-12-20T14:56:57+0000\np48371\nsVconversion_specs\np48372\n(lp48373\nsVadgroup_id\np48374\nI6007160589365\nsVtargeting\np48375\n(dp48376\nVkeywords\np48377\n(lp48378\nV#Terry Crews\np48379\naV#National Football League\np48380\naV#White Chicks\np48381\naV#Idiocracy\np48382\naV#Everybody Hates Chris\np48383\naV#Old Spice\np48384\naV#The Expendables (2010 film)\np48385\naV#The Longest Yard (2005 film)\np48386\nasVage_max\np48387\nI65\nsVcountries\np48388\n(lp48389\nVUS\np48390\nasVbroad_age\np48391\nI1\nsVage_min\np48392\nI13\nssVid\np48393\nV6007160589365\np48394\nsVobjective\np48395\nI2\nsVmax_bid\np48396\nV75\np48397\nsVad_id\np48398\nI6007160589365\nsVaccount_id\np48399\nI40156177\nsVstart_time\np48400\nNsVlocations\np48401\n(lp48402\nI3\nasVadgroup_status\np48403\nI1\nsVad_status\np48404\nI1\nsVimpression_control_map\np48405\n(lp48406\n(dp48407\nVcontrol\np48408\n(dp48409\nVuser_impression_limit_period\np48410\nI24\nsVuser_impression_limit\np48411\nI3\nsVuser_impression_limit_period_unit\np48412\nI0\nsVimpression_control_type\np48413\nI2\nssVlocation\np48414\nI3\nsasVcreative_ids\np48415\n(lp48416\nI6007100979565\nasVtracking_pixel_ids\np48417\n(lp48418\nsVbid_type\np48419\nI1\nsVname\np48420\nVhttp://ad.doubleclick.net/clk;4495462;89854573;e?http://www.buzzfeed.com/h1/fbad/lenovo/10... - Ad 1\np48421\nsVupdated_time\np48422\nV2012-12-20T14:58:12+0000\np48423\nsVend_time\np48424\nNsa(dp48425\nVbid_info\np48426\n(dp48427\nV1\np48428\nV100\np48429\nssVcam'
p6
sS'hash'
p7
S'0acbf1c012fb626abe9e254b9a99568c3dfbb2ec'
p8
sS'stack'
p9
S''
s.