(dp1
S'args'
p2
S''
sS'methodname'
p3
S''
sS'packet_num'
p4
I225
sS'returnval'
p5
S'\naV#Dikembe Mutombo\np41482\naV#Kotaku\np41483\naV#David Robinson (basketball)\np41484\naV#Georgetown University\np41485\naV#EA Sports FIFA Superstars\np41486\naV#Xbox 360\np41487\nasVage_max\np41488\nI65\nsVcountries\np41489\n(lp41490\nVUS\np41491\nasVbroad_age\np41492\nI1\nsVage_min\np41493\nI13\nssVid\np41494\nV6006734085765\np41495\nsVobjective\np41496\nI2\nsVmax_bid\np41497\nV58\np41498\nsVad_id\np41499\nI6006734085765\nsVaccount_id\np41500\nI40156177\nsVstart_time\np41501\nNsVlocations\np41502\n(lp41503\nI3\nasVadgroup_status\np41504\nI1\nsVad_status\np41505\nI1\nsVimpression_control_map\np41506\n(lp41507\n(dp41508\nVcontrol\np41509\n(dp41510\nVuser_impression_limit_period\np41511\nI24\nsVuser_impression_limit\np41512\nI3\nsVuser_impression_limit_period_unit\np41513\nI0\nsVimpression_control_type\np41514\nI2\nssVlocation\np41515\nI3\nsasVcreative_ids\np41516\n(lp41517\nI6006734085365\nasVtracking_pixel_ids\np41518\n(lp41519\nsVbid_type\np41520\nI1\nsVname\np41521\nVGame\np41522\nsVupdated_time\np41523\nV2012-12-18T05:30:45+0000\np41524\nsVend_time\np41525\nV2012-12-19T04:30:00+0000\np41526\nsa(dp41527\nVbid_info\np41528\n(dp41529\nV1\np41530\nV75\np41531\nssVcampaign_id\np41532\nI6006734084765\nsVlast_updated_by_app_id\np41533\nI6802152230\nsVcreated_time\np41534\nV2012-12-17T21:58:28+0000\np41535\nsVconversion_specs\np41536\n(lp41537\nsVadgroup_id\np41538\nI6007103321565\nsVtargeting\np41539\n(dp41540\nVkeywords\np41541\n(lp41542\nV#FarmVille\np41543\naV#Madden NFL\np41544\naV#NBA Jam (2010 video game)\np41545\naV#PlayStation 3\np41546\naV#FIFA (video game series)\np41547\naV#Mafia Wars\np41548\naV#Angry Birds\np41549\naV#GameStop\np41550\naV#Atari\np41551\naV#Tetris\np41552\naV#NBA Jam (2003 video game)\np41553\naV#EA Sports\np41554\naV#Nintendo Entertainment System\np41555\naV#Arch Rivals\np41556\naV#Kotaku\np41557\naV#Empires & Allies\np41558\naV#EA Sports FIFA Superstars\np41559\naV#Xbox 360\np41560\nasVage_max\np41561\nI65\nsVcountries\np41562\n(lp41563\nVUS\np41564\nasVbroad_age\np41565\nI1\nsVage_min\np41566\nI13\nssVid\np41567\nV6007103321565\np41568\nsVobjective\np41569\nI2\nsVmax_bid\np41570\nV75\np41571\nsVad_id\np41572\nI6007103321565\nsVaccount_id\np41573\nI40156177\nsVstart_time\np41574\nNsVlocations\np41575\n(lp41576\nI3\nasVadgroup_status\np41577\nI1\nsVad_status\np41578\nI1\nsVimpression_control_map\np41579\n(lp41580\n(dp41581\nVcontrol\np41582\n(dp41583\nVuser_impression_limit_period\np41584\nI24\nsVuser_impression_limit\np41585\nI6\nsVuser_impression_limit_period_unit\np41586\nI0\nsVimpression_control_type\np41587\nI2\nssVlocation\np41588\nI3\nsasVcreative_ids\np41589\n(lp41590\nI6007103321165\nasVtracking_pixel_ids\np41591\n(lp41592\nsVbid_type\np41593\nI1\nsVname\np41594\nVGame-Centric\np41595\nsVupdated_time\np41596\nV2012-12-18T05:30:29+0000\np41597\nsVend_time\np41598\nNsa(dp41599\nVbid_info\np41600\n(dp41601\nV1\np41602\nV68\np41603\nssVcampaign_id\np41604\nI6006734084765\nsVlast_updated_by_app_id\np41605\nI6802152230\nsVcreated_time\np41606\nV2012-12-17T22:00:27+0000\np41607\nsVconversion_specs\np41608\n(lp41609\nsVadgroup_id\np41610\nI6007103342965\nsVtargeting\np41611\n(dp41612\nVkeywords\np41613\n(lp41614\nV#NBA All-Star Game\np41615\naV#Michael Jordan\np41616\naV#National Basketball Association\np41617\naV#Pat Riley\np41618\naV#Alonzo Mourning\np41619\naV#Patrick Ewing\np41620\naV#Hakeem Olajuwon\np41621\naV#Bleacher Report\np41622\naV#NBA on TNT\np41623\naV#Old Spice\np41624\naV#Houston Rockets\np41625\naV#NBA on ESPN\np41626\naV#Ben Wallace\np41627\naV#Dikembe Mutombo\np41628\naV#David Robinson (basketball)\np41629\naV#Georgetown University\np41630\nasVage_max\np41631\nI65\nsVcountries\np41632\n(lp41633\nVUS\np41634\nasVbroad_age\np41635\nI1\nsVage_min\np41636\nI13\nssVid\np41637\nV6007103342965\np41638\nsVobjective\np41639\nI2\nsVmax_bid\np41640\nV68\np41641\nsVad_id\np41642\nI6007103342965\nsVaccount_id\np41643\nI40156177\nsVstart_time\np41644\nNsVlocations\np41645\n(lp41646\nI3\nasVadgroup_status\np41647\nI1\nsVad_status\np41648\nI1\nsVimpression_control_map\np41649\n(lp41650\n(dp41651\nVcontrol\np41652\n(dp41653\nVuser_impression_limit_period\np41654\nI24\nsVuser_impression_limit\np41655\nI6\nsVuser_impression_limit_period_unit\np41656\nI0\nsVimpression_control_type\np41657\nI2\nssVlocation\np41658\nI3\nsasVcreative_ids\np41659\n(lp41660\nI6007103342565\nasVtracking_pixel_ids\np41661\n(lp41662\nsVbid_type\np41663\nI1\nsVname\np41664\nVNBA-Centric\np41665\nsVupda'
p6
sS'hash'
p7
S'0acbf1c012fb626abe9e254b9a99568c3dfbb2ec'
p8
sS'stack'
p9
S''
s.