(dp1
S'args'
p2
S''
sS'methodname'
p3
S''
sS'packet_num'
p4
I289
sS'returnval'
p5
S'efore Christmas\np53416\naV#Comedy Central\np53417\naV#Funny or Die\np53418\naV#The Texas Chainsaw Massacre: The Beginning\np53419\nasVage_max\np53420\nI65\nsVcountries\np53421\n(lp53422\nVUS\np53423\nasVbroad_age\np53424\nI1\nsVage_min\np53425\nI13\nssVid\np53426\nV6007162751365\np53427\nsVobjective\np53428\nI2\nsVmax_bid\np53429\nV75\np53430\nsVad_id\np53431\nI6007162751365\nsVaccount_id\np53432\nI40156177\nsVstart_time\np53433\nNsVlocations\np53434\n(lp53435\nI3\nasVadgroup_status\np53436\nI1\nsVad_status\np53437\nI1\nsVimpression_control_map\np53438\n(lp53439\n(dp53440\nVcontrol\np53441\n(dp53442\nVuser_impression_limit_period\np53443\nI24\nsVuser_impression_limit\np53444\nI6\nsVuser_impression_limit_period_unit\np53445\nI0\nsVimpression_control_type\np53446\nI2\nssVlocation\np53447\nI3\nsasVcreative_ids\np53448\n(lp53449\nI6007162750965\nasVtracking_pixel_ids\np53450\n(lp53451\nsVbid_type\np53452\nI1\nsVname\np53453\nVsanta 3\np53454\nsVupdated_time\np53455\nV2012-12-21T21:29:51+0000\np53456\nsVend_time\np53457\nV2012-12-25T04:30:00+0000\np53458\nsa(dp53459\nVbid_info\np53460\n(dp53461\nV1\np53462\nV110\np53463\nssVcampaign_id\np53464\nI6007162840565\nsVlast_updated_by_app_id\np53465\nI6802152230\nsVcreated_time\np53466\nV2012-12-20T17:08:59+0000\np53467\nsVconversion_specs\np53468\n(lp53469\nsVadgroup_id\np53470\nI6007162841565\nsVtargeting\np53471\n(dp53472\nVkeywords\np53473\n(lp53474\nV#Mashable\np53475\naV#Halloween (1978 film)\np53476\naV#Internet meme\np53477\naV#Imgur\np53478\naV#Digg\np53479\naV#The Onion\np53480\naV#The Texas Chain Saw Massacre\np53481\naV#CollegeHumor\np53482\naV#Cracked.com\np53483\naV#Reddit\np53484\naV#BuzzFeed\np53485\naV#The Nightmare Before Christmas\np53486\naV#Comedy Central\np53487\naV#Funny or Die\np53488\naV#The Texas Chainsaw Massacre: The Beginning\np53489\nasVage_max\np53490\nI65\nsVcountries\np53491\n(lp53492\nVUS\np53493\nasVbroad_age\np53494\nI1\nsVage_min\np53495\nI13\nssVid\np53496\nV6007162841565\np53497\nsVobjective\np53498\nI2\nsVmax_bid\np53499\nV110\np53500\nsVad_id\np53501\nI6007162841565\nsVaccount_id\np53502\nI40156177\nsVstart_time\np53503\nNsVlocations\np53504\n(lp53505\nI3\nasVadgroup_status\np53506\nI1\nsVad_status\np53507\nI1\nsVimpression_control_map\np53508\n(lp53509\n(dp53510\nVcontrol\np53511\n(dp53512\nVuser_impression_limit_period\np53513\nI24\nsVuser_impression_limit\np53514\nI6\nsVuser_impression_limit_period_unit\np53515\nI0\nsVimpression_control_type\np53516\nI2\nssVlocation\np53517\nI3\nsasVcreative_ids\np53518\n(lp53519\nI6007162847165\nasVtracking_pixel_ids\np53520\n(lp53521\nsVbid_type\np53522\nI1\nsVname\np53523\nVcard 1\np53524\nsVupdated_time\np53525\nV2012-12-21T02:11:51+0000\np53526\nsVend_time\np53527\nNsa(dp53528\nVbid_info\np53529\n(dp53530\nV1\np53531\nV110\np53532\nssVcampaign_id\np53533\nI6007162840565\nsVlast_updated_by_app_id\np53534\nI6802152230\nsVcreated_time\np53535\nV2012-12-20T17:10:55+0000\np53536\nsVconversion_specs\np53537\n(lp53538\nsVadgroup_id\np53539\nI6007162857965\nsVtargeting\np53540\n(dp53541\nVkeywords\np53542\n(lp53543\nV#Mashable\np53544\naV#Halloween (1978 film)\np53545\naV#Internet meme\np53546\naV#Imgur\np53547\naV#Digg\np53548\naV#The Onion\np53549\naV#The Texas Chain Saw Massacre\np53550\naV#CollegeHumor\np53551\naV#Cracked.com\np53552\naV#Reddit\np53553\naV#Christmas card\np53554\naV#BuzzFeed\np53555\naV#The Nightmare Before Christmas\np53556\naV#Comedy Central\np53557\naV#Funny or Die\np53558\naV#The Texas Chainsaw Massacre: The Beginning\np53559\nasVage_max\np53560\nI65\nsVcountries\np53561\n(lp53562\nVUS\np53563\nasVbroad_age\np53564\nI1\nsVage_min\np53565\nI13\nssVid\np53566\nV6007162857965\np53567\nsVobjective\np53568\nI2\nsVmax_bid\np53569\nV110\np53570\nsVad_id\np53571\nI6007162857965\nsVaccount_id\np53572\nI40156177\nsVstart_time\np53573\nNsVlocations\np53574\n(lp53575\nI3\nasVadgroup_status\np53576\nI1\nsVad_status\np53577\nI1\nsVimpression_control_map\np53578\n(lp53579\n(dp53580\nVcontrol\np53581\n(dp53582\nVuser_impression_limit_period\np53583\nI24\nsVuser_impression_limit\np53584\nI3\nsVuser_impression_limit_period_unit\np53585\nI0\nsVimpression_control_type\np53586\nI2\nssVlocation\np53587\nI3\nsasVcreative_ids\np53588\n(lp53589\nI6007162857565\nasVtracking_pixel_ids\np53590\n(lp53591\nsVbid_type\np53592\nI1\nsVname\np53593\nVcard 2\np53594\nsVupdated_time\np53595\nV2012-12-21T02:11:59+0000\np53596\nsVend_time\np53597\nNsa(dp53598\nVbid_info\np53599\n(dp53600\nV1\np53601\nV75\np'
p6
sS'hash'
p7
S'0acbf1c012fb626abe9e254b9a99568c3dfbb2ec'
p8
sS'stack'
p9
S''
s.