(dp1
S'args'
p2
S''
sS'methodname'
p3
S''
sS'packet_num'
p4
I316
sS'returnval'
p5
S"p58379\n(dp58380\nVuser_impression_limit_period\np58381\nI24\nsVuser_impression_limit\np58382\nI6\nsVuser_impression_limit_period_unit\np58383\nI0\nsVimpression_control_type\np58384\nI2\nssVlocation\np58385\nI3\nsasVcreative_ids\np58386\n(lp58387\nI6007329104565\nasVtracking_pixel_ids\np58388\n(lp58389\nsVbid_type\np58390\nI1\nsVname\np58391\nVmindy 3\np58392\nsVupdated_time\np58393\nV2012-12-27T15:29:30+0000\np58394\nsVend_time\np58395\nNsa(dp58396\nVbid_info\np58397\n(dp58398\nV1\np58399\nV65\np58400\nssVcampaign_id\np58401\nI6007329436165\nsVlast_updated_by_app_id\np58402\nI6802152230\nsVcreated_time\np58403\nV2012-12-27T15:47:16+0000\np58404\nsVconversion_specs\np58405\n(lp58406\nsVadgroup_id\np58407\nI6007329437165\nsVtargeting\np58408\n(dp58409\nVkeywords\np58410\n(lp58411\nV#Urban decay\np58412\naV#Anna Wintour\np58413\naV#Cosmopolitan (magazine)\np58414\naV#Sephora\np58415\naV#Almay\np58416\naV#Rachel Zoe\np58417\naV#L'Or\xe9al\np58418\naV#Project Runway\np58419\naV#Essie\np58420\naVsally hansen\np58421\naV#Chanel\np58422\naV#Heidi Klum\np58423\naV#Elle (magazine)\np58424\naV#Olay\np58425\naV#The Sartorialist\np58426\naV#Est\xe9e Lauder Companies\np58427\naV#Lookbook.nu\np58428\naVface hunter\np58429\naV#Maybelline\np58430\naV#Make-up Art Cosmetics\np58431\naVmac cosmetic\np58432\naV#Vogue (magazine)\np58433\naV#CoverGirl\np58434\naV#OPI Products\np58435\nasVage_max\np58436\nI65\nsVcountries\np58437\n(lp58438\nVUS\np58439\nasVbroad_age\np58440\nI1\nsVage_min\np58441\nI13\nssVid\np58442\nV6007329437165\np58443\nsVobjective\np58444\nI2\nsVmax_bid\np58445\nV65\np58446\nsVad_id\np58447\nI6007329437165\nsVaccount_id\np58448\nI40156177\nsVstart_time\np58449\nNsVlocations\np58450\n(lp58451\nI3\nasVadgroup_status\np58452\nI1\nsVad_status\np58453\nI1\nsVimpression_control_map\np58454\n(lp58455\n(dp58456\nVcontrol\np58457\n(dp58458\nVuser_impression_limit_period\np58459\nI24\nsVuser_impression_limit\np58460\nI6\nsVuser_impression_limit_period_unit\np58461\nI0\nsVimpression_control_type\np58462\nI2\nssVlocation\np58463\nI3\nsasVcreative_ids\np58464\n(lp58465\nI6007329436765\nasVtracking_pixel_ids\np58466\n(lp58467\nsVbid_type\np58468\nI1\nsVname\np58469\nVclaws\np58470\nsVupdated_time\np58471\nV2012-12-27T15:51:52+0000\np58472\nsVend_time\np58473\nNsa(dp58474\nVbid_info\np58475\n(dp58476\nV1\np58477\nV65\np58478\nssVcampaign_id\np58479\nI6007329436165\nsVlast_updated_by_app_id\np58480\nI6802152230\nsVcreated_time\np58481\nV2012-12-27T15:50:48+0000\np58482\nsVconversion_specs\np58483\n(lp58484\nsVadgroup_id\np58485\nI6007329504365\nsVtargeting\np58486\n(dp58487\nVkeywords\np58488\n(lp58489\nV#Anna Wintour\np58490\naV#Cosmopolitan (magazine)\np58491\naV#Terry Richardson\np58492\naV#Fashion week\np58493\naV#Sephora\np58494\naV#Harper's Bazaar\np58495\naV#Mango (clothing)\np58496\naV#Rachel Zoe\np58497\naV#Comme des Gar\xe7ons\np58498\naV#Fashion\np58499\naV#Project Runway\np58500\naV#H&M\np58501\naV#Fashion design\np58502\naV#Heidi Klum\np58503\naV#Elle (magazine)\np58504\naV#Glamour (magazine)\np58505\naV#The Sartorialist\np58506\naV#Club Monaco\np58507\naVfashions night out\np58508\naV#Lookbook.nu\np58509\naVface hunter\np58510\naV#Zara (clothing)\np58511\naV#Vogue (magazine)\np58512\naV#Lady Gaga x Terry Richardson\np58513\naV#Runway (fashion)\np58514\naV#FashionTV\np58515\nasVage_max\np58516\nI65\nsVcountries\np58517\n(lp58518\nVUS\np58519\nasVbroad_age\np58520\nI1\nsVage_min\np58521\nI13\nssVid\np58522\nV6007329504365\np58523\nsVobjective\np58524\nI2\nsVmax_bid\np58525\nV65\np58526\nsVad_id\np58527\nI6007329504365\nsVaccount_id\np58528\nI40156177\nsVstart_time\np58529\nNsVlocations\np58530\n(lp58531\nI3\nasVadgroup_status\np58532\nI1\nsVad_status\np58533\nI1\nsVimpression_control_map\np58534\n(lp58535\n(dp58536\nVcontrol\np58537\n(dp58538\nVuser_impression_limit_period\np58539\nI24\nsVuser_impression_limit\np58540\nI6\nsVuser_impression_limit_period_unit\np58541\nI0\nsVimpression_control_type\np58542\nI2\nssVlocation\np58543\nI3\nsasVcreative_ids\np58544\n(lp58545\nI6007329503965\nasVtracking_pixel_ids\np58546\n(lp58547\nsVbid_type\np58548\nI1\nsVname\np58549\nVstuds\np58550\nsVupdated_time\np58551\nV2012-12-27T15:54:49+0000\np58552\nsVend_time\np58553\nNsa(dp58554\nVbid_info\np58555\n(dp58556\nV1\np58557\nV65\np58558\nssVcampaign_id\np58559\nI6007329436165\nsVlast_updated_by_app_id\np58560\nI6802152230\nsVcreated_time\np58561\nV2012-12-27T15:51:34+0000\np58562\nsVconversion_specs\np58563\n(lp58564\nsVadgroup_i"
p6
sS'hash'
p7
S'0acbf1c012fb626abe9e254b9a99568c3dfbb2ec'
p8
sS'stack'
p9
S''
s.