(dp1
S'args'
p2
S''
sS'methodname'
p3
S''
sS'packet_num'
p4
I244
sS'returnval'
p5
S"Are (Bruno Mars song)\np45130\naV#Taio Cruz\np45131\naV#Jason Mraz\np45132\naV#Bruno Mars\np45133\naV#Chris Brown (American entertainer)\np45134\naVbruno mars\np45135\naV#Count on Me (Bruno Mars song)\np45136\nasVage_max\np45137\nI65\nsVcountries\np45138\n(lp45139\nVUS\np45140\nasVbroad_age\np45141\nI1\nsVage_min\np45142\nI13\nssVid\np45143\nV6006798826565\np45144\nsVobjective\np45145\nI2\nsVmax_bid\np45146\nV65\np45147\nsVad_id\np45148\nI6006798826565\nsVaccount_id\np45149\nI40156177\nsVstart_time\np45150\nNsVlocations\np45151\n(lp45152\nI3\nasVadgroup_status\np45153\nI1\nsVad_status\np45154\nI1\nsVimpression_control_map\np45155\n(lp45156\n(dp45157\nVcontrol\np45158\n(dp45159\nVuser_impression_limit_period\np45160\nI24\nsVuser_impression_limit\np45161\nI6\nsVuser_impression_limit_period_unit\np45162\nI0\nsVimpression_control_type\np45163\nI2\nssVlocation\np45164\nI3\nsasVcreative_ids\np45165\n(lp45166\nI6006806140765\nasVtracking_pixel_ids\np45167\n(lp45168\nsVbid_type\np45169\nI1\nsVname\np45170\nVBruno\np45171\nsVupdated_time\np45172\nV2012-12-13T19:07:07+0000\np45173\nsVend_time\np45174\nNsa(dp45175\nVbid_info\np45176\n(dp45177\nV1\np45178\nV65\np45179\nssVcampaign_id\np45180\nI6006806452565\nsVlast_updated_by_app_id\np45181\nI207192552749284\nsVcreated_time\np45182\nV2012-12-13T19:14:42+0000\np45183\nsVconversion_specs\np45184\n(lp45185\nsVadgroup_id\np45186\nI6006806453565\nsVtargeting\np45187\n(dp45188\nVkeywords\np45189\n(lp45190\nV#Lifehacker\np45191\naV#Instagram\np45192\naV#Pinterest\np45193\naV#Nail polish\np45194\nasVage_max\np45195\nI65\nsVcountries\np45196\n(lp45197\nVUS\np45198\nasVbroad_age\np45199\nI1\nsVage_min\np45200\nI13\nssVid\np45201\nV6006806453565\np45202\nsVobjective\np45203\nI2\nsVmax_bid\np45204\nV65\np45205\nsVad_id\np45206\nI6006806453565\nsVaccount_id\np45207\nI40156177\nsVstart_time\np45208\nNsVlocations\np45209\n(lp45210\nI3\nasVadgroup_status\np45211\nI1\nsVad_status\np45212\nI1\nsVimpression_control_map\np45213\n(lp45214\n(dp45215\nVcontrol\np45216\n(dp45217\nVuser_impression_limit_period\np45218\nI24\nsVuser_impression_limit\np45219\nI6\nsVuser_impression_limit_period_unit\np45220\nI0\nsVimpression_control_type\np45221\nI2\nssVlocation\np45222\nI3\nsasVcreative_ids\np45223\n(lp45224\nI6006806453165\nasVtracking_pixel_ids\np45225\n(lp45226\nsVbid_type\np45227\nI1\nsVname\np45228\nVhttp://www.buzzfeed.com/h1/fbad/floridaorangejuice/20-simple-solutions-to-annoying-everyday-... - Ad\np45229\nsVupdated_time\np45230\nV2012-12-14T20:28:19+0000\np45231\nsVend_time\np45232\nV2012-12-16T07:45:00+0000\np45233\nsa(dp45234\nVbid_info\np45235\n(dp45236\nV1\np45237\nV65\np45238\nssVcampaign_id\np45239\nI6006806452565\nsVlast_updated_by_app_id\np45240\nI207192552749284\nsVcreated_time\np45241\nV2012-12-14T20:27:56+0000\np45242\nsVconversion_specs\np45243\n(lp45244\nsVadgroup_id\np45245\nI6006831372765\nsVtargeting\np45246\n(dp45247\nVkeywords\np45248\n(lp45249\nV#The Home Depot Center\np45250\naV#The Home Depot\np45251\naV#HGTV\np45252\naV#DIY Network\np45253\naV#Craftsman (tools)\np45254\naV#Ace Hardware\np45255\naV#Lowe's\np45256\naV#Do it yourself\np45257\naV#American Craftsman\np45258\naV#Lifehacker\np45259\naV#Pinterest\np45260\nasVage_max\np45261\nI65\nsVcountries\np45262\n(lp45263\nVUS\np45264\nasVbroad_age\np45265\nI1\nsVage_min\np45266\nI13\nssVid\np45267\nV6006831372765\np45268\nsVobjective\np45269\nI2\nsVmax_bid\np45270\nV65\np45271\nsVad_id\np45272\nI6006831372765\nsVaccount_id\np45273\nI40156177\nsVstart_time\np45274\nNsVlocations\np45275\n(lp45276\nI3\nasVadgroup_status\np45277\nI1\nsVad_status\np45278\nI1\nsVimpression_control_map\np45279\n(lp45280\n(dp45281\nVcontrol\np45282\n(dp45283\nVuser_impression_limit_period\np45284\nI24\nsVuser_impression_limit\np45285\nI3\nsVuser_impression_limit_period_unit\np45286\nI0\nsVimpression_control_type\np45287\nI2\nssVlocation\np45288\nI3\nsasVcreative_ids\np45289\n(lp45290\nI6006831372365\nasVtracking_pixel_ids\np45291\n(lp45292\nsVbid_type\np45293\nI1\nsVname\np45294\nVhttp://www.buzzfeed.com/h1/fbad/floridaorangejuice/20-simple-solutions-to-annoying-everyday - Ad 1\np45295\nsVupdated_time\np45296\nV2012-12-14T20:29:08+0000\np45297\nsVend_time\np45298\nV2012-12-16T07:45:00+0000\np45299\nsa(dp45300\nVbid_info\np45301\n(dp45302\nV1\np45303\nV65\np45304\nssVcampaign_id\np45305\nI6006806656965\nsVlast_updated_by_app_id\np45306\nI207192552749284\nsVcreated_time\np45307\nV2012-12-13T19:30:29+0000\np45308\nsVconversion_specs\np"
p6
sS'hash'
p7
S'0acbf1c012fb626abe9e254b9a99568c3dfbb2ec'
p8
sS'stack'
p9
S''
s.