(dp1
S'args'
p2
S''
sS'methodname'
p3
S''
sS'packet_num'
p4
I33
sS'returnval'
p5
S"imit_period_unit\np6368\nI0\nsVimpression_control_type\np6369\nI2\nssVlocation\np6370\nI3\nsasVcreative_ids\np6371\n(lp6372\nI6006077790765\nasVtracking_pixel_ids\np6373\n(lp6374\nsVbid_type\np6375\nI1\nsVname\np6376\nVUggie\np6377\nsVupdated_time\np6378\nV2012-10-23T18:28:28+0000\np6379\nsVend_time\np6380\nNsa(dp6381\nVbid_info\np6382\n(dp6383\nV1\np6384\nV65\np6385\nssVcampaign_id\np6386\nI6006077790165\nsVlast_updated_by_app_id\np6387\nI6802152230\nsVcreated_time\np6388\nV2012-10-23T18:29:06+0000\np6389\nsVconversion_specs\np6390\n(lp6391\nsVadgroup_id\np6392\nI6006077795165\nsVtargeting\np6393\n(dp6394\nVkeywords\np6395\n(lp6396\nV#Frasier\np6397\naV#Puppy Bowl\np6398\naV#Golden Retriever\np6399\naV#Cuteness\np6400\naV#Puppy mill\np6401\naV#Dog\np6402\naV#Puppy\np6403\naV#It's Me or the Dog\np6404\naV#Beagle\np6405\naV#Dogs 101\np6406\naV#Border Collie\np6407\naV#Frasier Crane\np6408\naV#Minor characters on Frasier\np6409\naV#Dog Whisperer with Cesar Millan\np6410\naV#Pug\np6411\nasVage_max\np6412\nI65\nsVcountries\np6413\n(lp6414\nVUS\np6415\nasVbroad_age\np6416\nI1\nsVage_min\np6417\nI13\nssVid\np6418\nV6006077795165\np6419\nsVobjective\np6420\nI2\nsVmax_bid\np6421\nV65\np6422\nsVad_id\np6423\nI6006077795165\nsVaccount_id\np6424\nI40156177\nsVstart_time\np6425\nNsVlocations\np6426\n(lp6427\nI3\nasVadgroup_status\np6428\nI1\nsVad_status\np6429\nI1\nsVimpression_control_map\np6430\n(lp6431\n(dp6432\nVcontrol\np6433\n(dp6434\nVuser_impression_limit_period\np6435\nI24\nsVuser_impression_limit\np6436\nI6\nsVuser_impression_limit_period_unit\np6437\nI0\nsVimpression_control_type\np6438\nI2\nssVlocation\np6439\nI3\nsasVcreative_ids\np6440\n(lp6441\nI6006077794765\nasVtracking_pixel_ids\np6442\n(lp6443\nsVbid_type\np6444\nI1\nsVname\np6445\nVEddie Crane\np6446\nsVupdated_time\np6447\nV2012-10-23T22:32:14+0000\np6448\nsVend_time\np6449\nNsa(dp6450\nVbid_info\np6451\n(dp6452\nV1\np6453\nV65\np6454\nssVcampaign_id\np6455\nI6006077790165\nsVlast_updated_by_app_id\np6456\nI6802152230\nsVcreated_time\np6457\nV2012-10-23T18:31:35+0000\np6458\nsVconversion_specs\np6459\n(lp6460\nsVadgroup_id\np6461\nI6006077802765\nsVtargeting\np6462\n(dp6463\nVkeywords\np6464\n(lp6465\nV#Puppy Bowl\np6466\naV#Beverly Hills Chihuahua 2\np6467\naV#Cuteness\np6468\naV#Chihuahua (dog)\np6469\naV#Puppy mill\np6470\naV#Beverly Hills Chihuahua\np6471\naV#Dog\np6472\naV#Puppy\np6473\naV#It's Me or the Dog\np6474\naV#Dogs 101\np6475\naV#Dog Whisperer with Cesar Millan\np6476\nasVage_max\np6477\nI65\nsVcountries\np6478\n(lp6479\nVUS\np6480\nasVbroad_age\np6481\nI1\nsVage_min\np6482\nI13\nssVid\np6483\nV6006077802765\np6484\nsVobjective\np6485\nI2\nsVmax_bid\np6486\nV65\np6487\nsVad_id\np6488\nI6006077802765\nsVaccount_id\np6489\nI40156177\nsVstart_time\np6490\nNsVlocations\np6491\n(lp6492\nI3\nasVadgroup_status\np6493\nI1\nsVad_status\np6494\nI1\nsVimpression_control_map\np6495\n(lp6496\n(dp6497\nVcontrol\np6498\n(dp6499\nVuser_impression_limit_period\np6500\nI24\nsVuser_impression_limit\np6501\nI3\nsVuser_impression_limit_period_unit\np6502\nI0\nsVimpression_control_type\np6503\nI2\nssVlocation\np6504\nI3\nsasVcreative_ids\np6505\n(lp6506\nI6006077802365\nasVtracking_pixel_ids\np6507\n(lp6508\nsVbid_type\np6509\nI1\nsVname\np6510\nVChloe\np6511\nsVupdated_time\np6512\nV2012-10-23T22:32:13+0000\np6513\nsVend_time\np6514\nNsa(dp6515\nVbid_info\np6516\n(dp6517\nV1\np6518\nV65\np6519\nssVcampaign_id\np6520\nI6006077814165\nsVlast_updated_by_app_id\np6521\nI6802152230\nsVcreated_time\np6522\nV2012-10-23T18:35:45+0000\np6523\nsVconversion_specs\np6524\n(lp6525\nsVadgroup_id\np6526\nI6006077815165\nsVtargeting\np6527\n(dp6528\nVkeywords\np6529\n(lp6530\nV#PetSmart\np6531\naV#Puppy Bowl\np6532\naV#Golden Retriever\np6533\naV#Petco\np6534\naV#Cuteness\np6535\naV#Puppy mill\np6536\naV#Dog\np6537\naV#Pedigree Petfoods\np6538\naV#Puppy\np6539\naV#It's Me or the Dog\np6540\naV#Beagle\np6541\naV#Dogs 101\np6542\naV#Border Collie\np6543\naV#Petco Park\np6544\naV#Dog Whisperer with Cesar Millan\np6545\naV#Pug\np6546\nasVage_max\np6547\nI65\nsVcountries\np6548\n(lp6549\nVUS\np6550\nasVbroad_age\np6551\nI1\nsVage_min\np6552\nI13\nssVid\np6553\nV6006077815165\np6554\nsVobjective\np6555\nI2\nsVmax_bid\np6556\nV65\np6557\nsVad_id\np6558\nI6006077815165\nsVaccount_id\np6559\nI40156177\nsVstart_time\np6560\nNsVlocations\np6561\n(lp6562\nI3\nasVadgroup_status\np6563\nI1\nsVad_status\np6564\nI1\nsVimpression_control_map\np6565\n(lp6566\n(dp6567\nVcontrol\np6568\n(dp6569\nVuser_impression_limit_"
p6
sS'hash'
p7
S'0acbf1c012fb626abe9e254b9a99568c3dfbb2ec'
p8
sS'stack'
p9
S''
s.