(dp1
S'args'
p2
S''
sS'methodname'
p3
S''
sS'packet_num'
p4
I224
sS'returnval'
p5
S'41301\nI1\nsVimpression_control_map\np41302\n(lp41303\n(dp41304\nVcontrol\np41305\n(dp41306\nVuser_impression_limit_period\np41307\nI24\nsVuser_impression_limit\np41308\nI6\nsVuser_impression_limit_period_unit\np41309\nI0\nsVimpression_control_type\np41310\nI2\nssVlocation\np41311\nI3\nsasVcreative_ids\np41312\n(lp41313\nI6006733869965\nasVtracking_pixel_ids\np41314\n(lp41315\nsVbid_type\np41316\nI1\nsVname\np41317\nVSlide\np41318\nsVupdated_time\np41319\nV2012-12-17T14:47:05+0000\np41320\nsVend_time\np41321\nV2012-12-18T07:40:00+0000\np41322\nsa(dp41323\nVbid_info\np41324\n(dp41325\nV1\np41326\nV65\np41327\nssVcampaign_id\np41328\nI6006733951165\nsVlast_updated_by_app_id\np41329\nI6802152230\nsVcreated_time\np41330\nV2012-12-10T22:18:13+0000\np41331\nsVconversion_specs\np41332\n(lp41333\nsVadgroup_id\np41334\nI6006733952165\nsVtargeting\np41335\n(dp41336\nVkeywords\np41337\n(lp41338\nV#The Real Housewives\np41339\naV#Kelly Osbourne\np41340\naV#Reality TV\np41341\naV#Ozzy Osbourne\np41342\naV#Sharon Osbourne\np41343\naV#Bravo (U.S. TV channel)\np41344\naV#Shahs of Sunset\np41345\nasVage_max\np41346\nI65\nsVcountries\np41347\n(lp41348\nVUS\np41349\nasVbroad_age\np41350\nI1\nsVage_min\np41351\nI13\nssVid\np41352\nV6006733952165\np41353\nsVobjective\np41354\nI2\nsVmax_bid\np41355\nV65\np41356\nsVad_id\np41357\nI6006733952165\nsVaccount_id\np41358\nI40156177\nsVstart_time\np41359\nNsVlocations\np41360\n(lp41361\nI3\nasVadgroup_status\np41362\nI1\nsVad_status\np41363\nI1\nsVimpression_control_map\np41364\n(lp41365\n(dp41366\nVcontrol\np41367\n(dp41368\nVuser_impression_limit_period\np41369\nI24\nsVuser_impression_limit\np41370\nI6\nsVuser_impression_limit_period_unit\np41371\nI0\nsVimpression_control_type\np41372\nI2\nssVlocation\np41373\nI3\nsasVcreative_ids\np41374\n(lp41375\nI6006733951765\nasVtracking_pixel_ids\np41376\n(lp41377\nsVbid_type\np41378\nI1\nsVname\np41379\nVhttp://ad.doubleclick.net/clk;264977123;90797132;s?http://www.buzzfeed.com/h1/fbad/shahsofsu... - Ad\np41380\nsVupdated_time\np41381\nV2012-12-14T15:12:32+0000\np41382\nsVend_time\np41383\nV2012-12-15T07:45:00+0000\np41384\nsa(dp41385\nVbid_info\np41386\n(dp41387\nV1\np41388\nV65\np41389\nssVcampaign_id\np41390\nI6006733951165\nsVlast_updated_by_app_id\np41391\nI207192552749284\nsVcreated_time\np41392\nV2012-12-11T15:15:55+0000\np41393\nsVconversion_specs\np41394\n(lp41395\nsVadgroup_id\np41396\nI6006750901165\nsVtargeting\np41397\n(dp41398\nVkeywords\np41399\n(lp41400\nV#Kim Kardashian\np41401\naV#E!\np41402\naV#Rob Kardashian\np41403\naV#Kourtney Kardashian\np41404\naV#Keeping Up with the Kardashians\np41405\naV#Reality TV\np41406\naV#Khlo\xe9 Kardashian\np41407\nasVage_max\np41408\nI65\nsVcountries\np41409\n(lp41410\nVUS\np41411\nasVbroad_age\np41412\nI1\nsVage_min\np41413\nI13\nssVid\np41414\nV6006750901165\np41415\nsVobjective\np41416\nI2\nsVmax_bid\np41417\nV65\np41418\nsVad_id\np41419\nI6006750901165\nsVaccount_id\np41420\nI40156177\nsVstart_time\np41421\nNsVlocations\np41422\n(lp41423\nI3\nasVadgroup_status\np41424\nI1\nsVad_status\np41425\nI1\nsVimpression_control_map\np41426\n(lp41427\n(dp41428\nVcontrol\np41429\n(dp41430\nVuser_impression_limit_period\np41431\nI24\nsVuser_impression_limit\np41432\nI6\nsVuser_impression_limit_period_unit\np41433\nI0\nsVimpression_control_type\np41434\nI2\nssVlocation\np41435\nI3\nsasVcreative_ids\np41436\n(lp41437\nI6006756969565\nasVtracking_pixel_ids\np41438\n(lp41439\nsVbid_type\np41440\nI1\nsVname\np41441\nVKardashian\np41442\nsVupdated_time\np41443\nV2012-12-14T15:12:32+0000\np41444\nsVend_time\np41445\nV2012-12-15T07:45:00+0000\np41446\nsa(dp41447\nVbid_info\np41448\n(dp41449\nV1\np41450\nV58\np41451\nssVcampaign_id\np41452\nI6006734084765\nsVlast_updated_by_app_id\np41453\nI6802152230\nsVcreated_time\np41454\nV2012-12-10T22:30:05+0000\np41455\nsVconversion_specs\np41456\n(lp41457\nsVadgroup_id\np41458\nI6006734085765\nsVtargeting\np41459\n(dp41460\nVkeywords\np41461\n(lp41462\nV#Madden NFL\np41463\naV#Pat Riley\np41464\naV#Alonzo Mourning\np41465\naV#NBA Jam (2010 video game)\np41466\naV#Patrick Ewing\np41467\naV#Hakeem Olajuwon\np41468\naV#GameStop\np41469\naV#Bleacher Report\np41470\naV#Computer and Video Games\np41471\naV#Atari\np41472\naV#Tetris\np41473\naV#Old Spice\np41474\naV#Houston Rockets\np41475\naV#NBA Jam (2003 video game)\np41476\naV#EA Sports\np41477\naV#NBA on ESPN\np41478\naV#Nintendo Entertainment System\np41479\naV#Ben Wallace\np41480\naV#Arch Rivals\np41481'
p6
sS'hash'
p7
S'0acbf1c012fb626abe9e254b9a99568c3dfbb2ec'
p8
sS'stack'
p9
S''
s.