(dp1
S'args'
p2
S''
sS'methodname'
p3
S''
sS'packet_num'
p4
I21
sS'returnval'
p5
S"(lp4022\n(dp4023\nVcontrol\np4024\n(dp4025\nVuser_impression_limit_period\np4026\nI24\nsVuser_impression_limit\np4027\nI6\nsVuser_impression_limit_period_unit\np4028\nI0\nsVimpression_control_type\np4029\nI2\nssVlocation\np4030\nI3\nsasVcreative_ids\np4031\n(lp4032\nI6006067631165\nasVtracking_pixel_ids\np4033\n(lp4034\nsVbid_type\np4035\nI1\nsVname\np4036\nVhttp://www.buzzfeed.com/h1/fbad/beatsbydre/5-pop-superstars-who-got-their-start-on-youtube - Ad 1\np4037\nsVupdated_time\np4038\nV2012-11-28T15:41:06+0000\np4039\nsVend_time\np4040\nV2012-11-30T07:00:00+0000\np4041\nsa(dp4042\nVbid_info\np4043\n(dp4044\nV1\np4045\nV65\np4046\nssVcampaign_id\np4047\nI6006055194565\nsVlast_updated_by_app_id\np4048\nI6802152230\nsVcreated_time\np4049\nV2012-10-19T20:10:35+0000\np4050\nsVconversion_specs\np4051\n(lp4052\nsVadgroup_id\np4053\nI6006055195565\nsVtargeting\np4054\n(dp4055\nVkeywords\np4056\n(lp4057\nV#2PM\np4058\naV#K-pop\np4059\naV#PSY\np4060\naV#Korea\np4061\naV#Rain (entertainer)\np4062\naV#YouTube\np4063\naV#K-pop Star\np4064\naV#Gangnam Style\np4065\nasVage_max\np4066\nI65\nsVcountries\np4067\n(lp4068\nVUS\np4069\nasVbroad_age\np4070\nI1\nsVage_min\np4071\nI13\nssVid\np4072\nV6006055195565\np4073\nsVobjective\np4074\nI2\nsVmax_bid\np4075\nV65\np4076\nsVad_id\np4077\nI6006055195565\nsVaccount_id\np4078\nI40156177\nsVstart_time\np4079\nNsVlocations\np4080\n(lp4081\nI3\nasVadgroup_status\np4082\nI9\nsVad_status\np4083\nI2\nsVimpression_control_map\np4084\n(lp4085\n(dp4086\nVcontrol\np4087\n(dp4088\nVuser_impression_limit_period\np4089\nI24\nsVuser_impression_limit\np4090\nI6\nsVuser_impression_limit_period_unit\np4091\nI0\nsVimpression_control_type\np4092\nI2\nssVlocation\np4093\nI3\nsasVcreative_ids\np4094\n(lp4095\nI6006055195165\nasVtracking_pixel_ids\np4096\n(lp4097\nsVbid_type\np4098\nI1\nsVname\np4099\nVhttp://www.buzzfeed.com/h1/fbad/beatsbydre/5-pop-superstars-who-got-their-start-on-youtube - Ad\np4100\nsVupdated_time\np4101\nV2012-11-29T17:32:43+0000\np4102\nsVend_time\np4103\nV2012-11-30T07:00:00+0000\np4104\nsa(dp4105\nVbid_info\np4106\n(dp4107\nV1\np4108\nV70\np4109\nssVcampaign_id\np4110\nI6006056488365\nsVlast_updated_by_app_id\np4111\nI6802152230\nsVcreated_time\np4112\nV2012-10-19T22:06:17+0000\np4113\nsVconversion_specs\np4114\n(lp4115\nsVadgroup_id\np4116\nI6006056489365\nsVtargeting\np4117\n(dp4118\nVkeywords\np4119\n(lp4120\nV#Mashable\np4121\naV#Yu-Gi-Oh! (2000 TV series)\np4122\naV#Internet meme\np4123\naV#Pok\xe9mon\np4124\naV#Digg\np4125\naV#The Onion\np4126\naV#CollegeHumor\np4127\naV#Cracked.com\np4128\naV#Yu-Gi-Oh!\np4129\naV#Pok\xe9mon Trading Card Game\np4130\naV#Reddit\np4131\naV#Yu-Gi-Oh! Trading Card Game\np4132\naV#BuzzFeed\np4133\naV#Funny or Die\np4134\nasVage_max\np4135\nI65\nsVcountries\np4136\n(lp4137\nVUS\np4138\nasVbroad_age\np4139\nI1\nsVage_min\np4140\nI13\nssVid\np4141\nV6006056489365\np4142\nsVobjective\np4143\nI2\nsVmax_bid\np4144\nV70\np4145\nsVad_id\np4146\nI6006056489365\nsVaccount_id\np4147\nI40156177\nsVstart_time\np4148\nNsVlocations\np4149\n(lp4150\nI3\nasVadgroup_status\np4151\nI1\nsVad_status\np4152\nI1\nsVimpression_control_map\np4153\n(lp4154\n(dp4155\nVcontrol\np4156\n(dp4157\nVuser_impression_limit_period\np4158\nI24\nsVuser_impression_limit\np4159\nI3\nsVuser_impression_limit_period_unit\np4160\nI0\nsVimpression_control_type\np4161\nI2\nssVlocation\np4162\nI3\nsasVcreative_ids\np4163\n(lp4164\nI6006056488965\nasVtracking_pixel_ids\np4165\n(lp4166\nsVbid_type\np4167\nI1\nsVname\np4168\nVYu-Gi-OMG!\np4169\nsVupdated_time\np4170\nV2012-10-20T13:54:08+0000\np4171\nsVend_time\np4172\nNsa(dp4173\nVbid_info\np4174\n(dp4175\nV1\np4176\nV70\np4177\nssVcampaign_id\np4178\nI6006056488365\nsVlast_updated_by_app_id\np4179\nI6802152230\nsVcreated_time\np4180\nV2012-10-19T22:08:54+0000\np4181\nsVconversion_specs\np4182\n(lp4183\nsVadgroup_id\np4184\nI6006056500565\nsVtargeting\np4185\n(dp4186\nVkeywords\np4187\n(lp4188\nV#Derrick Rose\np4189\naV#Michael Jordan\np4190\naV#National Basketball Association\np4191\naV#Magic Johnson\np4192\naV#ESPN\np4193\naV#Kobe Bryant\np4194\naV#Dwyane Wade\np4195\naV#Los Angeles Lakers\np4196\naV#BuzzFeed\np4197\naV#Shaquille O'Neal\np4198\naV#LeBron James\np4199\nasVage_max\np4200\nI65\nsVcountries\np4201\n(lp4202\nVUS\np4203\nasVbroad_age\np4204\nI1\nsVage_min\np4205\nI13\nssVid\np4206\nV6006056500565\np4207\nsVobjective\np4208\nI2\nsVmax_bid\np4209\nV70\np4210\nsVad_id\np4211\nI6006056500565\nsVaccount_id\np4212\nI40156177\nsVstart_time\np4213\nN"
p6
sS'hash'
p7
S'0acbf1c012fb626abe9e254b9a99568c3dfbb2ec'
p8
sS'stack'
p9
S''
s.