(dp1
S'args'
p2
S''
sS'methodname'
p3
S''
sS'packet_num'
p4
I188
sS'returnval'
p5
S"limit_period_unit\np34623\nI0\nsVimpression_control_type\np34624\nI2\nssVlocation\np34625\nI3\nsasVcreative_ids\np34626\n(lp34627\nI6006576675565\nasVtracking_pixel_ids\np34628\n(lp34629\nsVbid_type\np34630\nI1\nsVname\np34631\nVDrunk\np34632\nsVupdated_time\np34633\nV2012-12-04T00:36:06+0000\np34634\nsVend_time\np34635\nNsa(dp34636\nVbid_info\np34637\n(dp34638\nV1\np34639\nV65\np34640\nssVcampaign_id\np34641\nI6006576674965\nsVlast_updated_by_app_id\np34642\nI207192552749284\nsVcreated_time\np34643\nV2012-12-03T23:48:05+0000\np34644\nsVconversion_specs\np34645\n(lp34646\nsVadgroup_id\np34647\nI6006576691965\nsVtargeting\np34648\n(dp34649\nVage_max\np34650\nI65\nsVcountries\np34651\n(lp34652\nVUS\np34653\nasVbroad_age\np34654\nI1\nsVage_min\np34655\nI13\nsVkeywords\np34656\n(lp34657\nV#Williamsburg, Brooklyn\np34658\naV#Urban Outfitters\np34659\naV#Cosmopolitan (magazine)\np34660\naV#Just Jared\np34661\naV#Sex and the City 2\np34662\naV#Jezebel (website)\np34663\naV#H&M\np34664\naV#HBO\np34665\naV#Tiny Furniture\np34666\naV#Sex and the City\np34667\naV#Music Hall of Williamsburg\np34668\naV#Sex and the City (film)\np34669\naV#Jessamine County, Kentucky\np34670\naV#Judd Apatow\np34671\naV#Lena Dunham\np34672\naV#Allison Williams (actress)\np34673\naV#Jemima Kirke\np34674\naV#Zosia Mamet\np34675\naV#Girls (TV series)\np34676\nasVgenders\np34677\n(lp34678\nI2\nassVid\np34679\nV6006576691965\np34680\nsVobjective\np34681\nI2\nsVmax_bid\np34682\nV65\np34683\nsVad_id\np34684\nI6006576691965\nsVaccount_id\np34685\nI40156177\nsVstart_time\np34686\nNsVlocations\np34687\n(lp34688\nI3\nasVadgroup_status\np34689\nI1\nsVad_status\np34690\nI1\nsVimpression_control_map\np34691\n(lp34692\n(dp34693\nVcontrol\np34694\n(dp34695\nVuser_impression_limit_period\np34696\nI24\nsVuser_impression_limit\np34697\nI3\nsVuser_impression_limit_period_unit\np34698\nI0\nsVimpression_control_type\np34699\nI2\nssVlocation\np34700\nI3\nsasVcreative_ids\np34701\n(lp34702\nI6006576691565\nasVtracking_pixel_ids\np34703\n(lp34704\nsVbid_type\np34705\nI1\nsVname\np34706\nVVirgin\np34707\nsVupdated_time\np34708\nV2012-12-04T00:36:06+0000\np34709\nsVend_time\np34710\nNsa(dp34711\nVbid_info\np34712\n(dp34713\nV1\np34714\nV66\np34715\nssVcampaign_id\np34716\nI6006590604365\nsVlast_updated_by_app_id\np34717\nI6802152230\nsVcreated_time\np34718\nV2012-12-04T16:49:24+0000\np34719\nsVconversion_specs\np34720\n(lp34721\nsVadgroup_id\np34722\nI6006590605365\nsVtargeting\np34723\n(dp34724\nVkeywords\np34725\n(lp34726\nV#Spin (magazine)\np34727\naV#MTV\np34728\naV#Spotify\np34729\naV#Rhapsody (music)\np34730\naV#Stereogum\np34731\naV#Grooveshark\np34732\naV#Pitchfork Media\np34733\naV#Jango (website)\np34734\naV#Billboard (magazine)\np34735\naV#Last.fm\np34736\naV#Pandora Radio\np34737\naV#KCRW\np34738\naV#Rdio\np34739\naV#Lollapalooza\np34740\naV#Coachella Valley Music and Arts Festival\np34741\nasVage_max\np34742\nI65\nsVcountries\np34743\n(lp34744\nVUS\np34745\nasVbroad_age\np34746\nI1\nsVage_min\np34747\nI13\nssVid\np34748\nV6006590605365\np34749\nsVobjective\np34750\nI2\nsVmax_bid\np34751\nV66\np34752\nsVad_id\np34753\nI6006590605365\nsVaccount_id\np34754\nI40156177\nsVstart_time\np34755\nNsVlocations\np34756\n(lp34757\nI3\nasVadgroup_status\np34758\nI1\nsVad_status\np34759\nI1\nsVimpression_control_map\np34760\n(lp34761\n(dp34762\nVcontrol\np34763\n(dp34764\nVuser_impression_limit_period\np34765\nI24\nsVuser_impression_limit\np34766\nI3\nsVuser_impression_limit_period_unit\np34767\nI0\nsVimpression_control_type\np34768\nI2\nssVlocation\np34769\nI3\nsasVcreative_ids\np34770\n(lp34771\nI6006590604965\nasVtracking_pixel_ids\np34772\n(lp34773\nsVbid_type\np34774\nI1\nsVname\np34775\nVMusic General\np34776\nsVupdated_time\np34777\nV2012-12-05T14:41:06+0000\np34778\nsVend_time\np34779\nNsa(dp34780\nVbid_info\np34781\n(dp34782\nV1\np34783\nV66\np34784\nssVcampaign_id\np34785\nI6006590604365\nsVlast_updated_by_app_id\np34786\nI6802152230\nsVcreated_time\np34787\nV2012-12-04T16:52:58+0000\np34788\nsVconversion_specs\np34789\n(lp34790\nsVadgroup_id\np34791\nI6006590697565\nsVtargeting\np34792\n(dp34793\nVkeywords\np34794\n(lp34795\nV#Fleetwood Mac\np34796\naV#The Doors\np34797\naV#Bob Dylan\np34798\naV#Queen (band)\np34799\naV#The Beach Boys\np34800\naV#Tom Lehrer\np34801\naV#Toby Keith's I Love This Bar & Grill\np34802\naV#Smile (The Beach Boys album)\np34803\naV#Green Day\np34804\naV#Tim McGraw\np34805\naV#Simon & Garfunkel\np34806\naV#The Essential B"
p6
sS'hash'
p7
S'0acbf1c012fb626abe9e254b9a99568c3dfbb2ec'
p8
sS'stack'
p9
S''
s.