(dp1
S'args'
p2
S''
sS'methodname'
p3
S''
sS'packet_num'
p4
I125
sS'returnval'
p5
S'#Lifehacker\np23320\naV#OLX\np23321\naV#TechCrunch\np23322\naV#The Huffington Post\np23323\nasVage_max\np23324\nI65\nsVcountries\np23325\n(lp23326\nVUS\np23327\nasVbroad_age\np23328\nI1\nsVage_min\np23329\nI13\nssVid\np23330\nV6006237481965\np23331\nsVobjective\np23332\nI2\nsVmax_bid\np23333\nV67\np23334\nsVad_id\np23335\nI6006237481965\nsVaccount_id\np23336\nI40156177\nsVstart_time\np23337\nNsVlocations\np23338\n(lp23339\nI3\nasVadgroup_status\np23340\nI1\nsVad_status\np23341\nI1\nsVimpression_control_map\np23342\n(lp23343\n(dp23344\nVcontrol\np23345\n(dp23346\nVuser_impression_limit_period\np23347\nI24\nsVuser_impression_limit\np23348\nI3\nsVuser_impression_limit_period_unit\np23349\nI0\nsVimpression_control_type\np23350\nI2\nssVlocation\np23351\nI3\nsasVcreative_ids\np23352\n(lp23353\nI6006237478365\nasVtracking_pixel_ids\np23354\n(lp23355\nsVbid_type\np23356\nI1\nsVname\np23357\nVBuzzFeed\np23358\nsVupdated_time\np23359\nV2012-11-14T17:05:26+0000\np23360\nsVend_time\np23361\nNsa(dp23362\nVbid_info\np23363\n(dp23364\nV1\np23365\nV67\np23366\nssVcampaign_id\np23367\nI6006237477765\nsVlast_updated_by_app_id\np23368\nI6802152230\nsVcreated_time\np23369\nV2012-11-13T19:57:28+0000\np23370\nsVconversion_specs\np23371\n(lp23372\nsVadgroup_id\np23373\nI6006237499565\nsVtargeting\np23374\n(dp23375\nVkeywords\np23376\n(lp23377\nV#Joan Osborne\np23378\naV#Miracle (Whitney Houston song)\np23379\naV#Yeah! (Usher song)\np23380\naV#Usher\np23381\naV#Pop (U2 album)\np23382\naV#Whitney Houston (album)\np23383\naV#Queen (band)\np23384\naV#Crush (Bon Jovi album)\np23385\naV#Usher (entertainer)\np23386\naV#Bon Jovi (album)\np23387\naV#Kelly Clarkson\np23388\naV#Madonna (entertainer)\np23389\naV#Rhianna\np23390\naV#Music (Madonna song)\np23391\naV#Always (Bon Jovi song)\np23392\naV#Already Gone (Kelly Clarkson song)\np23393\naV#Because of You (Kelly Clarkson song)\np23394\naV#Vogue (Madonna song)\np23395\naV#Low (Kelly Clarkson song)\np23396\naV#Walk Away (Kelly Clarkson song)\np23397\naV#U2\np23398\naV#Runaway (Bon Jovi song)\np23399\naV#Breakaway (Kelly Clarkson album)\np23400\naV#One of Us (Joan Osborne song)\np23401\naV#Jon Bon Jovi\np23402\naV#Music (Madonna album)\np23403\naV#Whitney Houston\np23404\naV#One (U2 song)\np23405\naV#Bounce (Bon Jovi album)\np23406\naV#Bon Jovi\np23407\naV#Usher (album)\np23408\naV#U2 3D\np23409\naV#Run to You (Whitney Houston song)\np23410\naV#Madonna (album)\np23411\naV#Breakaway (Kelly Clarkson song)\np23412\naV#Bon Jovi Live\np23413\naV#Stronger (Kelly Clarkson album)\np23414\naV#A-ha\np23415\naV#All at Once (Whitney Houston song)\np23416\nasVage_max\np23417\nI65\nsVcountries\np23418\n(lp23419\nVUS\np23420\nasVbroad_age\np23421\nI1\nsVage_min\np23422\nI13\nssVid\np23423\nV6006237499565\np23424\nsVobjective\np23425\nI2\nsVmax_bid\np23426\nV67\np23427\nsVad_id\np23428\nI6006237499565\nsVaccount_id\np23429\nI40156177\nsVstart_time\np23430\nNsVlocations\np23431\n(lp23432\nI3\nasVadgroup_status\np23433\nI1\nsVad_status\np23434\nI1\nsVimpression_control_map\np23435\n(lp23436\n(dp23437\nVcontrol\np23438\n(dp23439\nVuser_impression_limit_period\np23440\nI24\nsVuser_impression_limit\np23441\nI3\nsVuser_impression_limit_period_unit\np23442\nI0\nsVimpression_control_type\np23443\nI2\nssVlocation\np23444\nI3\nsasVcreative_ids\np23445\n(lp23446\nI6006237478365\nasVtracking_pixel_ids\np23447\n(lp23448\nsVbid_type\np23449\nI1\nsVname\np23450\nVArtists\np23451\nsVupdated_time\np23452\nV2012-11-14T17:05:23+0000\np23453\nsVend_time\np23454\nNsa(dp23455\nVbid_info\np23456\n(dp23457\nV1\np23458\nV55\np23459\nssVcampaign_id\np23460\nI6006237623565\nsVcreated_time\np23461\nV2012-11-13T20:29:32+0000\np23462\nsVconversion_specs\np23463\n(lp23464\nsVadgroup_id\np23465\nI6006237624565\nsVtargeting\np23466\n(dp23467\nVkeywords\np23468\n(lp23469\nV#Pulse\np23470\naVsocial media today\np23471\naV#Mashable\np23472\naV#Campbell Soup Company\np23473\naV#ReadWriteWeb\np23474\naVmashable social media\np23475\naV#BuzzFeed\np23476\naVmashable tech\np23477\naV#Progresso\np23478\naV#Gizmodo\np23479\naV#TechCrunch\np23480\nasVage_max\np23481\nI65\nsVcountries\np23482\n(lp23483\nVUS\np23484\nasVbroad_age\np23485\nI1\nsVage_min\np23486\nI13\nssVid\np23487\nV6006237624565\np23488\nsVobjective\np23489\nI2\nsVmax_bid\np23490\nV55\np23491\nsVad_id\np23492\nI6006237624565\nsVaccount_id\np23493\nI40156177\nsVstart_time\np23494\nNsVlocations\np23495\n(lp23496\nI3\nasVadgroup_status\np23497\nI1\nsVad_status\np23498\nI'
p6
sS'hash'
p7
S'0acbf1c012fb626abe9e254b9a99568c3dfbb2ec'
p8
sS'stack'
p9
S''
s.