(dp1
S'args'
p2
S''
sS'methodname'
p3
S''
sS'packet_num'
p4
I196
sS'returnval'
p5
S"0000\np36117\nsVend_time\np36118\nNsa(dp36119\nVbid_info\np36120\n(dp36121\nV1\np36122\nV65\np36123\nssVcampaign_id\np36124\nI6006618289565\nsVlast_updated_by_app_id\np36125\nI207192552749284\nsVcreated_time\np36126\nV2012-12-05T20:34:30+0000\np36127\nsVconversion_specs\np36128\n(lp36129\nsVadgroup_id\np36130\nI6006618328365\nsVtargeting\np36131\n(dp36132\nVkeywords\np36133\n(lp36134\nV#The Motley Fool\np36135\naV#Mint.com\np36136\naV#SmartMoney\np36137\naV#Public library\np36138\naV#New York Public Library\np36139\naV#Barnes & Noble\np36140\naV#Kiplinger\np36141\naV#Investopedia\np36142\naV#Borders Group\np36143\naV#Yahoo! Finance\np36144\naV#The Vanguard Group\np36145\naV#Fidelity Investments\np36146\naV#Amazon Kindle\np36147\naV#Goodreads\np36148\naV#American Library Association\np36149\naV#Edward Jones Investments\np36150\naV#CNNMoney.com\np36151\naV#Seeking Alpha\np36152\naV#T. Rowe Price\np36153\naV#Fidelity\np36154\naVamazon book store\np36155\naV#Kindle Fire\np36156\naV#Kiplinger's Personal Finance\np36157\naV#E-Trade\np36158\naV#Scottrade\np36159\naV#TD Ameritrade\np36160\naV#Forbes\np36161\naV#Barnes & Noble Nook\np36162\naV#The Wall Street Journal\np36163\nasVage_max\np36164\nI65\nsVcountries\np36165\n(lp36166\nVUS\np36167\nasVbroad_age\np36168\nI1\nsVage_min\np36169\nI13\nssVid\np36170\nV6006618328365\np36171\nsVobjective\np36172\nI2\nsVmax_bid\np36173\nV65\np36174\nsVad_id\np36175\nI6006618328365\nsVaccount_id\np36176\nI40156177\nsVstart_time\np36177\nNsVlocations\np36178\n(lp36179\nI3\nasVadgroup_status\np36180\nI1\nsVad_status\np36181\nI1\nsVimpression_control_map\np36182\n(lp36183\n(dp36184\nVcontrol\np36185\n(dp36186\nVuser_impression_limit_period\np36187\nI24\nsVuser_impression_limit\np36188\nI6\nsVuser_impression_limit_period_unit\np36189\nI0\nsVimpression_control_type\np36190\nI2\nssVlocation\np36191\nI3\nsasVcreative_ids\np36192\n(lp36193\nI6006618333765\nasVtracking_pixel_ids\np36194\n(lp36195\nsVbid_type\np36196\nI1\nsVname\np36197\nVBOoks\np36198\nsVupdated_time\np36199\nV2012-12-05T21:12:19+0000\np36200\nsVend_time\np36201\nNsa(dp36202\nVbid_info\np36203\n(dp36204\nV1\np36205\nV66\np36206\nssVcampaign_id\np36207\nI6006620825965\nsVlast_updated_by_app_id\np36208\nI6802152230\nsVcreated_time\np36209\nV2012-12-05T22:21:34+0000\np36210\nsVconversion_specs\np36211\n(lp36212\nsVadgroup_id\np36213\nI6006620826965\nsVtargeting\np36214\n(dp36215\nVkeywords\np36216\n(lp36217\nV#Franklin Templeton Investments\np36218\naV#The Motley Fool\np36219\naV#Mint.com\np36220\naV#SmartMoney\np36221\naV#Kiplinger\np36222\naV#Investopedia\np36223\naV#Yahoo! Finance\np36224\naV#The Vanguard Group\np36225\naV#MarketWatch\np36226\naV#Fidelity Investments\np36227\naV#Amazon Kindle\np36228\naV#USAA\np36229\naV#Harvard Business Review\np36230\naV#Edward Jones Investments\np36231\naV#CNNMoney.com\np36232\naV#Seeking Alpha\np36233\naV#T. Rowe Price\np36234\naV#JPMorgan Chase\np36235\naV#Fidelity\np36236\naV#Financial Times\np36237\naV#Prudential Financial\np36238\naV#Merrill Lynch\np36239\naV#Kindle Fire\np36240\naV#Kiplinger's Personal Finance\np36241\naV#E-Trade\np36242\naV#Scottrade\np36243\naV#TD Ameritrade\np36244\naV#Forbes\np36245\naV#The Wall Street Journal\np36246\naV#State Farm Insurance\np36247\naV#OLX\np36248\naV#McKinsey Quarterly\np36249\nasVage_max\np36250\nI65\nsVcountries\np36251\n(lp36252\nVUS\np36253\nasVbroad_age\np36254\nI1\nsVage_min\np36255\nI13\nssVid\np36256\nV6006620826965\np36257\nsVobjective\np36258\nI2\nsVmax_bid\np36259\nV66\np36260\nsVad_id\np36261\nI6006620826965\nsVaccount_id\np36262\nI40156177\nsVstart_time\np36263\nNsVlocations\np36264\n(lp36265\nI3\nasVadgroup_status\np36266\nI1\nsVad_status\np36267\nI1\nsVimpression_control_map\np36268\n(lp36269\n(dp36270\nVcontrol\np36271\n(dp36272\nVuser_impression_limit_period\np36273\nI24\nsVuser_impression_limit\np36274\nI3\nsVuser_impression_limit_period_unit\np36275\nI0\nsVimpression_control_type\np36276\nI2\nssVlocation\np36277\nI3\nsasVcreative_ids\np36278\n(lp36279\nI6006620826565\nasVtracking_pixel_ids\np36280\n(lp36281\nsVbid_type\np36282\nI1\nsVname\np36283\nV401K\np36284\nsVupdated_time\np36285\nV2012-12-07T19:56:00+0000\np36286\nsVend_time\np36287\nNsa(dp36288\nVbid_info\np36289\n(dp36290\nV1\np36291\nV66\np36292\nssVcampaign_id\np36293\nI6006620825965\nsVlast_updated_by_app_id\np36294\nI6802152230\nsVcreated_time\np36295\nV2012-12-05T22:26:15+0000\np36296\nsVconversion_specs\np36297\n(lp36298\nsVadgroup_id\np3629"
p6
sS'hash'
p7
S'0acbf1c012fb626abe9e254b9a99568c3dfbb2ec'
p8
sS'stack'
p9
S''
s.