(dp1
S'args'
p2
S''
sS'methodname'
p3
S''
sS'packet_num'
p4
I248
sS'returnval'
p5
S'(lp45865\nV#Photobucket\np45866\naV#Mashable\np45867\naV#Internet marketing\np45868\naV#Wired (magazine)\np45869\naV#Jezebel (website)\np45870\naV#WordPress\np45871\naV#Gothamist\np45872\naV#Flickr\np45873\naV#BuzzFeed\np45874\naV#Gawker\np45875\naV#Deadspin\np45876\naV#Gizmodo\np45877\naV#Instagram\np45878\naV#Overheard in New York\np45879\naV#Pinterest\np45880\naV#Photography\np45881\naV#WordPress.com\np45882\naV#Snapfish\np45883\naV#Shutterfly\np45884\naV#TechCrunch\np45885\nasVage_max\np45886\nI65\nsVcountries\np45887\n(lp45888\nVIT\np45889\naVNL\np45890\naVES\np45891\naVGB\np45892\naVAU\np45893\naVFR\np45894\naVDE\np45895\nasVbroad_age\np45896\nI1\nsVage_min\np45897\nI13\nssVid\np45898\nV6006827532365\np45899\nsVobjective\np45900\nI2\nsVmax_bid\np45901\nV40\np45902\nsVad_id\np45903\nI6006827532365\nsVaccount_id\np45904\nI40156177\nsVstart_time\np45905\nNsVlocations\np45906\n(lp45907\nI3\nasVadgroup_status\np45908\nI1\nsVad_status\np45909\nI1\nsVimpression_control_map\np45910\n(lp45911\n(dp45912\nVcontrol\np45913\n(dp45914\nVuser_impression_limit_period\np45915\nI24\nsVuser_impression_limit\np45916\nI6\nsVuser_impression_limit_period_unit\np45917\nI0\nsVimpression_control_type\np45918\nI2\nssVlocation\np45919\nI3\nsasVcreative_ids\np45920\n(lp45921\nI6006827520165\nasVtracking_pixel_ids\np45922\n(lp45923\nsVbid_type\np45924\nI1\nsVname\np45925\nVNon-US\np45926\nsVupdated_time\np45927\nV2013-01-17T19:16:22+0000\np45928\nsVend_time\np45929\nV2013-01-19T04:30:00+0000\np45930\nsa(dp45931\nVbid_info\np45932\n(dp45933\nV1\np45934\nV60\np45935\nssVcampaign_id\np45936\nI6006827635165\nsVlast_updated_by_app_id\np45937\nI207192552749284\nsVcreated_time\np45938\nV2012-12-14T15:47:12+0000\np45939\nsVconversion_specs\np45940\n(lp45941\nsVadgroup_id\np45942\nI6006827636165\nsVtargeting\np45943\n(dp45944\nVkeywords\np45945\n(lp45946\nV#Perez Hilton\np45947\naV#Photobucket\np45948\naV#Just Jared\np45949\naV#Mashable\np45950\naV#Internet marketing\np45951\naV#Jezebel (website)\np45952\naV#Us Weekly\np45953\naV#CollegeHumor\np45954\naV#Reddit\np45955\naV#Entertainment Tonight\np45956\naVohnotheydidnt\np45957\naV#Gothamist\np45958\naV#Flickr\np45959\naV#BuzzFeed\np45960\naV#Gawker\np45961\naV#Star (magazine)\np45962\naV#Funny or Die\np45963\naV#Deadspin\np45964\naV#Cracked (magazine)\np45965\naV#Gizmodo\np45966\naV#Lifehacker\np45967\naV#Instagram\np45968\naV#Overheard in New York\np45969\naV#Pinterest\np45970\naV#TechCrunch\np45971\nasVage_max\np45972\nI65\nsVcountries\np45973\n(lp45974\nVUS\np45975\nasVbroad_age\np45976\nI1\nsVage_min\np45977\nI13\nssVid\np45978\nV6006827636165\np45979\nsVobjective\np45980\nI2\nsVmax_bid\np45981\nV60\np45982\nsVad_id\np45983\nI6006827636165\nsVaccount_id\np45984\nI40156177\nsVstart_time\np45985\nNsVlocations\np45986\n(lp45987\nI3\nasVadgroup_status\np45988\nI1\nsVad_status\np45989\nI1\nsVimpression_control_map\np45990\n(lp45991\n(dp45992\nVcontrol\np45993\n(dp45994\nVuser_impression_limit_period\np45995\nI24\nsVuser_impression_limit\np45996\nI6\nsVuser_impression_limit_period_unit\np45997\nI0\nsVimpression_control_type\np45998\nI2\nssVlocation\np45999\nI3\nsasVcreative_ids\np46000\n(lp46001\nI6006827635765\nasVtracking_pixel_ids\np46002\n(lp46003\nsVbid_type\np46004\nI1\nsVname\np46005\nVUS Only\np46006\nsVupdated_time\np46007\nV2013-01-17T19:15:57+0000\np46008\nsVend_time\np46009\nV2013-01-19T04:30:00+0000\np46010\nsa(dp46011\nVbid_info\np46012\n(dp46013\nV1\np46014\nV40\np46015\nssVcampaign_id\np46016\nI6006827635165\nsVlast_updated_by_app_id\np46017\nI6802152230\nsVcreated_time\np46018\nV2012-12-14T15:50:07+0000\np46019\nsVconversion_specs\np46020\n(lp46021\nsVadgroup_id\np46022\nI6006827687165\nsVtargeting\np46023\n(dp46024\nVkeywords\np46025\n(lp46026\nV#Perez Hilton\np46027\naV#Photobucket\np46028\naV#Just Jared\np46029\naV#Mashable\np46030\naV#Internet marketing\np46031\naV#Facebook\np46032\naV#Internet meme\np46033\naV#Jezebel (website)\np46034\naV#Digg\np46035\naV#Us Weekly\np46036\naV#The Onion\np46037\naV#CollegeHumor\np46038\naV#Cracked.com\np46039\naV#Jake and Amir\np46040\naV#Reddit\np46041\naV#Entertainment Tonight\np46042\naVohnotheydidnt\np46043\naV#Gothamist\np46044\naV#Flickr\np46045\naV#BuzzFeed\np46046\naV#Gawker\np46047\naV#Star (magazine)\np46048\naV#Comedy Central\np46049\naV#Funny or Die\np46050\naV#Deadspin\np46051\naV#Cracked (magazine)\np46052\naV#Gizmodo\np46053\naV#Lifehacker\np46054\naV#Instagram\np46055\naV#Overheard in New York\np46056\naV#Pinterest\np46057\n'
p6
sS'hash'
p7
S'0acbf1c012fb626abe9e254b9a99568c3dfbb2ec'
p8
sS'stack'
p9
S''
s.