(dp1
S'args'
p2
S''
sS'methodname'
p3
S''
sS'packet_num'
p4
I179
sS'returnval'
p5
S'966\nsVend_time\np32967\nNsa(dp32968\nVbid_info\np32969\n(dp32970\nV1\np32971\nV65\np32972\nssVcampaign_id\np32973\nI6006474705765\nsVlast_updated_by_app_id\np32974\nI207192552749284\nsVcreated_time\np32975\nV2012-11-28T22:06:01+0000\np32976\nsVconversion_specs\np32977\n(lp32978\nsVadgroup_id\np32979\nI6006474751165\nsVtargeting\np32980\n(dp32981\nVkeywords\np32982\n(lp32983\nV#Cookie\np32984\naV#Britney Spears\np32985\naV#Chocolate chip cookie\np32986\naV#Cookie dough\np32987\naV#Circus (Britney Spears album)\np32988\naV#Britney (album)\np32989\naV#Femme Fatale (Britney Spears album)\np32990\nasVage_max\np32991\nI65\nsVcountries\np32992\n(lp32993\nVUS\np32994\nasVbroad_age\np32995\nI1\nsVage_min\np32996\nI13\nssVid\np32997\nV6006474751165\np32998\nsVobjective\np32999\nI2\nsVmax_bid\np33000\nV65\np33001\nsVad_id\np33002\nI6006474751165\nsVaccount_id\np33003\nI40156177\nsVstart_time\np33004\nNsVlocations\np33005\n(lp33006\nI3\nasVadgroup_status\np33007\nI1\nsVad_status\np33008\nI1\nsVimpression_control_map\np33009\n(lp33010\n(dp33011\nVcontrol\np33012\n(dp33013\nVuser_impression_limit_period\np33014\nI24\nsVuser_impression_limit\np33015\nI6\nsVuser_impression_limit_period_unit\np33016\nI0\nsVimpression_control_type\np33017\nI2\nssVlocation\np33018\nI3\nsasVcreative_ids\np33019\n(lp33020\nI6006474750765\nasVtracking_pixel_ids\np33021\n(lp33022\nsVbid_type\np33023\nI1\nsVname\np33024\nVhttp://ad.doubleclick.net/clk;265349090;91012994;m?http://www.buzzfeed.com/h1/fbad/quiznos/ - Ad 1\np33025\nsVupdated_time\np33026\nV2012-12-03T14:10:01+0000\np33027\nsVend_time\np33028\nV2012-12-04T07:00:00+0000\np33029\nsa(dp33030\nVbid_info\np33031\n(dp33032\nV1\np33033\nV65\np33034\nssVcampaign_id\np33035\nI6006474705765\nsVlast_updated_by_app_id\np33036\nI6802152230\nsVcreated_time\np33037\nV2012-11-28T22:03:00+0000\np33038\nsVconversion_specs\np33039\n(lp33040\nsVadgroup_id\np33041\nI6006474706765\nsVtargeting\np33042\n(dp33043\nVkeywords\np33044\n(lp33045\nV#Cookie\np33046\naVstupid\np33047\naV#Cookie Monster\np33048\naVlove\np33049\naV#Lars and the Real Girl\np33050\naV#Chocolate chip cookie\np33051\naV#Rachel McAdams\np33052\naV#Eva Mendes\np33053\naV#The Notebook (film)\np33054\naV#Blue Valentine (film)\np33055\naV#Crazy\np33056\naV#Half Nelson (film)\np33057\nasVage_max\np33058\nI65\nsVcountries\np33059\n(lp33060\nVUS\np33061\nasVbroad_age\np33062\nI1\nsVage_min\np33063\nI13\nssVid\np33064\nV6006474706765\np33065\nsVobjective\np33066\nI2\nsVmax_bid\np33067\nV65\np33068\nsVad_id\np33069\nI6006474706765\nsVaccount_id\np33070\nI40156177\nsVstart_time\np33071\nNsVlocations\np33072\n(lp33073\nI3\nasVadgroup_status\np33074\nI9\nsVad_status\np33075\nI2\nsVimpression_control_map\np33076\n(lp33077\n(dp33078\nVcontrol\np33079\n(dp33080\nVuser_impression_limit_period\np33081\nI24\nsVuser_impression_limit\np33082\nI3\nsVuser_impression_limit_period_unit\np33083\nI0\nsVimpression_control_type\np33084\nI2\nssVlocation\np33085\nI3\nsasVcreative_ids\np33086\n(lp33087\nI6006474755365\nasVtracking_pixel_ids\np33088\n(lp33089\nsVbid_type\np33090\nI1\nsVname\np33091\nVhttp://ad.doubleclick.net/clk;265349090;91012994;m?http://www.buzzfeed.com/h1/fbad/quiznos/1... - Ad\np33092\nsVupdated_time\np33093\nV2012-12-03T19:20:05+0000\np33094\nsVend_time\np33095\nV2012-12-04T07:00:00+0000\np33096\nsa(dp33097\nVbid_info\np33098\n(dp33099\nV1\np33100\nV67\np33101\nssVcampaign_id\np33102\nI6006474713965\nsVlast_updated_by_app_id\np33103\nI207192552749284\nsVcreated_time\np33104\nV2012-11-28T22:03:27+0000\np33105\nsVconversion_specs\np33106\n(lp33107\nsVadgroup_id\np33108\nI6006474714965\nsVtargeting\np33109\n(dp33110\nVkeywords\np33111\n(lp33112\nV#Holiday\np33113\naV#Food Network Challenge\np33114\naV#Christmas\np33115\naV#Food Network\np33116\nasVage_max\np33117\nI65\nsVcountries\np33118\n(lp33119\nVUS\np33120\nasVbroad_age\np33121\nI1\nsVage_min\np33122\nI13\nssVid\np33123\nV6006474714965\np33124\nsVobjective\np33125\nI2\nsVmax_bid\np33126\nV67\np33127\nsVad_id\np33128\nI6006474714965\nsVaccount_id\np33129\nI40156177\nsVstart_time\np33130\nNsVlocations\np33131\n(lp33132\nI3\nasVadgroup_status\np33133\nI1\nsVad_status\np33134\nI1\nsVimpression_control_map\np33135\n(lp33136\n(dp33137\nVcontrol\np33138\n(dp33139\nVuser_impression_limit_period\np33140\nI24\nsVuser_impression_limit\np33141\nI6\nsVuser_impression_limit_period_unit\np33142\nI0\nsVimpression_control_type\np33143\nI2\nssVlocation\np33144\nI3\nsasVcreative_ids\np33145\n(lp3314'
p6
sS'hash'
p7
S'0acbf1c012fb626abe9e254b9a99568c3dfbb2ec'
p8
sS'stack'
p9
S''
s.