(dp1
S'args'
p2
S''
sS'methodname'
p3
S''
sS'packet_num'
p4
I236
sS'returnval'
p5
S"sVadgroup_id\np43631\nI6006754430165\nsVtargeting\np43632\n(dp43633\nVkeywords\np43634\n(lp43635\nV#Stereogum\np43636\naV#Bonnaroo Music Festival\np43637\naV#The Cure\np43638\naV#Bing Crosby: The Voice of Christmas\np43639\naV#David Bowie\np43640\naV#Pitchfork Media\np43641\naV#Christmas Songs by Sinatra\np43642\naV#David Bowie discography\np43643\naV#Let's Dance (David Bowie song)\np43644\naV#Heroes (David Bowie song)\np43645\naV#Bing Crosby\np43646\naV#All Good Music Festival\np43647\naV#Dean Martin\np43648\naV#Tonight (David Bowie album)\np43649\naV#Frank Sinatra\np43650\naV#The Smiths\np43651\naV#Coachella Valley Music and Arts Festival\np43652\nasVage_max\np43653\nI65\nsVcountries\np43654\n(lp43655\nVUS\np43656\nasVbroad_age\np43657\nI1\nsVage_min\np43658\nI13\nssVid\np43659\nV6006754430165\np43660\nsVobjective\np43661\nI2\nsVmax_bid\np43662\nV65\np43663\nsVad_id\np43664\nI6006754430165\nsVaccount_id\np43665\nI40156177\nsVstart_time\np43666\nNsVlocations\np43667\n(lp43668\nI3\nasVadgroup_status\np43669\nI1\nsVad_status\np43670\nI1\nsVimpression_control_map\np43671\n(lp43672\n(dp43673\nVcontrol\np43674\n(dp43675\nVuser_impression_limit_period\np43676\nI24\nsVuser_impression_limit\np43677\nI3\nsVuser_impression_limit_period_unit\np43678\nI0\nsVimpression_control_type\np43679\nI2\nssVlocation\np43680\nI3\nsasVcreative_ids\np43681\n(lp43682\nI6006754429765\nasVtracking_pixel_ids\np43683\n(lp43684\nsVbid_type\np43685\nI1\nsVname\np43686\nVBing & Bowie\np43687\nsVupdated_time\np43688\nV2012-12-11T20:18:06+0000\np43689\nsVend_time\np43690\nNsa(dp43691\nVbid_info\np43692\n(dp43693\nV1\np43694\nV65\np43695\nssVcampaign_id\np43696\nI6006754609565\nsVlast_updated_by_app_id\np43697\nI6802152230\nsVcreated_time\np43698\nV2012-12-11T18:53:15+0000\np43699\nsVconversion_specs\np43700\n(lp43701\nsVadgroup_id\np43702\nI6006754610565\nsVtargeting\np43703\n(dp43704\nVkeywords\np43705\n(lp43706\nV#Flea market\np43707\naV#Merry Christmas (2000 film)\np43708\naV#Buffalo Exchange\np43709\naV#Miracle on 34th Street (1994 film)\np43710\naV#Garage sale\np43711\naV#Ravelry\np43712\naV#Anthropologie\np43713\naV#Etsy\np43714\naV#This Christmas (film)\np43715\naV#Vintage clothing\np43716\naV#Turner Classic Movies\np43717\naV#Turner Classic Movies (around the world)\np43718\naV#A Christmas Carol\np43719\naV#Knitty\np43720\naV#A Charlie Brown Christmas\np43721\naV#It's a Wonderful Life (disambiguation)\np43722\naV#A Christmas Carol (2009 film)\np43723\naV#It's a Wonderful Life\np43724\naV#A Christmas Story\np43725\naV#Instagram\np43726\naV#Pinterest\np43727\naV#Marvins Room\np43728\naVmadewell\np43729\naV#Brooklyn Flea\np43730\naV#Vintage\np43731\nasVage_max\np43732\nI65\nsVcountries\np43733\n(lp43734\nVUS\np43735\nasVbroad_age\np43736\nI1\nsVage_min\np43737\nI13\nssVid\np43738\nV6006754610565\np43739\nsVobjective\np43740\nI2\nsVmax_bid\np43741\nV65\np43742\nsVad_id\np43743\nI6006754610565\nsVaccount_id\np43744\nI40156177\nsVstart_time\np43745\nNsVlocations\np43746\n(lp43747\nI3\nasVadgroup_status\np43748\nI1\nsVad_status\np43749\nI1\nsVimpression_control_map\np43750\n(lp43751\n(dp43752\nVcontrol\np43753\n(dp43754\nVuser_impression_limit_period\np43755\nI24\nsVuser_impression_limit\np43756\nI6\nsVuser_impression_limit_period_unit\np43757\nI0\nsVimpression_control_type\np43758\nI2\nssVlocation\np43759\nI3\nsasVcreative_ids\np43760\n(lp43761\nI6006754610165\nasVtracking_pixel_ids\np43762\n(lp43763\nsVbid_type\np43764\nI1\nsVname\np43765\nVVintage 1\np43766\nsVupdated_time\np43767\nV2012-12-17T20:01:56+0000\np43768\nsVend_time\np43769\nNsa(dp43770\nVbid_info\np43771\n(dp43772\nV1\np43773\nV73\np43774\nssVcampaign_id\np43775\nI6006754609565\nsVlast_updated_by_app_id\np43776\nI6802152230\nsVcreated_time\np43777\nV2012-12-11T18:53:52+0000\np43778\nsVconversion_specs\np43779\n(lp43780\nsVadgroup_id\np43781\nI6006754620965\nsVtargeting\np43782\n(dp43783\nVkeywords\np43784\n(lp43785\nV#Flea market\np43786\naV#Buffalo Exchange\np43787\naV#Garage sale\np43788\naV#Ravelry\np43789\naV#Anthropologie\np43790\naV#Etsy\np43791\naV#Vintage clothing\np43792\naV#Knitty\np43793\naV#A Christmas Story\np43794\naV#Instagram\np43795\naV#Pinterest\np43796\naV#Marvins Room\np43797\naVmadewell\np43798\naV#Brooklyn Flea\np43799\naV#Vintage\np43800\nasVage_max\np43801\nI65\nsVcountries\np43802\n(lp43803\nVUS\np43804\nasVbroad_age\np43805\nI1\nsVage_min\np43806\nI13\nssVid\np43807\nV6006754620965\np43808\nsVobjective\np43809\nI2\nsVmax_bid\np4381"
p6
sS'hash'
p7
S'0acbf1c012fb626abe9e254b9a99568c3dfbb2ec'
p8
sS'stack'
p9
S''
s.