(dp1
S'args'
p2
S''
sS'methodname'
p3
S''
sS'packet_num'
p4
I301
sS'returnval'
p5
S'York\np55653\naV#Die Hard Trilogy\np55654\naV#Die hard (phrase)\np55655\naV#Elf\np55656\naVdie hard 4\np55657\naV#Die Hard (franchise)\np55658\naV#Die Hard (video game)\np55659\naV#Die Hard with a Vengeance\np55660\naV#Die Hard 2\np55661\naV#Die Hard\np55662\naV#Home Alone (video game)\np55663\naV#Home Alone\np55664\nasVage_max\np55665\nI65\nsVcountries\np55666\n(lp55667\nVUS\np55668\nasVbroad_age\np55669\nI1\nsVage_min\np55670\nI13\nssVid\np55671\nV6007262715765\np55672\nsVobjective\np55673\nI2\nsVmax_bid\np55674\nV103\np55675\nsVad_id\np55676\nI6007262715765\nsVaccount_id\np55677\nI40156177\nsVstart_time\np55678\nNsVlocations\np55679\n(lp55680\nI3\nasVadgroup_status\np55681\nI1\nsVad_status\np55682\nI1\nsVimpression_control_map\np55683\n(lp55684\n(dp55685\nVcontrol\np55686\n(dp55687\nVuser_impression_limit_period\np55688\nI24\nsVuser_impression_limit\np55689\nI3\nsVuser_impression_limit_period_unit\np55690\nI0\nsVimpression_control_type\np55691\nI2\nssVlocation\np55692\nI3\nsasVcreative_ids\np55693\n(lp55694\nI6007262715365\nasVtracking_pixel_ids\np55695\n(lp55696\nsVbid_type\np55697\nI1\nsVname\np55698\nVhttp://www.buzzfeed.com/h1/fbad/oldnavy/which-classic-holiday-movie-character-are-you - Ad\np55699\nsVupdated_time\np55700\nV2012-12-25T16:54:29+0000\np55701\nsVend_time\np55702\nNsa(dp55703\nVbid_info\np55704\n(dp55705\nV1\np55706\nV67\np55707\nssVcampaign_id\np55708\nI6007301733965\nsVlast_updated_by_app_id\np55709\nI6802152230\nsVcreated_time\np55710\nV2012-12-27T15:21:06+0000\np55711\nsVconversion_specs\np55712\n(lp55713\nsVadgroup_id\np55714\nI6007329055165\nsVtargeting\np55715\n(dp55716\nVkeywords\np55717\n(lp55718\nV#Cannon\np55719\naV#Samsung\np55720\naV#Adobe After Effects\np55721\naV#Olympus Corporation\np55722\naVdslr club\np55723\naV#Photograph\np55724\naV#Eastman Kodak\np55725\naV#Adobe Photoshop\np55726\naV#Camera magazine\np55727\naVdigital camera magazine malaysia\np55728\naV#Tourism\np55729\naV#Canon (company)\np55730\naVdslr\np55731\naV#Photography\np55732\naV#Travel\np55733\nasVage_max\np55734\nI65\nsVcountries\np55735\n(lp55736\nVIT\np55737\naVNL\np55738\naVES\np55739\naVGB\np55740\naVAU\np55741\naVFR\np55742\naVDE\np55743\nasVbroad_age\np55744\nI1\nsVage_min\np55745\nI13\nssVid\np55746\nV6007329055165\np55747\nsVobjective\np55748\nI2\nsVmax_bid\np55749\nV67\np55750\nsVad_id\np55751\nI6007329055165\nsVaccount_id\np55752\nI40156177\nsVstart_time\np55753\nNsVlocations\np55754\n(lp55755\nI3\nasVadgroup_status\np55756\nI1\nsVad_status\np55757\nI1\nsVimpression_control_map\np55758\n(lp55759\n(dp55760\nVcontrol\np55761\n(dp55762\nVuser_impression_limit_period\np55763\nI24\nsVuser_impression_limit\np55764\nI6\nsVuser_impression_limit_period_unit\np55765\nI0\nsVimpression_control_type\np55766\nI2\nssVlocation\np55767\nI3\nsasVcreative_ids\np55768\n(lp55769\nI6007329054765\nasVtracking_pixel_ids\np55770\n(lp55771\nsVbid_type\np55772\nI1\nsVname\np55773\nVPhoto_Travel_All GEOs exclude US\np55774\nsVupdated_time\np55775\nV2013-01-02T15:27:16+0000\np55776\nsVend_time\np55777\nV2013-01-03T05:03:00+0000\np55778\nsa(dp55779\nVbid_info\np55780\n(dp55781\nV1\np55782\nV67\np55783\nssVcampaign_id\np55784\nI6007301733965\nsVlast_updated_by_app_id\np55785\nI6802152230\nsVcreated_time\np55786\nV2012-12-26T14:12:30+0000\np55787\nsVconversion_specs\np55788\n(lp55789\nsVadgroup_id\np55790\nI6007301734965\nsVtargeting\np55791\n(dp55792\nVage_max\np55793\nI65\nsVcountries\np55794\n(lp55795\nVAU\np55796\nasVbroad_age\np55797\nI1\nsVage_min\np55798\nI13\nssVid\np55799\nV6007301734965\np55800\nsVobjective\np55801\nI2\nsVmax_bid\np55802\nV67\np55803\nsVad_id\np55804\nI6007301734965\nsVaccount_id\np55805\nI40156177\nsVstart_time\np55806\nNsVlocations\np55807\n(lp55808\nI3\nasVadgroup_status\np55809\nI9\nsVad_status\np55810\nI2\nsVimpression_control_map\np55811\n(lp55812\n(dp55813\nVcontrol\np55814\n(dp55815\nVuser_impression_limit_period\np55816\nI24\nsVuser_impression_limit\np55817\nI3\nsVuser_impression_limit_period_unit\np55818\nI0\nsVimpression_control_type\np55819\nI2\nssVlocation\np55820\nI3\nsasVcreative_ids\np55821\n(lp55822\nI6007301734565\nasVtracking_pixel_ids\np55823\n(lp55824\nsVbid_type\np55825\nI1\nsVname\np55826\nVAustralia Only\np55827\nsVupdated_time\np55828\nV2013-01-02T15:27:16+0000\np55829\nsVend_time\np55830\nV2013-01-03T05:03:00+0000\np55831\nsa(dp55832\nVbid_info\np55833\n(dp55834\nV1\np55835\nV65\np55836\nssVcampaign_id\np55837\nI6007302531565\nsVlast_updated_by_app_id\np55838\nI6802152230\nsV'
p6
sS'hash'
p7
S'0acbf1c012fb626abe9e254b9a99568c3dfbb2ec'
p8
sS'stack'
p9
S''
s.