(dp1
S'args'
p2
S''
sS'methodname'
p3
S''
sS'packet_num'
p4
I350
sS'returnval'
p5
S"d\np64544\nV6007508766765\np64545\nsVobjective\np64546\nI2\nsVmax_bid\np64547\nV65\np64548\nsVad_id\np64549\nI6007508766765\nsVaccount_id\np64550\nI40156177\nsVstart_time\np64551\nNsVlocations\np64552\n(lp64553\nI3\nasVadgroup_status\np64554\nI1\nsVad_status\np64555\nI1\nsVimpression_control_map\np64556\n(lp64557\n(dp64558\nVcontrol\np64559\n(dp64560\nVuser_impression_limit_period\np64561\nI24\nsVuser_impression_limit\np64562\nI6\nsVuser_impression_limit_period_unit\np64563\nI0\nsVimpression_control_type\np64564\nI2\nssVlocation\np64565\nI3\nsasVcreative_ids\np64566\n(lp64567\nI6007508766365\nasVtracking_pixel_ids\np64568\n(lp64569\nsVbid_type\np64570\nI1\nsVname\np64571\nVhttp://ad.doubleclick.net/clk;266543194;92810455;n?http://www.buzzfeed.com/h1/fbad/syfy/15-r... - Ad\np64572\nsVupdated_time\np64573\nV2013-01-07T19:24:36+0000\np64574\nsVend_time\np64575\nV2013-01-09T07:45:00+0000\np64576\nsa(dp64577\nVbid_info\np64578\n(dp64579\nV1\np64580\nV65\np64581\nssVcampaign_id\np64582\nI6007508765765\nsVlast_updated_by_app_id\np64583\nI209787012415271\nsVcreated_time\np64584\nV2013-01-04T17:57:39+0000\np64585\nsVconversion_specs\np64586\n(lp64587\nsVadgroup_id\np64588\nI6007530739565\nsVtargeting\np64589\n(dp64590\nVkeywords\np64591\n(lp64592\nV#Ghost\np64593\naV#Fear\np64594\naV#Are You Afraid of the Dark?\np64595\naV#Halloween\np64596\naV#SNICK\np64597\naV#Internet meme\np64598\naV#Digg\np64599\naV#Are You Afraid of the Dark? (novel)\np64600\naV#Cracked.com\np64601\naV#Reddit\np64602\naV#BuzzFeed\np64603\naV#Don't Be Afraid of the Dark (2011 film)\np64604\nasVage_max\np64605\nI65\nsVcountries\np64606\n(lp64607\nVUS\np64608\nasVbroad_age\np64609\nI1\nsVage_min\np64610\nI13\nssVid\np64611\nV6007530739565\np64612\nsVobjective\np64613\nI2\nsVmax_bid\np64614\nV65\np64615\nsVad_id\np64616\nI6007530739565\nsVaccount_id\np64617\nI40156177\nsVstart_time\np64618\nNsVlocations\np64619\n(lp64620\nI3\nasVadgroup_status\np64621\nI1\nsVad_status\np64622\nI1\nsVimpression_control_map\np64623\n(lp64624\n(dp64625\nVcontrol\np64626\n(dp64627\nVuser_impression_limit_period\np64628\nI24\nsVuser_impression_limit\np64629\nI3\nsVuser_impression_limit_period_unit\np64630\nI0\nsVimpression_control_type\np64631\nI2\nssVlocation\np64632\nI3\nsasVcreative_ids\np64633\n(lp64634\nI6007530739165\nasVtracking_pixel_ids\np64635\n(lp64636\nsVbid_type\np64637\nI1\nsVname\np64638\nVClown\np64639\nsVupdated_time\np64640\nV2013-01-07T19:23:43+0000\np64641\nsVend_time\np64642\nV2013-01-09T07:45:00+0000\np64643\nsa(dp64644\nVbid_info\np64645\n(dp64646\nV1\np64647\nV65\np64648\nssVcampaign_id\np64649\nI6007508765765\nsVlast_updated_by_app_id\np64650\nI209787012415271\nsVcreated_time\np64651\nV2013-01-07T19:25:37+0000\np64652\nsVconversion_specs\np64653\n(lp64654\nsVadgroup_id\np64655\nI6007598837765\nsVtargeting\np64656\n(dp64657\nVkeywords\np64658\n(lp64659\nV#I Can Has Cheezburger?\np64660\naV#Are You Afraid of the Dark?\np64661\naV#Halloween\np64662\naV#SNICK\np64663\naV#Internet meme\np64664\naV#Digg\np64665\naV#Cracked.com\np64666\naV#Reddit\np64667\naV#BuzzFeed\np64668\naV#Meme\np64669\nasVage_max\np64670\nI65\nsVcountries\np64671\n(lp64672\nVUS\np64673\nasVbroad_age\np64674\nI1\nsVage_min\np64675\nI13\nssVid\np64676\nV6007598837765\np64677\nsVobjective\np64678\nI2\nsVmax_bid\np64679\nV65\np64680\nsVad_id\np64681\nI6007598837765\nsVaccount_id\np64682\nI40156177\nsVstart_time\np64683\nNsVlocations\np64684\n(lp64685\nI3\nasVadgroup_status\np64686\nI1\nsVad_status\np64687\nI1\nsVimpression_control_map\np64688\n(lp64689\n(dp64690\nVcontrol\np64691\n(dp64692\nVuser_impression_limit_period\np64693\nI24\nsVuser_impression_limit\np64694\nI3\nsVuser_impression_limit_period_unit\np64695\nI0\nsVimpression_control_type\np64696\nI2\nssVlocation\np64697\nI3\nsasVcreative_ids\np64698\n(lp64699\nI6007508766365\nasVtracking_pixel_ids\np64700\n(lp64701\nsVbid_type\np64702\nI1\nsVname\np64703\nVOverly Attached2\np64704\nsVupdated_time\np64705\nV2013-01-07T19:28:45+0000\np64706\nsVend_time\np64707\nNsa(dp64708\nVbid_info\np64709\n(dp64710\nV1\np64711\nV65\np64712\nssVcampaign_id\np64713\nI6007508825765\nsVlast_updated_by_app_id\np64714\nI209787012415271\nsVcreated_time\np64715\nV2013-01-10T14:09:32+0000\np64716\nsVconversion_specs\np64717\n(lp64718\nsVadgroup_id\np64719\nI6007669416165\nsVtargeting\np64720\n(dp64721\nVkeywords\np64722\n(lp64723\nV#Maru (cat)\np64724\naV#Stray Cats\np64725\naV#Kitten\np64726\naV#Cute Is What We Aim For\np64727\naV#Animal Plan"
p6
sS'hash'
p7
S'0acbf1c012fb626abe9e254b9a99568c3dfbb2ec'
p8
sS'stack'
p9
S''
s.