(dp1
S'args'
p2
S''
sS'methodname'
p3
S''
sS'packet_num'
p4
I327
sS'returnval'
p5
S'007481374765\nsVtargeting\np60430\n(dp60431\nVkeywords\np60432\n(lp60433\nV#Sequoia National Park\np60434\naV#Great Basin National Park\np60435\naV#Planet Earth (TV series)\np60436\naV#National park\np60437\naV#Digital photography\np60438\naV#Reno, Nevada\np60439\naV#Discovery Channel\np60440\naV#Nature photography\np60441\naV#Wildlife photography\np60442\naV#Death Valley\np60443\naV#National Geographic Channel\np60444\naV#Desert\np60445\naV#Valley of Fire State Park\np60446\naV#Red Rock Canyon National Conservation Area\np60447\naV#Red Rock Canyon State Park (California)\np60448\naV#Great Basin\np60449\naV#Landscape photography\np60450\naV#Nevada\np60451\naV#Travel Channel\np60452\naV#Black Rock Desert\np60453\naV#Death Valley National Park\np60454\nasVage_max\np60455\nI65\nsVcountries\np60456\n(lp60457\nVUS\np60458\nasVbroad_age\np60459\nI1\nsVage_min\np60460\nI13\nssVid\np60461\nV6007481374765\np60462\nsVobjective\np60463\nI2\nsVmax_bid\np60464\nV65\np60465\nsVad_id\np60466\nI6007481374765\nsVaccount_id\np60467\nI40156177\nsVstart_time\np60468\nNsVlocations\np60469\n(lp60470\nI3\nasVadgroup_status\np60471\nI1\nsVad_status\np60472\nI1\nsVimpression_control_map\np60473\n(lp60474\n(dp60475\nVcontrol\np60476\n(dp60477\nVuser_impression_limit_period\np60478\nI24\nsVuser_impression_limit\np60479\nI6\nsVuser_impression_limit_period_unit\np60480\nI0\nsVimpression_control_type\np60481\nI2\nssVlocation\np60482\nI3\nsasVcreative_ids\np60483\n(lp60484\nI6007481374365\nasVtracking_pixel_ids\np60485\n(lp60486\nsVbid_type\np60487\nI1\nsVname\np60488\nVvalley of fire 2\np60489\nsVupdated_time\np60490\nV2013-01-02T16:46:20+0000\np60491\nsVend_time\np60492\nNsa(dp60493\nVbid_info\np60494\n(dp60495\nV1\np60496\nV65\np60497\nssVcampaign_id\np60498\nI6007481345165\nsVlast_updated_by_app_id\np60499\nI6802152230\nsVcreated_time\np60500\nV2013-01-02T16:44:13+0000\np60501\nsVconversion_specs\np60502\n(lp60503\nsVadgroup_id\np60504\nI6007481408765\nsVtargeting\np60505\n(dp60506\nVkeywords\np60507\n(lp60508\nV#Sequoia National Park\np60509\naV#Great Basin National Park\np60510\naV#Planet Earth (TV series)\np60511\naV#National park\np60512\naV#Digital photography\np60513\naV#Reno, Nevada\np60514\naV#Discovery Channel\np60515\naV#Nature photography\np60516\naV#Wildlife photography\np60517\naV#Death Valley\np60518\naV#National Geographic Channel\np60519\naV#Desert\np60520\naV#Valley of Fire State Park\np60521\naV#Red Rock Canyon National Conservation Area\np60522\naV#Red Rock Canyon State Park (California)\np60523\naV#Great Basin\np60524\naV#Landscape photography\np60525\naV#Nevada\np60526\naV#Travel Channel\np60527\naV#Black Rock Desert\np60528\naV#Death Valley National Park\np60529\nasVage_max\np60530\nI65\nsVcountries\np60531\n(lp60532\nVUS\np60533\nasVbroad_age\np60534\nI1\nsVage_min\np60535\nI13\nssVid\np60536\nV6007481408765\np60537\nsVobjective\np60538\nI2\nsVmax_bid\np60539\nV65\np60540\nsVad_id\np60541\nI6007481408765\nsVaccount_id\np60542\nI40156177\nsVstart_time\np60543\nNsVlocations\np60544\n(lp60545\nI3\nasVadgroup_status\np60546\nI1\nsVad_status\np60547\nI1\nsVimpression_control_map\np60548\n(lp60549\n(dp60550\nVcontrol\np60551\n(dp60552\nVuser_impression_limit_period\np60553\nI24\nsVuser_impression_limit\np60554\nI6\nsVuser_impression_limit_period_unit\np60555\nI0\nsVimpression_control_type\np60556\nI2\nssVlocation\np60557\nI3\nsasVcreative_ids\np60558\n(lp60559\nI6007481408365\nasVtracking_pixel_ids\np60560\n(lp60561\nsVbid_type\np60562\nI1\nsVname\np60563\nVdeath valley\np60564\nsVupdated_time\np60565\nV2013-01-02T16:47:59+0000\np60566\nsVend_time\np60567\nNsa(dp60568\nVbid_info\np60569\n(dp60570\nV1\np60571\nV65\np60572\nssVcampaign_id\np60573\nI6007481463565\nsVlast_updated_by_app_id\np60574\nI6802152230\nsVcreated_time\np60575\nV2013-01-02T16:47:52+0000\np60576\nsVconversion_specs\np60577\n(lp60578\nsVadgroup_id\np60579\nI6007481464565\nsVtargeting\np60580\n(dp60581\nVkeywords\np60582\n(lp60583\nV#Grand Canyon\np60584\naV#Planet Earth (TV series)\np60585\naV#National park\np60586\naV#Digital photography\np60587\naV#Discovery Channel\np60588\naV#Nature photography\np60589\naV#Wildlife photography\np60590\naV#National Geographic Channel\np60591\naV#Desert\np60592\naV#Red Rock Canyon National Conservation Area\np60593\naV#Great Basin\np60594\naV#Landscape photography\np60595\naV#Nevada\np60596\naVnevada\np60597\naV#Travel Channel\np60598\nasVage_max\np60599\nI65\nsVcountries\np6'
p6
sS'hash'
p7
S'0acbf1c012fb626abe9e254b9a99568c3dfbb2ec'
p8
sS'stack'
p9
S''
s.