(dp1
S'args'
p2
S''
sS'methodname'
p3
S''
sS'packet_num'
p4
I97
sS'returnval'
p5
S'd_type\np18364\nI1\nsVname\np18365\nVhttp://www.buzzfeed.com/h1/fbad/spiketv/great-eddie-murphy-quotes - Ad\np18366\nsVupdated_time\np18367\nV2012-11-14T18:25:57+0000\np18368\nsVend_time\np18369\nV2012-11-15T07:45:00+0000\np18370\nsa(dp18371\nVbid_info\np18372\n(dp18373\nV1\np18374\nV75\np18375\nssVcampaign_id\np18376\nI6006215781765\nsVlast_updated_by_app_id\np18377\nI6802152230\nsVcreated_time\np18378\nV2012-11-09T21:01:13+0000\np18379\nsVconversion_specs\np18380\n(lp18381\n(dp18382\nVpage\np18383\nI238205562866018\nsVaction.type\np18384\nVpage_engagement\np18385\nsasVadgroup_id\np18386\nI6006215782765\nsVtargeting\np18387\n(dp18388\nVage_max\np18389\nI26\nsVcountries\np18390\n(lp18391\nVUS\np18392\nasVage_min\np18393\nI23\nssVid\np18394\nV6006215782765\np18395\nsVobjective\np18396\nI14\nsVmax_bid\np18397\nV75\np18398\nsVad_id\np18399\nI6006215782765\nsVaccount_id\np18400\nI40156177\nsVstart_time\np18401\nNsVlocations\np18402\n(lp18403\nI3\nasVadgroup_status\np18404\nI9\nsVad_status\np18405\nI2\nsVimpression_control_map\np18406\n(lp18407\n(dp18408\nVcontrol\np18409\n(dp18410\nVuser_impression_limit_period\np18411\nI24\nsVuser_impression_limit\np18412\nI3\nsVuser_impression_limit_period_unit\np18413\nI0\nsVimpression_control_type\np18414\nI2\nssVlocation\np18415\nI3\nsasVcreative_ids\np18416\n(lp18417\nI6006215837365\nasVtracking_pixel_ids\np18418\n(lp18419\nsVbid_type\np18420\nI1\nsVname\np18421\nV300778530027383 - Post Engagement - Ad\np18422\nsVupdated_time\np18423\nV2012-11-12T16:28:34+0000\np18424\nsVend_time\np18425\nNsa(dp18426\nVbid_info\np18427\n(dp18428\nV1\np18429\nV100\np18430\nssVcampaign_id\np18431\nI6006215781765\nsVlast_updated_by_app_id\np18432\nI6802152230\nsVcreated_time\np18433\nV2012-11-09T21:01:14+0000\np18434\nsVconversion_specs\np18435\n(lp18436\n(dp18437\nVpage\np18438\nI238205562866018\nsVaction.type\np18439\nVpage_engagement\np18440\nsasVadgroup_id\np18441\nI6006215784565\nsVtargeting\np18442\n(dp18443\nVage_max\np18444\nI26\nsVcountries\np18445\n(lp18446\nVUS\np18447\nasVage_min\np18448\nI23\nssVid\np18449\nV6006215784565\np18450\nsVobjective\np18451\nI14\nsVmax_bid\np18452\nV100\np18453\nsVad_id\np18454\nI6006215784565\nsVaccount_id\np18455\nI40156177\nsVstart_time\np18456\nNsVlocations\np18457\n(lp18458\nI3\nasVadgroup_status\np18459\nI9\nsVad_status\np18460\nI2\nsVimpression_control_map\np18461\n(lp18462\n(dp18463\nVcontrol\np18464\n(dp18465\nVuser_impression_limit_period\np18466\nI24\nsVuser_impression_limit\np18467\nI3\nsVuser_impression_limit_period_unit\np18468\nI0\nsVimpression_control_type\np18469\nI2\nssVlocation\np18470\nI3\nsasVcreative_ids\np18471\n(lp18472\nI6006215784165\nasVtracking_pixel_ids\np18473\n(lp18474\nsVbid_type\np18475\nI1\nsVname\np18476\nV300778530027383 - Post Engagement - Sponsored Stories\np18477\nsVupdated_time\np18478\nV2012-11-12T16:28:36+0000\np18479\nsVend_time\np18480\nNsa(dp18481\nVbid_info\np18482\n(dp18483\nV1\np18484\nV65\np18485\nssVcampaign_id\np18486\nI6006215781765\nsVlast_updated_by_app_id\np18487\nI6802152230\nsVcreated_time\np18488\nV2012-11-09T21:07:51+0000\np18489\nsVconversion_specs\np18490\n(lp18491\nsVadgroup_id\np18492\nI6006215828965\nsVtargeting\np18493\n(dp18494\nVcountries\np18495\n(lp18496\nVUS\np18497\nasVgenders\np18498\n(lp18499\nI1\nasVage_min\np18500\nI23\nsVage_max\np18501\nI26\nssVid\np18502\nV6006215828965\np18503\nsVobjective\np18504\nI2\nsVmax_bid\np18505\nV65\np18506\nsVad_id\np18507\nI6006215828965\nsVaccount_id\np18508\nI40156177\nsVstart_time\np18509\nNsVlocations\np18510\n(lp18511\nI3\nasVadgroup_status\np18512\nI9\nsVad_status\np18513\nI2\nsVimpression_control_map\np18514\n(lp18515\n(dp18516\nVcontrol\np18517\n(dp18518\nVuser_impression_limit_period\np18519\nI24\nsVuser_impression_limit\np18520\nI6\nsVuser_impression_limit_period_unit\np18521\nI0\nsVimpression_control_type\np18522\nI2\nssVlocation\np18523\nI3\nsasVcreative_ids\np18524\n(lp18525\nI6006215828565\nasVtracking_pixel_ids\np18526\n(lp18527\nsVbid_type\np18528\nI1\nsVname\np18529\nVStandard Ad - Male\np18530\nsVupdated_time\np18531\nV2012-11-12T16:28:41+0000\np18532\nsVend_time\np18533\nNsa(dp18534\nVbid_info\np18535\n(dp18536\nV1\np18537\nV65\np18538\nssVcampaign_id\np18539\nI6006215781765\nsVlast_updated_by_app_id\np18540\nI6802152230\nsVcreated_time\np18541\nV2012-11-09T22:24:15+0000\np18542\nsVconversion_specs\np18543\n(lp18544\nsVadgroup_id\np18545\nI6006216589165\nsVtargeting\np18546\n(dp18547\nVcountries\np18548\n(lp18549\nVUS\np18550\na'
p6
sS'hash'
p7
S'0acbf1c012fb626abe9e254b9a99568c3dfbb2ec'
p8
sS'stack'
p9
S''
s.