(dp1
S'args'
p2
S''
sS'methodname'
p3
S''
sS'packet_num'
p4
I281
sS'returnval'
p5
S'asVadgroup_status\np51941\nI1\nsVad_status\np51942\nI1\nsVimpression_control_map\np51943\n(lp51944\n(dp51945\nVcontrol\np51946\n(dp51947\nVuser_impression_limit_period\np51948\nI24\nsVuser_impression_limit\np51949\nI3\nsVuser_impression_limit_period_unit\np51950\nI0\nsVimpression_control_type\np51951\nI2\nssVlocation\np51952\nI3\nsasVcreative_ids\np51953\n(lp51954\nI6007137033565\nasVtracking_pixel_ids\np51955\n(lp51956\nsVbid_type\np51957\nI1\nsVname\np51958\nVGeneral Targeting\np51959\nsVupdated_time\np51960\nV2012-12-24T23:15:24+0000\np51961\nsVend_time\np51962\nV2012-12-26T07:55:00+0000\np51963\nsa(dp51964\nVbid_info\np51965\n(dp51966\nV1\np51967\nV100\np51968\nssVcampaign_id\np51969\nI6007137032965\nsVlast_updated_by_app_id\np51970\nI6802152230\nsVcreated_time\np51971\nV2012-12-20T16:51:10+0000\np51972\nsVconversion_specs\np51973\n(lp51974\nsVadgroup_id\np51975\nI6007162505965\nsVtargeting\np51976\n(dp51977\nVage_max\np51978\nI65\nsVcountries\np51979\n(lp51980\nVUS\np51981\nasVbroad_age\np51982\nI1\nsVage_min\np51983\nI13\nssVid\np51984\nV6007162505965\np51985\nsVobjective\np51986\nI2\nsVmax_bid\np51987\nV100\np51988\nsVad_id\np51989\nI6007162505965\nsVaccount_id\np51990\nI40156177\nsVstart_time\np51991\nNsVlocations\np51992\n(lp51993\nI3\nasVadgroup_status\np51994\nI1\nsVad_status\np51995\nI1\nsVimpression_control_map\np51996\n(lp51997\n(dp51998\nVcontrol\np51999\n(dp52000\nVuser_impression_limit_period\np52001\nI24\nsVuser_impression_limit\np52002\nI3\nsVuser_impression_limit_period_unit\np52003\nI0\nsVimpression_control_type\np52004\nI2\nssVlocation\np52005\nI3\nsasVcreative_ids\np52006\n(lp52007\nI6007137540365\nasVtracking_pixel_ids\np52008\n(lp52009\nsVbid_type\np52010\nI1\nsVname\np52011\nVGeneral Targeting2\np52012\nsVupdated_time\np52013\nV2012-12-24T23:15:24+0000\np52014\nsVend_time\np52015\nV2012-12-26T07:55:00+0000\np52016\nsa(dp52017\nVbid_info\np52018\n(dp52019\nV1\np52020\nV100\np52021\nssVcampaign_id\np52022\nI6007139118765\nsVlast_updated_by_app_id\np52023\nI6802152230\nsVcreated_time\np52024\nV2012-12-19T18:07:01+0000\np52025\nsVconversion_specs\np52026\n(lp52027\nsVadgroup_id\np52028\nI6007139120165\nsVtargeting\np52029\n(dp52030\nVkeywords\np52031\n(lp52032\nV#Gun control\np52033\naVnewtown high school\np52034\naV#Sandy Hook\np52035\naV#Newtown, Connecticut\np52036\naV#Gun politics in the United States\np52037\naV#Gun violence\np52038\naV#Gun violence in the United States\np52039\naV#Gun politics\np52040\naVnewtown patch\np52041\nasVage_max\np52042\nI65\nsVcountries\np52043\n(lp52044\nVUS\np52045\nasVbroad_age\np52046\nI1\nsVage_min\np52047\nI17\nssVid\np52048\nV6007139120165\np52049\nsVobjective\np52050\nI2\nsVmax_bid\np52051\nV100\np52052\nsVad_id\np52053\nI6007139120165\nsVaccount_id\np52054\nI40156177\nsVstart_time\np52055\nNsVlocations\np52056\n(lp52057\nI3\nasVadgroup_status\np52058\nI1\nsVad_status\np52059\nI1\nsVimpression_control_map\np52060\n(lp52061\n(dp52062\nVcontrol\np52063\n(dp52064\nVuser_impression_limit_period\np52065\nI24\nsVuser_impression_limit\np52066\nI3\nsVuser_impression_limit_period_unit\np52067\nI0\nsVimpression_control_type\np52068\nI2\nssVlocation\np52069\nI3\nsasVcreative_ids\np52070\n(lp52071\nI6007139119565\nasVtracking_pixel_ids\np52072\n(lp52073\nsVbid_type\np52074\nI1\nsVname\np52075\nVhttp://www.buzzfeed.com/h1/fbad/friendsofdemandaplan/do-your-part-to-end-gun-violence - Ad\np52076\nsVupdated_time\np52077\nV2012-12-21T03:55:58+0000\np52078\nsVend_time\np52079\nV2012-12-21T20:54:00+0000\np52080\nsa(dp52081\nVbid_info\np52082\n(dp52083\nV1\np52084\nV80\np52085\nssVcampaign_id\np52086\nI6007142499365\nsVlast_updated_by_app_id\np52087\nI6802152230\nsVcreated_time\np52088\nV2012-12-19T21:19:31+0000\np52089\nsVconversion_specs\np52090\n(lp52091\nsVadgroup_id\np52092\nI6007142500365\nsVtargeting\np52093\n(dp52094\nVkeywords\np52095\n(lp52096\nV#I Can Has Cheezburger?\np52097\naV#Fail Blog\np52098\naV#Mashable\np52099\naV#Failbook\np52100\naV#Lolcat\np52101\naV#Delicious (website)\np52102\naV#Internet meme\np52103\naV#Know Your Meme\np52104\naV#Digg\np52105\naV#The Onion\np52106\naV#ReadWriteWeb\np52107\naV#CollegeHumor\np52108\naV#Cracked.com\np52109\naV#Reddit\np52110\naV#Facebook f8\np52111\naV#BuzzFeed\np52112\naV#Funny or Die\np52113\naV#Social media\np52114\naV#OLX\np52115\naV#TechCrunch\np52116\naVdamn you autocorrect\np52117\nasVage_max\np52118\nI65\nsVcountries\np52119\n(lp52120\nVUS\np52121\nasVbroad_age\np52122\nI1\nsVage_min\np52123'
p6
sS'hash'
p7
S'0acbf1c012fb626abe9e254b9a99568c3dfbb2ec'
p8
sS'stack'
p9
S''
s.