(dp1
S'args'
p2
S'(t.'
p3
sS'methodname'
p4
S'__json_response'
p5
sS'packet_num'
p6
I0
sS'returnval'
p7
S'(dp0\nVbody\np1\nVNone\np2\nsVfollow_redirect\np3\nVNone\np4\nsVrelated_fan_page\np5\nVNone\np6\nsVimage_hash\np7\nVNone\np8\nsVname\np9\nVtest_7a89b8c08a87fec50d4f13771b8039307a7385a4\np10\nsVtitle\np11\nVNone\np12\nsVauto_update\np13\nVNone\np14\nsVurl_tags\np15\nVNone\np16\nsVcreative_id\np17\nV6006761267151\np18\nsVcount_current_adgroups\np19\nI0\nsVpreview_url\np20\nVhttp://www.facebook.com/ads/api/creative_preview.php?cid=6006761267151\np21\nsVobject_id\np22\nVNone\np23\nsVid\np24\nV6006761267151\np25\nsVaction_spec\np26\n(dp27\nVapplication\np28\nI45075597673\nsVaction.type\np29\nVapp_use\np30\nssVimage_url\np31\nVNone\np32\nsVstory_id\np33\nVNone\np34\nsVcluster_id\np35\nI6006524377551\nsVrun_status\np36\nI1\nsVtype\np37\nI25\nsVlink_url\np38\nVNone\np39\ns.'
p8
sS'hash'
p9
S'10b49bab57ed930813dbed111492051154241114'
p10
sS'stack'
p11
S'__json_response /home/orozco/development/django/buzzfeed/local/lib/python2.7/site-packages/caliendo/facade.py cache /home/orozco/development/django/buzzfeed/pyfacebook/pyfacebook/__init__.py get /home/orozco/development/django/buzzfeed/pyfacebook/pyfacebook/__init__.py get_one_from_fb /home/orozco/development/django/buzzfeed/pyfacebook/test/adcreative_test.py test_create /home/orozco/development/django/buzzfeed/local/lib/python2.7/site-packages/nose/case.py runTest /usr/lib/python2.7/unittest/case.py run /usr/lib/python2.7/unittest/case.py __call__ /home/orozco/development/django/buzzfeed/local/lib/python2.7/site-packages/nose/case.py runTest /home/orozco/development/django/buzzfeed/local/lib/python2.7/site-packages/nose/case.py run /home/orozco/development/django/buzzfeed/local/lib/python2.7/site-packages/nose/case.py __call__ /home/orozco/development/django/buzzfeed/local/lib/python2.7/site-packages/nose/suite.py run /home/orozco/development/django/buzzfeed/local/lib/python2.7/site-packages/nose/suite.py __call__ /home/orozco/development/django/buzzfeed/local/lib/python2.7/site-packages/nose/suite.py run /home/orozco/development/django/buzzfeed/local/lib/python2.7/site-packages/nose/suite.py __call__ /home/orozco/development/django/buzzfeed/local/lib/python2.7/site-packages/nose/suite.py run /home/orozco/development/django/buzzfeed/local/lib/python2.7/site-packages/nose/suite.py __call__ /home/orozco/development/django/buzzfeed/local/lib/python2.7/site-packages/nose/suite.py run /home/orozco/development/django/buzzfeed/local/lib/python2.7/site-packages/nose/suite.py __call__ /home/orozco/development/django/buzzfeed/local/lib/python2.7/site-packages/nose/suite.py run /home/orozco/development/django/buzzfeed/local/lib/python2.7/site-packages/nose/suite.py __call__ /home/orozco/development/django/buzzfeed/local/lib/python2.7/site-packages/nose/suite.py run /home/orozco/development/django/buzzfeed/local/lib/python2.7/site-packages/nose/suite.py __call__ /home/orozco/development/django/buzzfeed/local/lib/python2.7/site-packages/nose/suite.py run /home/orozco/development/django/buzzfeed/local/lib/python2.7/site-packages/nose/suite.py __call__ /home/orozco/development/django/buzzfeed/local/lib/python2.7/site-packages/nose/core.py run /home/orozco/development/django/buzzfeed/local/lib/python2.7/site-packages/nose/core.py runTests /usr/lib/python2.7/unittest/main.py __init__ /home/orozco/development/django/buzzfeed/local/lib/python2.7/site-packages/nose/core.py __init__ /home/orozco/development/django/buzzfeed/bin/nosetests <module> '
p12
s.