(dp1
S'args'
p2
S''
sS'methodname'
p3
S''
sS'packet_num'
p4
I5
sS'returnval'
p5
S' | Top-10-Things-You-Should-Be-Photographing-This-Sum-67Ra\np793\nsVstart_time\np794\nV2012-05-22T11:00:35-0700\np795\nsVcampaign_id\np796\nI6005186027965\nsVfrequency_cap\np797\nI0\nsVdaily_imps\np798\nI0\nsVlifetime_budget\np799\nI40000\nsVend_time\np800\nV2012-05-22T21:00:00-0700\np801\nsVcreated_time\np802\nV2012-05-22T11:00:35-0700\np803\nsVupdated_time\np804\nV2012-09-21T13:05:03-0700\np805\nsVcampaign_status\np806\nI2\nsVid\np807\nV6005186027965\np808\nsVaccount_id\np809\nI40156177\nsa(dp810\nVname\np811\nVSchwinn: May 2012 | The-Best-Bicycle-Chic-Street-Style\np812\nsVstart_time\np813\nV2012-05-22T12:00:00-0700\np814\nsVcampaign_id\np815\nI6005186091365\nsVfrequency_cap\np816\nI0\nsVdaily_imps\np817\nI0\nsVlifetime_budget\np818\nI65000\nsVend_time\np819\nV2012-05-25T14:00:00-0700\np820\nsVcreated_time\np821\nV2012-05-22T11:50:52-0700\np822\nsVupdated_time\np823\nV2012-09-21T13:05:05-0700\np824\nsVcampaign_status\np825\nI2\nsVid\np826\nV6005186091365\np827\nsVaccount_id\np828\nI40156177\nsa(dp829\nVname\np830\nVJeremiah Weed: May_June 2012 | The-15-Go-To-Drinks-For-Summer-2J8R\np831\nsVstart_time\np832\nV2012-05-22T14:00:00-0700\np833\nsVcampaign_id\np834\nI6005186364565\nsVfrequency_cap\np835\nI0\nsVdaily_imps\np836\nI0\nsVlifetime_budget\np837\nI10000\nsVend_time\np838\nV2012-06-05T20:00:00-0700\np839\nsVcreated_time\np840\nV2012-05-22T13:53:12-0700\np841\nsVupdated_time\np842\nV2012-09-21T13:05:07-0700\np843\nsVcampaign_status\np844\nI2\nsVid\np845\nV6005186364565\np846\nsVaccount_id\np847\nI40156177\nsa(dp848\nVname\np849\nVJeremiah Weed: May_June 2012 | The-15-Best-Beards-In-Music-2J8R\np850\nsVstart_time\np851\nV2012-05-22T14:00:00-0700\np852\nsVcampaign_id\np853\nI6005186376165\nsVfrequency_cap\np854\nI0\nsVdaily_imps\np855\nI0\nsVlifetime_budget\np856\nI35000\nsVend_time\np857\nV2012-06-21T20:00:00-0700\np858\nsVcreated_time\np859\nV2012-05-22T13:58:24-0700\np860\nsVupdated_time\np861\nV2012-09-21T13:05:09-0700\np862\nsVcampaign_status\np863\nI2\nsVid\np864\nV6005186376165\np865\nsVaccount_id\np866\nI40156177\nsa(dp867\nVname\np868\nVMSFT IE9: April-May 2012 | The-Worlds-Most-Surprisingly-Fast-Things\np869\nsVstart_time\np870\nV2012-05-22T15:00:00-0700\np871\nsVcampaign_id\np872\nI6005186442565\nsVfrequency_cap\np873\nI0\nsVdaily_imps\np874\nI0\nsVlifetime_budget\np875\nI10000\nsVend_time\np876\nV2012-05-23T20:00:00-0700\np877\nsVcreated_time\np878\nV2012-05-22T14:53:56-0700\np879\nsVupdated_time\np880\nV2012-09-21T13:05:10-0700\np881\nsVcampaign_status\np882\nI2\nsVid\np883\nV6005186442565\np884\nsVaccount_id\np885\nI40156177\nsa(dp886\nVname\np887\nVChris Test 2012-05-22\np888\nsVstart_time\np889\nV2012-05-23T20:59:00-0700\np890\nsVcampaign_id\np891\nI6005186794765\nsVfrequency_cap\np892\nI0\nsVdaily_imps\np893\nI0\nsVlifetime_budget\np894\nI10000\nsVend_time\np895\nV2012-06-23T20:59:00-0700\np896\nsVcreated_time\np897\nV2012-05-22T18:05:44-0700\np898\nsVupdated_time\np899\nV2012-09-21T13:05:12-0700\np900\nsVcampaign_status\np901\nI2\nsVid\np902\nV6005186794765\np903\nsVaccount_id\np904\nI40156177\nsa(dp905\nVname\np906\nVVitamin Water: May_June 2012 | 20-Guys-You-Want-To-See-In-Suspenders-60Me\np907\nsVstart_time\np908\nV2012-05-23T08:00:00-0700\np909\nsVcampaign_id\np910\nI6005189796165\nsVfrequency_cap\np911\nI0\nsVdaily_imps\np912\nI0\nsVlifetime_budget\np913\nI30000\nsVend_time\np914\nV2012-05-24T20:00:00-0700\np915\nsVcreated_time\np916\nV2012-05-23T07:05:47-0700\np917\nsVupdated_time\np918\nV2012-09-21T13:05:14-0700\np919\nsVcampaign_status\np920\nI2\nsVid\np921\nV6005189796165\np922\nsVaccount_id\np923\nI40156177\nsa(dp924\nVname\np925\nVTosh.0: May 2012 | Celebrities-With-The-Most-Devoted-Fan-Followings\np926\nsVstart_time\np927\nV2012-05-23T12:00:00-0700\np928\nsVcampaign_id\np929\nI6005192915365\nsVfrequency_cap\np930\nI0\nsVdaily_imps\np931\nI0\nsVlifetime_budget\np932\nI25000\nsVend_time\np933\nV2012-05-23T20:00:00-0700\np934\nsVcreated_time\np935\nV2012-05-23T11:26:33-0700\np936\nsVupdated_time\np937\nV2012-09-21T13:05:16-0700\np938\nsVcampaign_status\np939\nI2\nsVid\np940\nV6005192915365\np941\nsVaccount_id\np942\nI40156177\nsa(dp943\nVname\np944\nVTosh.0: May 2012 | 10-Commands-That-Daniel-Toshs-Fans-Have-Followe\np945\nsVstart_time\np946\nV2012-05-23T12:00:00-0700\np947\nsVcampaign_id\np948\nI6005192931365\nsVfrequency_cap\np949\nI0\nsVdaily_imps\np950\nI0\nsVlifetime_budget\np951\nI20000\nsVend_time\np952\nV2012-05-24T21:00:00-0700\np953\nsVcrea'
p6
sS'hash'
p7
S'11caeb871689f94150da8ee7f096697749728bac'
p8
sS'stack'
p9
S''
s.