(dp1
S'args'
p2
S''
sS'methodname'
p3
S''
sS'packet_num'
p4
I98
sS'returnval'
p5
S'e\np12701\nI27\nsVid\np12702\nV6004099228165\np12703\nsa(dp12704\nVname\np12705\nVPage Post Ad #6004100362165\np12706\nsVauto_update\np12707\nI1\nsVstory_id\np12708\nI255060324548972\nsVcreative_id\np12709\nV6004100362165\np12710\nsVpreview_url\np12711\nVhttp://www.facebook.com/ads/api/creative_preview.php?cid=6004100362165\np12712\nsVobject_id\np12713\nV21898300328\np12714\nsVcount_current_adgroups\np12715\nI0\nsVrun_status\np12716\nI1\nsVtype\np12717\nI27\nsVid\np12718\nV6004100362165\np12719\nsa(dp12720\nVname\np12721\nVPage Post Ad #6004104128165\np12722\nsVauto_update\np12723\nI1\nsVstory_id\np12724\nI315483108470353\nsVcreative_id\np12725\nV6004104128165\np12726\nsVpreview_url\np12727\nVhttp://www.facebook.com/ads/api/creative_preview.php?cid=6004104128165\np12728\nsVobject_id\np12729\nV21898300328\np12730\nsVcount_current_adgroups\np12731\nI0\nsVrun_status\np12732\nI1\nsVtype\np12733\nI27\nsVid\np12734\nV6004104128165\np12735\nsa(dp12736\nVname\np12737\nVPage Post Ad #6004104395765\np12738\nsVauto_update\np12739\nI1\nsVstory_id\np12740\nI231686216900794\nsVcreative_id\np12741\nV6004104395765\np12742\nsVpreview_url\np12743\nVhttp://www.facebook.com/ads/api/creative_preview.php?cid=6004104395765\np12744\nsVobject_id\np12745\nV21898300328\np12746\nsVcount_current_adgroups\np12747\nI0\nsVrun_status\np12748\nI1\nsVtype\np12749\nI27\nsVid\np12750\nV6004104395765\np12751\nsa(dp12752\nVname\np12753\nVPage Post Ad #6004104987165\np12754\nsVauto_update\np12755\nI1\nsVstory_id\np12756\nI315124831839668\nsVcreative_id\np12757\nV6004104987165\np12758\nsVpreview_url\np12759\nVhttp://www.facebook.com/ads/api/creative_preview.php?cid=6004104987165\np12760\nsVobject_id\np12761\nV21898300328\np12762\nsVcount_current_adgroups\np12763\nI0\nsVrun_status\np12764\nI1\nsVtype\np12765\nI27\nsVid\np12766\nV6004104987165\np12767\nsa(dp12768\nVname\np12769\nVPage Post Ad #6004106234965\np12770\nsVauto_update\np12771\nI1\nsVstory_id\np12772\nI283346378368879\nsVcreative_id\np12773\nV6004106234965\np12774\nsVpreview_url\np12775\nVhttp://www.facebook.com/ads/api/creative_preview.php?cid=6004106234965\np12776\nsVobject_id\np12777\nV21898300328\np12778\nsVcount_current_adgroups\np12779\nI0\nsVrun_status\np12780\nI1\nsVtype\np12781\nI27\nsVid\np12782\nV6004106234965\np12783\nsa(dp12784\nVname\np12785\nVPage Post Ad #6004128426965\np12786\nsVauto_update\np12787\nI1\nsVstory_id\np12788\nI249028491827041\nsVcreative_id\np12789\nV6004128426965\np12790\nsVpreview_url\np12791\nVhttp://www.facebook.com/ads/api/creative_preview.php?cid=6004128426965\np12792\nsVobject_id\np12793\nV21898300328\np12794\nsVcount_current_adgroups\np12795\nI0\nsVrun_status\np12796\nI1\nsVtype\np12797\nI27\nsVid\np12798\nV6004128426965\np12799\nsa(dp12800\nVname\np12801\nVPage Post Ad #6004128497365\np12802\nsVauto_update\np12803\nI1\nsVstory_id\np12804\nV10150520242445329\np12805\nsVcreative_id\np12806\nV6004128497365\np12807\nsVpreview_url\np12808\nVhttp://www.facebook.com/ads/api/creative_preview.php?cid=6004128497365\np12809\nsVobject_id\np12810\nV21898300328\np12811\nsVcount_current_adgroups\np12812\nI0\nsVrun_status\np12813\nI1\nsVtype\np12814\nI27\nsVid\np12815\nV6004128497365\np12816\nsa(dp12817\nVname\np12818\nVPage Post Ad #6004156880365\np12819\nsVauto_update\np12820\nI1\nsVstory_id\np12821\nI214108281998795\nsVcreative_id\np12822\nV6004156880365\np12823\nsVpreview_url\np12824\nVhttp://www.facebook.com/ads/api/creative_preview.php?cid=6004156880365\np12825\nsVobject_id\np12826\nV21898300328\np12827\nsVcount_current_adgroups\np12828\nI0\nsVrun_status\np12829\nI1\nsVtype\np12830\nI27\nsVid\np12831\nV6004156880365\np12832\nsa(dp12833\nVname\np12834\nVPage Post Ad #6004157435965\np12835\nsVauto_update\np12836\nI1\nsVstory_id\np12837\nI254594437933547\nsVcreative_id\np12838\nV6004157435965\np12839\nsVpreview_url\np12840\nVhttp://www.facebook.com/ads/api/creative_preview.php?cid=6004157435965\np12841\nsVobject_id\np12842\nV21898300328\np12843\nsVcount_current_adgroups\np12844\nI0\nsVrun_status\np12845\nI1\nsVtype\np12846\nI27\nsVid\np12847\nV6004157435965\np12848\nsa(dp12849\nVname\np12850\nVPage Post Ad #6004160424165\np12851\nsVauto_update\np12852\nI1\nsVstory_id\np12853\nI277152829002773\nsVcreative_id\np12854\nV6004160424165\np12855\nsVpreview_url\np12856\nVhttp://www.facebook.com/ads/api/creative_preview.php?cid=6004160424165\np12857\nsVobject_id\np12858\nV21898300328\np12859\nsVcount_current_adgroups\np12860\nI0\nsVrun'
p6
sS'hash'
p7
S'1583c7c82469013a6afd758f5d0deb803d8f9c3b'
p8
sS'stack'
p9
S''
s.