(dp1
S'args'
p2
S''
sS'methodname'
p3
S''
sS'packet_num'
p4
I97
sS'returnval'
p5
S'12540\nsa(dp12541\nVname\np12542\nVPage Post Ad #6004071656565\np12543\nsVauto_update\np12544\nI1\nsVstory_id\np12545\nI330965390252436\nsVcreative_id\np12546\nV6004071656565\np12547\nsVpreview_url\np12548\nVhttp://www.facebook.com/ads/api/creative_preview.php?cid=6004071656565\np12549\nsVobject_id\np12550\nV21898300328\np12551\nsVcount_current_adgroups\np12552\nI0\nsVrun_status\np12553\nI1\nsVtype\np12554\nI27\nsVid\np12555\nV6004071656565\np12556\nsa(dp12557\nVname\np12558\nVPage Post Ad #6004071657365\np12559\nsVauto_update\np12560\nI1\nsVstory_id\np12561\nV10150500431250329\np12562\nsVcreative_id\np12563\nV6004071657365\np12564\nsVpreview_url\np12565\nVhttp://www.facebook.com/ads/api/creative_preview.php?cid=6004071657365\np12566\nsVobject_id\np12567\nV21898300328\np12568\nsVcount_current_adgroups\np12569\nI0\nsVrun_status\np12570\nI1\nsVtype\np12571\nI27\nsVid\np12572\nV6004071657365\np12573\nsa(dp12574\nVname\np12575\nVPage Post Ad #6004071658965\np12576\nsVauto_update\np12577\nI1\nsVstory_id\np12578\nI184878948268674\nsVcreative_id\np12579\nV6004071658965\np12580\nsVpreview_url\np12581\nVhttp://www.facebook.com/ads/api/creative_preview.php?cid=6004071658965\np12582\nsVobject_id\np12583\nV21898300328\np12584\nsVcount_current_adgroups\np12585\nI0\nsVrun_status\np12586\nI1\nsVtype\np12587\nI27\nsVid\np12588\nV6004071658965\np12589\nsa(dp12590\nVname\np12591\nVPage Post Ad #6004073117965\np12592\nsVauto_update\np12593\nI1\nsVstory_id\np12594\nV10150501797770329\np12595\nsVcreative_id\np12596\nV6004073117965\np12597\nsVpreview_url\np12598\nVhttp://www.facebook.com/ads/api/creative_preview.php?cid=6004073117965\np12599\nsVobject_id\np12600\nV21898300328\np12601\nsVcount_current_adgroups\np12602\nI0\nsVrun_status\np12603\nI1\nsVtype\np12604\nI27\nsVid\np12605\nV6004073117965\np12606\nsa(dp12607\nVname\np12608\nVPage Post Ad #6004075365365\np12609\nsVauto_update\np12610\nI1\nsVstory_id\np12611\nI253919471331726\nsVcreative_id\np12612\nV6004075365365\np12613\nsVpreview_url\np12614\nVhttp://www.facebook.com/ads/api/creative_preview.php?cid=6004075365365\np12615\nsVobject_id\np12616\nV21898300328\np12617\nsVcount_current_adgroups\np12618\nI0\nsVrun_status\np12619\nI1\nsVtype\np12620\nI27\nsVid\np12621\nV6004075365365\np12622\nsa(dp12623\nVname\np12624\nVPage Post Ad #6004075868965\np12625\nsVauto_update\np12626\nI1\nsVstory_id\np12627\nV10150502661865329\np12628\nsVcreative_id\np12629\nV6004075868965\np12630\nsVpreview_url\np12631\nVhttp://www.facebook.com/ads/api/creative_preview.php?cid=6004075868965\np12632\nsVobject_id\np12633\nV21898300328\np12634\nsVcount_current_adgroups\np12635\nI0\nsVrun_status\np12636\nI1\nsVtype\np12637\nI27\nsVid\np12638\nV6004075868965\np12639\nsa(dp12640\nVname\np12641\nVPage Post Ad #6004077234965\np12642\nsVauto_update\np12643\nI1\nsVstory_id\np12644\nI234369269963137\nsVcreative_id\np12645\nV6004077234965\np12646\nsVpreview_url\np12647\nVhttp://www.facebook.com/ads/api/creative_preview.php?cid=6004077234965\np12648\nsVobject_id\np12649\nV21898300328\np12650\nsVcount_current_adgroups\np12651\nI0\nsVrun_status\np12652\nI1\nsVtype\np12653\nI27\nsVid\np12654\nV6004077234965\np12655\nsa(dp12656\nVname\np12657\nVPage Post Ad #6004081234165\np12658\nsVauto_update\np12659\nI1\nsVstory_id\np12660\nI284819508227690\nsVcreative_id\np12661\nV6004081234165\np12662\nsVpreview_url\np12663\nVhttp://www.facebook.com/ads/api/creative_preview.php?cid=6004081234165\np12664\nsVobject_id\np12665\nV21898300328\np12666\nsVcount_current_adgroups\np12667\nI0\nsVrun_status\np12668\nI1\nsVtype\np12669\nI27\nsVid\np12670\nV6004081234165\np12671\nsa(dp12672\nVname\np12673\nVPage Post Ad #6004095048365\np12674\nsVauto_update\np12675\nI1\nsVstory_id\np12676\nI331021386913531\nsVcreative_id\np12677\nV6004095048365\np12678\nsVpreview_url\np12679\nVhttp://www.facebook.com/ads/api/creative_preview.php?cid=6004095048365\np12680\nsVobject_id\np12681\nV21898300328\np12682\nsVcount_current_adgroups\np12683\nI0\nsVrun_status\np12684\nI1\nsVtype\np12685\nI27\nsVid\np12686\nV6004095048365\np12687\nsa(dp12688\nVname\np12689\nVPage Post Ad #6004099228165\np12690\nsVauto_update\np12691\nI1\nsVstory_id\np12692\nI168561089909228\nsVcreative_id\np12693\nV6004099228165\np12694\nsVpreview_url\np12695\nVhttp://www.facebook.com/ads/api/creative_preview.php?cid=6004099228165\np12696\nsVobject_id\np12697\nV21898300328\np12698\nsVcount_current_adgroups\np12699\nI0\nsVrun_status\np12700\nI1\nsVtyp'
p6
sS'hash'
p7
S'1583c7c82469013a6afd758f5d0deb803d8f9c3b'
p8
sS'stack'
p9
S''
s.