(dp1
S'args'
p2
S''
sS'methodname'
p3
S''
sS'packet_num'
p4
I70
sS'returnval'
p5
S"\np8810\nVcf23a1c67e828cd85e1f60a19c8e798e\np8811\nsVname\np8812\nVFreshifying Your Game-00\np8813\nsVtitle\np8814\nVFreshifying Your Game\np8815\nsVcreative_id\np8816\nV6003956919565\np8817\nsVpreview_url\np8818\nVhttp://www.facebook.com/ads/api/creative_preview.php?cid=6003956919565\np8819\nsVid\np8820\nV6003956919565\np8821\nsVimage_url\np8822\nVhttps://fbcdn-creative-a.akamaihd.net/hads-ak-prn1/s110x80/708196_6006845290965_41286_n.jpg\np8823\nsVcount_current_adgroups\np8824\nI0\nsVrun_status\np8825\nI1\nsVtype\np8826\nI1\nsVlink_url\np8827\nVhttp://buzzfeed.com/ht/kennethcole/freshifying-your-game-1-49vl/HFAA1\np8828\nsVview_tag\np8829\ng37\nsa(dp8830\nValt_view_tags\np8831\n(lp8832\nsVbody\np8833\nVBro, your game is weak. Not to worry  Were here to help. Checkthese videos for some muchneeded advice on what to do when youre tryin\np8834\nsVimage_hash\np8835\nVcf3ebea5048e637896a27eda8db0c8ba\np8836\nsVname\np8837\nVGetting It In-00\np8838\nsVtitle\np8839\nVGetting It In\np8840\nsVcreative_id\np8841\nV6003956921965\np8842\nsVpreview_url\np8843\nVhttp://www.facebook.com/ads/api/creative_preview.php?cid=6003956921965\np8844\nsVid\np8845\nV6003956921965\np8846\nsVimage_url\np8847\nVhttps://fbcdn-creative-a.akamaihd.net/hads-ak-prn1/s110x80/708196_6006845291765_12290_n.jpg\np8848\nsVcount_current_adgroups\np8849\nI0\nsVrun_status\np8850\nI1\nsVtype\np8851\nI1\nsVlink_url\np8852\nVhttp://buzzfeed.com/ht/kennethcole/getting-it-in-1-49vl/HFAA1\np8853\nsVview_tag\np8854\ng37\nsa(dp8855\nValt_view_tags\np8856\n(lp8857\nsVbody\np8858\nVBro, your game is weak. Not to worry  Were here to help. Checkthese videos for some muchneeded advice on what to do when youre tryin\np8859\nsVimage_hash\np8860\nV8d54f96e984c856b48f6572ce7a09699\np8861\nsVname\np8862\nVLearning Swag-00\np8863\nsVtitle\np8864\nVLearning Swag\np8865\nsVcreative_id\np8866\nV6003956924365\np8867\nsVpreview_url\np8868\nVhttp://www.facebook.com/ads/api/creative_preview.php?cid=6003956924365\np8869\nsVid\np8870\nV6003956924365\np8871\nsVimage_url\np8872\nVhttps://fbcdn-creative-a.akamaihd.net/hads-ak-prn1/s110x80/708171_6006844891765_36008_n.jpg\np8873\nsVcount_current_adgroups\np8874\nI0\nsVrun_status\np8875\nI1\nsVtype\np8876\nI1\nsVlink_url\np8877\nVhttp://buzzfeed.com/ht/kennethcole/learning-swag-1-49vl/HFAA1\np8878\nsVview_tag\np8879\ng37\nsa(dp8880\nValt_view_tags\np8881\n(lp8882\nsVbody\np8883\nVHook a brother up with some tips from the pros. Connecting101 A Guide to Closing the Deal\np8884\nsVimage_hash\np8885\nV8441153a78ba76cfa64f7b2dbe628bc1\np8886\nsVname\np8887\nVGot A Friend Without Gam\np8888\nsVtitle\np8889\nVGot A Friend Without Gam\np8890\nsVcreative_id\np8891\nV6004005468165\np8892\nsVpreview_url\np8893\nVhttp://www.facebook.com/ads/api/creative_preview.php?cid=6004005468165\np8894\nsVid\np8895\nV6004005468165\np8896\nsVimage_url\np8897\nVhttps://fbcdn-creative-a.akamaihd.net/hads-ak-prn1/s110x80/708180_6006844841965_32316_n.jpg\np8898\nsVcount_current_adgroups\np8899\nI0\nsVrun_status\np8900\nI1\nsVtype\np8901\nI1\nsVlink_url\np8902\nVhttp://buzzfeed.com/ht/kennethcole/got-a-friend-with-no-game-49vl/HFAA1\np8903\nsVview_tag\np8904\ng37\nsa(dp8905\nValt_view_tags\np8906\n(lp8907\nsVbody\np8908\nVBro, your game is weak. Not to worry  We're here to help.  Connecting101 A Guide to Closing the Deal\np8909\nsVimage_hash\np8910\nVcf23a1c67e828cd85e1f60a19c8e798e\np8911\nsVname\np8912\nVFreshifying Your Game-01\np8913\nsVtitle\np8914\nVFreshifying Your Game\np8915\nsVcreative_id\np8916\nV6004005472365\np8917\nsVpreview_url\np8918\nVhttp://www.facebook.com/ads/api/creative_preview.php?cid=6004005472365\np8919\nsVid\np8920\nV6004005472365\np8921\nsVimage_url\np8922\nVhttps://fbcdn-creative-a.akamaihd.net/hads-ak-prn1/s110x80/708196_6006845290965_41286_n.jpg\np8923\nsVcount_current_adgroups\np8924\nI0\nsVrun_status\np8925\nI1\nsVtype\np8926\nI1\nsVlink_url\np8927\nVhttp://buzzfeed.com/ht/kennethcole/freshifying-your-game-1-49vl/HFAA1\np8928\nsVview_tag\np8929\ng37\nsa(dp8930\nValt_view_tags\np8931\n(lp8932\nsVbody\np8933\nVBro, your game is weak. Not to worry  We're here to help.  Connecting101 A Guide to Closing the Deal\np8934\nsVimage_hash\np8935\nVcf3ebea5048e637896a27eda8db0c8ba\np8936\nsVname\np8937\nVGetting It In-01\np8938\nsVtitle\np8939\nVGetting It In\np8940\nsVcreative_id\np8941\nV6004005474765\np8942\nsVpreview_url\np8"
p6
sS'hash'
p7
S'1583c7c82469013a6afd758f5d0deb803d8f9c3b'
p8
sS'stack'
p9
S''
s.