(dp1
S'args'
p2
S''
sS'methodname'
p3
S''
sS'packet_num'
p4
I46
sS'returnval'
p5
S'\np5661\nV591493efe0f9691bd0bcd2c30ee29c64\np5662\nsVname\np5663\nVBeing The New Girl Sucks!\np5664\nsVtitle\np5665\nVBeing The New Girl Sucks!\np5666\nsVcreative_id\np5667\nV6003792047965\np5668\nsVpreview_url\np5669\nVhttp://www.facebook.com/ads/api/creative_preview.php?cid=6003792047965\np5670\nsVid\np5671\nV6003792047965\np5672\nsVimage_url\np5673\nVhttps://fbcdn-creative-a.akamaihd.net/hads-ak-prn1/s110x80/708167_6006844602165_249_n.jpg\np5674\nsVcount_current_adgroups\np5675\nI0\nsVrun_status\np5676\nI1\nsVtype\np5677\nI1\nsVlink_url\np5678\nVhttp://www.buzzfeed.com/ht/thecw/5-reasons-why-being-the-new-girl-sucks/HFBA1\np5679\nsVview_tag\np5680\ng37\nsa(dp5681\nValt_view_tags\np5682\n(lp5683\nsVbody\np5684\nVCheck out BuzzFeed\'s "Top 5 Reason Why Being The New Girl Sucks" & See why your favorite \'new girl\' has an extremely rough time!\np5685\nsVimage_hash\np5686\nVa356cbc4aca2e4fd242ec04783707cfd\np5687\nsVname\np5688\nVBeing The New Girl Sucks!-00\np5689\nsVtitle\np5690\nVBeing The New Girl Sucks!\np5691\nsVcreative_id\np5692\nV6003792058965\np5693\nsVpreview_url\np5694\nVhttp://www.facebook.com/ads/api/creative_preview.php?cid=6003792058965\np5695\nsVid\np5696\nV6003792058965\np5697\nsVimage_url\np5698\nVhttps://fbcdn-creative-a.akamaihd.net/hads-ak-prn1/s110x80/708199_6006845032365_50356_n.jpg\np5699\nsVcount_current_adgroups\np5700\nI0\nsVrun_status\np5701\nI1\nsVtype\np5702\nI1\nsVlink_url\np5703\nVhttp://www.buzzfeed.com/ht/thecw/5-reasons-why-being-the-new-girl-sucks/HFBA1\np5704\nsVview_tag\np5705\ng37\nsa(dp5706\nValt_view_tags\np5707\n(lp5708\nsVbody\np5709\nVCheck out BuzzFeed\'s "Top 5 Reason Why Being The New Girl Sucks" & See why your favorite \'new girl\' has an extremely rough time!\np5710\nsVimage_hash\np5711\nVc5437acaaaa71e864dd55e9c8816535d\np5712\nsVname\np5713\nVBeing The New Girl Sucks!-01\np5714\nsVtitle\np5715\nVBeing The New Girl Sucks!\np5716\nsVcreative_id\np5717\nV6003792064165\np5718\nsVpreview_url\np5719\nVhttp://www.facebook.com/ads/api/creative_preview.php?cid=6003792064165\np5720\nsVid\np5721\nV6003792064165\np5722\nsVimage_url\np5723\nVhttps://fbcdn-creative-a.akamaihd.net/hads-ak-ash3/s110x80/701897_6006845235565_23623_n.jpg\np5724\nsVcount_current_adgroups\np5725\nI0\nsVrun_status\np5726\nI1\nsVtype\np5727\nI1\nsVlink_url\np5728\nVhttp://www.buzzfeed.com/ht/thecw/5-reasons-why-being-the-new-girl-sucks/HFBA1\np5729\nsVview_tag\np5730\ng37\nsa(dp5731\nValt_view_tags\np5732\n(lp5733\nsVbody\np5734\nVWant a good laugh? Come check out "The Best Lines From It\\u2019s Always Sunny in Philadelphia" brought to you by FX Networks and BuzzFeed.\np5735\nsVimage_hash\np5736\nV5217e92fdadd59f9ced6ae11d1c77874\np5737\nsVname\np5738\nVBuzzFeed Exclusive-01\np5739\nsVtitle\np5740\nVBuzzFeed Exclusive\np5741\nsVcreative_id\np5742\nV6003791782565\np5743\nsVpreview_url\np5744\nVhttp://www.facebook.com/ads/api/creative_preview.php?cid=6003791782565\np5745\nsVid\np5746\nV6003791782565\np5747\nsVimage_url\np5748\nVhttps://fbcdn-creative-a.akamaihd.net/hads-ak-ash3/s110x80/701899_6006844567165_55243_n.jpg\np5749\nsVcount_current_adgroups\np5750\nI0\nsVrun_status\np5751\nI1\nsVtype\np5752\nI1\nsVlink_url\np5753\nVhttp://www.buzzfeed.com/ht/fxnetwork/the-best-lines-from-its-always-sunny/HFBA1\np5754\nsVview_tag\np5755\ng37\nsa(dp5756\nValt_view_tags\np5757\n(lp5758\nsVbody\np5759\nVCheck out BuzzFeed\'s "TV Show Explanations On Why Teenage Life Is So Hard" & See why your favorite TV show character\'s life sucks.\np5760\nsVimage_hash\np5761\nV2001ccc946062298ee8b333c66a39ddf\np5762\nsVname\np5763\nVWhy Teenage Life is Hard\np5764\nsVtitle\np5765\nVWhy Teenage Life is Hard\np5766\nsVcreative_id\np5767\nV6003789596765\np5768\nsVpreview_url\np5769\nVhttp://www.facebook.com/ads/api/creative_preview.php?cid=6003789596765\np5770\nsVid\np5771\nV6003789596765\np5772\nsVimage_url\np5773\nVhttps://fbcdn-creative-a.akamaihd.net/hads-ak-ash3/s110x80/708205_6006844247965_3209_n.jpg\np5774\nsVcount_current_adgroups\np5775\nI0\nsVrun_status\np5776\nI1\nsVtype\np5777\nI1\nsVlink_url\np5778\nVhttp://www.buzzfeed.com/ht/thecw/tv-show-explanations-on-why-teenage-life-is-so-har/HFBA1\np5779\nsVview_tag\np5780\ng37\nsa(dp5781\nValt_view_tags\np5782\n(lp5783\nsVbody\np5784\nVCheck out BuzzFeed\'s "TV Show Explanations On Why Teenage Life Is So Hard" & See why your favorite TV show chara'
p6
sS'hash'
p7
S'1583c7c82469013a6afd758f5d0deb803d8f9c3b'
p8
sS'stack'
p9
S''
s.