(dp1
S'args'
p2
S''
sS'methodname'
p3
S''
sS'packet_num'
p4
I117
sS'returnval'
p5
S'1\nVhttp://www.facebook.com/ads/api/creative_preview.php?cid=6005039931965\np15742\nsVobject_id\np15743\nV21898300328\np15744\nsVcount_current_adgroups\np15745\nI0\nsVrun_status\np15746\nI1\nsVtype\np15747\nI27\nsVid\np15748\nV6005039931965\np15749\nsa(dp15750\nVname\np15751\nVAd from a Page post #6005050376365\np15752\nsVauto_update\np15753\nI1\nsVstory_id\np15754\nI417831168228349\nsVcreative_id\np15755\nV6005050376365\np15756\nsVpreview_url\np15757\nVhttp://www.facebook.com/ads/api/creative_preview.php?cid=6005050376365\np15758\nsVobject_id\np15759\nV21898300328\np15760\nsVcount_current_adgroups\np15761\nI0\nsVrun_status\np15762\nI1\nsVtype\np15763\nI27\nsVid\np15764\nV6005050376365\np15765\nsa(dp15766\nVname\np15767\nVAd from a Page post #6005051232565\np15768\nsVauto_update\np15769\nI1\nsVstory_id\np15770\nV10150848644645329\np15771\nsVcreative_id\np15772\nV6005051232565\np15773\nsVpreview_url\np15774\nVhttp://www.facebook.com/ads/api/creative_preview.php?cid=6005051232565\np15775\nsVobject_id\np15776\nV21898300328\np15777\nsVcount_current_adgroups\np15778\nI0\nsVrun_status\np15779\nI1\nsVtype\np15780\nI27\nsVid\np15781\nV6005051232565\np15782\nsa(dp15783\nVname\np15784\nVAd from a Page post #6005052654965\np15785\nsVauto_update\np15786\nI1\nsVstory_id\np15787\nI274891112605973\nsVcreative_id\np15788\nV6005052654965\np15789\nsVpreview_url\np15790\nVhttp://www.facebook.com/ads/api/creative_preview.php?cid=6005052654965\np15791\nsVobject_id\np15792\nV21898300328\np15793\nsVcount_current_adgroups\np15794\nI0\nsVrun_status\np15795\nI1\nsVtype\np15796\nI27\nsVid\np15797\nV6005052654965\np15798\nsa(dp15799\nVname\np15800\nVAd from a Page post #6005056832765\np15801\nsVauto_update\np15802\nI1\nsVstory_id\np15803\nV10150849521365329\np15804\nsVcreative_id\np15805\nV6005056832765\np15806\nsVpreview_url\np15807\nVhttp://www.facebook.com/ads/api/creative_preview.php?cid=6005056832765\np15808\nsVobject_id\np15809\nV21898300328\np15810\nsVcount_current_adgroups\np15811\nI0\nsVrun_status\np15812\nI1\nsVtype\np15813\nI27\nsVid\np15814\nV6005056832765\np15815\nsa(dp15816\nVname\np15817\nVAd from a Page post #6005057488765\np15818\nsVauto_update\np15819\nI1\nsVstory_id\np15820\nV10150850848105329\np15821\nsVcreative_id\np15822\nV6005057488765\np15823\nsVpreview_url\np15824\nVhttp://www.facebook.com/ads/api/creative_preview.php?cid=6005057488765\np15825\nsVobject_id\np15826\nV21898300328\np15827\nsVcount_current_adgroups\np15828\nI0\nsVrun_status\np15829\nI1\nsVtype\np15830\nI27\nsVid\np15831\nV6005057488765\np15832\nsa(dp15833\nVname\np15834\nVAd from a Page post #6005057558965\np15835\nsVauto_update\np15836\nI1\nsVstory_id\np15837\nI349781721750666\nsVcreative_id\np15838\nV6005057558965\np15839\nsVpreview_url\np15840\nVhttp://www.facebook.com/ads/api/creative_preview.php?cid=6005057558965\np15841\nsVobject_id\np15842\nV21898300328\np15843\nsVcount_current_adgroups\np15844\nI0\nsVrun_status\np15845\nI1\nsVtype\np15846\nI27\nsVid\np15847\nV6005057558965\np15848\nsa(dp15849\nVname\np15850\nVAd from a Page post #6005058455165\np15851\nsVauto_update\np15852\nI1\nsVstory_id\np15853\nV10150851291725329\np15854\nsVcreative_id\np15855\nV6005058455165\np15856\nsVpreview_url\np15857\nVhttp://www.facebook.com/ads/api/creative_preview.php?cid=6005058455165\np15858\nsVobject_id\np15859\nV21898300328\np15860\nsVcount_current_adgroups\np15861\nI0\nsVrun_status\np15862\nI1\nsVtype\np15863\nI27\nsVid\np15864\nV6005058455165\np15865\nsa(dp15866\nVname\np15867\nVAd from a Page post #6005058601765\np15868\nsVauto_update\np15869\nI1\nsVstory_id\np15870\nI396607027028651\nsVcreative_id\np15871\nV6005058601765\np15872\nsVpreview_url\np15873\nVhttp://www.facebook.com/ads/api/creative_preview.php?cid=6005058601765\np15874\nsVobject_id\np15875\nV21898300328\np15876\nsVcount_current_adgroups\np15877\nI0\nsVrun_status\np15878\nI1\nsVtype\np15879\nI27\nsVid\np15880\nV6005058601765\np15881\nsa(dp15882\nVname\np15883\nVAd from a Page post #6005069048565\np15884\nsVauto_update\np15885\nI1\nsVstory_id\np15886\nV10150853443920329\np15887\nsVcreative_id\np15888\nV6005069048565\np15889\nsVpreview_url\np15890\nVhttp://www.facebook.com/ads/api/creative_preview.php?cid=6005069048565\np15891\nsVobject_id\np15892\nV21898300328\np15893\nsVcount_current_adgroups\np15894\nI0\nsVrun_status\np15895\nI1\nsVtype\np15896\nI27\nsVid\np15897\nV6005069048565\np15898\nsa(dp15899\nVname\np15900\nVAd from a Page post #6005069352565'
p6
sS'hash'
p7
S'1583c7c82469013a6afd758f5d0deb803d8f9c3b'
p8
sS'stack'
p9
S''
s.