(dp1
S'args'
p2
S''
sS'methodname'
p3
S''
sS'packet_num'
p4
I36
sS'returnval'
p5
S'40565\np4418\nsVpreview_url\np4419\nVhttp://www.facebook.com/ads/api/creative_preview.php?cid=6003833840565\np4420\nsVid\np4421\nV6003833840565\np4422\nsVimage_url\np4423\nVhttps://fbcdn-creative-a.akamaihd.net/hads-ak-ash3/s110x80/708182_6006844799165_30229_n.jpg\np4424\nsVcount_current_adgroups\np4425\nI0\nsVrun_status\np4426\nI1\nsVtype\np4427\nI1\nsVlink_url\np4428\nVhttp://www.buzzfeed.com/contests/shavetheworld?utm_source=facebook&utm_medium=burst&utm_campaign=schick\np4429\nsVview_tag\np4430\ng37\nsa(dp4431\nValt_view_tags\np4432\n(lp4433\nsVbody\np4434\nVCome check out how Sailor Jerry fans showed off their ink for Sailor\'s 100th Anniversary on "20 Awesome Sailor Jerry Tattoo\'s" \np4435\nsVimage_hash\np4436\nVa84b5517b62bf5fb591aca56c227051f\np4437\nsVname\np4438\nV20 Awesome Tattoo\'s!\np4439\nsVtitle\np4440\nV20 Awesome Tattoo\'s!\np4441\nsVcreative_id\np4442\nV6003824935965\np4443\nsVpreview_url\np4444\nVhttp://www.facebook.com/ads/api/creative_preview.php?cid=6003824935965\np4445\nsVid\np4446\nV6003824935965\np4447\nsVimage_url\np4448\nVhttps://fbcdn-creative-a.akamaihd.net/hads-ak-prn1/s110x80/708184_6006845062365_6902_n.jpg\np4449\nsVcount_current_adgroups\np4450\nI0\nsVrun_status\np4451\nI1\nsVtype\np4452\nI1\nsVlink_url\np4453\nVhttp://www.buzzfeed.com/ht/sailorjerryrum/20-awesome-sailor-jerry-tattoos/HFBA1?utm_source=Facebook&utm_medium=Seed&utm_campaign=Sailor_Jerry&utm_content=20_Awesome_Tattoos\np4454\nsVview_tag\np4455\ng37\nsa(dp4456\nValt_view_tags\np4457\n(lp4458\nsVbody\np4459\nVCome check out how Sailor Jerry fans showed off their ink for Sailor\'s 100th Anniversary on "20 Awesome Sailor Jerry Tattoo\'s" \np4460\nsVimage_hash\np4461\nVcde83b4078b4913150bd90b53d23775c\np4462\nsVname\np4463\nV20 Awesome Tattoo\'s!-00\np4464\nsVtitle\np4465\nV20 Awesome Tattoo\'s!\np4466\nsVcreative_id\np4467\nV6003824937765\np4468\nsVpreview_url\np4469\nVhttp://www.facebook.com/ads/api/creative_preview.php?cid=6003824937765\np4470\nsVid\np4471\nV6003824937765\np4472\nsVimage_url\np4473\nVhttps://fbcdn-creative-a.akamaihd.net/hads-ak-ash3/s110x80/701894_6006845283165_14246_n.jpg\np4474\nsVcount_current_adgroups\np4475\nI0\nsVrun_status\np4476\nI1\nsVtype\np4477\nI1\nsVlink_url\np4478\nVhttp://www.buzzfeed.com/ht/sailorjerryrum/20-awesome-sailor-jerry-tattoos/HFBA1?utm_source=Facebook&utm_medium=Seed&utm_campaign=Sailor_Jerry&utm_content=20_Awesome_Tattoos\np4479\nsVview_tag\np4480\ng37\nsa(dp4481\nValt_view_tags\np4482\n(lp4483\nsVbody\np4484\nVCheck out "The Top 10 Phil Dunphy Quotes From Modern Family" and remember to "Like" our page for more great stuff!\np4485\nsVimage_hash\np4486\nVa1d51510217e72f6d1d9db3c8291e71c\np4487\nsVname\np4488\nVBuzzFeed Partner-28\np4489\nsVtitle\np4490\ng37\nsVcreative_id\np4491\nV6003829097365\np4492\nsVpreview_url\np4493\nVhttp://www.facebook.com/ads/api/creative_preview.php?cid=6003829097365\np4494\nsVobject_id\np4495\nI238205562866018\nsVid\np4496\nV6003829097365\np4497\nsVimage_url\np4498\nVhttps://fbcdn-creative-a.akamaihd.net/hads-ak-snc7/s110x80/701898_6006845022365_56020_n.jpg\np4499\nsVcount_current_adgroups\np4500\nI0\nsVrun_status\np4501\nI1\nsVtype\np4502\nI2\nsVlink_url\np4503\nVhttp://www.facebook.com/BuzzFeedPartner?sk=wall\np4504\nsVview_tag\np4505\ng37\nsa(dp4506\nValt_view_tags\np4507\n(lp4508\nsVbody\np4509\nVThe guys from Workaholics do some crazy things - But so do the folks over at BuzzFeed. Which office is more outrageous? You tell us!\np4510\nsVimage_hash\np4511\nVae651fb7801d065e30335d130fbfeeaa\np4512\nsVname\np4513\nVBuzzFeed Vs. Workaholics\np4514\nsVtitle\np4515\nVBuzzFeed Vs. Workaholics\np4516\nsVcreative_id\np4517\nV6003808973765\np4518\nsVpreview_url\np4519\nVhttp://www.facebook.com/ads/api/creative_preview.php?cid=6003808973765\np4520\nsVid\np4521\nV6003808973765\np4522\nsVimage_url\np4523\nVhttps://fbcdn-creative-a.akamaihd.net/hads-ak-ash3/s110x80/708196_6006845098165_16123_n.jpg\np4524\nsVcount_current_adgroups\np4525\nI0\nsVrun_status\np4526\nI1\nsVtype\np4527\nI1\nsVlink_url\np4528\nVhttp://www.buzzfeed.com/ht/workaholics/buzzfeed-vs-workaholics/HFBA1\np4529\nsVview_tag\np4530\ng37\nsa(dp4531\nValt_view_tags\np4532\n(lp4533\nsVbody\np4534\nVThe guys from Workaholics do some crazy things - But so do the folks over at BuzzFeed. Which office is more outrageous? You tell us!\np4535\nsVimage_hash\n'
p6
sS'hash'
p7
S'1583c7c82469013a6afd758f5d0deb803d8f9c3b'
p8
sS'stack'
p9
S''
s.