(dp1
S'args'
p2
S''
sS'methodname'
p3
S''
sS'packet_num'
p4
I71
sS'returnval'
p5
S'943\nVhttp://www.facebook.com/ads/api/creative_preview.php?cid=6004005474765\np8944\nsVid\np8945\nV6004005474765\np8946\nsVimage_url\np8947\nVhttps://fbcdn-creative-a.akamaihd.net/hads-ak-prn1/s110x80/708196_6006845291765_12290_n.jpg\np8948\nsVcount_current_adgroups\np8949\nI0\nsVrun_status\np8950\nI1\nsVtype\np8951\nI1\nsVlink_url\np8952\nVhttp://buzzfeed.com/ht/kennethcole/getting-it-in-1-49vl/HFAA1\np8953\nsVview_tag\np8954\ng37\nsa(dp8955\nValt_view_tags\np8956\n(lp8957\nsVbody\np8958\nVHook a brother up with some tips from the pros. Connecting101 A Guide to Closing the Deal\np8959\nsVimage_hash\np8960\nV8441153a78ba76cfa64f7b2dbe628bc1\np8961\nsVname\np8962\nVGot A Friend Without Gam -00\np8963\nsVtitle\np8964\nVGot A Friend Without Gam \np8965\nsVcreative_id\np8966\nV6004006137965\np8967\nsVpreview_url\np8968\nVhttp://www.facebook.com/ads/api/creative_preview.php?cid=6004006137965\np8969\nsVid\np8970\nV6004006137965\np8971\nsVimage_url\np8972\nVhttps://fbcdn-creative-a.akamaihd.net/hads-ak-prn1/s110x80/708180_6006844841965_32316_n.jpg\np8973\nsVcount_current_adgroups\np8974\nI0\nsVrun_status\np8975\nI1\nsVtype\np8976\nI1\nsVlink_url\np8977\nVhttp://buzzfeed.com/ht/kennethcole/got-a-friend-with-no-game-49vl/HFAA1\np8978\nsVview_tag\np8979\ng37\nsa(dp8980\nValt_view_tags\np8981\n(lp8982\nsVbody\np8983\nVBro, your game is weak. Not to worry  We\'re here to help.  Connecting101 A Guide to Closing the Deal\np8984\nsVimage_hash\np8985\nVcf23a1c67e828cd85e1f60a19c8e798e\np8986\nsVname\np8987\nVFreshifying Your Game -00\np8988\nsVtitle\np8989\nVFreshifying Your Game \np8990\nsVcreative_id\np8991\nV6004006141765\np8992\nsVpreview_url\np8993\nVhttp://www.facebook.com/ads/api/creative_preview.php?cid=6004006141765\np8994\nsVid\np8995\nV6004006141765\np8996\nsVimage_url\np8997\nVhttps://fbcdn-creative-a.akamaihd.net/hads-ak-prn1/s110x80/708196_6006845290965_41286_n.jpg\np8998\nsVcount_current_adgroups\np8999\nI0\nsVrun_status\np9000\nI1\nsVtype\np9001\nI1\nsVlink_url\np9002\nVhttp://buzzfeed.com/ht/kennethcole/freshifying-your-game-1-49vl/HFAA1\np9003\nsVview_tag\np9004\ng37\nsa(dp9005\nValt_view_tags\np9006\n(lp9007\nsVbody\np9008\nVBro, your game is weak. Not to worry  We\'re here to help.  Connecting101 A Guide to Closing the Deal\np9009\nsVimage_hash\np9010\nVcf3ebea5048e637896a27eda8db0c8ba\np9011\nsVname\np9012\nVGetting It In -00\np9013\nsVtitle\np9014\nVGetting It In \np9015\nsVcreative_id\np9016\nV6004006150765\np9017\nsVpreview_url\np9018\nVhttp://www.facebook.com/ads/api/creative_preview.php?cid=6004006150765\np9019\nsVid\np9020\nV6004006150765\np9021\nsVimage_url\np9022\nVhttps://fbcdn-creative-a.akamaihd.net/hads-ak-prn1/s110x80/708196_6006845291765_12290_n.jpg\np9023\nsVcount_current_adgroups\np9024\nI0\nsVrun_status\np9025\nI1\nsVtype\np9026\nI1\nsVlink_url\np9027\nVhttp://buzzfeed.com/ht/kennethcole/getting-it-in-1-49vl/HFAA1\np9028\nsVview_tag\np9029\ng37\nsa(dp9030\nValt_view_tags\np9031\n(lp9032\nsVbody\np9033\nVYou see, there arent many men like Norman "Sailor Jerry" Collins around anymore. The father of oldschool tattooing, Sailor Jerry was\np9034\nsVimage_hash\np9035\nV180dd957280020402e9aaa4536618e38\np9036\nsVname\np9037\nVHold Fast With Sailor Je\np9038\nsVtitle\np9039\nVHold Fast With Sailor Je\np9040\nsVcreative_id\np9041\nV6004202450365\np9042\nsVpreview_url\np9043\nVhttp://www.facebook.com/ads/api/creative_preview.php?cid=6004202450365\np9044\nsVid\np9045\nV6004202450365\np9046\nsVimage_url\np9047\nVhttps://fbcdn-creative-a.akamaihd.net/hads-ak-prn1/s110x80/708175_6006844201165_9924_n.jpg\np9048\nsVcount_current_adgroups\np9049\nI0\nsVrun_status\np9050\nI1\nsVtype\np9051\nI1\nsVlink_url\np9052\nVhttp://buzzfeed.com/ht/viralvideochart/hold-fast-with-sailor-jerry-26x3/HFAA1\np9053\nsVview_tag\np9054\ng37\nsa(dp9055\nValt_view_tags\np9056\n(lp9057\nsVbody\np9058\nVWe surprised over 1,000 people with a new Olympus PEN camera.To show how easy it is for everyday people to take amazing pictures, we g\np9059\nsVimage_hash\np9060\nV1fcefb547698d65237b314c027e3aec2\np9061\nsVname\np9062\nVThe PEN Ready Project \np9063\nsVtitle\np9064\nVThe PEN Ready Project \np9065\nsVcreative_id\np9066\nV6004338332165\np9067\nsVpreview_url\np9068\nVhttp://www.facebook.com/ads/api/creative_preview.php?cid=6004338332165\np9069\nsVid\np9070\nV6004338332165\np9071\nsVimage_url\np9072\nVhttps:/'
p6
sS'hash'
p7
S'1583c7c82469013a6afd758f5d0deb803d8f9c3b'
p8
sS'stack'
p9
S''
s.