(dp1
S'args'
p2
S''
sS'methodname'
p3
S''
sS'packet_num'
p4
I147
sS'returnval'
p5
S'okBwAAAAAAAAAABAcoAJBBhKzNpUQEeAAAAAASWifQADgAAAABQAeAqAYYAAAAAAAAAAAABACQQYSszaVEBtgAAAABQAeAqAeQAJBBhKzNpUQ0AGwYLAAAAAUADAAAAilRoaXMgd2lsbCBnaXZlIHlvdSBuaWdodG1hcmVzIHRvbmlnaHQuDQoNCjIyIEluY3JlZGlibHkgQ3JlZXB5IFRveXMNCmh0dHA6Ly93d3cuYnV6emZlZWQuY29tL2tlZW5hbi8yMi1pbmNyZWRpYmx5LWNyZWVweS10b3lzIG9vb29vIFBob3RvcwoAHAAkEGCtuTgRAA==\np20262\nsVcount_current_adgroups\np20263\nI0\nsVrun_status\np20264\nI1\nsVtype\np20265\nI27\nsVid\np20266\nV6005502251165\np20267\nsa(dp20268\nVname\np20269\nVAd from a Page post #6005503430165\np20270\nsVauto_update\np20271\nI1\nsVstory_id\np20272\nV10151110614710329\np20273\nsVcreative_id\np20274\nV6005503430165\np20275\nsVpreview_url\np20276\nVhttp://www.facebook.com/ads/api/creative_preview.php?cid=6005503430165\np20277\nsVobject_id\np20278\nV21898300328\np20279\nsVaction_t\np20280\nVBgABAPcIAAZQAyFmCgAQAAAABRk9i6gNABoGCgAAAA4BGQAkEGGeQ+SxAXUAAAAAAAG1igCbAAAAAAAAAAgAZgAAABUHwjFIAL0AJBBhnkMhYQD8AAAAAADFYSABwAAAAAAAAAABAcoAJBBhnkP4OQEeAAAAAMQobx4ADgAAAABQAyFmAYYAAAAAAAAAAAABACQQYZ5D+DkBtgAAAABQAyFmAeQAJBBhnkP4OQ0AGwYLAAAAAUADAAAA2ENoZWNrIG91dCB0aGlzIHBpY3R1cmUgb2YgYSB5b3VuZyBDaHJpc3RvcGhlciBXYWxrZW4hDQoNCjI4IFNleHkgUGljdHVyZXMgb2YgT2xkZXIgQWN0b3JzIFdoZW4gVGhleSBXZXJlIFlvdW5nOg0KaHR0cDovL3d3dy5idXp6ZmVlZC5jb20vc3VtbWVyYW5uZS8yOC1zZXh5LXBpY3R1cmVzLW9mLW9sZGVyLWFjdG9ycy13aGVuLXRoZXktd2VyZS15byBvb29vbyBXYWxsIFBob3RvcwoAHAAkEGGeQyFhAA==\np20281\nsVcount_current_adgroups\np20282\nI0\nsVrun_status\np20283\nI1\nsVtype\np20284\nI27\nsVid\np20285\nV6005503430165\np20286\nsa(dp20287\nVname\np20288\nVAd from a Page post #6005503835965\np20289\nsVauto_update\np20290\nI1\nsVstory_id\np20291\nV10151111165285329\np20292\nsVcreative_id\np20293\nV6005503835965\np20294\nsVpreview_url\np20295\nVhttp://www.facebook.com/ads/api/creative_preview.php?cid=6005503835965\np20296\nsVobject_id\np20297\nV21898300328\np20298\nsVaction_t\np20299\nVBgABAPcIAAZQA2yWCgAQAAAABRk9i6gNABoGCgAAAA4BGQAkEGG/FOzBAXUAAAAAAAG1igCbAAAAAAAAAAgAZgAAABUHwjFIAL0AJBBhvxQV6QD8AAAAAADFagsBwAAAAAAAAAABAcoAJBBhvxUT0QEeAAAAAHg/O7AADgAAAABQA2yWAYYAAAAAAAAAAAABACQQYb8VE9EBtgAAAABQA2yWAeQAJBBhvxUT0Q0AGwYLAAAAAUADAAAAIEFyZSB5b3UgcmVhZHk/IG9vb29vIFdhbGwgUGhvdG9zCgAcACQQYb8UFekA\np20300\nsVcount_current_adgroups\np20301\nI0\nsVrun_status\np20302\nI1\nsVtype\np20303\nI27\nsVid\np20304\nV6005503835965\np20305\nsa(dp20306\nVname\np20307\nVAd from a Page post #6005505256765\np20308\nsVauto_update\np20309\nI1\nsVstory_id\np20310\nI251958871573813\nsVcreative_id\np20311\nV6005505256765\np20312\nsVpreview_url\np20313\nVhttp://www.facebook.com/ads/api/creative_preview.php?cid=6005505256765\np20314\nsVobject_id\np20315\nV21898300328\np20316\nsVaction_t\np20317\nVBgABAQcIAAZQBBirCgAJAAAAAImt0MwKABAAAAAFGT2LqA0AGgYKAAAADQEKAAAAAAAAAFAAuAAA5Se/CcU1ALkAAAAAAAAAZAC6ACQQOc3VdSICIwAAAAAAAAAIAMMAAABPVFI0HgG7AAAAAAAAAGoACgAAAACJrdDMAcoAAOUnvwnFNQEeAAAAANoNNx4AAQAA5Se/CcU1AbYAAAAAUAQYqwHkAADlJ78JxTUNABsGCwAAAAFAAwAAAL9UaGlzIGhhcyBnb25lIG1lZ2EtdmlyYWwhIG9vb29vIFRoZSAyNSBCZXN0ICJUaGF0IEd1eSIgQWN0b3JzIG9vb29vIEV2ZXIgd2F0Y2ggYSBtb3ZpZSBhbmQgcmVjb2duaXplIG9uZSBvZiB0aGUgbWlub3IgYWN0b3JzLCBidXQgbm90IGtub3cgaGlzIG5hbWU/IEhlcmUgYXJlIDI1IG9mIHRoZSBiZXN0ICJUaGF0IEd1eSIgYWN0b3JzLgoAHAAA5Se/CcU1AA==\np20318\nsVcount_current_adgroups\np20319\nI0\nsVrun_status\np20320\nI1\nsVtype\np20321\nI27\nsVid\np20322\nV6005505256765\np20323\nsa(dp20324\nVname\np20325\nVAd from a Page post #6005507960165\np20326\nsVauto_update\np20327\nI1\nsVstory_id\np20328\nV10151112389020329\np20329\nsVcreative_id\np20330\nV6005507960165\np20331\nsVpreview_url\np20332\nVhttp://www.facebook.com/ads/api/creative_preview.php?cid=6005507960165\np20333\nsVobject_id\np20334\nV21898300328\np20335\nsVaction_t\np20336\nVBgABAPcIAAZQBDczCgAQAAAABRk9i6gNABoGCgAAAA4BGQAkEGIIBbchAXUAAAAAAAG1igCbAAAAAAAAAAgAZgAAABUHwjFIAL0AJBBiCARECQD8AAAAAADFeuMBwAAAAAAAAAABAcoAJBBiCAXKqQEeAAAAAGfWBbQADgAAAABQBDczAYYAAAAAAAAAAAABACQQYggFyqkBtgAAAABQBDczAeQAJBBiCAXKqQ0AGwYLAAAAAUADAAAAMkhvdyB0byBmYWlsIGEgdGVzdCBsaWtlIGEgY2hhbXAuIG9vb29vIFdhbGwgUGhvdG9zCgAcACQQYggERAkA\np20337\nsVcount_current_adgroups\np20338\nI0\nsVrun_status\np20339\nI1\nsVtype\np20340\nI27\nsVid\np20341\nV6005507960165\np20342\nsa(dp20343\nVname\np20344\nVAd from a Page post #6005508228565\np20345\nsVauto_update\np20346\nI1\nsVstory_id\np20347\nI4427956357'
p6
sS'hash'
p7
S'1583c7c82469013a6afd758f5d0deb803d8f9c3b'
p8
sS'stack'
p9
S''
s.