(dp1
S'args'
p2
S''
sS'methodname'
p3
S''
sS'packet_num'
p4
I75
sS'returnval'
p5
S"Friend Out Of Pick\np9463\nsVtitle\np9464\nVYour Friend Out Of Pick\np9465\nsVcreative_id\np9466\nV6003977351165\np9467\nsVpreview_url\np9468\nVhttp://www.facebook.com/ads/api/creative_preview.php?cid=6003977351165\np9469\nsVid\np9470\nV6003977351165\np9471\nsVimage_url\np9472\nVhttps://fbcdn-creative-a.akamaihd.net/hads-ak-prn1/s110x80/708180_6006844841965_32316_n.jpg\np9473\nsVcount_current_adgroups\np9474\nI0\nsVrun_status\np9475\nI1\nsVtype\np9476\nI1\nsVlink_url\np9477\nVhttp://buzzfeed.com/ht/kennethcole/friend-out-of-pick-up-lines-49vl/HFAA1\np9478\nsVview_tag\np9479\ng37\nsa(dp9480\nValt_view_tags\np9481\n(lp9482\nsVbody\np9483\nVThose dance moves arent helping you fill that large bed of yours. Trust us. Connecting101 A Guide to Closing the Deal\np9484\nsVimage_hash\np9485\nV2c47bddb4c2eed51ddf6fc1496bcc1db\np9486\nsVname\np9487\nVHumping Isnt Dancing\np9488\nsVtitle\np9489\nVHumping Isnt Dancing\np9490\nsVcreative_id\np9491\nV6003977353565\np9492\nsVpreview_url\np9493\nVhttp://www.facebook.com/ads/api/creative_preview.php?cid=6003977353565\np9494\nsVid\np9495\nV6003977353565\np9496\nsVimage_url\np9497\nVhttps://fbcdn-creative-a.akamaihd.net/hads-ak-prn1/s110x80/708181_6006844317565_20339_n.jpg\np9498\nsVcount_current_adgroups\np9499\nI0\nsVrun_status\np9500\nI1\nsVtype\np9501\nI1\nsVlink_url\np9502\nVhttp://buzzfeed.com/ht/kennethcole/humping-isnt-dancing-49vl/HFAA1\np9503\nsVview_tag\np9504\ng37\nsa(dp9505\nValt_view_tags\np9506\n(lp9507\nsVbody\np9508\nVThey never really worked anyway Help him get some new game with Connecting101\np9509\nsVimage_hash\np9510\nV8441153a78ba76cfa64f7b2dbe628bc1\np9511\nsVname\np9512\nVFriend Out Of PickUp Li\np9513\nsVtitle\np9514\nVFriend Out Of PickUp Li\np9515\nsVcreative_id\np9516\nV6004005463365\np9517\nsVpreview_url\np9518\nVhttp://www.facebook.com/ads/api/creative_preview.php?cid=6004005463365\np9519\nsVid\np9520\nV6004005463365\np9521\nsVimage_url\np9522\nVhttps://fbcdn-creative-a.akamaihd.net/hads-ak-prn1/s110x80/708180_6006844841965_32316_n.jpg\np9523\nsVcount_current_adgroups\np9524\nI0\nsVrun_status\np9525\nI1\nsVtype\np9526\nI1\nsVlink_url\np9527\nVhttp://buzzfeed.com/ht/kennethcole/friend-out-of-pick-up-lines-49vl/HFAA1\np9528\nsVview_tag\np9529\ng37\nsa(dp9530\nValt_view_tags\np9531\n(lp9532\nsVbody\np9533\nVThose dance moves aren't helping you fill that large bed of yours. Trust us. Connecting101 A Guide to Closing the Deal\np9534\nsVimage_hash\np9535\nV2c47bddb4c2eed51ddf6fc1496bcc1db\np9536\nsVname\np9537\nVHumping Isn't Dancing-00\np9538\nsVtitle\np9539\nVHumping Isn't Dancing\np9540\nsVcreative_id\np9541\nV6004005465765\np9542\nsVpreview_url\np9543\nVhttp://www.facebook.com/ads/api/creative_preview.php?cid=6004005465765\np9544\nsVid\np9545\nV6004005465765\np9546\nsVimage_url\np9547\nVhttps://fbcdn-creative-a.akamaihd.net/hads-ak-prn1/s110x80/708181_6006844317565_20339_n.jpg\np9548\nsVcount_current_adgroups\np9549\nI0\nsVrun_status\np9550\nI1\nsVtype\np9551\nI1\nsVlink_url\np9552\nVhttp://buzzfeed.com/ht/kennethcole/humping-isnt-dancing-49vl/HFAA1\np9553\nsVview_tag\np9554\ng37\nsa(dp9555\nValt_view_tags\np9556\n(lp9557\nsVbody\np9558\nVThey never really worked anyway Help him get some new game with Connecting101\np9559\nsVimage_hash\np9560\nV8441153a78ba76cfa64f7b2dbe628bc1\np9561\nsVname\np9562\nVFriend Out Of PickUp Li -00\np9563\nsVtitle\np9564\nVFriend Out Of PickUp Li \np9565\nsVcreative_id\np9566\nV6004006100165\np9567\nsVpreview_url\np9568\nVhttp://www.facebook.com/ads/api/creative_preview.php?cid=6004006100165\np9569\nsVid\np9570\nV6004006100165\np9571\nsVimage_url\np9572\nVhttps://fbcdn-creative-a.akamaihd.net/hads-ak-prn1/s110x80/708180_6006844841965_32316_n.jpg\np9573\nsVcount_current_adgroups\np9574\nI0\nsVrun_status\np9575\nI1\nsVtype\np9576\nI1\nsVlink_url\np9577\nVhttp://buzzfeed.com/ht/kennethcole/friend-out-of-pick-up-lines-49vl/HFAA1\np9578\nsVview_tag\np9579\ng37\nsa(dp9580\nValt_view_tags\np9581\n(lp9582\nsVbody\np9583\nVThose dance moves aren't helping you fill that large bed of yours. Trust us. Connecting101 A Guide to Closing the Deal\np9584\nsVimage_hash\np9585\nV2c47bddb4c2eed51ddf6fc1496bcc1db\np9586\nsVname\np9587\nVHumping Isn't Dancing -00\np9588\nsVtitle\np9589\nVHumping Isn't Dancing \np9590\nsVcreative_id\np9591\nV6004006119965\np9592\nsVpreview_url\np9593\nVhttp://www.facebook.com/ads/api/creat"
p6
sS'hash'
p7
S'1583c7c82469013a6afd758f5d0deb803d8f9c3b'
p8
sS'stack'
p9
S''
s.