(dp1
S'args'
p2
S''
sS'methodname'
p3
S''
sS'packet_num'
p4
I50
sS'returnval'
p5
S'om/ht/lacoste/the-12-hottest-swimsuit-models/HFAA1\np6154\nsVview_tag\np6155\ng37\nsa(dp6156\nValt_view_tags\np6157\n(lp6158\nsVbody\np6159\nVAre existing customers eight times more valuable than new customers? See how loyal customers are a\'goldmine\' compared to new customers!\np6160\nsVimage_hash\np6161\nVd008939226daa651e404749ff63f5a42\np6162\nsVname\np6163\nVMining Customers GOLD!\np6164\nsVtitle\np6165\nVMining Customers GOLD!\np6166\nsVcreative_id\np6167\nV6003663120165\np6168\nsVpreview_url\np6169\nVhttp://www.facebook.com/ads/api/creative_preview.php?cid=6003663120165\np6170\nsVid\np6171\nV6003663120165\np6172\nsVimage_url\np6173\nVhttps://fbcdn-creative-a.akamaihd.net/hads-ak-ash3/s110x80/708192_6006845296565_29610_n.jpg\np6174\nsVcount_current_adgroups\np6175\nI0\nsVrun_status\np6176\nI1\nsVtype\np6177\nI1\nsVlink_url\np6178\nVhttp://bzfd.it/r6F6XM\np6179\nsVview_tag\np6180\ng37\nsa(dp6181\nValt_view_tags\np6182\n(lp6183\nsVbody\np6184\nVAre existing customers eight times more valuable than new customers? See how loyal customers are a\'goldmine\' compared to new customers!\np6185\nsVimage_hash\np6186\nVd29ac9f60b4ed145222dc53877a04719\np6187\nsVname\np6188\nVHold Onto Your Own GOLD!\np6189\nsVtitle\np6190\nVHold Onto Your Own GOLD!\np6191\nsVcreative_id\np6192\nV6003663128365\np6193\nsVpreview_url\np6194\nVhttp://www.facebook.com/ads/api/creative_preview.php?cid=6003663128365\np6195\nsVid\np6196\nV6003663128365\np6197\nsVimage_url\np6198\nVhttps://fbcdn-creative-a.akamaihd.net/hads-ak-ash3/s110x80/701888_6006845309365_4720_n.jpg\np6199\nsVcount_current_adgroups\np6200\nI0\nsVrun_status\np6201\nI1\nsVtype\np6202\nI1\nsVlink_url\np6203\nVhttp://bzfd.it/r6F6XM\np6204\nsVview_tag\np6205\ng37\nsa(dp6206\nValt_view_tags\np6207\n(lp6208\nsVbody\np6209\nVThe World Wide Web was an idea that changed the world. Has it dulled our experimentation with and development of new ideas? Read More!\np6210\nsVimage_hash\np6211\nV501dc84e6c47e9906a80b5ea4f80bde6\np6212\nsVname\np6213\nVIdeas Changing The World!\np6214\nsVtitle\np6215\nVIdeas Changing The World!\np6216\nsVcreative_id\np6217\nV6003753100165\np6218\nsVpreview_url\np6219\nVhttp://www.facebook.com/ads/api/creative_preview.php?cid=6003753100165\np6220\nsVid\np6221\nV6003753100165\np6222\nsVimage_url\np6223\nVhttps://fbcdn-creative-a.akamaihd.net/hads-ak-prn1/s110x80/708192_6006844550565_37908_n.jpg\np6224\nsVcount_current_adgroups\np6225\nI0\nsVrun_status\np6226\nI1\nsVtype\np6227\nI1\nsVlink_url\np6228\nVhttp://bzfd.it/r9XLBP\np6229\nsVview_tag\np6230\ng37\nsa(dp6231\nValt_view_tags\np6232\n(lp6233\nsVbody\np6234\nVThere are some things you just can\\u2019t wear to a wedding. Check out our compilation of "Seriously Ridiculous Wedding Attire". Seen worse?\np6235\nsVimage_hash\np6236\nV9a452e778f35ca2f7e0dca6f8da6ad63\np6237\nsVname\np6238\nVRidiculous Wedding Attire\np6239\nsVtitle\np6240\nVRidiculous Wedding Attire\np6241\nsVcreative_id\np6242\nV6003689417365\np6243\nsVpreview_url\np6244\nVhttp://www.facebook.com/ads/api/creative_preview.php?cid=6003689417365\np6245\nsVid\np6246\nV6003689417365\np6247\nsVimage_url\np6248\nVhttps://fbcdn-creative-a.akamaihd.net/hads-ak-prn1/s110x80/708163_6006844970765_15799_n.jpg\np6249\nsVcount_current_adgroups\np6250\nI0\nsVrun_status\np6251\nI1\nsVtype\np6252\nI1\nsVlink_url\np6253\nVhttp://bzfd.it/nNwwem\np6254\nsVview_tag\np6255\ng37\nsa(dp6256\nValt_view_tags\np6257\n(lp6258\nsVbody\np6259\nVJust one of "The 10 Most Epic Turnarounds" on BuzzFeed!\np6260\nsVimage_hash\np6261\nV39243797aff3dc51593284ff64990b27\np6262\nsVname\np6263\nVKobe vs Lebron-00\np6264\nsVtitle\np6265\nVTony Hawk Nails the 900\np6266\nsVcreative_id\np6267\nV6005798747965\np6268\nsVpreview_url\np6269\nVhttp://www.facebook.com/ads/api/creative_preview.php?cid=6005798747965\np6270\nsVid\np6271\nV6005798747965\np6272\nsVimage_url\np6273\nVhttps://fbcdn-creative-a.akamaihd.net/hads-ak-ash3/s110x80/701904_6006844384165_8565_n.jpg\np6274\nsVcount_current_adgroups\np6275\nI0\nsVrun_status\np6276\nI1\nsVtype\np6277\nI1\nsVlink_url\np6278\nVhttp://www.buzzfeed.com/h1/fbad/browseryoulovedtohate/the-10-most-epic-turnarounds\np6279\nsVview_tag\np6280\ng37\nsa(dp6281\nValt_view_tags\np6282\n(lp6283\nsVbody\np6284\nVJust one of "The 13 Most Common Misconceptions" on BuzzFeed!\np6285\nsVimage_hash\np6286\nV20fcacc16e3a9357b61127d426eb0b29\np6287\nsVna'
p6
sS'hash'
p7
S'1583c7c82469013a6afd758f5d0deb803d8f9c3b'
p8
sS'stack'
p9
S''
s.