(dp1
S'args'
p2
S''
sS'methodname'
p3
S''
sS'packet_num'
p4
I24
sS'returnval'
p5
S'4380079\np3094\nsVname\np3095\nVWeird Hilarious Mascots!-04\np3096\nsVtitle\np3097\nVWeird Hilarious Mascots!\np3098\nsVcreative_id\np3099\nV6004015549765\np3100\nsVpreview_url\np3101\nVhttp://www.facebook.com/ads/api/creative_preview.php?cid=6004015549765\np3102\nsVid\np3103\nV6004015549765\np3104\nsVimage_url\np3105\nVhttps://fbcdn-creative-a.akamaihd.net/hads-ak-ash3/s110x80/708182_6006844798565_49670_n.jpg\np3106\nsVcount_current_adgroups\np3107\nI1\nsVrun_status\np3108\nI1\nsVtype\np3109\nI1\nsVlink_url\np3110\nVhttp://www.buzzfeed.com/h1/fba/capitalone/10-weird-and-hilarious-college-mascots\np3111\nsVview_tag\np3112\ng37\nsa(dp3113\nValt_view_tags\np3114\n(lp3115\nsVbody\np3116\nVMike McQueary saw Jerry Sandusky commit a crime. Every witness, including Joe Paterno, lost their job except Mike.  Read more on Slate!\np3117\nsVimage_hash\np3118\nV0022a300d178baf4aae48e02eb09f953\np3119\nsVname\np3120\nVUpdates On Jerry Sandusky\np3121\nsVtitle\np3122\nVUpdates On Jerry Sandusky\np3123\nsVcreative_id\np3124\nV6004009834565\np3125\nsVpreview_url\np3126\nVhttp://www.facebook.com/ads/api/creative_preview.php?cid=6004009834565\np3127\nsVid\np3128\nV6004009834565\np3129\nsVimage_url\np3130\nVhttps://fbcdn-creative-a.akamaihd.net/hads-ak-prn1/s110x80/708187_6006844049765_58606_n.jpg\np3131\nsVcount_current_adgroups\np3132\nI0\nsVrun_status\np3133\nI1\nsVtype\np3134\nI1\nsVlink_url\np3135\nVhttp://www.slate.com/articles/sports/sports_nut/2011/11/mike_mcqueary_he_says_that_he_saw_jerry_sandusky_sexually_assault_a_child_why_does_he_still_have_a_job_at_penn_state_.html#bfsrc=HFBA2\np3136\nsVview_tag\np3137\ng37\nsa(dp3138\nValt_view_tags\np3139\n(lp3140\nsVbody\np3141\nVSlate intercepted the message between Russian Prime Minister Vladimir Putin to his clise friend, Silvio Berlusconi.  Read more here!\np3142\nsVimage_hash\np3143\nV5a28d039388e88c61f758540bfc0e27a\np3144\nsVname\np3145\nVPutin and Berlusconi\np3146\nsVtitle\np3147\nVPutin and Berlusconi\np3148\nsVcreative_id\np3149\nV6004009812365\np3150\nsVpreview_url\np3151\nVhttp://www.facebook.com/ads/api/creative_preview.php?cid=6004009812365\np3152\nsVid\np3153\nV6004009812365\np3154\nsVimage_url\np3155\nVhttps://fbcdn-creative-a.akamaihd.net/hads-ak-ash3/s110x80/708164_6006844608365_515_n.jpg\np3156\nsVcount_current_adgroups\np3157\nI1\nsVrun_status\np3158\nI1\nsVtype\np3159\nI1\nsVlink_url\np3160\nVhttp://www.slate.com/articles/news_and_politics/low_concept/2011/11/vladimir_putin_and_silvio_berlusconi_putin_s_sweet_attempt_to_cheer_up_his_italian_friend_.html#bfsrc=HFBA2\np3161\nsVview_tag\np3162\ng37\nsa(dp3163\nValt_view_tags\np3164\n(lp3165\nsVbody\np3166\nVWhatever happened to Google+ ? Do they stand a chance against Facebook? Get the answers and more at Slate in "Google+ is Dead" !\np3167\nsVimage_hash\np3168\nVf486e5921b9b33e59899f57de69a546a\np3169\nsVname\np3170\nVGoogle+ vs. Facebook\np3171\nsVtitle\np3172\nVGoogle+ vs. Facebook\np3173\nsVcreative_id\np3174\nV6004005788365\np3175\nsVpreview_url\np3176\nVhttp://www.facebook.com/ads/api/creative_preview.php?cid=6004005788365\np3177\nsVid\np3178\nV6004005788365\np3179\nsVimage_url\np3180\nVhttps://fbcdn-creative-a.akamaihd.net/hads-ak-ash3/s110x80/701891_6006845527365_10687_n.jpg\np3181\nsVcount_current_adgroups\np3182\nI0\nsVrun_status\np3183\nI1\nsVtype\np3184\nI1\nsVlink_url\np3185\nVhttp://www.slate.com/articles/technology/technology/2011/11/google_had_a_chance_to_compete_with_facebook_not_anymore_.html#bfsrc=HFBA2\np3186\nsVview_tag\np3187\ng37\nsa(dp3188\nValt_view_tags\np3189\n(lp3190\nsVbody\np3191\nVDwight Arrington a.k.a. "Heavy D" died yesterday. Learn about his life and influence on the music world in this Slate Exclusive!\np3192\nsVimage_hash\np3193\nV4733492e4a48e6130c51582fd7fe07e7\np3194\nsVname\np3195\nVR.I.P. Heavy D\np3196\nsVtitle\np3197\nVR.I.P. Heavy D\np3198\nsVcreative_id\np3199\nV6004005448565\np3200\nsVpreview_url\np3201\nVhttp://www.facebook.com/ads/api/creative_preview.php?cid=6004005448565\np3202\nsVid\np3203\nV6004005448565\np3204\nsVimage_url\np3205\nVhttps://fbcdn-creative-a.akamaihd.net/hads-ak-ash3/s110x80/708181_6006844483165_33804_n.jpg\np3206\nsVcount_current_adgroups\np3207\nI0\nsVrun_status\np3208\nI1\nsVtype\np3209\nI1\nsVlink_url\np3210\nVhttp://www.slate.com/blogs/browbeat/2011/11/09/heavy_d_how_he_changed_the_way_we'
p6
sS'hash'
p7
S'1583c7c82469013a6afd758f5d0deb803d8f9c3b'
p8
sS'stack'
p9
S''
s.