(dp1
S'args'
p2
S''
sS'methodname'
p3
S''
sS'packet_num'
p4
I53
sS'returnval'
p5
S'\np6554\nsVview_tag\np6555\ng37\nsa(dp6556\nValt_view_tags\np6557\n(lp6558\nsVbody\np6559\nVCheck out an awesome clip from this season of Death Valley and don\\u2019t miss the premiere tonight at 10:30/9:30c. Only on MTV.\np6560\nsVimage_hash\np6561\nV94985fcdc5c4d4ad9f62c786b17bad08\np6562\nsVname\np6563\nVBloodthirsty Fiends!\np6564\nsVtitle\np6565\nVBloodthirsty Fiends!\np6566\nsVcreative_id\np6567\nV6003750176365\np6568\nsVpreview_url\np6569\nVhttp://www.facebook.com/ads/api/creative_preview.php?cid=6003750176365\np6570\nsVid\np6571\nV6003750176365\np6572\nsVimage_url\np6573\nVhttps://fbcdn-creative-a.akamaihd.net/hads-ak-ash3/s110x80/708196_6006844941565_54680_n.jpg\np6574\nsVcount_current_adgroups\np6575\nI0\nsVrun_status\np6576\nI1\nsVtype\np6577\nI1\nsVlink_url\np6578\nVhttp://bzfd.it/rf5ejg\np6579\nsVview_tag\np6580\ng37\nsa(dp6581\nValt_view_tags\np6582\n(lp6583\nsVbody\np6584\nVCheck out an awesome clip from this season of Death Valley and don\\u2019t miss the premiere tonight at 10:30/9:30c. Only on MTV.\np6585\nsVimage_hash\np6586\nVba83186610389ffa198edcdfea59ac51\np6587\nsVname\np6588\nVBloodthirsty Fiends!-00\np6589\nsVtitle\np6590\nVBloodthirsty Fiends!\np6591\nsVcreative_id\np6592\nV6003750178165\np6593\nsVpreview_url\np6594\nVhttp://www.facebook.com/ads/api/creative_preview.php?cid=6003750178165\np6595\nsVid\np6596\nV6003750178165\np6597\nsVimage_url\np6598\nVhttps://fbcdn-creative-a.akamaihd.net/hads-ak-ash3/s110x80/701889_6006845167165_48574_n.jpg\np6599\nsVcount_current_adgroups\np6600\nI0\nsVrun_status\np6601\nI1\nsVtype\np6602\nI1\nsVlink_url\np6603\nVhttp://bzfd.it/rf5ejg\np6604\nsVview_tag\np6605\ng37\nsa(dp6606\nValt_view_tags\np6607\n(lp6608\nsVbody\np6609\nVWatching extreme sports can be fun, but let\\u2019s be honest, the wipeouts are definitely the best part. Check out 5 of our favorites.\np6610\nsVimage_hash\np6611\nV94985fcdc5c4d4ad9f62c786b17bad08\np6612\nsVname\np6613\nV5 Extreme Sports Fails\np6614\nsVtitle\np6615\nV5 Extreme Sports Fails\np6616\nsVcreative_id\np6617\nV6003750170765\np6618\nsVpreview_url\np6619\nVhttp://www.facebook.com/ads/api/creative_preview.php?cid=6003750170765\np6620\nsVid\np6621\nV6003750170765\np6622\nsVimage_url\np6623\nVhttps://fbcdn-creative-a.akamaihd.net/hads-ak-ash3/s110x80/708196_6006844941565_54680_n.jpg\np6624\nsVcount_current_adgroups\np6625\nI0\nsVrun_status\np6626\nI1\nsVtype\np6627\nI1\nsVlink_url\np6628\nVhttp://bzfd.it/qxHNBJ\np6629\nsVview_tag\np6630\ng37\nsa(dp6631\nValt_view_tags\np6632\n(lp6633\nsVbody\np6634\nVNothing screams "walk of shame" like bedhead and a tousled outfit. These lovely people look like they had a wonderful night out.\np6635\nsVimage_hash\np6636\nV9bff07faeb99f207ee40d456e0c02d73\np6637\nsVname\np6638\nVBest Walk Shame Outfits-01\np6639\nsVtitle\np6640\nVBest Walk Shame Outfits\np6641\nsVcreative_id\np6642\nV6003752240765\np6643\nsVpreview_url\np6644\nVhttp://www.facebook.com/ads/api/creative_preview.php?cid=6003752240765\np6645\nsVid\np6646\nV6003752240765\np6647\nsVimage_url\np6648\nVhttps://fbcdn-creative-a.akamaihd.net/hads-ak-ash3/s110x80/701900_6006844980965_2432_n.jpg\np6649\nsVcount_current_adgroups\np6650\nI0\nsVrun_status\np6651\nI1\nsVtype\np6652\nI1\nsVlink_url\np6653\nVhttp://buzzfeed.com/ht/svedkavodka/the-best-walk-shame-outfits/HFAA1\np6654\nsVview_tag\np6655\ng37\nsa(dp6656\nValt_view_tags\np6657\n(lp6658\nsVbody\np6659\nVIn Connecticut, it is unlawful to educate dogs. Check out the rest of these "10 Absolutely Ridiculous Laws Involving Animals".\np6660\nsVimage_hash\np6661\nV476fce3a6c274fbcebe5228b3db9c10c\np6662\nsVname\np6663\nVRidiculous Animal Laws\np6664\nsVtitle\np6665\nVRidiculous Animal Laws\np6666\nsVcreative_id\np6667\nV6003750165365\np6668\nsVpreview_url\np6669\nVhttp://www.facebook.com/ads/api/creative_preview.php?cid=6003750165365\np6670\nsVid\np6671\nV6003750165365\np6672\nsVimage_url\np6673\nVhttps://fbcdn-creative-a.akamaihd.net/hads-ak-prn1/s110x80/708181_6006844484165_53325_n.jpg\np6674\nsVcount_current_adgroups\np6675\nI0\nsVrun_status\np6676\nI1\nsVtype\np6677\nI1\nsVlink_url\np6678\nVhttp://bzfd.it/nbtsMT\np6679\nsVview_tag\np6680\ng37\nsa(dp6681\nValt_view_tags\np6682\n(lp6683\nsVbody\np6684\nVWith fame, comes big money, big egos & the capability to do some pretty ridiculous things. Here are some who took it a step to far.\np6685\nsVimage_hash\np6686\nV77'
p6
sS'hash'
p7
S'1583c7c82469013a6afd758f5d0deb803d8f9c3b'
p8
sS'stack'
p9
S''
s.