(dp1
S'args'
p2
S''
sS'methodname'
p3
S''
sS'packet_num'
p4
I43
sS'returnval'
p5
S't/hads-ak-prn1/s110x80/708187_6006844616365_43702_n.jpg\np5299\nsVcount_current_adgroups\np5300\nI0\nsVrun_status\np5301\nI1\nsVtype\np5302\nI2\nsVlink_url\np5303\nVhttp://www.facebook.com/BuzzFeedPartner?sk=wall\np5304\nsVview_tag\np5305\ng37\nsa(dp5306\nValt_view_tags\np5307\n(lp5308\nsVbody\np5309\nVCheck out "The 20 Greatest South Park Fan Tributes". Seen any better ones? Remember to "Like" our page for more great stuff!\np5310\nsVimage_hash\np5311\nVee244a7c9b2f43f7002e10abdd79a9fc\np5312\nsVname\np5313\nVBuzzFeed Partner-30\np5314\nsVtitle\np5315\ng37\nsVcreative_id\np5316\nV6003853014765\np5317\nsVpreview_url\np5318\nVhttp://www.facebook.com/ads/api/creative_preview.php?cid=6003853014765\np5319\nsVobject_id\np5320\nI238205562866018\nsVid\np5321\nV6003853014765\np5322\nsVimage_url\np5323\nVhttps://fbcdn-creative-a.akamaihd.net/hads-ak-ash3/s110x80/708169_6006845491965_18485_n.jpg\np5324\nsVcount_current_adgroups\np5325\nI0\nsVrun_status\np5326\nI1\nsVtype\np5327\nI2\nsVlink_url\np5328\nVhttp://www.facebook.com/BuzzFeedPartner?sk=wall\np5329\nsVview_tag\np5330\ng37\nsa(dp5331\nValt_view_tags\np5332\n(lp5333\nsVbody\np5334\nVWhat happens when Schick and BuzzFeed partner up for a campaign? Introducing: RazorBombing - a fun new photo trend. Check it out!\np5335\nsVimage_hash\np5336\nV36f2b47eb09fba35221b91e8ddd756a9\np5337\nsVname\np5338\nVBuzzFeed-10\np5339\nsVtitle\np5340\ng37\nsVcreative_id\np5341\nV6003804035965\np5342\nsVpreview_url\np5343\nVhttp://www.facebook.com/ads/api/creative_preview.php?cid=6003804035965\np5344\nsVobject_id\np5345\nI21898300328\nsVid\np5346\nV6003804035965\np5347\nsVimage_url\np5348\nVhttps://fbcdn-creative-a.akamaihd.net/hads-ak-prn1/s110x80/708191_6006844370765_13545_n.jpg\np5349\nsVcount_current_adgroups\np5350\nI0\nsVrun_status\np5351\nI1\nsVtype\np5352\nI2\nsVlink_url\np5353\nVhttp://www.facebook.com/BuzzFeed?sk=wall\np5354\nsVview_tag\np5355\ng37\nsa(dp5356\nValt_view_tags\np5357\n(lp5358\nsVbody\np5359\nVBe careful when you check out "The Hottest Witches In Hollywood". these ladies are hot enough to cast a spell on you. Check it out Now!\np5360\nsVimage_hash\np5361\nV8beb9a00d842beed9f5ff47fcc656932\np5362\nsVname\np5363\nVHott Hollywood Witches!\np5364\nsVtitle\np5365\nVHott Hollywood Witches!\np5366\nsVcreative_id\np5367\nV6003799255365\np5368\nsVpreview_url\np5369\nVhttp://www.facebook.com/ads/api/creative_preview.php?cid=6003799255365\np5370\nsVid\np5371\nV6003799255365\np5372\nsVimage_url\np5373\nVhttps://fbcdn-creative-a.akamaihd.net/hads-ak-ash3/s110x80/708199_6006844883965_7172_n.jpg\np5374\nsVcount_current_adgroups\np5375\nI0\nsVrun_status\np5376\nI1\nsVtype\np5377\nI1\nsVlink_url\np5378\nVhttp://www.buzzfeed.com/ht/thecw/10-ways-magical-powers-could-make-your-everyday-li/HFBA1\np5379\nsVview_tag\np5380\ng37\nsa(dp5381\nValt_view_tags\np5382\n(lp5383\nsVbody\np5384\nVBe careful when you check out "The Hottest Witches In Hollywood". these ladies are hot enough to cast a spell on you. Check it out Now!\np5385\nsVimage_hash\np5386\nV8beb9a00d842beed9f5ff47fcc656932\np5387\nsVname\np5388\nVHollywood\'s Hot Witches!\np5389\nsVtitle\np5390\nVHollywood\'s Hot Witches!\np5391\nsVcreative_id\np5392\nV6003799257165\np5393\nsVpreview_url\np5394\nVhttp://www.facebook.com/ads/api/creative_preview.php?cid=6003799257165\np5395\nsVid\np5396\nV6003799257165\np5397\nsVimage_url\np5398\nVhttps://fbcdn-creative-a.akamaihd.net/hads-ak-ash3/s110x80/708199_6006844883965_7172_n.jpg\np5399\nsVcount_current_adgroups\np5400\nI0\nsVrun_status\np5401\nI1\nsVtype\np5402\nI1\nsVlink_url\np5403\nVhttp://www.buzzfeed.com/ht/thecw/10-ways-magical-powers-could-make-your-everyday-li/HFBA1\np5404\nsVview_tag\np5405\ng37\nsa(dp5406\nValt_view_tags\np5407\n(lp5408\nsVbody\np5409\nVBe careful when you check out "The Hottest Witches In Hollywood". these ladies are hot enough to cast a spell on you. Check it out Now!\np5410\nsVimage_hash\np5411\nV8beb9a00d842beed9f5ff47fcc656932\np5412\nsVname\np5413\nVHollywood\'s Hot Witches!-00\np5414\nsVtitle\np5415\nVHollywood\'s Hot Witches!\np5416\nsVcreative_id\np5417\nV6003799321565\np5418\nsVpreview_url\np5419\nVhttp://www.facebook.com/ads/api/creative_preview.php?cid=6003799321565\np5420\nsVid\np5421\nV6003799321565\np5422\nsVimage_url\np5423\nVhttps://fbcdn-creative-a.akamaihd.net/hads-ak-ash3/s110x80/708199_6006844883965_7172_n.jpg\n'
p6
sS'hash'
p7
S'1583c7c82469013a6afd758f5d0deb803d8f9c3b'
p8
sS'stack'
p9
S''
s.