(dp1
S'args'
p2
S''
sS'methodname'
p3
S''
sS'packet_num'
p4
I121
sS'returnval'
p5
S'\nI430782723615710\nsVcreative_id\np16381\nV6005126829565\np16382\nsVpreview_url\np16383\nVhttp://www.facebook.com/ads/api/creative_preview.php?cid=6005126829565\np16384\nsVobject_id\np16385\nV21898300328\np16386\nsVcount_current_adgroups\np16387\nI0\nsVrun_status\np16388\nI1\nsVtype\np16389\nI27\nsVid\np16390\nV6005126829565\np16391\nsa(dp16392\nVname\np16393\nVAd from a Page post #6005127035365\np16394\nsVauto_update\np16395\nI1\nsVstory_id\np16396\nI167255846737365\nsVcreative_id\np16397\nV6005127035365\np16398\nsVpreview_url\np16399\nVhttp://www.facebook.com/ads/api/creative_preview.php?cid=6005127035365\np16400\nsVobject_id\np16401\nV21898300328\np16402\nsVcount_current_adgroups\np16403\nI0\nsVrun_status\np16404\nI1\nsVtype\np16405\nI27\nsVid\np16406\nV6005127035365\np16407\nsa(dp16408\nVname\np16409\nVAd from a Page post #6005127125165\np16410\nsVauto_update\np16411\nI1\nsVstory_id\np16412\nI367664209947388\nsVcreative_id\np16413\nV6005127125165\np16414\nsVpreview_url\np16415\nVhttp://www.facebook.com/ads/api/creative_preview.php?cid=6005127125165\np16416\nsVobject_id\np16417\nV21898300328\np16418\nsVcount_current_adgroups\np16419\nI0\nsVrun_status\np16420\nI1\nsVtype\np16421\nI27\nsVid\np16422\nV6005127125165\np16423\nsa(dp16424\nVname\np16425\nVAd from a Page post #6005130242765\np16426\nsVauto_update\np16427\nI1\nsVstory_id\np16428\nI446376008722855\nsVcreative_id\np16429\nV6005130242765\np16430\nsVpreview_url\np16431\nVhttp://www.facebook.com/ads/api/creative_preview.php?cid=6005130242765\np16432\nsVobject_id\np16433\nV21898300328\np16434\nsVcount_current_adgroups\np16435\nI0\nsVrun_status\np16436\nI1\nsVtype\np16437\nI27\nsVid\np16438\nV6005130242765\np16439\nsa(dp16440\nVname\np16441\nVAd from a Page post #6005130362965\np16442\nsVauto_update\np16443\nI1\nsVstory_id\np16444\nV10150949493845329\np16445\nsVcreative_id\np16446\nV6005130362965\np16447\nsVpreview_url\np16448\nVhttp://www.facebook.com/ads/api/creative_preview.php?cid=6005130362965\np16449\nsVobject_id\np16450\nV21898300328\np16451\nsVcount_current_adgroups\np16452\nI0\nsVrun_status\np16453\nI1\nsVtype\np16454\nI27\nsVid\np16455\nV6005130362965\np16456\nsa(dp16457\nVname\np16458\nVAd from a Page post #6005130435765\np16459\nsVauto_update\np16460\nI1\nsVstory_id\np16461\nI300253550057586\nsVcreative_id\np16462\nV6005130435765\np16463\nsVpreview_url\np16464\nVhttp://www.facebook.com/ads/api/creative_preview.php?cid=6005130435765\np16465\nsVobject_id\np16466\nV21898300328\np16467\nsVcount_current_adgroups\np16468\nI0\nsVrun_status\np16469\nI1\nsVtype\np16470\nI27\nsVid\np16471\nV6005130435765\np16472\nsa(dp16473\nVname\np16474\nVAd from a Page post #6005130561965\np16475\nsVauto_update\np16476\nI1\nsVstory_id\np16477\nI303696396377650\nsVcreative_id\np16478\nV6005130561965\np16479\nsVpreview_url\np16480\nVhttp://www.facebook.com/ads/api/creative_preview.php?cid=6005130561965\np16481\nsVobject_id\np16482\nV21898300328\np16483\nsVcount_current_adgroups\np16484\nI0\nsVrun_status\np16485\nI1\nsVtype\np16486\nI27\nsVid\np16487\nV6005130561965\np16488\nsa(dp16489\nVname\np16490\nVAd from a Page post #6005135320365\np16491\nsVauto_update\np16492\nI1\nsVstory_id\np16493\nV10150950255860329\np16494\nsVcreative_id\np16495\nV6005135320365\np16496\nsVpreview_url\np16497\nVhttp://www.facebook.com/ads/api/creative_preview.php?cid=6005135320365\np16498\nsVobject_id\np16499\nV21898300328\np16500\nsVcount_current_adgroups\np16501\nI0\nsVrun_status\np16502\nI1\nsVtype\np16503\nI27\nsVid\np16504\nV6005135320365\np16505\nsa(dp16506\nVname\np16507\nVAd from a Page post #6005135401565\np16508\nsVauto_update\np16509\nI1\nsVstory_id\np16510\nI221940031255673\nsVcreative_id\np16511\nV6005135401565\np16512\nsVpreview_url\np16513\nVhttp://www.facebook.com/ads/api/creative_preview.php?cid=6005135401565\np16514\nsVobject_id\np16515\nV21898300328\np16516\nsVcount_current_adgroups\np16517\nI0\nsVrun_status\np16518\nI1\nsVtype\np16519\nI27\nsVid\np16520\nV6005135401565\np16521\nsa(dp16522\nVname\np16523\nVAd from a Page post #6005136489365\np16524\nsVauto_update\np16525\nI1\nsVstory_id\np16526\nI323396687733770\nsVcreative_id\np16527\nV6005136489365\np16528\nsVpreview_url\np16529\nVhttp://www.facebook.com/ads/api/creative_preview.php?cid=6005136489365\np16530\nsVobject_id\np16531\nV21898300328\np16532\nsVcount_current_adgroups\np16533\nI0\nsVrun_status\np16534\nI1\nsVtype\np16535\nI27\nsVid\np16536\nV6005136489365\np16537\nsa(dp1'
p6
sS'hash'
p7
S'1583c7c82469013a6afd758f5d0deb803d8f9c3b'
p8
sS'stack'
p9
S''
s.