(dp1
S'args'
p2
S''
sS'methodname'
p3
S''
sS'packet_num'
p4
I48
sS'returnval'
p5
S'Click here to check out our top ten quotes!\np5910\nsVimage_hash\np5911\nV178b0d8d40e8a097603900a13b21d5da\np5912\nsVname\np5913\nVBest Of Camperon Tucker!\np5914\nsVtitle\np5915\nVBest Of Camperon Tucker!\np5916\nsVcreative_id\np5917\nV6003783080965\np5918\nsVpreview_url\np5919\nVhttp://www.facebook.com/ads/api/creative_preview.php?cid=6003783080965\np5920\nsVid\np5921\nV6003783080965\np5922\nsVimage_url\np5923\nVhttps://fbcdn-creative-a.akamaihd.net/hads-ak-ash3/s110x80/708175_6006844198365_26702_n.jpg\np5924\nsVcount_current_adgroups\np5925\nI0\nsVrun_status\np5926\nI1\nsVtype\np5927\nI1\nsVlink_url\np5928\nVhttp://www.buzzfeed.com/ht/abcmodernfamily/the-top-10-cameron-tucker-quotes-from-modern-famil/HFBA1?utm_source=Facebook&utm_medium=Seed&utm_campaign=Modern_Family&utm_content=Cameron_Tucker\np5929\nsVview_tag\np5930\ng37\nsa(dp5931\nValt_view_tags\np5932\n(lp5933\nsVbody\np5934\nVCheck out this group of smoking hott ladies.  Out of the 12, which is your favorite one? Click here to see them all!\np5935\nsVimage_hash\np5936\nVc4fc44fc2acfc24f5bcfbc0c219dc7d6\np5937\nsVname\np5938\nVTwelve Hott Babes!\np5939\nsVtitle\np5940\nVTwelve Hott Babes!\np5941\nsVcreative_id\np5942\nV6003783026365\np5943\nsVpreview_url\np5944\nVhttp://www.facebook.com/ads/api/creative_preview.php?cid=6003783026365\np5945\nsVid\np5946\nV6003783026365\np5947\nsVimage_url\np5948\nVhttps://fbcdn-creative-a.akamaihd.net/hads-ak-ash3/s110x80/701899_6006845230565_57482_n.jpg\np5949\nsVcount_current_adgroups\np5950\nI0\nsVrun_status\np5951\nI1\nsVtype\np5952\nI1\nsVlink_url\np5953\nVhttp://www.buzzfeed.com/ht/sailorjerryrum/the-12-hottest-sailor-jerry-pin-ups/HFBA1?utm_source=Facebook&utm_medium=Seed&utm_campaign=Sailor_Jerry&utm_content=12_Hottest_Pin_Ups\np5954\nsVview_tag\np5955\ng37\nsa(dp5956\nValt_view_tags\np5957\n(lp5958\nsVbody\np5959\nVTired of everyday drinks? Try to concoct one of these tasty Sailor Jerry cocktails! These drinks will guarantee a successful night out!\np5960\nsVimage_hash\np5961\nV35b2dc7053a0469aabc3716e22d1f160\np5962\nsVname\np5963\nV10 Great Cocktail Ideas!\np5964\nsVtitle\np5965\nV10 Great Cocktail Ideas!\np5966\nsVcreative_id\np5967\nV6003795631965\np5968\nsVpreview_url\np5969\nVhttp://www.facebook.com/ads/api/creative_preview.php?cid=6003795631965\np5970\nsVid\np5971\nV6003795631965\np5972\nsVimage_url\np5973\nVhttps://fbcdn-creative-a.akamaihd.net/hads-ak-ash3/s110x80/708161_6006844363165_54887_n.jpg\np5974\nsVcount_current_adgroups\np5975\nI0\nsVrun_status\np5976\nI1\nsVtype\np5977\nI1\nsVlink_url\np5978\nVhttp://www.buzzfeed.com/ht/sailorjerryrum/10-timeless-sailor-jerry-cocktails/HFBA1?utm_source=Facebook&utm_medium=Seed&utm_campaign=Sailor_Jerry&utm_content=10_Timeless_Cocktails\np5979\nsVview_tag\np5980\ng37\nsa(dp5981\nValt_view_tags\np5982\n(lp5983\nsVbody\np5984\nVTired of everyday drinks? Try to concoct one of these tasty Sailor Jerry cocktails! These drinks will guarantee a successful night out!\np5985\nsVimage_hash\np5986\nVd4faa765c3bf3096a3508633a7afa8f6\np5987\nsVname\np5988\nV10 Great Cocktail Ideas!-00\np5989\nsVtitle\np5990\nV10 Great Cocktail Ideas!\np5991\nsVcreative_id\np5992\nV6003795692565\np5993\nsVpreview_url\np5994\nVhttp://www.facebook.com/ads/api/creative_preview.php?cid=6003795692565\np5995\nsVid\np5996\nV6003795692565\np5997\nsVimage_url\np5998\nVhttps://fbcdn-creative-a.akamaihd.net/hads-ak-prn1/s110x80/708164_6006845324965_57520_n.jpg\np5999\nsVcount_current_adgroups\np6000\nI0\nsVrun_status\np6001\nI1\nsVtype\np6002\nI1\nsVlink_url\np6003\nVhttp://www.buzzfeed.com/ht/sailorjerryrum/10-timeless-sailor-jerry-cocktails/HFBA1?utm_source=Facebook&utm_medium=Seed&utm_campaign=Sailor_Jerry&utm_content=10_Timeless_Cocktails\np6004\nsVview_tag\np6005\ng37\nsa(dp6006\nValt_view_tags\np6007\n(lp6008\nsVbody\np6009\nVDid you know Gweneth\'s mom is a famous actor also? Check out "10 Celebrities With Famous Parents" and remember to "Like" our page.\np6010\nsVimage_hash\np6011\nV9f525e8824e4218085302f62dd3f508b\np6012\nsVname\np6013\nVBuzzFeed Partner-20\np6014\nsVtitle\np6015\ng37\nsVcreative_id\np6016\nV6003764577165\np6017\nsVpreview_url\np6018\nVhttp://www.facebook.com/ads/api/creative_preview.php?cid=6003764577165\np6019\nsVobject_id\np6020\nI238205562866018\nsVid\np6021\nV6003764577165\np6022\nsVimage_url\np6023\nVhttps://fbcd'
p6
sS'hash'
p7
S'1583c7c82469013a6afd758f5d0deb803d8f9c3b'
p8
sS'stack'
p9
S''
s.