(dp1
S'args'
p2
S''
sS'methodname'
p3
S''
sS'packet_num'
p4
I13
sS'returnval'
p5
S'tive_preview.php?cid=6004473900365\np1727\nsVid\np1728\nV6004473900365\np1729\nsVimage_url\np1730\nVhttps://fbcdn-creative-a.akamaihd.net/hads-ak-ash3/s110x80/708199_6006845031965_15371_n.jpg\np1731\nsVcount_current_adgroups\np1732\nI1\nsVrun_status\np1733\nI1\nsVtype\np1734\nI1\nsVlink_url\np1735\nVhttp://www.buzzfeed.com/h1/fba/archer/the-top-10-most-important-spy-skills-4vas\np1736\nsVview_tag\np1737\ng37\nsa(dp1738\nValt_view_tags\np1739\n(lp1740\nsVbody\np1741\nVIf so, check out "The 10 Boldest Comedians" on BuzzFeed and see who else made the list.\np1742\nsVimage_hash\np1743\nV4d616af997108fb110881cfd5b40c46c\np1744\nsVname\np1745\nVLike Dave Chappelle?\np1746\nsVtitle\np1747\nVLike Dave Chappelle?\np1748\nsVcreative_id\np1749\nV6004452827165\np1750\nsVpreview_url\np1751\nVhttp://www.facebook.com/ads/api/creative_preview.php?cid=6004452827165\np1752\nsVid\np1753\nV6004452827165\np1754\nsVimage_url\np1755\nVhttps://fbcdn-creative-a.akamaihd.net/hads-ak-ash3/s110x80/701895_6006844526565_43080_n.jpg\np1756\nsVcount_current_adgroups\np1757\nI0\nsVrun_status\np1758\nI1\nsVtype\np1759\nI1\nsVlink_url\np1760\nVhttp://www.buzzfeed.com/h1/fba/billyonthestreet/the-boldest-comedians-of-our-time-4x71\np1761\nsVview_tag\np1762\ng37\nsa(dp1763\nValt_view_tags\np1764\n(lp1765\nsVbody\np1766\nVIf so, check out "The 10 Boldest Comedians" on BuzzFeed and see who else made the list.\np1767\nsVimage_hash\np1768\nVbf56a8e9ae778a1c1e5a5f1b5c983e11\np1769\nsVname\np1770\nVLike Sarah Silverman?\np1771\nsVtitle\np1772\nVLike Sarah Silverman?\np1773\nsVcreative_id\np1774\nV6004452835765\np1775\nsVpreview_url\np1776\nVhttp://www.facebook.com/ads/api/creative_preview.php?cid=6004452835765\np1777\nsVid\np1778\nV6004452835765\np1779\nsVimage_url\np1780\nVhttps://fbcdn-creative-a.akamaihd.net/hads-ak-prn1/s110x80/708192_6006845200965_24222_n.jpg\np1781\nsVcount_current_adgroups\np1782\nI0\nsVrun_status\np1783\nI1\nsVtype\np1784\nI1\nsVlink_url\np1785\nVhttp://www.buzzfeed.com/h1/fba/billyonthestreet/the-boldest-comedians-of-our-time-4x71\np1786\nsVview_tag\np1787\ng37\nsa(dp1788\nValt_view_tags\np1789\n(lp1790\nsVbody\np1791\nVIf so, check out "The 10 Boldest Comedians" on BuzzFeed and see who else made the list.\np1792\nsVimage_hash\np1793\nV1621d15c41050e465702ba0a9735b1aa\np1794\nsVname\np1795\nVLike Russell Brand?\np1796\nsVtitle\np1797\nVLike Russell Brand?\np1798\nsVcreative_id\np1799\nV6004452837965\np1800\nsVpreview_url\np1801\nVhttp://www.facebook.com/ads/api/creative_preview.php?cid=6004452837965\np1802\nsVid\np1803\nV6004452837965\np1804\nsVimage_url\np1805\nVhttps://fbcdn-creative-a.akamaihd.net/hads-ak-prn1/s110x80/708166_6006844190365_18242_n.jpg\np1806\nsVcount_current_adgroups\np1807\nI0\nsVrun_status\np1808\nI1\nsVtype\np1809\nI1\nsVlink_url\np1810\nVhttp://www.buzzfeed.com/h1/fba/billyonthestreet/the-boldest-comedians-of-our-time-4x71\np1811\nsVview_tag\np1812\ng37\nsa(dp1813\nValt_view_tags\np1814\n(lp1815\nsVbody\np1816\nVIf so, check out "The 10 Boldest Comedians" on BuzzFeed and see who else made the list.\np1817\nsVimage_hash\np1818\nV6fe14d20a82bede72fa3f3557f2f8076\np1819\nsVname\np1820\nVLike Daniel Tosh?\np1821\nsVtitle\np1822\nVLike Daniel Tosh?\np1823\nsVcreative_id\np1824\nV6004452841565\np1825\nsVpreview_url\np1826\nVhttp://www.facebook.com/ads/api/creative_preview.php?cid=6004452841565\np1827\nsVid\np1828\nV6004452841565\np1829\nsVimage_url\np1830\nVhttps://fbcdn-creative-a.akamaihd.net/hads-ak-snc7/s110x80/701899_6006844727565_37558_n.jpg\np1831\nsVcount_current_adgroups\np1832\nI0\nsVrun_status\np1833\nI1\nsVtype\np1834\nI1\nsVlink_url\np1835\nVhttp://www.buzzfeed.com/h1/fba/billyonthestreet/the-boldest-comedians-of-our-time-4x71\np1836\nsVview_tag\np1837\ng37\nsa(dp1838\nValt_view_tags\np1839\n(lp1840\nsVbody\np1841\nVCheck out the "7 People Who Would Do Anything For Super Bowl Tickets". Remeber to "Like" BuzzFeed for more great stuff!\np1842\nsVimage_hash\np1843\nV6fdba0c321203cef2c4b4c19f9b6f561\np1844\nsVname\np1845\nVBuzzFeed-37\np1846\nsVtitle\np1847\ng37\nsVcreative_id\np1848\nV6004395909165\np1849\nsVpreview_url\np1850\nVhttp://www.facebook.com/ads/api/creative_preview.php?cid=6004395909165\np1851\nsVobject_id\np1852\nI21898300328\nsVid\np1853\nV6004395909165\np1854\nsVimage_url\np1855\nVhttps://fbcdn-creative-a.akamaihd.net/hads-ak-ash3/s110x80/701899_6006844727365_20'
p6
sS'hash'
p7
S'1583c7c82469013a6afd758f5d0deb803d8f9c3b'
p8
sS'stack'
p9
S''
s.