(dp1
S'args'
p2
S''
sS'methodname'
p3
S''
sS'packet_num'
p4
I20
sS'returnval'
p5
S'\nsa(dp2613\nValt_view_tags\np2614\n(lp2615\nsVbody\np2616\nVCheck out BuzzFeed\'s list of "The Cheapest Bars In The Most Expensive Cities" and see if there is a local and affordable bar near you!\np2617\nsVimage_hash\np2618\nV42fe327482cfdac1006fd70a0ec8f2a9\np2619\nsVname\np2620\nVSan Francisco Cheap Bars!\np2621\nsVtitle\np2622\nVSan Francisco Cheap Bars!\np2623\nsVcreative_id\np2624\nV6004201769165\np2625\nsVpreview_url\np2626\nVhttp://www.facebook.com/ads/api/creative_preview.php?cid=6004201769165\np2627\nsVid\np2628\nV6004201769165\np2629\nsVimage_url\np2630\nVhttps://fbcdn-creative-a.akamaihd.net/hads-ak-prn1/s110x80/708194_6006844457965_3825_n.jpg\np2631\nsVcount_current_adgroups\np2632\nI0\nsVrun_status\np2633\nI1\nsVtype\np2634\nI1\nsVlink_url\np2635\nVhttp://www.buzzfeed.com/h1/fba/freecreditscore/the-cheapest-bars-in-the-most-expensive-cities\np2636\nsVview_tag\np2637\ng37\nsa(dp2638\nValt_view_tags\np2639\n(lp2640\nsVbody\np2641\nVCheck out BuzzFeed\'s list of "The Cheapest Bars In The Most Expensive Cities" and see if there is a local and affordable bar near you!\np2642\nsVimage_hash\np2643\nV42fe327482cfdac1006fd70a0ec8f2a9\np2644\nsVname\np2645\nVCheap Bars In Your Area!\np2646\nsVtitle\np2647\nVCheap Bars In Your Area!\np2648\nsVcreative_id\np2649\nV6004211220565\np2650\nsVpreview_url\np2651\nVhttp://www.facebook.com/ads/api/creative_preview.php?cid=6004211220565\np2652\nsVid\np2653\nV6004211220565\np2654\nsVimage_url\np2655\nVhttps://fbcdn-creative-a.akamaihd.net/hads-ak-prn1/s110x80/708194_6006844457965_3825_n.jpg\np2656\nsVcount_current_adgroups\np2657\nI1\nsVrun_status\np2658\nI1\nsVtype\np2659\nI1\nsVlink_url\np2660\nVhttp://www.buzzfeed.com/h1/fba/freecreditscore/the-cheapest-bars-in-the-most-expensive-cities\np2661\nsVview_tag\np2662\ng37\nsa(dp2663\nValt_view_tags\np2664\n(lp2665\nsVbody\np2666\nVFind out how to check if your favorite social network is secretly hiding messages from you by reading this Slate exclusive article!\np2667\nsVimage_hash\np2668\nVdfa4307f1727af70651f0f307b3dd261\np2669\nsVname\np2670\nVHidden Messages In Inbox?\np2671\nsVtitle\np2672\nVHidden Messages In Inbox?\np2673\nsVcreative_id\np2674\nV6004159418965\np2675\nsVpreview_url\np2676\nVhttp://www.facebook.com/ads/api/creative_preview.php?cid=6004159418965\np2677\nsVid\np2678\nV6004159418965\np2679\nsVimage_url\np2680\nVhttps://fbcdn-creative-a.akamaihd.net/hads-ak-ash3/s110x80/708169_6006845393165_63794_n.jpg\np2681\nsVcount_current_adgroups\np2682\nI2\nsVrun_status\np2683\nI1\nsVtype\np2684\nI1\nsVlink_url\np2685\nVhttp://www.slate.com/articles/technology/technology/2011/12/facebook_s_other_messages_mail_you_are_probably_missing.html#bfsrc=HFBA2\np2686\nsVview_tag\np2687\ng37\nsa(dp2688\nValt_view_tags\np2689\n(lp2690\nsVbody\np2691\nVSee how Tumblr, Facebook, Twitter, and Internet freedom as a whole are being threatened in Slate\'s "The Internet\'s Intolerable Acts" \np2692\nsVimage_hash\np2693\nV94b7dddae7f47303f8933509aee4615e\np2694\nsVname\np2695\nVShutting Down Tumblr?\np2696\nsVtitle\np2697\nVShutting Down Tumblr?\np2698\nsVcreative_id\np2699\nV6004157351365\np2700\nsVpreview_url\np2701\nVhttp://www.facebook.com/ads/api/creative_preview.php?cid=6004157351365\np2702\nsVid\np2703\nV6004157351365\np2704\nsVimage_url\np2705\nVhttps://fbcdn-creative-a.akamaihd.net/hads-ak-prn1/s110x80/708196_6006844942365_43095_n.jpg\np2706\nsVcount_current_adgroups\np2707\nI0\nsVrun_status\np2708\nI1\nsVtype\np2709\nI1\nsVlink_url\np2710\nVhttp://www.slate.com/articles/technology/technocracy/2011/12/stop_online_piracy_act_and_protect_ip_act_a_pair_of_bills_that_threaten_internet_freedom_.html#bfsrc=HFBA2\np2711\nsVview_tag\np2712\ng37\nsa(dp2713\nValt_view_tags\np2714\n(lp2715\nsVbody\np2716\nVCheck out Slate\'s list of "The Top Five Truly Bad Christmas Movies" to Get an idea of what movies to stay away from this Holiday Season\np2717\nsVimage_hash\np2718\nV53341753b58a82e169381182fa03b12f\np2719\nsVname\np2720\nVTerrible Christmas Movies\np2721\nsVtitle\np2722\nVTerrible Christmas Movies\np2723\nsVcreative_id\np2724\nV6004134119965\np2725\nsVpreview_url\np2726\nVhttp://www.facebook.com/ads/api/creative_preview.php?cid=6004134119965\np2727\nsVid\np2728\nV6004134119965\np2729\nsVimage_url\np2730\nVhttps://fbcdn-creative-a.akamaihd.net/hads-ak-ash3/s110x80/708166_6006844574565_4'
p6
sS'hash'
p7
S'1583c7c82469013a6afd758f5d0deb803d8f9c3b'
p8
sS'stack'
p9
S''
s.