(dp1
S'args'
p2
S''
sS'methodname'
p3
S''
sS'packet_num'
p4
I40
sS'returnval'
p5
S'p4921\nV6005839188765\np4922\nsVimage_url\np4923\nVhttps://fbcdn-creative-a.akamaihd.net/hads-ak-ash3/s110x80/708183_6006844700365_52997_n.jpg\np4924\nsVcount_current_adgroups\np4925\nI0\nsVrun_status\np4926\nI1\nsVtype\np4927\nI1\nsVlink_url\np4928\nVhttp://www.buzzfeed.com/h1/fbad/microsoftbing/11-of-the-most-unexpected-upsets-ever\np4929\nsVview_tag\np4930\ng37\nsa(dp4931\nValt_view_tags\np4932\n(lp4933\nsVbody\np4934\nVBoth were key to today\'s tech, but Edison is more known. See more unexpected upsets!\np4935\nsVimage_hash\np4936\nVa7bbdc98c0209b2c3c95cd48f6c87ac0\np4937\nsVname\np4938\nVGiants 2008 Superbowl-00\np4939\nsVtitle\np4940\nVEdison vs Tesla\np4941\nsVcreative_id\np4942\nV6005839243165\np4943\nsVpreview_url\np4944\nVhttp://www.facebook.com/ads/api/creative_preview.php?cid=6005839243165\np4945\nsVid\np4946\nV6005839243165\np4947\nsVimage_url\np4948\nVhttps://fbcdn-creative-a.akamaihd.net/hads-ak-ash3/s110x80/708184_6006845060165_32944_n.jpg\np4949\nsVcount_current_adgroups\np4950\nI0\nsVrun_status\np4951\nI1\nsVtype\np4952\nI1\nsVlink_url\np4953\nVhttp://www.buzzfeed.com/h1/fbad/microsoftbing/11-of-the-most-unexpected-upsets-ever\np4954\nsVview_tag\np4955\ng37\nsa(dp4956\nValt_view_tags\np4957\n(lp4958\nsVbody\np4959\nVComedy Central roasts just keep getting better. On the way to the Roast of Charlie Sheen, come check out the best roasts of all time!\np4960\nsVimage_hash\np4961\nV35350c0079a835ca4cd3999fc6e32f9a\np4962\nsVname\np4963\nVComedy Central Roasts!\np4964\nsVtitle\np4965\nVComedy Central Roasts!\np4966\nsVcreative_id\np4967\nV6003807697165\np4968\nsVpreview_url\np4969\nVhttp://www.facebook.com/ads/api/creative_preview.php?cid=6003807697165\np4970\nsVid\np4971\nV6003807697165\np4972\nsVimage_url\np4973\nVhttps://fbcdn-creative-a.akamaihd.net/hads-ak-prn1/s110x80/708161_6006844360565_41739_n.jpg\np4974\nsVcount_current_adgroups\np4975\nI0\nsVrun_status\np4976\nI1\nsVtype\np4977\nI1\nsVlink_url\np4978\nVhttp://www.buzzfeed.com/ht/theroastofcharliesheen/the-best-of-comedy-centrals-roast/HFBA1\np4979\nsVview_tag\np4980\ng37\nsa(dp4981\nValt_view_tags\np4982\n(lp4983\nsVbody\np4984\nVComedy Central roasts just keep getting better. On the way to the Roast of Charlie Sheen, come check out the best roasts of all time!\np4985\nsVimage_hash\np4986\nV35350c0079a835ca4cd3999fc6e32f9a\np4987\nsVname\np4988\nVRoast Coming Soon!\np4989\nsVtitle\np4990\nVRoast Coming Soon!\np4991\nsVcreative_id\np4992\nV6003807698965\np4993\nsVpreview_url\np4994\nVhttp://www.facebook.com/ads/api/creative_preview.php?cid=6003807698965\np4995\nsVid\np4996\nV6003807698965\np4997\nsVimage_url\np4998\nVhttps://fbcdn-creative-a.akamaihd.net/hads-ak-prn1/s110x80/708161_6006844360565_41739_n.jpg\np4999\nsVcount_current_adgroups\np5000\nI0\nsVrun_status\np5001\nI1\nsVtype\np5002\nI1\nsVlink_url\np5003\nVhttp://www.buzzfeed.com/ht/theroastofcharliesheen/the-best-of-comedy-centrals-roast/HFBA1\np5004\nsVview_tag\np5005\ng37\nsa(dp5006\nValt_view_tags\np5007\n(lp5008\nsVbody\np5009\nVComedy Central roasts just keep getting better. On the way to the Roast of Charlie Sheen, come check out the best roasts of all time!\np5010\nsVimage_hash\np5011\nV491220698f72a30721a15551706143c2\np5012\nsVname\np5013\nVCharlie Sheen Roast!\np5014\nsVtitle\np5015\nVCharlie Sheen Roast!\np5016\nsVcreative_id\np5017\nV6003807706565\np5018\nsVpreview_url\np5019\nVhttp://www.facebook.com/ads/api/creative_preview.php?cid=6003807706565\np5020\nsVid\np5021\nV6003807706565\np5022\nsVimage_url\np5023\nVhttps://fbcdn-creative-a.akamaihd.net/hads-ak-ash3/s110x80/708187_6006844493165_51223_n.jpg\np5024\nsVcount_current_adgroups\np5025\nI0\nsVrun_status\np5026\nI1\nsVtype\np5027\nI1\nsVlink_url\np5028\nVhttp://www.buzzfeed.com/ht/theroastofcharliesheen/the-best-of-comedy-centrals-roast/HFBA1\np5029\nsVview_tag\np5030\ng37\nsa(dp5031\nValt_view_tags\np5032\n(lp5033\nsVbody\np5034\nVCheck out our list of "The Best Comedy Central Roasts" and get ready for the roast of Charlie Sheen! You won\'t want to miss that one!\np5035\nsVimage_hash\np5036\nVed7294aa09e92dfe244d960ad66f79b2\np5037\nsVname\np5038\nVBest Comedy Central Roast\np5039\nsVtitle\np5040\nVBest Comedy Central Roast\np5041\nsVcreative_id\np5042\nV6003808328765\np5043\nsVpreview_url\np5044\nVhttp://www.facebook.com/ads/api/creative_preview.php?cid=6003808328765\np5045\nsVi'
p6
sS'hash'
p7
S'1583c7c82469013a6afd758f5d0deb803d8f9c3b'
p8
sS'stack'
p9
S''
s.