(dp1
S'args'
p2
S''
sS'methodname'
p3
S''
sS'packet_num'
p4
I94
sS'returnval'
p5
S'58\nI300400369988971\nsVcreative_id\np12059\nV6003974826165\np12060\nsVpreview_url\np12061\nVhttp://www.facebook.com/ads/api/creative_preview.php?cid=6003974826165\np12062\nsVobject_id\np12063\nV21898300328\np12064\nsVcount_current_adgroups\np12065\nI0\nsVrun_status\np12066\nI1\nsVtype\np12067\nI27\nsVid\np12068\nV6003974826165\np12069\nsa(dp12070\nVname\np12071\nVPage Post Ad #6003977385165\np12072\nsVauto_update\np12073\nI1\nsVstory_id\np12074\nV10150455530215329\np12075\nsVcreative_id\np12076\nV6003977385165\np12077\nsVpreview_url\np12078\nVhttp://www.facebook.com/ads/api/creative_preview.php?cid=6003977385165\np12079\nsVobject_id\np12080\nV21898300328\np12081\nsVcount_current_adgroups\np12082\nI0\nsVrun_status\np12083\nI1\nsVtype\np12084\nI27\nsVid\np12085\nV6003977385165\np12086\nsa(dp12087\nVname\np12088\nVPage Post Ad #6003984265765\np12089\nsVauto_update\np12090\nI1\nsVstory_id\np12091\nI222127431188370\nsVcreative_id\np12092\nV6003984265765\np12093\nsVpreview_url\np12094\nVhttp://www.facebook.com/ads/api/creative_preview.php?cid=6003984265765\np12095\nsVobject_id\np12096\nV21898300328\np12097\nsVcount_current_adgroups\np12098\nI0\nsVrun_status\np12099\nI1\nsVtype\np12100\nI27\nsVid\np12101\nV6003984265765\np12102\nsa(dp12103\nVname\np12104\nVPage Post Ad #6003984553965\np12105\nsVauto_update\np12106\nI1\nsVstory_id\np12107\nI220512901349337\nsVcreative_id\np12108\nV6003984553965\np12109\nsVpreview_url\np12110\nVhttp://www.facebook.com/ads/api/creative_preview.php?cid=6003984553965\np12111\nsVobject_id\np12112\nV21898300328\np12113\nsVcount_current_adgroups\np12114\nI0\nsVrun_status\np12115\nI1\nsVtype\np12116\nI27\nsVid\np12117\nV6003984553965\np12118\nsa(dp12119\nVname\np12120\nVPage Post Ad #6003993612365\np12121\nsVauto_update\np12122\nI1\nsVstory_id\np12123\nI120759844700703\nsVcreative_id\np12124\nV6003993612365\np12125\nsVpreview_url\np12126\nVhttp://www.facebook.com/ads/api/creative_preview.php?cid=6003993612365\np12127\nsVobject_id\np12128\nV21898300328\np12129\nsVcount_current_adgroups\np12130\nI0\nsVrun_status\np12131\nI1\nsVtype\np12132\nI27\nsVid\np12133\nV6003993612365\np12134\nsa(dp12135\nVname\np12136\nVPage Post Ad #6003997484765\np12137\nsVauto_update\np12138\nI1\nsVstory_id\np12139\nI197136727029845\nsVcreative_id\np12140\nV6003997484765\np12141\nsVpreview_url\np12142\nVhttp://www.facebook.com/ads/api/creative_preview.php?cid=6003997484765\np12143\nsVobject_id\np12144\nV21898300328\np12145\nsVcount_current_adgroups\np12146\nI0\nsVrun_status\np12147\nI1\nsVtype\np12148\nI27\nsVid\np12149\nV6003997484765\np12150\nsa(dp12151\nVname\np12152\nVPage Post Ad #6003997646965\np12153\nsVauto_update\np12154\nI1\nsVstory_id\np12155\nI287955517891375\nsVcreative_id\np12156\nV6003997646965\np12157\nsVpreview_url\np12158\nVhttp://www.facebook.com/ads/api/creative_preview.php?cid=6003997646965\np12159\nsVobject_id\np12160\nV21898300328\np12161\nsVcount_current_adgroups\np12162\nI0\nsVrun_status\np12163\nI1\nsVtype\np12164\nI27\nsVid\np12165\nV6003997646965\np12166\nsa(dp12167\nVname\np12168\nVPage Post Ad #6003998715165\np12169\nsVauto_update\np12170\nI1\nsVstory_id\np12171\nI304555729557368\nsVcreative_id\np12172\nV6003998715165\np12173\nsVpreview_url\np12174\nVhttp://www.facebook.com/ads/api/creative_preview.php?cid=6003998715165\np12175\nsVobject_id\np12176\nV21898300328\np12177\nsVcount_current_adgroups\np12178\nI0\nsVrun_status\np12179\nI1\nsVtype\np12180\nI27\nsVid\np12181\nV6003998715165\np12182\nsa(dp12183\nVname\np12184\nVPage Post Ad #6004002207565\np12185\nsVauto_update\np12186\nI1\nsVstory_id\np12187\nI253982281317654\nsVcreative_id\np12188\nV6004002207565\np12189\nsVpreview_url\np12190\nVhttp://www.facebook.com/ads/api/creative_preview.php?cid=6004002207565\np12191\nsVobject_id\np12192\nV21898300328\np12193\nsVcount_current_adgroups\np12194\nI0\nsVrun_status\np12195\nI1\nsVtype\np12196\nI27\nsVid\np12197\nV6004002207565\np12198\nsa(dp12199\nVname\np12200\nVPage Post Ad #6004002605165\np12201\nsVauto_update\np12202\nI1\nsVstory_id\np12203\nI180532168700352\nsVcreative_id\np12204\nV6004002605165\np12205\nsVpreview_url\np12206\nVhttp://www.facebook.com/ads/api/creative_preview.php?cid=6004002605165\np12207\nsVobject_id\np12208\nV21898300328\np12209\nsVcount_current_adgroups\np12210\nI0\nsVrun_status\np12211\nI1\nsVtype\np12212\nI27\nsVid\np12213\nV6004002605165\np12214\nsa(dp12215\nVname\np12216\nVPage Post Ad #6004006213765\np12217\nsVauto_update\np1'
p6
sS'hash'
p7
S'1583c7c82469013a6afd758f5d0deb803d8f9c3b'
p8
sS'stack'
p9
S''
s.