(dp1
S'args'
p2
S''
sS'methodname'
p3
S''
sS'packet_num'
p4
I82
sS'returnval'
p5
S'4\nVThe Best Walk Shame Outf\np10365\nsVcreative_id\np10366\nV6003729223965\np10367\nsVpreview_url\np10368\nVhttp://www.facebook.com/ads/api/creative_preview.php?cid=6003729223965\np10369\nsVid\np10370\nV6003729223965\np10371\nsVimage_url\np10372\nVhttps://fbcdn-creative-a.akamaihd.net/hads-ak-prn1/s110x80/701889_6006844476365_46348_n.jpg\np10373\nsVcount_current_adgroups\np10374\nI0\nsVrun_status\np10375\nI1\nsVtype\np10376\nI1\nsVlink_url\np10377\nVhttp://buzzfeed.com/ht/svedkavodka/the-best-walk-shame-outfits/HFAA1\np10378\nsVview_tag\np10379\ng37\nsa(dp10380\nValt_view_tags\np10381\n(lp10382\nsVbody\np10383\nVNothing screams "walk of shame" like bedhead and a tussled outfit. These lovely people look like they had a wonderful night out.\np10384\nsVimage_hash\np10385\nV9f56510f952b46c29d6985f32a35a77d\np10386\nsVname\np10387\nVBest Walk Shame Outfits\np10388\nsVtitle\np10389\nVBest Walk Shame Outfits\np10390\nsVcreative_id\np10391\nV6003738753165\np10392\nsVpreview_url\np10393\nVhttp://www.facebook.com/ads/api/creative_preview.php?cid=6003738753165\np10394\nsVid\np10395\nV6003738753165\np10396\nsVimage_url\np10397\nVhttps://fbcdn-creative-a.akamaihd.net/hads-ak-prn1/s110x80/708180_6006845007365_9197_n.jpg\np10398\nsVcount_current_adgroups\np10399\nI0\nsVrun_status\np10400\nI1\nsVtype\np10401\nI1\nsVlink_url\np10402\nVhttp://buzzfeed.com/ht/svedkavodka/the-best-walk-shame-outfits/HFAA1\np10403\nsVview_tag\np10404\ng37\nsa(dp10405\nValt_view_tags\np10406\n(lp10407\nsVbody\np10408\nVThe walk of shame can be embarrassing, but you know what softens the blow? A good sense of humor and cute pugs! Own your walk of shame\np10409\nsVimage_hash\np10410\nVf742886e794ca57fa4101bc991862868\np10411\nsVname\np10412\nVFunny Walk Of Shame Stor\np10413\nsVtitle\np10414\nVFunny Walk Of Shame Stor\np10415\nsVcreative_id\np10416\nV6003729221565\np10417\nsVpreview_url\np10418\nVhttp://www.facebook.com/ads/api/creative_preview.php?cid=6003729221565\np10419\nsVid\np10420\nV6003729221565\np10421\nsVimage_url\np10422\nVhttps://fbcdn-creative-a.akamaihd.net/hads-ak-prn1/s110x80/708162_6006845549365_6871_n.jpg\np10423\nsVcount_current_adgroups\np10424\nI0\nsVrun_status\np10425\nI1\nsVtype\np10426\nI1\nsVlink_url\np10427\nVhttp://buzzfeed.com/ht/svedkavodka/funny-walk-of-shame-stories-presented-by-cute-pugs/HFAA1\np10428\nsVview_tag\np10429\ng37\nsa(dp10430\nValt_view_tags\np10431\n(lp10432\nsVbody\np10433\nVSteve Terada of Quest Crew, winners of ABDC season 3 on MTV, teaches one of his trademark bboy combos!\np10434\nsVimage_hash\np10435\nVd342f748e9dd0ffdfe028e3c33870a70\np10436\nsVname\np10437\nVWanna Learn How to Dance\np10438\nsVtitle\np10439\nVWanna Learn How to Dance\np10440\nsVcreative_id\np10441\nV6003711457165\np10442\nsVpreview_url\np10443\nVhttp://www.facebook.com/ads/api/creative_preview.php?cid=6003711457165\np10444\nsVid\np10445\nV6003711457165\np10446\nsVimage_url\np10447\nVhttps://fbcdn-creative-a.akamaihd.net/hads-ak-ash3/s110x80/708189_6006845315365_40180_n.jpg\np10448\nsVcount_current_adgroups\np10449\nI0\nsVrun_status\np10450\nI1\nsVtype\np10451\nI1\nsVlink_url\np10452\nVhttp://buzzfeed.com/ht/bloggie/wanna-learn-how-to-dance-1n/HFAA1\np10453\nsVview_tag\np10454\ng37\nsa(dp10455\nValt_view_tags\np10456\n(lp10457\nsVbody\np10458\nVDon\'t believe it?Check out "The Most Memorable Street Basketball Movie Scenes" on Buzzfeed\np10459\nsVimage_hash\np10460\nVf4e443e858eea4cfdfa8b317ea715915\np10461\nsVname\np10462\nVWhite Men Can Jump!\np10463\nsVtitle\np10464\nVWhite Men Can Jump!\np10465\nsVcreative_id\np10466\nV6005587713765\np10467\nsVpreview_url\np10468\nVhttp://www.facebook.com/ads/api/creative_preview.php?cid=6005587713765\np10469\nsVid\np10470\nV6005587713765\np10471\nsVimage_url\np10472\nVhttps://fbcdn-creative-a.akamaihd.net/hads-ak-prn1/s110x80/708186_6006845531965_27920_n.jpg\np10473\nsVcount_current_adgroups\np10474\nI0\nsVrun_status\np10475\nI1\nsVtype\np10476\nI1\nsVlink_url\np10477\nVhttp://www.buzzfeed.com/h1/fbad/jordanriseabove/the-most-memorable-street-basketball-movie-scenes-6peo\np10478\nsVview_tag\np10479\ng37\nsa(dp10480\nVrelated_fan_page\np10481\nI1\nsVname\np10482\nVSponsored story #6005588772165\np10483\nsVtitle\np10484\nVLet\'s All Be Obsessed With Nathan Adrian Now\np10485\nsVcreative_id\np10486\nV6005588772165\np10487\nsVpreview_url\np10488\nVhttp://www.facebook'
p6
sS'hash'
p7
S'1583c7c82469013a6afd758f5d0deb803d8f9c3b'
p8
sS'stack'
p9
S''
s.