(dp1
S'args'
p2
S''
sS'methodname'
p3
S''
sS'packet_num'
p4
I1
sS'returnval'
p5
S'http://www.buzzfeed.com/H1/FBAD/bbcamerica/badass-vehicles-you-wish-you-could-drive\np136\nsVview_tag\np137\ng37\nsa(dp138\nValt_view_tags\np139\n(lp140\nsVbody\np141\nVMakes our List of "The 10 Most Badass Vehicles You Wish You Could Drive" See the Rest!\\u000a\np142\nsVimage_hash\np143\nV6b87c13ae4ec048d5c543af6729318a4\np144\nsVname\np145\nVGhostbusters Ecto-1\np146\nsVtitle\np147\nVGhostbusters Ecto-1\np148\nsVcreative_id\np149\nV6005013442365\np150\nsVpreview_url\np151\nVhttp://www.facebook.com/ads/api/creative_preview.php?cid=6005013442365\np152\nsVid\np153\nV6005013442365\np154\nsVimage_url\np155\nVhttps://fbcdn-creative-a.akamaihd.net/hads-ak-prn1/s110x80/708183_6006844702165_22852_n.jpg\np156\nsVcount_current_adgroups\np157\nI1\nsVrun_status\np158\nI1\nsVtype\np159\nI1\nsVlink_url\np160\nVhttp://www.buzzfeed.com/H1/FBAD/bbcamerica/badass-vehicles-you-wish-you-could-drive\np161\nsVview_tag\np162\ng37\nsa(dp163\nValt_view_tags\np164\n(lp165\nsVbody\np166\nVMakes our List of "The 10 Most Badass Vehicles You Wish You Could Drive" See the Rest!\\u000a\np167\nsVimage_hash\np168\nVf2fc12f4a3826f4d86bd423393e1006a\np169\nsVname\np170\nVThe Batmobile\np171\nsVtitle\np172\nVThe Batmobile\np173\nsVcreative_id\np174\nV6005013446965\np175\nsVpreview_url\np176\nVhttp://www.facebook.com/ads/api/creative_preview.php?cid=6005013446965\np177\nsVid\np178\nV6005013446965\np179\nsVimage_url\np180\nVhttps://fbcdn-creative-a.akamaihd.net/hads-ak-ash3/s110x80/701894_6006845519165_62545_n.jpg\np181\nsVcount_current_adgroups\np182\nI1\nsVrun_status\np183\nI1\nsVtype\np184\nI1\nsVlink_url\np185\nVhttp://www.buzzfeed.com/H1/FBAD/bbcamerica/badass-vehicles-you-wish-you-could-drive\np186\nsVview_tag\np187\ng37\nsa(dp188\nValt_view_tags\np189\n(lp190\nsVbody\np191\nVMakes our List of "The 10 Most Badass Vehicles You Wish You Could Drive" See the Rest!\\u000a\np192\nsVimage_hash\np193\nVf0164685aa11f3236135ddef1d8c6046\np194\nsVname\np195\nVAT-AT Walker\np196\nsVtitle\np197\nVAT-AT Walker\np198\nsVcreative_id\np199\nV6005013451565\np200\nsVpreview_url\np201\nVhttp://www.facebook.com/ads/api/creative_preview.php?cid=6005013451565\np202\nsVid\np203\nV6005013451565\np204\nsVimage_url\np205\nVhttps://fbcdn-creative-a.akamaihd.net/hads-ak-prn1/s110x80/708178_6006845506365_12013_n.jpg\np206\nsVcount_current_adgroups\np207\nI1\nsVrun_status\np208\nI1\nsVtype\np209\nI1\nsVlink_url\np210\nVhttp://www.buzzfeed.com/H1/FBAD/bbcamerica/badass-vehicles-you-wish-you-could-drive\np211\nsVview_tag\np212\ng37\nsa(dp213\nValt_view_tags\np214\n(lp215\nsVbody\np216\nVDeLorean Makes "The 10 Most Badass Vehicles You Wish You Could Drive" See the Rest!\np217\nsVimage_hash\np218\nV9eddd6fcab97d7207df7578b122b9de4\np219\nsVname\np220\nVThe Back II the Future\np221\nsVtitle\np222\nVThe Back II the Future\np223\nsVcreative_id\np224\nV6005013674165\np225\nsVpreview_url\np226\nVhttp://www.facebook.com/ads/api/creative_preview.php?cid=6005013674165\np227\nsVid\np228\nV6005013674165\np229\nsVimage_url\np230\nVhttps://fbcdn-creative-a.akamaihd.net/hads-ak-ash3/s110x80/701899_6006844999765_54038_n.jpg\np231\nsVcount_current_adgroups\np232\nI1\nsVrun_status\np233\nI1\nsVtype\np234\nI1\nsVlink_url\np235\nVhttp://www.buzzfeed.com/H1/FBAD/bbcamerica/badass-vehicles-you-wish-you-could-drive\np236\nsVview_tag\np237\ng37\nsa(dp238\nValt_view_tags\np239\n(lp240\nsVbody\np241\nVMeet TV\\u2019s Newest Vice President From HBO\\u2019s \\u201cVeep\\u201d \np242\nsVimage_hash\np243\nV5940674929c3df2fa5d33fbfa820f66e\np244\nsVname\np245\nVWho is Selina Meyer?\np246\nsVtitle\np247\nVWho is Selina Meyer?\np248\nsVcreative_id\np249\nV6005008516565\np250\nsVpreview_url\np251\nVhttp://www.facebook.com/ads/api/creative_preview.php?cid=6005008516565\np252\nsVid\np253\nV6005008516565\np254\nsVimage_url\np255\nVhttps://fbcdn-creative-a.akamaihd.net/hads-ak-prn1/s110x80/708167_6006844602965_32864_n.jpg\np256\nsVcount_current_adgroups\np257\nI1\nsVrun_status\np258\nI1\nsVtype\np259\nI1\nsVlink_url\np260\nVhttp://www.buzzfeed.com/H1/FBAD/veep/meet-tvs-newest-vice-president-from-hbos\np261\nsVview_tag\np262\ng37\nsa(dp263\nValt_view_tags\np264\n(lp265\nsVbody\np266\nVBuster is back...Check out the latest Veep trailer starring Tony Hale.\np267\nsVimage_hash\np268\nVb66dac79ab958fd398e260074bf0d100\np269\nsVname\np270\nVHey Brother!-00\np271\nsVtitle\np272\nVHey Brother!\np273\nsVcreative_id\n'
p6
sS'hash'
p7
S'1583c7c82469013a6afd758f5d0deb803d8f9c3b'
p8
sS'stack'
p9
S''
s.