(dp1
S'args'
p2
S''
sS'methodname'
p3
S''
sS'packet_num'
p4
I74
sS'returnval'
p5
S"-49vl/HFAA1\np9328\nsVview_tag\np9329\ng37\nsa(dp9330\nValt_view_tags\np9331\n(lp9332\nsVbody\np9333\nVBro, your game is weak. Not to worry  We're here to help. Watch for what to do when you're trying to close.\np9334\nsVimage_hash\np9335\nV121f8c7443887e2be0336406cee0e9ec\np9336\nsVname\np9337\nVGetting It In\np9338\nsVtitle\np9339\nVGetting It In\np9340\nsVcreative_id\np9341\nV6003949215365\np9342\nsVpreview_url\np9343\nVhttp://www.facebook.com/ads/api/creative_preview.php?cid=6003949215365\np9344\nsVid\np9345\nV6003949215365\np9346\nsVimage_url\np9347\nVhttps://fbcdn-creative-a.akamaihd.net/hads-ak-prn1/s110x80/708168_6006844163965_24944_n.jpg\np9348\nsVcount_current_adgroups\np9349\nI0\nsVrun_status\np9350\nI1\nsVtype\np9351\nI1\nsVlink_url\np9352\nVhttp://buzzfeed.com/ht/kennethcole/getting-it-in-1-49vl/HFAA1\np9353\nsVview_tag\np9354\ng37\nsa(dp9355\nValt_view_tags\np9356\n(lp9357\nsVbody\np9358\nVBro, your game is weak. Not to worry  We're here to help. Watch for what to do when you're trying to close.\np9359\nsVimage_hash\np9360\nV121f8c7443887e2be0336406cee0e9ec\np9361\nsVname\np9362\nVLearning Swag\np9363\nsVtitle\np9364\nVLearning Swag\np9365\nsVcreative_id\np9366\nV6003949217765\np9367\nsVpreview_url\np9368\nVhttp://www.facebook.com/ads/api/creative_preview.php?cid=6003949217765\np9369\nsVid\np9370\nV6003949217765\np9371\nsVimage_url\np9372\nVhttps://fbcdn-creative-a.akamaihd.net/hads-ak-prn1/s110x80/708168_6006844163965_24944_n.jpg\np9373\nsVcount_current_adgroups\np9374\nI0\nsVrun_status\np9375\nI1\nsVtype\np9376\nI1\nsVlink_url\np9377\nVhttp://buzzfeed.com/ht/kennethcole/learning-swag-1-49vl/HFAA1\np9378\nsVview_tag\np9379\ng37\nsa(dp9380\nValt_view_tags\np9381\n(lp9382\nsVbody\np9383\nVThey never really worked anyway Help him get some new game with Connecting101.\np9384\nsVimage_hash\np9385\nV8441153a78ba76cfa64f7b2dbe628bc1\np9386\nsVname\np9387\nVOut Of PickUp Lines\np9388\nsVtitle\np9389\nVOut Of PickUp Lines\np9390\nsVcreative_id\np9391\nV6003964886365\np9392\nsVpreview_url\np9393\nVhttp://www.facebook.com/ads/api/creative_preview.php?cid=6003964886365\np9394\nsVid\np9395\nV6003964886365\np9396\nsVimage_url\np9397\nVhttps://fbcdn-creative-a.akamaihd.net/hads-ak-prn1/s110x80/708180_6006844841965_32316_n.jpg\np9398\nsVcount_current_adgroups\np9399\nI0\nsVrun_status\np9400\nI1\nsVtype\np9401\nI1\nsVlink_url\np9402\nVhttp://buzzfeed.com/ht/kennethcole/friend-out-of-pick-up-lines-49vl/HFAA1\np9403\nsVview_tag\np9404\ng37\nsa(dp9405\nValt_view_tags\np9406\n(lp9407\nsVbody\np9408\nVThose dance moves arent helping you fill that large bed of yours. Trust us. Connecting101 A Guide to Closing the Deal\np9409\nsVimage_hash\np9410\nV2c47bddb4c2eed51ddf6fc1496bcc1db\np9411\nsVname\np9412\nVHumping Isn't Dancing\np9413\nsVtitle\np9414\nVHumping Isn't Dancing\np9415\nsVcreative_id\np9416\nV6003964888765\np9417\nsVpreview_url\np9418\nVhttp://www.facebook.com/ads/api/creative_preview.php?cid=6003964888765\np9419\nsVid\np9420\nV6003964888765\np9421\nsVimage_url\np9422\nVhttps://fbcdn-creative-a.akamaihd.net/hads-ak-prn1/s110x80/708181_6006844317565_20339_n.jpg\np9423\nsVcount_current_adgroups\np9424\nI0\nsVrun_status\np9425\nI1\nsVtype\np9426\nI1\nsVlink_url\np9427\nVhttp://buzzfeed.com/ht/kennethcole/humping-isnt-dancing-49vl/HFAA1\np9428\nsVview_tag\np9429\ng37\nsa(dp9430\nValt_view_tags\np9431\n(lp9432\nsVbody\np9433\nVHook a brother up with some tips from the pros. Connecting101 A Guide to Closing the Deal.\np9434\nsVimage_hash\np9435\nV8441153a78ba76cfa64f7b2dbe628bc1\np9436\nsVname\np9437\nVFriends Got No Game\np9438\nsVtitle\np9439\nVFriends Got No Game\np9440\nsVcreative_id\np9441\nV6003964891165\np9442\nsVpreview_url\np9443\nVhttp://www.facebook.com/ads/api/creative_preview.php?cid=6003964891165\np9444\nsVid\np9445\nV6003964891165\np9446\nsVimage_url\np9447\nVhttps://fbcdn-creative-a.akamaihd.net/hads-ak-prn1/s110x80/708180_6006844841965_32316_n.jpg\np9448\nsVcount_current_adgroups\np9449\nI0\nsVrun_status\np9450\nI1\nsVtype\np9451\nI1\nsVlink_url\np9452\nVhttp://buzzfeed.com/ht/kennethcole/got-a-friend-with-no-game-49vl/HFAA1\np9453\nsVview_tag\np9454\ng37\nsa(dp9455\nValt_view_tags\np9456\n(lp9457\nsVbody\np9458\nVThey never really worked anyway Help him get some new game with Connecting101.\np9459\nsVimage_hash\np9460\nV8441153a78ba76cfa64f7b2dbe628bc1\np9461\nsVname\np9462\nVYour "
p6
sS'hash'
p7
S'1583c7c82469013a6afd758f5d0deb803d8f9c3b'
p8
sS'stack'
p9
S''
s.