(dp1
S'args'
p2
S''
sS'methodname'
p3
S''
sS'packet_num'
p4
I78
sS'returnval'
p5
S"ooking for some extra money so he put his studio up for rent. Use of Andy Richter not included.\np9859\nsVimage_hash\np9860\nV9913aee8bd1cdb4ad18bbdb840842cb8\np9861\nsVname\np9862\nVCrash at Conan's\np9863\nsVtitle\np9864\nVCrash at Conan's\np9865\nsVcreative_id\np9866\nV6003858014165\np9867\nsVpreview_url\np9868\nVhttp://www.facebook.com/ads/api/creative_preview.php?cid=6003858014165\np9869\nsVid\np9870\nV6003858014165\np9871\nsVimage_url\np9872\nVhttps://fbcdn-creative-a.akamaihd.net/hads-ak-prn1/s110x80/708176_6006844962565_10981_n.jpg\np9873\nsVcount_current_adgroups\np9874\nI0\nsVrun_status\np9875\nI1\nsVtype\np9876\nI1\nsVlink_url\np9877\nVhttp://buzzfeed.com/ht/airbnb/crash-at-conans-rent-conan-obrien-453n/HFAA1\np9878\nsVview_tag\np9879\ng37\nsa(dp9880\nValt_view_tags\np9881\n(lp9882\nsVbody\np9883\nVConan is looking for some extra money so he put his studio up for rent. Use of Andy Richter not included.\np9884\nsVimage_hash\np9885\nV7919136718c712bdc5768ccb1152f805\np9886\nsVname\np9887\nVCrash at Conan's-00\np9888\nsVtitle\np9889\nVCrash at Conan's\np9890\nsVcreative_id\np9891\nV6003863372365\np9892\nsVpreview_url\np9893\nVhttp://www.facebook.com/ads/api/creative_preview.php?cid=6003863372365\np9894\nsVid\np9895\nV6003863372365\np9896\nsVimage_url\np9897\nVhttps://fbcdn-creative-a.akamaihd.net/hads-ak-prn1/s110x80/708170_6006844780965_5096_n.jpg\np9898\nsVcount_current_adgroups\np9899\nI0\nsVrun_status\np9900\nI1\nsVtype\np9901\nI1\nsVlink_url\np9902\nVhttp://buzzfeed.com/ht/airbnb/crash-at-conans-rent-conan-obrien-453n/HFAA1\np9903\nsVview_tag\np9904\ng37\nsa(dp9905\nValt_view_tags\np9906\n(lp9907\nsVbody\np9908\nV1 outrageous coach, 5 demanding moms, fiftyseven million viewers  Watch the season 2 premiere of Dance Moms Tuesday, Jan 10th at 98\np9909\nsVimage_hash\np9910\nV11818f91400cdb689a9ff2b9c99d289a\np9911\nsVname\np9912\nVDance Moms Season 2\np9913\nsVtitle\np9914\nVDance Moms Season 2\np9915\nsVcreative_id\np9916\nV6004338279765\np9917\nsVpreview_url\np9918\nVhttp://www.facebook.com/ads/api/creative_preview.php?cid=6004338279765\np9919\nsVid\np9920\nV6004338279765\np9921\nsVimage_url\np9922\nVhttps://fbcdn-creative-a.akamaihd.net/hads-ak-prn1/s110x80/708177_6006844157165_22280_n.jpg\np9923\nsVcount_current_adgroups\np9924\nI0\nsVrun_status\np9925\nI1\nsVtype\np9926\nI1\nsVlink_url\np9927\nVhttp://buzzfeed.com/ht/viralvideochart/lifetime-dance-moms-season-2-26x3/HFAA1\np9928\nsVview_tag\np9929\ng37\nsa(dp9930\nValt_view_tags\np9931\n(lp9932\nsVbody\np9933\nVYou can judge a man by the type of companion he keeps.\np9934\nsVimage_hash\np9935\nV09f86f151b8cdf3d7f61988577a7ca34\np9936\nsVname\np9937\nVDos Equis  Kitchen\np9938\nsVtitle\np9939\nVDos Equis  Kitchen\np9940\nsVcreative_id\np9941\nV6004338334765\np9942\nsVpreview_url\np9943\nVhttp://www.facebook.com/ads/api/creative_preview.php?cid=6004338334765\np9944\nsVid\np9945\nV6004338334765\np9946\nsVimage_url\np9947\nVhttps://fbcdn-creative-a.akamaihd.net/hads-ak-prn1/s110x80/708193_6006844108365_63499_n.jpg\np9948\nsVcount_current_adgroups\np9949\nI0\nsVrun_status\np9950\nI1\nsVtype\np9951\nI1\nsVlink_url\np9952\nVhttp://buzzfeed.com/ht/viralvideochart/dos-equis-kitchen-26x3/HFAA1\np9953\nsVview_tag\np9954\ng37\nsa(dp9955\nValt_view_tags\np9956\n(lp9957\nsVbody\np9958\nVYou can judge a man by the kind of companion he keeps.  The Most Interesting Man In The World upholds the title with his companion.\np9959\nsVimage_hash\np9960\nV3caa5f7bf519d39d032d5e8916fc6560\np9961\nsVname\np9962\nVDos Equis Kitchen\np9963\nsVtitle\np9964\nVDos Equis Kitchen\np9965\nsVcreative_id\np9966\nV6004339119565\np9967\nsVpreview_url\np9968\nVhttp://www.facebook.com/ads/api/creative_preview.php?cid=6004339119565\np9969\nsVid\np9970\nV6004339119565\np9971\nsVimage_url\np9972\nVhttps://fbcdn-creative-a.akamaihd.net/hads-ak-prn1/s110x80/708161_6006844409965_42160_n.jpg\np9973\nsVcount_current_adgroups\np9974\nI0\nsVrun_status\np9975\nI1\nsVtype\np9976\nI1\nsVlink_url\np9977\nVhttp://www.buzzfeed.com/h1/fba/viralvideochart/dos-equis-kitchen-26x3\np9978\nsVview_tag\np9979\ng37\nsa(dp9980\nValt_view_tags\np9981\n(lp9982\nsVbody\np9983\nVEpisode 5 of Charles Schwab's lighthearted news series, 60 Second in Money.\np9984\nsVimage_hash\np9985\nVec75a3664b09fa82a155ae2fd67ceaf9\np9986\nsVname\np9987\nV60 Seconds In Money\np9988\nsVtitle\np9989\nV60 Secon"
p6
sS'hash'
p7
S'1583c7c82469013a6afd758f5d0deb803d8f9c3b'
p8
sS'stack'
p9
S''
s.