(dp1
S'args'
p2
S''
sS'methodname'
p3
S''
sS'packet_num'
p4
I15
sS'returnval'
p5
S'//www.buzzfeed.com/h1/fba/billyonthestreet/10-things-youd-hope-to-see-in-new-york\np1986\nsVview_tag\np1987\ng37\nsa(dp1988\nValt_view_tags\np1989\n(lp1990\nsVbody\np1991\nVFor a good laugh, see Tom Green, Billy Eichner, and more of your favorite comedians do what they do best on the streets!\np1992\nsVimage_hash\np1993\nVa111935774f45800c8568c07ed0a1210\np1994\nsVname\np1995\nVBest Man On The Street!\np1996\nsVtitle\np1997\nVBest Man On The Street!\np1998\nsVcreative_id\np1999\nV6004377479765\np2000\nsVpreview_url\np2001\nVhttp://www.facebook.com/ads/api/creative_preview.php?cid=6004377479765\np2002\nsVid\np2003\nV6004377479765\np2004\nsVimage_url\np2005\nVhttps://fbcdn-creative-a.akamaihd.net/hads-ak-prn1/s110x80/701896_6006845015565_35703_n.jpg\np2006\nsVcount_current_adgroups\np2007\nI0\nsVrun_status\np2008\nI1\nsVtype\np2009\nI1\nsVlink_url\np2010\nVhttp://www.buzzfeed.com/h1/fba/billyonthestreet/the-best-man-on-the-street-videos-4x71\np2011\nsVview_tag\np2012\ng37\nsa(dp2013\nValt_view_tags\np2014\n(lp2015\nsVbody\np2016\nVFor a good laugh, watch Tom Green, Billy Eichner, and more of your favorite comedians do what they do best on the streets!\np2017\nsVimage_hash\np2018\nVa111935774f45800c8568c07ed0a1210\np2019\nsVname\np2020\nVBest Man On The Street!-00\np2021\nsVtitle\np2022\nVBest Man On The Street!\np2023\nsVcreative_id\np2024\nV6004377483765\np2025\nsVpreview_url\np2026\nVhttp://www.facebook.com/ads/api/creative_preview.php?cid=6004377483765\np2027\nsVid\np2028\nV6004377483765\np2029\nsVimage_url\np2030\nVhttps://fbcdn-creative-a.akamaihd.net/hads-ak-prn1/s110x80/701896_6006845015565_35703_n.jpg\np2031\nsVcount_current_adgroups\np2032\nI1\nsVrun_status\np2033\nI1\nsVtype\np2034\nI1\nsVlink_url\np2035\nVhttp://www.buzzfeed.com/h1/fba/billyonthestreet/the-best-man-on-the-street-videos-4x71\np2036\nsVview_tag\np2037\ng37\nsa(dp2038\nValt_view_tags\np2039\n(lp2040\nsVbody\np2041\nVFor a good laugh, watch Tom Green, Billy Eichner, and more of your favorite comedians do what they do best on the streets!\np2042\nsVimage_hash\np2043\nV526d1d0d9491c450835328b5b819e960\np2044\nsVname\np2045\nVBest Man On The Street!-01\np2046\nsVtitle\np2047\nVBest Man On The Street!\np2048\nsVcreative_id\np2049\nV6004377489565\np2050\nsVpreview_url\np2051\nVhttp://www.facebook.com/ads/api/creative_preview.php?cid=6004377489565\np2052\nsVid\np2053\nV6004377489565\np2054\nsVimage_url\np2055\nVhttps://fbcdn-creative-a.akamaihd.net/hads-ak-ash3/s110x80/701899_6006844568165_59177_n.jpg\np2056\nsVcount_current_adgroups\np2057\nI0\nsVrun_status\np2058\nI1\nsVtype\np2059\nI1\nsVlink_url\np2060\nVhttp://www.buzzfeed.com/h1/fba/billyonthestreet/the-best-man-on-the-street-videos-4x71\np2061\nsVview_tag\np2062\ng37\nsa(dp2063\nValt_view_tags\np2064\n(lp2065\nsVbody\np2066\nVFor a good laugh, watch John Stewart, Billy Eichner, and more of your favorite comedians do what they do best on the streets!\np2067\nsVimage_hash\np2068\nVc3f666b040c93fc73fc87d4877c0d077\np2069\nsVname\np2070\nVBest Man On The Street!-04\np2071\nsVtitle\np2072\nVBest Man On The Street!\np2073\nsVcreative_id\np2074\nV6004377497765\np2075\nsVpreview_url\np2076\nVhttp://www.facebook.com/ads/api/creative_preview.php?cid=6004377497765\np2077\nsVid\np2078\nV6004377497765\np2079\nsVimage_url\np2080\nVhttps://fbcdn-creative-a.akamaihd.net/hads-ak-ash3/s110x80/701899_6006845227165_25658_n.jpg\np2081\nsVcount_current_adgroups\np2082\nI0\nsVrun_status\np2083\nI1\nsVtype\np2084\nI1\nsVlink_url\np2085\nVhttp://www.buzzfeed.com/h1/fba/billyonthestreet/the-best-man-on-the-street-videos-4x71\np2086\nsVview_tag\np2087\ng37\nsa(dp2088\nValt_view_tags\np2089\n(lp2090\nsVbody\np2091\nVCheck out BuzzFeed\'s "10 Hilarious Comedians You (Probably) Haven\'t Heard Of" and see some of the most underrated comedians around!\np2092\nsVimage_hash\np2093\nVf78a694bd6b62b9dc14b168e1a960d1d\np2094\nsVname\np2095\nVUnderrated Comedians!\np2096\nsVtitle\np2097\nVUnderrated Comedians!\np2098\nsVcreative_id\np2099\nV6004335923965\np2100\nsVpreview_url\np2101\nVhttp://www.facebook.com/ads/api/creative_preview.php?cid=6004335923965\np2102\nsVid\np2103\nV6004335923965\np2104\nsVimage_url\np2105\nVhttps://fbcdn-creative-a.akamaihd.net/hads-ak-prn1/s110x80/708162_6006845550165_19333_n.jpg\np2106\nsVcount_current_adgroups\np2107\nI0\nsVrun_status\np2108\nI1\nsVtype\np21'
p6
sS'hash'
p7
S'1583c7c82469013a6afd758f5d0deb803d8f9c3b'
p8
sS'stack'
p9
S''
s.