(dp1
S'args'
p2
S''
sS'methodname'
p3
S''
sS'packet_num'
p4
I116
sS'returnval'
p5
S'sVcount_current_adgroups\np15581\nI0\nsVrun_status\np15582\nI1\nsVtype\np15583\nI27\nsVid\np15584\nV6005013454365\np15585\nsa(dp15586\nVname\np15587\nVAd from a Page post #6005013574565\np15588\nsVauto_update\np15589\nI1\nsVstory_id\np15590\nV10150824654710329\np15591\nsVcreative_id\np15592\nV6005013574565\np15593\nsVpreview_url\np15594\nVhttp://www.facebook.com/ads/api/creative_preview.php?cid=6005013574565\np15595\nsVobject_id\np15596\nV21898300328\np15597\nsVcount_current_adgroups\np15598\nI0\nsVrun_status\np15599\nI1\nsVtype\np15600\nI27\nsVid\np15601\nV6005013574565\np15602\nsa(dp15603\nVname\np15604\nVAd from a Page post #6005014762965\np15605\nsVauto_update\np15606\nI1\nsVstory_id\np15607\nV10150836211360329\np15608\nsVcreative_id\np15609\nV6005014762965\np15610\nsVpreview_url\np15611\nVhttp://www.facebook.com/ads/api/creative_preview.php?cid=6005014762965\np15612\nsVobject_id\np15613\nV21898300328\np15614\nsVcount_current_adgroups\np15615\nI0\nsVrun_status\np15616\nI1\nsVtype\np15617\nI27\nsVid\np15618\nV6005014762965\np15619\nsa(dp15620\nVname\np15621\nVAd from a Page post #6005014956365\np15622\nsVauto_update\np15623\nI1\nsVstory_id\np15624\nI232249760216370\nsVcreative_id\np15625\nV6005014956365\np15626\nsVpreview_url\np15627\nVhttp://www.facebook.com/ads/api/creative_preview.php?cid=6005014956365\np15628\nsVobject_id\np15629\nV21898300328\np15630\nsVcount_current_adgroups\np15631\nI0\nsVrun_status\np15632\nI1\nsVtype\np15633\nI27\nsVid\np15634\nV6005014956365\np15635\nsa(dp15636\nVname\np15637\nVAd from a Page post #6005015377765\np15638\nsVauto_update\np15639\nI1\nsVstory_id\np15640\nI342421829152171\nsVcreative_id\np15641\nV6005015377765\np15642\nsVpreview_url\np15643\nVhttp://www.facebook.com/ads/api/creative_preview.php?cid=6005015377765\np15644\nsVobject_id\np15645\nV21898300328\np15646\nsVcount_current_adgroups\np15647\nI0\nsVrun_status\np15648\nI1\nsVtype\np15649\nI27\nsVid\np15650\nV6005015377765\np15651\nsa(dp15652\nVname\np15653\nVAd from a Page post #6005015622365\np15654\nsVauto_update\np15655\nI1\nsVstory_id\np15656\nI348428211873758\nsVcreative_id\np15657\nV6005015622365\np15658\nsVpreview_url\np15659\nVhttp://www.facebook.com/ads/api/creative_preview.php?cid=6005015622365\np15660\nsVobject_id\np15661\nV21898300328\np15662\nsVcount_current_adgroups\np15663\nI0\nsVrun_status\np15664\nI1\nsVtype\np15665\nI27\nsVid\np15666\nV6005015622365\np15667\nsa(dp15668\nVname\np15669\nVAd from a Page post #6005023294965\np15670\nsVauto_update\np15671\nI1\nsVstory_id\np15672\nV10150838626750329\np15673\nsVcreative_id\np15674\nV6005023294965\np15675\nsVpreview_url\np15676\nVhttp://www.facebook.com/ads/api/creative_preview.php?cid=6005023294965\np15677\nsVobject_id\np15678\nV21898300328\np15679\nsVcount_current_adgroups\np15680\nI0\nsVrun_status\np15681\nI1\nsVtype\np15682\nI27\nsVid\np15683\nV6005023294965\np15684\nsa(dp15685\nVname\np15686\nVAd from a Page post #6005023383565\np15687\nsVauto_update\np15688\nI1\nsVstory_id\np15689\nI226404024127101\nsVcreative_id\np15690\nV6005023383565\np15691\nsVpreview_url\np15692\nVhttp://www.facebook.com/ads/api/creative_preview.php?cid=6005023383565\np15693\nsVobject_id\np15694\nV21898300328\np15695\nsVcount_current_adgroups\np15696\nI0\nsVrun_status\np15697\nI1\nsVtype\np15698\nI27\nsVid\np15699\nV6005023383565\np15700\nsa(dp15701\nVname\np15702\nVAd from a Page post #6005023466765\np15703\nsVauto_update\np15704\nI1\nsVstory_id\np15705\nI342661642455092\nsVcreative_id\np15706\nV6005023466765\np15707\nsVpreview_url\np15708\nVhttp://www.facebook.com/ads/api/creative_preview.php?cid=6005023466765\np15709\nsVobject_id\np15710\nV21898300328\np15711\nsVcount_current_adgroups\np15712\nI0\nsVrun_status\np15713\nI1\nsVtype\np15714\nI27\nsVid\np15715\nV6005023466765\np15716\nsa(dp15717\nVname\np15718\nVAd from a Page post #6005039277165\np15719\nsVauto_update\np15720\nI1\nsVstory_id\np15721\nI367408539963723\nsVcreative_id\np15722\nV6005039277165\np15723\nsVpreview_url\np15724\nVhttp://www.facebook.com/ads/api/creative_preview.php?cid=6005039277165\np15725\nsVobject_id\np15726\nV21898300328\np15727\nsVcount_current_adgroups\np15728\nI0\nsVrun_status\np15729\nI1\nsVtype\np15730\nI27\nsVid\np15731\nV6005039277165\np15732\nsa(dp15733\nVname\np15734\nVAd from a Page post #6005039931965\np15735\nsVauto_update\np15736\nI1\nsVstory_id\np15737\nV10150846248980329\np15738\nsVcreative_id\np15739\nV6005039931965\np15740\nsVpreview_url\np1574'
p6
sS'hash'
p7
S'1583c7c82469013a6afd758f5d0deb803d8f9c3b'
p8
sS'stack'
p9
S''
s.