(dp1
S'args'
p2
S'(t.'
p3
sS'methodname'
p4
S'__json_response'
p5
sS'packet_num'
p6
I0
sS'returnval'
p7
S'(dp0\nVcount\np1\nI5353\nsVlimit\np2\nV1000\np3\nsVpaging\np4\n(dp5\nVprevious\np6\nVhttps://graph.facebook.com/act_40156177/adcreatives?access_token=AAAAACn63CWkBAMqpbBAZCzY9ZAxUwkgZCUeUFd0WWNyXRuxBY2JJahcZBMBO0q2D8Hyp5OZAMKZCFcbZBMWBZClqLQFENvjildZCZCVCSD3vTlfAZDZD&limit=1000&offset=2000\np7\nsVnext\np8\nVhttps://graph.facebook.com/act_40156177/adcreatives?access_token=AAAAACn63CWkBAMqpbBAZCzY9ZAxUwkgZCUeUFd0WWNyXRuxBY2JJahcZBMBO0q2D8Hyp5OZAMKZCFcbZBMWBZClqLQFENvjildZCZCVCSD3vTlfAZDZD&limit=1000&offset=4000\np9\nssVdata\np10\n(lp11\n(dp12\nValt_view_tags\np13\n(lp14\nsVbody\np15\nVCheck out the "Best Hockey Moments In Movies And TV" on BuzzFeed\np16\nsVimage_hash\np17\nVa42c55880baf3d0bcbcd4eae119691d9\np18\nsVname\np19\nVDucks Fly Together! \np20\nsVtitle\np21\nVDucks Fly Together! \np22\nsVcreative_id\np23\nV6005072679565\np24\nsVpreview_url\np25\nVhttp://www.facebook.com/ads/api/creative_preview.php?cid=6005072679565\np26\nsVid\np27\nV6005072679565\np28\nsVimage_url\np29\nVhttps://fbcdn-creative-a.akamaihd.net/hads-ak-prn1/s110x80/708199_6006845035365_49276_n.jpg\np30\nsVcount_current_adgroups\np31\nI1\nsVrun_status\np32\nI1\nsVtype\np33\nI1\nsVlink_url\np34\nVhttp://www.buzzfeed.com/h1/fbad/nhl/the-best-hockey-moments-in-movies-and-tv\np35\nsVview_tag\np36\nV\np37\nsa(dp38\nValt_view_tags\np39\n(lp40\nsVbody\np41\nVCheck out "11 Ridiculous Ways Social Media Is A Total Ego Boost" only on BuzzFeed\np42\nsVimage_hash\np43\nV14c6645829e029a5124cbc749df5a259\np44\nsVname\np45\nVHey Super Mayors!\np46\nsVtitle\np47\nVHey Super Mayors!\np48\nsVcreative_id\np49\nV6005015449365\np50\nsVpreview_url\np51\nVhttp://www.facebook.com/ads/api/creative_preview.php?cid=6005015449365\np52\nsVid\np53\nV6005015449365\np54\nsVimage_url\np55\nVhttps://fbcdn-creative-a.akamaihd.net/hads-ak-prn1/s110x80/708170_6006844181365_30543_n.jpg\np56\nsVcount_current_adgroups\np57\nI2\nsVrun_status\np58\nI1\nsVtype\np59\nI1\nsVlink_url\np60\nVhttp://www.buzzfeed.com/h1/fbad/microsofthotmail/10-ridiculous-ways-social-media-is-a-total-ego-boo-4iv0\np61\nsVview_tag\np62\ng37\nsa(dp63\nValt_view_tags\np64\n(lp65\nsVbody\np66\nVA newborn Chinese water deer can fit in the palm of your hand. See more at BuzzFeed.com\np67\nsVimage_hash\np68\nV5861c5c17787a2517d52c75830741fa9\np69\nsVname\np70\nVDid You Know?-00\np71\nsVtitle\np72\nVDid You Know?\np73\nsVcreative_id\np74\nV6005013688165\np75\nsVpreview_url\np76\nVhttp://www.facebook.com/ads/api/creative_preview.php?cid=6005013688165\np77\nsVid\np78\nV6005013688165\np79\nsVimage_url\np80\nVhttps://fbcdn-creative-a.akamaihd.net/hads-ak-ash3/s110x80/708167_6006844600165_13663_n.jpg\np81\nsVcount_current_adgroups\np82\nI1\nsVrun_status\np83\nI1\nsVtype\np84\nI1\nsVlink_url\np85\nVhttp://www.buzzfeed.com/H1/FBAD/bbcamerica/amazing-animal-facts-you-probably-didnt-know\np86\nsVview_tag\np87\ng37\nsa(dp88\nValt_view_tags\np89\n(lp90\nsVbody\np91\nVMakes our List of "The 10 Most Badass Vehicles You Wish You Could Drive" See the Rest!\\u000a\np92\nsVimage_hash\np93\nVc345eeeb9f4273d5637285209ef3dc72\np94\nsVname\np95\nVHe-Man\'s Battle Cat\np96\nsVtitle\np97\nVHe-Man\'s Battle Cat\np98\nsVcreative_id\np99\nV6005013428365\np100\nsVpreview_url\np101\nVhttp://www.facebook.com/ads/api/creative_preview.php?cid=6005013428365\np102\nsVid\np103\nV6005013428365\np104\nsVimage_url\np105\nVhttps://fbcdn-creative-a.akamaihd.net/hads-ak-ash3/s110x80/708205_6006845220565_35758_n.jpg\np106\nsVcount_current_adgroups\np107\nI1\nsVrun_status\np108\nI1\nsVtype\np109\nI1\nsVlink_url\np110\nVhttp://www.buzzfeed.com/H1/FBAD/bbcamerica/badass-vehicles-you-wish-you-could-drive\np111\nsVview_tag\np112\ng37\nsa(dp113\nValt_view_tags\np114\n(lp115\nsVbody\np116\nVMakes our List of "The 10 Most Badass Vehicles You Wish You Could Drive" See the Rest!\\u000a\np117\nsVimage_hash\np118\nV9eddd6fcab97d7207df7578b122b9de4\np119\nsVname\np120\nVBack 2 the Future DeLoren\np121\nsVtitle\np122\nVBack 2 the Future DeLoren\np123\nsVcreative_id\np124\nV6005013439965\np125\nsVpreview_url\np126\nVhttp://www.facebook.com/ads/api/creative_preview.php?cid=6005013439965\np127\nsVid\np128\nV6005013439965\np129\nsVimage_url\np130\nVhttps://fbcdn-creative-a.akamaihd.net/hads-ak-ash3/s110x80/701899_6006844999765_54038_n.jpg\np131\nsVcount_current_adgroups\np132\nI0\nsVrun_status\np133\nI1\nsVtype\np134\nI1\nsVlink_url\np135\nV'
p8
sS'hash'
p9
S'1583c7c82469013a6afd758f5d0deb803d8f9c3b'
p10
sS'stack'
p11
S''
s.