(dp1
S'args'
p2
S''
sS'methodname'
p3
S''
sS'packet_num'
p4
I30
sS'returnval'
p5
S'/ads/api/creative_preview.php?cid=6003853197565\np3770\nsVid\np3771\nV6003853197565\np3772\nsVimage_url\np3773\nVhttps://fbcdn-creative-a.akamaihd.net/hads-ak-ash3/s110x80/701898_6006844752965_36688_n.jpg\np3774\nsVcount_current_adgroups\np3775\nI0\nsVrun_status\np3776\nI1\nsVtype\np3777\nI1\nsVlink_url\np3778\nVhttp://t.cpmadvisors.com/click?cr=7476&bl=1000001319&sl=4726&se=1&pu=151033&v=214748360&ci=blank&so=facebook&prc=1.00&verbdir=http://www.buzzfeed.com/ht/sailorjerryrum/10-drinks-named-after-famous-people/HFB1510331\np3779\nsVview_tag\np3780\ng37\nsa(dp3781\nValt_view_tags\np3782\n(lp3783\nsVbody\np3784\nVCheck out "10 Drinks Named After Famous People" - a BuzzFeed Exclusive! \\u000a Along with Sailor Jerry, check out these popular drinks!\np3785\nsVimage_hash\np3786\nV6ab1076196f0fdac183588e3ac830e6a\np3787\nsVname\np3788\nV10 Star Inspired Drinks!-01\np3789\nsVtitle\np3790\nV10 Star Inspired Drinks!\np3791\nsVcreative_id\np3792\nV6003853199165\np3793\nsVpreview_url\np3794\nVhttp://www.facebook.com/ads/api/creative_preview.php?cid=6003853199165\np3795\nsVid\np3796\nV6003853199165\np3797\nsVimage_url\np3798\nVhttps://fbcdn-creative-a.akamaihd.net/hads-ak-prn1/s110x80/708195_6006844694965_4658_n.jpg\np3799\nsVcount_current_adgroups\np3800\nI0\nsVrun_status\np3801\nI1\nsVtype\np3802\nI1\nsVlink_url\np3803\nVhttp://t.cpmadvisors.com/click?cr=7475&bl=1000001319&sl=4726&se=1&pu=151029&v=214748360&ci=blank&so=facebook&prc=1.00&verbdir=http://www.buzzfeed.com/ht/sailorjerryrum/10-drinks-named-after-famous-people/HFB1510291\np3804\nsVview_tag\np3805\ng37\nsa(dp3806\nValt_view_tags\np3807\n(lp3808\nsVbody\np3809\nVCheck out "10 Drinks Named After Famous People" - a BuzzFeed Exclusive! \\u000a Along with Sailor Jerry, check out these popular drinks!\np3810\nsVimage_hash\np3811\nV9db6f80b0c5e67b3324f69fc0e242b7c\np3812\nsVname\np3813\nV10 Star Inspired Drinks!-02\np3814\nsVtitle\np3815\nV10 Star Inspired Drinks!\np3816\nsVcreative_id\np3817\nV6003853199365\np3818\nsVpreview_url\np3819\nVhttp://www.facebook.com/ads/api/creative_preview.php?cid=6003853199365\np3820\nsVid\np3821\nV6003853199365\np3822\nsVimage_url\np3823\nVhttps://fbcdn-creative-a.akamaihd.net/hads-ak-snc7/s110x80/701899_6006844994965_51633_n.jpg\np3824\nsVcount_current_adgroups\np3825\nI0\nsVrun_status\np3826\nI1\nsVtype\np3827\nI1\nsVlink_url\np3828\nVhttp://t.cpmadvisors.com/click?cr=7474&bl=1000001319&sl=4726&se=1&pu=151026&v=214748360&ci=blank&so=facebook&prc=1.00&verbdir=http://www.buzzfeed.com/ht/sailorjerryrum/10-drinks-named-after-famous-people/HFB1510261\np3829\nsVview_tag\np3830\ng37\nsa(dp3831\nValt_view_tags\np3832\n(lp3833\nsVbody\np3834\nVCheck out "10 Drinks Named After Famous People" - a BuzzFeed Exclusive! \\u000a Along with Sailor Jerry, check out these popular drinks!\np3835\nsVimage_hash\np3836\nV745f56f8dd02e0dbb99dc5ebe7a8042a\np3837\nsVname\np3838\nVDrinks From Famous People-06\np3839\nsVtitle\np3840\nVDrinks From Famous People\np3841\nsVcreative_id\np3842\nV6003853202165\np3843\nsVpreview_url\np3844\nVhttp://www.facebook.com/ads/api/creative_preview.php?cid=6003853202165\np3845\nsVid\np3846\nV6003853202165\np3847\nsVimage_url\np3848\nVhttps://fbcdn-creative-a.akamaihd.net/hads-ak-ash3/s110x80/701898_6006844752965_36688_n.jpg\np3849\nsVcount_current_adgroups\np3850\nI0\nsVrun_status\np3851\nI1\nsVtype\np3852\nI1\nsVlink_url\np3853\nVhttp://t.cpmadvisors.com/click?cr=7476&bl=1000001319&sl=4726&se=1&pu=151027&v=214748360&ci=blank&so=facebook&prc=1.00&verbdir=http://www.buzzfeed.com/ht/sailorjerryrum/10-drinks-named-after-famous-people/HFB1510271\np3854\nsVview_tag\np3855\ng37\nsa(dp3856\nValt_view_tags\np3857\n(lp3858\nsVbody\np3859\nVCheck out "10 Drinks Named After Famous People" - a BuzzFeed Exclusive! \\u000a Success means having a cocktail named after you, right?\np3860\nsVimage_hash\np3861\nV745f56f8dd02e0dbb99dc5ebe7a8042a\np3862\nsVname\np3863\nV10 Star Inspired Drinks!-03\np3864\nsVtitle\np3865\nV10 Star Inspired Drinks!\np3866\nsVcreative_id\np3867\nV6003853204765\np3868\nsVpreview_url\np3869\nVhttp://www.facebook.com/ads/api/creative_preview.php?cid=6003853204765\np3870\nsVid\np3871\nV6003853204765\np3872\nsVimage_url\np3873\nVhttps://fbcdn-creative-a.akamaihd.net/hads-ak-ash3/s110x80/701898_6006844752965_36688_n.jpg\np3874\nsVcount_current_adgro'
p6
sS'hash'
p7
S'1583c7c82469013a6afd758f5d0deb803d8f9c3b'
p8
sS'stack'
p9
S''
s.