(dp1
S'args'
p2
S''
sS'methodname'
p3
S''
sS'packet_num'
p4
I135
sS'returnval'
p5
S'\np18610\nsVcreative_id\np18611\nV6005369603965\np18612\nsVpreview_url\np18613\nVhttp://www.facebook.com/ads/api/creative_preview.php?cid=6005369603965\np18614\nsVobject_id\np18615\nV21898300328\np18616\nsVcount_current_adgroups\np18617\nI0\nsVrun_status\np18618\nI1\nsVtype\np18619\nI27\nsVid\np18620\nV6005369603965\np18621\nsa(dp18622\nVname\np18623\nVAd from a Page post #6005370768165\np18624\nsVauto_update\np18625\nI1\nsVstory_id\np18626\nI166723463460703\nsVcreative_id\np18627\nV6005370768165\np18628\nsVpreview_url\np18629\nVhttp://www.facebook.com/ads/api/creative_preview.php?cid=6005370768165\np18630\nsVobject_id\np18631\nV21898300328\np18632\nsVcount_current_adgroups\np18633\nI0\nsVrun_status\np18634\nI1\nsVtype\np18635\nI27\nsVid\np18636\nV6005370768165\np18637\nsa(dp18638\nVname\np18639\nVAd from a Page post #6005371003165\np18640\nsVauto_update\np18641\nI1\nsVstory_id\np18642\nI114227585386361\nsVcreative_id\np18643\nV6005371003165\np18644\nsVpreview_url\np18645\nVhttp://www.facebook.com/ads/api/creative_preview.php?cid=6005371003165\np18646\nsVobject_id\np18647\nV21898300328\np18648\nsVcount_current_adgroups\np18649\nI0\nsVrun_status\np18650\nI1\nsVtype\np18651\nI27\nsVid\np18652\nV6005371003165\np18653\nsa(dp18654\nVname\np18655\nVAd from a Page post #6005371479965\np18656\nsVauto_update\np18657\nI1\nsVstory_id\np18658\nV10151066132950329\np18659\nsVcreative_id\np18660\nV6005371479965\np18661\nsVpreview_url\np18662\nVhttp://www.facebook.com/ads/api/creative_preview.php?cid=6005371479965\np18663\nsVobject_id\np18664\nV21898300328\np18665\nsVcount_current_adgroups\np18666\nI0\nsVrun_status\np18667\nI1\nsVtype\np18668\nI27\nsVid\np18669\nV6005371479965\np18670\nsa(dp18671\nVname\np18672\nVAd from a Page post #6005371593965\np18673\nsVauto_update\np18674\nI1\nsVstory_id\np18675\nI411982572178452\nsVcreative_id\np18676\nV6005371593965\np18677\nsVpreview_url\np18678\nVhttp://www.facebook.com/ads/api/creative_preview.php?cid=6005371593965\np18679\nsVobject_id\np18680\nV21898300328\np18681\nsVcount_current_adgroups\np18682\nI0\nsVrun_status\np18683\nI1\nsVtype\np18684\nI27\nsVid\np18685\nV6005371593965\np18686\nsa(dp18687\nVname\np18688\nVAd from a Page post #6005376745765\np18689\nsVauto_update\np18690\nI1\nsVstory_id\np18691\nI492234987469177\nsVcreative_id\np18692\nV6005376745765\np18693\nsVpreview_url\np18694\nVhttp://www.facebook.com/ads/api/creative_preview.php?cid=6005376745765\np18695\nsVobject_id\np18696\nV21898300328\np18697\nsVcount_current_adgroups\np18698\nI0\nsVrun_status\np18699\nI1\nsVtype\np18700\nI27\nsVid\np18701\nV6005376745765\np18702\nsa(dp18703\nVname\np18704\nVAd from a Page post #6005377263565\np18705\nsVauto_update\np18706\nI1\nsVstory_id\np18707\nI125083497632227\nsVcreative_id\np18708\nV6005377263565\np18709\nsVpreview_url\np18710\nVhttp://www.facebook.com/ads/api/creative_preview.php?cid=6005377263565\np18711\nsVobject_id\np18712\nV21898300328\np18713\nsVcount_current_adgroups\np18714\nI0\nsVrun_status\np18715\nI1\nsVtype\np18716\nI27\nsVid\np18717\nV6005377263565\np18718\nsa(dp18719\nVname\np18720\nVAd from a Page post #6005382799165\np18721\nsVauto_update\np18722\nI1\nsVstory_id\np18723\nI167384660062152\nsVcreative_id\np18724\nV6005382799165\np18725\nsVpreview_url\np18726\nVhttp://www.facebook.com/ads/api/creative_preview.php?cid=6005382799165\np18727\nsVobject_id\np18728\nV21898300328\np18729\nsVcount_current_adgroups\np18730\nI0\nsVrun_status\np18731\nI1\nsVtype\np18732\nI27\nsVid\np18733\nV6005382799165\np18734\nsa(dp18735\nVname\np18736\nVAd from a Page post #6005382876565\np18737\nsVauto_update\np18738\nI1\nsVstory_id\np18739\nI327123997373021\nsVcreative_id\np18740\nV6005382876565\np18741\nsVpreview_url\np18742\nVhttp://www.facebook.com/ads/api/creative_preview.php?cid=6005382876565\np18743\nsVobject_id\np18744\nV21898300328\np18745\nsVcount_current_adgroups\np18746\nI0\nsVrun_status\np18747\nI1\nsVtype\np18748\nI27\nsVid\np18749\nV6005382876565\np18750\nsa(dp18751\nVname\np18752\nVAd from a Page post #6005383701765\np18753\nsVauto_update\np18754\nI1\nsVstory_id\np18755\nI460974017248979\nsVcreative_id\np18756\nV6005383701765\np18757\nsVpreview_url\np18758\nVhttp://www.facebook.com/ads/api/creative_preview.php?cid=6005383701765\np18759\nsVobject_id\np18760\nV21898300328\np18761\nsVcount_current_adgroups\np18762\nI0\nsVrun_status\np18763\nI1\nsVtype\np18764\nI27\nsVid\np18765\nV6005383701765\np18766\nsa(dp18767\nVname\np18768\nV'
p6
sS'hash'
p7
S'1583c7c82469013a6afd758f5d0deb803d8f9c3b'
p8
sS'stack'
p9
S''
s.