(dp1
S'args'
p2
S''
sS'methodname'
p3
S''
sS'packet_num'
p4
I59
sS'returnval'
p5
S'sition past three years.  Wonder why? Check out this article and learn all about it!\np7360\nsVimage_hash\np7361\nV3b1ec0ce4e1d379047cb4cfd41f91f6f\np7362\nsVname\np7363\nVRoles Of Successful CMOs\np7364\nsVtitle\np7365\nVRoles Of Successful CMOs\np7366\nsVcreative_id\np7367\nV6003674284165\np7368\nsVpreview_url\np7369\nVhttp://www.facebook.com/ads/api/creative_preview.php?cid=6003674284165\np7370\nsVid\np7371\nV6003674284165\np7372\nsVimage_url\np7373\nVhttps://fbcdn-creative-a.akamaihd.net/hads-ak-ash3/s110x80/708206_6006844395565_21794_n.jpg\np7374\nsVcount_current_adgroups\np7375\nI0\nsVrun_status\np7376\nI1\nsVtype\np7377\nI1\nsVlink_url\np7378\nVhttp://bzfd.it/nOjDul\np7379\nsVview_tag\np7380\ng37\nsa(dp7381\nValt_view_tags\np7382\n(lp7383\nsVbody\np7384\nVIf you think marriage is the key to a successful relationship, think again. See the "Top 5 Best Unconventional Couples" on BuzzFeed!\np7385\nsVimage_hash\np7386\nV1fea49701c416710b57799d2cc2d8054\np7387\nsVname\np7388\nV5 Unconventional Couples\np7389\nsVtitle\np7390\nV5 Unconventional Couples\np7391\nsVcreative_id\np7392\nV6003688496565\np7393\nsVpreview_url\np7394\nVhttp://www.facebook.com/ads/api/creative_preview.php?cid=6003688496565\np7395\nsVid\np7396\nV6003688496565\np7397\nsVimage_url\np7398\nVhttps://fbcdn-creative-a.akamaihd.net/hads-ak-ash3/s110x80/708205_6006844247565_35568_n.jpg\np7399\nsVcount_current_adgroups\np7400\nI0\nsVrun_status\np7401\nI1\nsVtype\np7402\nI1\nsVlink_url\np7403\nVhttp://bzfd.it/oqqeK1\np7404\nsVview_tag\np7405\ng37\nsa(dp7406\nValt_view_tags\np7407\n(lp7408\nsVbody\np7409\nVConsumers Rock!  As a brand, keeping consumers from the competition is a priority.  Check out some key facts to prevent this!\np7410\nsVimage_hash\np7411\nVa70f964e56e3094a056e17830f79d10f\np7412\nsVname\np7413\nVConsumers Must Feel It!\np7414\nsVtitle\np7415\nVConsumers Must Feel It!\np7416\nsVcreative_id\np7417\nV6003689325165\np7418\nsVpreview_url\np7419\nVhttp://www.facebook.com/ads/api/creative_preview.php?cid=6003689325165\np7420\nsVid\np7421\nV6003689325165\np7422\nsVimage_url\np7423\nVhttps://fbcdn-creative-a.akamaihd.net/hads-ak-prn1/s110x80/708189_6006845052765_33318_n.jpg\np7424\nsVcount_current_adgroups\np7425\nI0\nsVrun_status\np7426\nI1\nsVtype\np7427\nI1\nsVlink_url\np7428\nVhttp://bzfd.it/nlSM2i\np7429\nsVview_tag\np7430\ng37\nsa(dp7431\nValt_view_tags\np7432\n(lp7433\nsVbody\np7434\nVAdvances in technology and social media make expressing and sharing ideas more useful and powerful then ever! Learn And Take Advantage!\np7435\nsVimage_hash\np7436\nVaec20417836efe678e8d7c7d6ef0d19e\np7437\nsVname\np7438\nVSee The Value Of Ideas!\np7439\nsVtitle\np7440\nVSee The Value Of Ideas!\np7441\nsVcreative_id\np7442\nV6003693389765\np7443\nsVpreview_url\np7444\nVhttp://www.facebook.com/ads/api/creative_preview.php?cid=6003693389765\np7445\nsVid\np7446\nV6003693389765\np7447\nsVimage_url\np7448\nVhttps://fbcdn-creative-a.akamaihd.net/hads-ak-prn1/s110x80/708189_6006845103965_52122_n.jpg\np7449\nsVcount_current_adgroups\np7450\nI0\nsVrun_status\np7451\nI1\nsVtype\np7452\nI1\nsVlink_url\np7453\nVhttp://bzfd.it/nfKCPb\np7454\nsVview_tag\np7455\ng37\nsa(dp7456\nValt_view_tags\np7457\n(lp7458\nsVbody\np7459\nVCheck out BuzzFeed for exclusive content of Pacifico\'s "Adventures on Tap" tour.\np7460\nsVimage_hash\np7461\nVae8c9e0f13c80655ccfc0b8527aba912\np7462\nsVname\np7463\nVPacifico @ BuzzFeed\np7464\nsVtitle\np7465\nVPacifico @ BuzzFeed\np7466\nsVcreative_id\np7467\nV6003644955565\np7468\nsVpreview_url\np7469\nVhttp://www.facebook.com/ads/api/creative_preview.php?cid=6003644955565\np7470\nsVid\np7471\nV6003644955565\np7472\nsVimage_url\np7473\nVhttps://fbcdn-creative-a.akamaihd.net/hads-ak-prn1/s110x80/708189_6006845102365_3443_n.jpg\np7474\nsVcount_current_adgroups\np7475\nI0\nsVrun_status\np7476\nI1\nsVtype\np7477\nI1\nsVlink_url\np7478\nVhttp://bzfd.it/oILuTC\np7479\nsVview_tag\np7480\ng37\nsa(dp7481\nValt_view_tags\np7482\n(lp7483\nsVbody\np7484\nVHere\'s our list of "10 Outrageous Adventures You Have To Try Before You Die" and check out more stuff from our friends @ Pacifico.\np7485\nsVimage_hash\np7486\nVd94cb2e121b349fb01aa57b571247f02\np7487\nsVname\np7488\nVBuzzFeed Exclusive\np7489\nsVtitle\np7490\nVBuzzFeed Exclusive\np7491\nsVcreative_id\np7492\nV6003662010765\np7493\nsVpreview_url\np7494\nVhttp://www.facebook.com/ads/api/c'
p6
sS'hash'
p7
S'1583c7c82469013a6afd758f5d0deb803d8f9c3b'
p8
sS'stack'
p9
S''
s.