(dp1
S'args'
p2
S''
sS'methodname'
p3
S''
sS'packet_num'
p4
I17
sS'returnval'
p5
S't_adgroups\np2232\nI0\nsVrun_status\np2233\nI1\nsVtype\np2234\nI1\nsVlink_url\np2235\nVhttp://www.buzzfeed.com/h1/fba/professionalbullriders/the-10-craziest-bull-riding-videos\np2236\nsVview_tag\np2237\ng37\nsa(dp2238\nValt_view_tags\np2239\n(lp2240\nsVbody\np2241\nVCheck out some of the most out of control bull rides ever caught on tape in "The 10 Craziest Bull Riding Videos" by BuzzFeed\np2242\nsVimage_hash\np2243\nVbb105c4025b9d64ea78ab18ebcd7bc35\np2244\nsVname\np2245\nVInsane Bull Riding Videos-00\np2246\nsVtitle\np2247\nVInsane Bull Riding Videos\np2248\nsVcreative_id\np2249\nV6004335535765\np2250\nsVpreview_url\np2251\nVhttp://www.facebook.com/ads/api/creative_preview.php?cid=6004335535765\np2252\nsVid\np2253\nV6004335535765\np2254\nsVimage_url\np2255\nVhttps://fbcdn-creative-a.akamaihd.net/hads-ak-prn1/s110x80/708201_6006845173965_1392_n.jpg\np2256\nsVcount_current_adgroups\np2257\nI0\nsVrun_status\np2258\nI1\nsVtype\np2259\nI1\nsVlink_url\np2260\nVhttp://www.buzzfeed.com/h1/fba/professionalbullriders/the-10-craziest-bull-riding-videos\np2261\nsVview_tag\np2262\ng37\nsa(dp2263\nValt_view_tags\np2264\n(lp2265\nsVbody\np2266\nVLearn more about Professional Bull Riding in BuzzFeed\'s "10 Things You Didn\'t Know About PBR". \np2267\nsVimage_hash\np2268\nVddf2979730fc3a66e6fa2154136f5e8a\np2269\nsVname\np2270\nVProfessional Bull Riding!\np2271\nsVtitle\np2272\nVProfessional Bull Riding!\np2273\nsVcreative_id\np2274\nV6004335525965\np2275\nsVpreview_url\np2276\nVhttp://www.facebook.com/ads/api/creative_preview.php?cid=6004335525965\np2277\nsVid\np2278\nV6004335525965\np2279\nsVimage_url\np2280\nVhttps://fbcdn-creative-a.akamaihd.net/hads-ak-ash3/s110x80/708172_6006845378565_845_n.jpg\np2281\nsVcount_current_adgroups\np2282\nI0\nsVrun_status\np2283\nI1\nsVtype\np2284\nI1\nsVlink_url\np2285\nVhttp://www.buzzfeed.com/h1/fba/professionalbullriders/10-things-you-didnt-know-about-pbr\np2286\nsVview_tag\np2287\ng37\nsa(dp2288\nValt_view_tags\np2289\n(lp2290\nsVbody\np2291\nVCheck out "20 Pictures That Will Give You Holiday Cheer" by BuzzFeed.  These pictures will definitely put a smile on your face!\np2292\nsVimage_hash\np2293\nVc5a29d80c567efb15b968bedda6f389a\np2294\nsVname\np2295\nV20 Reasons To Smile!\np2296\nsVtitle\np2297\nV20 Reasons To Smile!\np2298\nsVcreative_id\np2299\nV6004295258765\np2300\nsVpreview_url\np2301\nVhttp://www.facebook.com/ads/api/creative_preview.php?cid=6004295258765\np2302\nsVid\np2303\nV6004295258765\np2304\nsVimage_url\np2305\nVhttps://fbcdn-creative-a.akamaihd.net/hads-ak-ash3/s110x80/701897_6006845237365_65502_n.jpg\np2306\nsVcount_current_adgroups\np2307\nI0\nsVrun_status\np2308\nI1\nsVtype\np2309\nI1\nsVlink_url\np2310\nVhttp://www.buzzfeed.com/h1/fba/mentos/20-pictures-that-will-give-you-holiday-cheer\np2311\nsVview_tag\np2312\ng37\nsa(dp2313\nValt_view_tags\np2314\n(lp2315\nsVbody\np2316\nVCheck BuzzFeed\'s list of "The 10 Best Things To Come Out Of Australia". Koalas are on the list - What\'s your pick?\np2317\nsVimage_hash\np2318\nV11c3f3ae066851d9385444b2696a09e2\np2319\nsVname\np2320\nVBuzzFeed-18\np2321\nsVtitle\np2322\ng37\nsVcreative_id\np2323\nV6004290001365\np2324\nsVpreview_url\np2325\nVhttp://www.facebook.com/ads/api/creative_preview.php?cid=6004290001365\np2326\nsVobject_id\np2327\nI21898300328\nsVid\np2328\nV6004290001365\np2329\nsVimage_url\np2330\nVhttps://fbcdn-creative-a.akamaihd.net/hads-ak-prn1/s110x80/708177_6006844158165_37983_n.jpg\np2331\nsVcount_current_adgroups\np2332\nI0\nsVrun_status\np2333\nI1\nsVtype\np2334\nI2\nsVlink_url\np2335\nVhttp://www.facebook.com/BuzzFeed?sk=wall\np2336\nsVview_tag\np2337\ng37\nsa(dp2338\nValt_view_tags\np2339\n(lp2340\nsVbody\np2341\nVCheck BuzzFeed\'s list of "The 10 Best Things To Come Out Of Australia". AC/DC is on the list - What\'s your pick?\np2342\nsVimage_hash\np2343\nVd8254f97514687da7fd5eb8f90b887e4\np2344\nsVname\np2345\nVBuzzFeed-19\np2346\nsVtitle\np2347\ng37\nsVcreative_id\np2348\nV6004290006965\np2349\nsVpreview_url\np2350\nVhttp://www.facebook.com/ads/api/creative_preview.php?cid=6004290006965\np2351\nsVobject_id\np2352\nI21898300328\nsVid\np2353\nV6004290006965\np2354\nsVimage_url\np2355\nVhttps://fbcdn-creative-a.akamaihd.net/hads-ak-ash3/s110x80/708161_6006845342165_25654_n.jpg\np2356\nsVcount_current_adgroups\np2357\nI0\nsVrun_status\np2358\nI1\nsVtype\np2359\nI2\nsVlink_url\np2360\nVhttp:/'
p6
sS'hash'
p7
S'1583c7c82469013a6afd758f5d0deb803d8f9c3b'
p8
sS'stack'
p9
S''
s.