(dp1
S'args'
p2
S''
sS'methodname'
p3
S''
sS'packet_num'
p4
I12
sS'returnval'
p5
S'd879d7b42c59ea7952351913\np1594\nsVname\np1595\nV10 Videos You Have To See\np1596\nsVtitle\np1597\nV10 Videos You Have To See\np1598\nsVcreative_id\np1599\nV6004658099165\np1600\nsVpreview_url\np1601\nVhttp://www.facebook.com/ads/api/creative_preview.php?cid=6004658099165\np1602\nsVid\np1603\nV6004658099165\np1604\nsVimage_url\np1605\nVhttps://fbcdn-creative-a.akamaihd.net/hads-ak-snc7/s110x80/701898_6006845023365_48838_n.jpg\np1606\nsVcount_current_adgroups\np1607\nI0\nsVrun_status\np1608\nI1\nsVtype\np1609\nI1\nsVlink_url\np1610\nVhttp://www.buzzfeed.com/h1/fba/tosh.0/people-who-deserve-a-chance-at-web-redemption\np1611\nsVview_tag\np1612\ng37\nsa(dp1613\nValt_view_tags\np1614\n(lp1615\nsVbody\np1616\nV"Eating an Onion to Beyonce" is one of them.  Check out the rest on BuzzFeed!\np1617\nsVimage_hash\np1618\nVa225e770d879d7b42c59ea7952351913\np1619\nsVname\np1620\nV10 Videos You Have To See-00\np1621\nsVtitle\np1622\nV10 Videos You Have To See\np1623\nsVcreative_id\np1624\nV6004658101765\np1625\nsVpreview_url\np1626\nVhttp://www.facebook.com/ads/api/creative_preview.php?cid=6004658101765\np1627\nsVid\np1628\nV6004658101765\np1629\nsVimage_url\np1630\nVhttps://fbcdn-creative-a.akamaihd.net/hads-ak-snc7/s110x80/701898_6006845023365_48838_n.jpg\np1631\nsVcount_current_adgroups\np1632\nI1\nsVrun_status\np1633\nI1\nsVtype\np1634\nI1\nsVlink_url\np1635\nVhttp://www.buzzfeed.com/h1/fba/tosh.0/viral-videos-you-should-know-about-ri9\np1636\nsVview_tag\np1637\ng37\nsa(dp1638\nValt_view_tags\np1639\n(lp1640\nsVbody\np1641\nVCheck out these clips of MADtv stars Keegan and Jordan in their new TV show "Key & Peele" !\np1642\nsVimage_hash\np1643\nVb0105a96583a5e5bb43d5ad56c996cbc\np1644\nsVname\np1645\nVSh*t Black People Do-00\np1646\nsVtitle\np1647\nVSh*t Black People Do\np1648\nsVcreative_id\np1649\nV6004658081965\np1650\nsVpreview_url\np1651\nVhttp://www.facebook.com/ads/api/creative_preview.php?cid=6004658081965\np1652\nsVid\np1653\nV6004658081965\np1654\nsVimage_url\np1655\nVhttps://fbcdn-creative-a.akamaihd.net/hads-ak-snc7/s110x80/701888_6006845111565_60091_n.jpg\np1656\nsVcount_current_adgroups\np1657\nI0\nsVrun_status\np1658\nI1\nsVtype\np1659\nI1\nsVlink_url\np1660\nVhttp://www.buzzfeed.com/h1/fba/keyandpeele/shit-you-expect-black-people-to-do\np1661\nsVview_tag\np1662\ng37\nsa(dp1663\nValt_view_tags\np1664\n(lp1665\nsVbody\np1666\nVCheck out these clips of MADtv stars Keegan and Jordan in their new TV show "Key & Peele" !\np1667\nsVimage_hash\np1668\nVb0105a96583a5e5bb43d5ad56c996cbc\np1669\nsVname\np1670\nVSh*t Black People Do\np1671\nsVtitle\np1672\nVSh*t Black People Do\np1673\nsVcreative_id\np1674\nV6004658078965\np1675\nsVpreview_url\np1676\nVhttp://www.facebook.com/ads/api/creative_preview.php?cid=6004658078965\np1677\nsVid\np1678\nV6004658078965\np1679\nsVimage_url\np1680\nVhttps://fbcdn-creative-a.akamaihd.net/hads-ak-snc7/s110x80/701888_6006845111565_60091_n.jpg\np1681\nsVcount_current_adgroups\np1682\nI0\nsVrun_status\np1683\nI1\nsVtype\np1684\nI1\nsVlink_url\np1685\nVhttp://www.buzzfeed.com/h1/fba/tosh.0/viral-videos-you-should-know-about-ri9\np1686\nsVview_tag\np1687\ng37\nsa(dp1688\nValt_view_tags\np1689\n(lp1690\nsVbody\np1691\nVCheck out BuzzFeed\'s "Super Bowl Grub Bible" for 15 snack recipes that will impress anyone!\np1692\nsVimage_hash\np1693\nVc1cbb38f7387d30697f8002e043edbd5\np1694\nsVname\np1695\nVCrescent Cheese Dogs\np1696\nsVtitle\np1697\nVCrescent Cheese Dogs\np1698\nsVcreative_id\np1699\nV6004591912165\np1700\nsVpreview_url\np1701\nVhttp://www.facebook.com/ads/api/creative_preview.php?cid=6004591912165\np1702\nsVid\np1703\nV6004591912165\np1704\nsVimage_url\np1705\nVhttps://fbcdn-creative-a.akamaihd.net/hads-ak-ash3/s110x80/708199_6006845212365_39209_n.jpg\np1706\nsVcount_current_adgroups\np1707\nI0\nsVrun_status\np1708\nI1\nsVtype\np1709\nI1\nsVlink_url\np1710\nVhttp://www.buzzfeed.com/h1/fba/pillsbury/the-super-bowl-grub-bible-2pec\np1711\nsVview_tag\np1712\ng37\nsa(dp1713\nValt_view_tags\np1714\n(lp1715\nsVbody\np1716\nVFind out what the top 10 most important spy skills are. "Sex Appeal" is one of them.\np1717\nsVimage_hash\np1718\nVa34608f4a6a3ee01c7f6b50831cf80f9\np1719\nsVname\np1720\nVArcher\'s Spy Skills-00\np1721\nsVtitle\np1722\nVArcher\'s Spy Skills\np1723\nsVcreative_id\np1724\nV6004473900365\np1725\nsVpreview_url\np1726\nVhttp://www.facebook.com/ads/api/crea'
p6
sS'hash'
p7
S'1583c7c82469013a6afd758f5d0deb803d8f9c3b'
p8
sS'stack'
p9
S''
s.