(dp1
S'args'
p2
S''
sS'methodname'
p3
S''
sS'packet_num'
p4
I67
sS'returnval'
p5
S'e_hash\np8411\nVc7ed14e0d837ee892eb1c235d945b2bf\np8412\nsVname\np8413\nVThe Glass Man\np8414\nsVtitle\np8415\nVThe Glass Man\np8416\nsVcreative_id\np8417\nV6005680732365\np8418\nsVpreview_url\np8419\nVhttp://www.facebook.com/ads/api/creative_preview.php?cid=6005680732365\np8420\nsVid\np8421\nV6005680732365\np8422\nsVimage_url\np8423\nVhttps://fbcdn-creative-a.akamaihd.net/hads-ak-prn1/s110x80/708172_6006845247165_46929_n.jpg\np8424\nsVcount_current_adgroups\np8425\nI1\nsVrun_status\np8426\nI1\nsVtype\np8427\nI1\nsVlink_url\np8428\nVhttp://www.buzzfeed.com/h1/fbad/arbys/13-stunning-examples-of-glass-art-5eak\np8429\nsVview_tag\np8430\ng37\nsa(dp8431\nValt_view_tags\np8432\n(lp8433\nsVbody\np8434\nVSee more of the "10 Badass Spy Gadgets That Are Almost Too Cool To Believe." On Buzzfeed!\np8435\nsVimage_hash\np8436\nV617894b3b554e95f53af071b650a8868\np8437\nsVname\np8438\nVFace Scanning Glasses?-00\np8439\nsVtitle\np8440\nVFace Scanning Glasses?\np8441\nsVcreative_id\np8442\nV6005676050165\np8443\nsVpreview_url\np8444\nVhttp://www.facebook.com/ads/api/creative_preview.php?cid=6005676050165\np8445\nsVid\np8446\nV6005676050165\np8447\nsVimage_url\np8448\nVhttps://fbcdn-creative-a.akamaihd.net/hads-ak-ash3/s110x80/701903_6006844645565_40243_n.jpg\np8449\nsVcount_current_adgroups\np8450\nI1\nsVrun_status\np8451\nI1\nsVtype\np8452\nI1\nsVlink_url\np8453\nVhttp://www.buzzfeed.com/h1/fbad/daybreak/10-badass-spy-gadgets-that-are-almost-too-cool-to\np8454\nsVview_tag\np8455\ng37\nsa(dp8456\nValt_view_tags\np8457\n(lp8458\nsVbody\np8459\nVCheck Out "13 Amazing Dancers Who Will Inspire You" on BuzzFeed!\np8460\nsVimage_hash\np8461\nVe76c279098bc7ee0271faaf1fe67b6bd\np8462\nsVname\np8463\nVDoin\' the Moonwalk\np8464\nsVtitle\np8465\nVDoin\' the Moonwalk\np8466\nsVcreative_id\np8467\nV6005681688965\np8468\nsVpreview_url\np8469\nVhttp://www.facebook.com/ads/api/creative_preview.php?cid=6005681688965\np8470\nsVid\np8471\nV6005681688965\np8472\nsVimage_url\np8473\nVhttps://fbcdn-creative-a.akamaihd.net/hads-ak-ash3/s110x80/708171_6006845446965_57233_n.jpg\np8474\nsVcount_current_adgroups\np8475\nI1\nsVrun_status\np8476\nI1\nsVtype\np8477\nI1\nsVlink_url\np8478\nVhttp://www.buzzfeed.com/h1/fbad/gap/13-amazing-dancers-who-will-inspire-you\np8479\nsVview_tag\np8480\ng37\nsa(dp8481\nValt_view_tags\np8482\n(lp8483\nsVbody\np8484\nVIf you don\'t, then you need to see the "12 Photos Of Ghosts That Will Make You Believe."\np8485\nsVimage_hash\np8486\nVe1f69974926f0b6d1fd7692600df656e\np8487\nsVname\np8488\nVBelieve in Ghosts?-00\np8489\nsVtitle\np8490\nVBelieve in Ghosts?\np8491\nsVcreative_id\np8492\nV6005680622765\np8493\nsVpreview_url\np8494\nVhttp://www.facebook.com/ads/api/creative_preview.php?cid=6005680622765\np8495\nsVid\np8496\nV6005680622765\np8497\nsVimage_url\np8498\nVhttps://fbcdn-creative-a.akamaihd.net/hads-ak-ash3/s110x80/708157_6006845411365_58243_n.jpg\np8499\nsVcount_current_adgroups\np8500\nI1\nsVrun_status\np8501\nI1\nsVtype\np8502\nI1\nsVlink_url\np8503\nVhttp://www.buzzfeed.com/h1/fbad/theapparition/photos-of-ghosts-that-will-make-you-believe\np8504\nsVview_tag\np8505\ng37\nsa(dp8506\nValt_view_tags\np8507\n(lp8508\nsVbody\np8509\nVHe makes the list of the "Hottest Body Paint Transformations." See who else did!\np8510\nsVimage_hash\np8511\nVde2629dbad71ef548bb96435565c1b3a\np8512\nsVname\np8513\nVThat Iguana is Two Hands?-00\np8514\nsVtitle\np8515\nVThe Blue Man\np8516\nsVcreative_id\np8517\nV6005659657565\np8518\nsVpreview_url\np8519\nVhttp://www.facebook.com/ads/api/creative_preview.php?cid=6005659657565\np8520\nsVid\np8521\nV6005659657565\np8522\nsVimage_url\np8523\nVhttps://fbcdn-creative-a.akamaihd.net/hads-ak-ash3/s110x80/708179_6006845384165_60230_n.jpg\np8524\nsVcount_current_adgroups\np8525\nI0\nsVrun_status\np8526\nI1\nsVtype\np8527\nI1\nsVlink_url\np8528\nVhttp://www.buzzfeed.com/h1/fbad/syfy/24-of-the-hottest-body-paint-transformations-ever-6wms\np8529\nsVview_tag\np8530\ng37\nsa(dp8531\nValt_view_tags\np8532\n(lp8533\nsVbody\np8534\nVCheck out the rest of the "Hottest Body Paint Transformations." Only on Buzzfeed!\np8535\nsVimage_hash\np8536\nV8b0b68126c2488b75fb866d3ef0e3ce6\np8537\nsVname\np8538\nVThat Iguana is Two Hands?\np8539\nsVtitle\np8540\nVThat Iguana is Two Hands?\np8541\nsVcreative_id\np8542\nV6005659654165\np8543\nsVpreview_url\np8544\nVhttp://www.facebook.com/ads/api/creat'
p6
sS'hash'
p7
S'1583c7c82469013a6afd758f5d0deb803d8f9c3b'
p8
sS'stack'
p9
S''
s.