(dp1
S'args'
p2
S''
sS'methodname'
p3
S''
sS'packet_num'
p4
I92
sS'returnval'
p5
S'Vobject_id\np11731\nV21898300328\np11732\nsVcount_current_adgroups\np11733\nI0\nsVrun_status\np11734\nI1\nsVtype\np11735\nI27\nsVid\np11736\nV6003877795765\np11737\nsa(dp11738\nVname\np11739\nVSponsored Page Post #6003879553165\np11740\nsVauto_update\np11741\nI1\nsVstory_id\np11742\nV10150418518005329\np11743\nsVcreative_id\np11744\nV6003879553165\np11745\nsVpreview_url\np11746\nVhttp://www.facebook.com/ads/api/creative_preview.php?cid=6003879553165\np11747\nsVobject_id\np11748\nV21898300328\np11749\nsVcount_current_adgroups\np11750\nI0\nsVrun_status\np11751\nI1\nsVtype\np11752\nI27\nsVid\np11753\nV6003879553165\np11754\nsa(dp11755\nVname\np11756\nVSponsored Page Post #6003886251365\np11757\nsVauto_update\np11758\nI1\nsVstory_id\np11759\nV10150419990815329\np11760\nsVcreative_id\np11761\nV6003886251365\np11762\nsVpreview_url\np11763\nVhttp://www.facebook.com/ads/api/creative_preview.php?cid=6003886251365\np11764\nsVobject_id\np11765\nV21898300328\np11766\nsVcount_current_adgroups\np11767\nI0\nsVrun_status\np11768\nI1\nsVtype\np11769\nI27\nsVid\np11770\nV6003886251365\np11771\nsa(dp11772\nVname\np11773\nVSponsored Page Post #6003897280565\np11774\nsVauto_update\np11775\nI1\nsVstory_id\np11776\nV10150424210335329\np11777\nsVcreative_id\np11778\nV6003897280565\np11779\nsVpreview_url\np11780\nVhttp://www.facebook.com/ads/api/creative_preview.php?cid=6003897280565\np11781\nsVobject_id\np11782\nV21898300328\np11783\nsVcount_current_adgroups\np11784\nI0\nsVrun_status\np11785\nI1\nsVtype\np11786\nI27\nsVid\np11787\nV6003897280565\np11788\nsa(dp11789\nVname\np11790\nVSponsored Page Post #6003900426565\np11791\nsVauto_update\np11792\nI1\nsVstory_id\np11793\nI180429518703022\nsVcreative_id\np11794\nV6003900426565\np11795\nsVpreview_url\np11796\nVhttp://www.facebook.com/ads/api/creative_preview.php?cid=6003900426565\np11797\nsVobject_id\np11798\nV21898300328\np11799\nsVcount_current_adgroups\np11800\nI0\nsVrun_status\np11801\nI1\nsVtype\np11802\nI27\nsVid\np11803\nV6003900426565\np11804\nsa(dp11805\nVname\np11806\nVPage Post Ad #6003904984765\np11807\nsVauto_update\np11808\nI1\nsVstory_id\np11809\nV10150426680725329\np11810\nsVcreative_id\np11811\nV6003904984765\np11812\nsVpreview_url\np11813\nVhttp://www.facebook.com/ads/api/creative_preview.php?cid=6003904984765\np11814\nsVobject_id\np11815\nV21898300328\np11816\nsVcount_current_adgroups\np11817\nI0\nsVrun_status\np11818\nI1\nsVtype\np11819\nI27\nsVid\np11820\nV6003904984765\np11821\nsa(dp11822\nVname\np11823\nVPage Post Ad #6003908892365\np11824\nsVauto_update\np11825\nI1\nsVstory_id\np11826\nV10150427919145329\np11827\nsVcreative_id\np11828\nV6003908892365\np11829\nsVpreview_url\np11830\nVhttp://www.facebook.com/ads/api/creative_preview.php?cid=6003908892365\np11831\nsVobject_id\np11832\nV21898300328\np11833\nsVcount_current_adgroups\np11834\nI0\nsVrun_status\np11835\nI1\nsVtype\np11836\nI27\nsVid\np11837\nV6003908892365\np11838\nsa(dp11839\nVname\np11840\nVPage Post Ad #6003927468365\np11841\nsVauto_update\np11842\nI1\nsVstory_id\np11843\nV10150433623275329\np11844\nsVcreative_id\np11845\nV6003927468365\np11846\nsVpreview_url\np11847\nVhttp://www.facebook.com/ads/api/creative_preview.php?cid=6003927468365\np11848\nsVobject_id\np11849\nV21898300328\np11850\nsVcount_current_adgroups\np11851\nI0\nsVrun_status\np11852\nI1\nsVtype\np11853\nI27\nsVid\np11854\nV6003927468365\np11855\nsa(dp11856\nVname\np11857\nVPage Post Ad #6003929952965\np11858\nsVauto_update\np11859\nI1\nsVstory_id\np11860\nV10150434512135329\np11861\nsVcreative_id\np11862\nV6003929952965\np11863\nsVpreview_url\np11864\nVhttp://www.facebook.com/ads/api/creative_preview.php?cid=6003929952965\np11865\nsVobject_id\np11866\nV21898300328\np11867\nsVcount_current_adgroups\np11868\nI0\nsVrun_status\np11869\nI1\nsVtype\np11870\nI27\nsVid\np11871\nV6003929952965\np11872\nsa(dp11873\nVname\np11874\nVPage Post Ad #6003943656365\np11875\nsVauto_update\np11876\nI1\nsVstory_id\np11877\nV10150436047680329\np11878\nsVcreative_id\np11879\nV6003943656365\np11880\nsVpreview_url\np11881\nVhttp://www.facebook.com/ads/api/creative_preview.php?cid=6003943656365\np11882\nsVobject_id\np11883\nV21898300328\np11884\nsVcount_current_adgroups\np11885\nI0\nsVrun_status\np11886\nI1\nsVtype\np11887\nI27\nsVid\np11888\nV6003943656365\np11889\nsa(dp11890\nVname\np11891\nVPage Post Ad #6003953878765\np11892\nsVauto_update\np11893\nI1\nsVstory_id\np11894\nV10150438431635329\np11895\nsVcreative_id\np11896\n'
p6
sS'hash'
p7
S'1583c7c82469013a6afd758f5d0deb803d8f9c3b'
p8
sS'stack'
p9
S''
s.