(dp1
S'args'
p2
S''
sS'methodname'
p3
S''
sS'packet_num'
p4
I133
sS'returnval'
p5
S'nt_current_adgroups\np18294\nI0\nsVrun_status\np18295\nI1\nsVtype\np18296\nI27\nsVid\np18297\nV6005334962965\np18298\nsa(dp18299\nVname\np18300\nVAd from a Page post #6005335238965\np18301\nsVauto_update\np18302\nI1\nsVstory_id\np18303\nI163354547130941\nsVcreative_id\np18304\nV6005335238965\np18305\nsVpreview_url\np18306\nVhttp://www.facebook.com/ads/api/creative_preview.php?cid=6005335238965\np18307\nsVobject_id\np18308\nV21898300328\np18309\nsVcount_current_adgroups\np18310\nI0\nsVrun_status\np18311\nI1\nsVtype\np18312\nI27\nsVid\np18313\nV6005335238965\np18314\nsa(dp18315\nVname\np18316\nVAd from a Page post #6005335875165\np18317\nsVauto_update\np18318\nI1\nsVstory_id\np18319\nI251852248257833\nsVcreative_id\np18320\nV6005335875165\np18321\nsVpreview_url\np18322\nVhttp://www.facebook.com/ads/api/creative_preview.php?cid=6005335875165\np18323\nsVobject_id\np18324\nV21898300328\np18325\nsVcount_current_adgroups\np18326\nI0\nsVrun_status\np18327\nI1\nsVtype\np18328\nI27\nsVid\np18329\nV6005335875165\np18330\nsa(dp18331\nVname\np18332\nVAd from a Page post #6005337280765\np18333\nsVauto_update\np18334\nI1\nsVstory_id\np18335\nI318589878228657\nsVcreative_id\np18336\nV6005337280765\np18337\nsVpreview_url\np18338\nVhttp://www.facebook.com/ads/api/creative_preview.php?cid=6005337280765\np18339\nsVobject_id\np18340\nV21898300328\np18341\nsVcount_current_adgroups\np18342\nI0\nsVrun_status\np18343\nI1\nsVtype\np18344\nI27\nsVid\np18345\nV6005337280765\np18346\nsa(dp18347\nVname\np18348\nVAd from a Page post #6005337686765\np18349\nsVauto_update\np18350\nI1\nsVstory_id\np18351\nV10151057986645329\np18352\nsVcreative_id\np18353\nV6005337686765\np18354\nsVpreview_url\np18355\nVhttp://www.facebook.com/ads/api/creative_preview.php?cid=6005337686765\np18356\nsVobject_id\np18357\nV21898300328\np18358\nsVcount_current_adgroups\np18359\nI0\nsVrun_status\np18360\nI1\nsVtype\np18361\nI27\nsVid\np18362\nV6005337686765\np18363\nsa(dp18364\nVname\np18365\nVAd from a Page post #6005343066565\np18366\nsVauto_update\np18367\nI1\nsVstory_id\np18368\nI352454474827475\nsVcreative_id\np18369\nV6005343066565\np18370\nsVpreview_url\np18371\nVhttp://www.facebook.com/ads/api/creative_preview.php?cid=6005343066565\np18372\nsVobject_id\np18373\nV21898300328\np18374\nsVcount_current_adgroups\np18375\nI0\nsVrun_status\np18376\nI1\nsVtype\np18377\nI27\nsVid\np18378\nV6005343066565\np18379\nsa(dp18380\nVname\np18381\nVAd from a Page post #6005343220565\np18382\nsVauto_update\np18383\nI1\nsVstory_id\np18384\nI439034836118818\nsVcreative_id\np18385\nV6005343220565\np18386\nsVpreview_url\np18387\nVhttp://www.facebook.com/ads/api/creative_preview.php?cid=6005343220565\np18388\nsVobject_id\np18389\nV21898300328\np18390\nsVcount_current_adgroups\np18391\nI0\nsVrun_status\np18392\nI1\nsVtype\np18393\nI27\nsVid\np18394\nV6005343220565\np18395\nsa(dp18396\nVname\np18397\nVAd from a Page post #6005357878165\np18398\nsVauto_update\np18399\nI1\nsVstory_id\np18400\nI408849575832915\nsVcreative_id\np18401\nV6005357878165\np18402\nsVpreview_url\np18403\nVhttp://www.facebook.com/ads/api/creative_preview.php?cid=6005357878165\np18404\nsVobject_id\np18405\nV21898300328\np18406\nsVcount_current_adgroups\np18407\nI0\nsVrun_status\np18408\nI1\nsVtype\np18409\nI27\nsVid\np18410\nV6005357878165\np18411\nsa(dp18412\nVname\np18413\nVAd from a Page post #6005358076165\np18414\nsVauto_update\np18415\nI1\nsVstory_id\np18416\nI415635241809164\nsVcreative_id\np18417\nV6005358076165\np18418\nsVpreview_url\np18419\nVhttp://www.facebook.com/ads/api/creative_preview.php?cid=6005358076165\np18420\nsVobject_id\np18421\nV21898300328\np18422\nsVcount_current_adgroups\np18423\nI0\nsVrun_status\np18424\nI1\nsVtype\np18425\nI27\nsVid\np18426\nV6005358076165\np18427\nsa(dp18428\nVname\np18429\nVAd from a Page post #6005358723565\np18430\nsVauto_update\np18431\nI1\nsVstory_id\np18432\nI333776316702339\nsVcreative_id\np18433\nV6005358723565\np18434\nsVpreview_url\np18435\nVhttp://www.facebook.com/ads/api/creative_preview.php?cid=6005358723565\np18436\nsVobject_id\np18437\nV21898300328\np18438\nsVcount_current_adgroups\np18439\nI0\nsVrun_status\np18440\nI1\nsVtype\np18441\nI27\nsVid\np18442\nV6005358723565\np18443\nsa(dp18444\nVname\np18445\nVAd from a Page post #6005358981565\np18446\nsVauto_update\np18447\nI1\nsVstory_id\np18448\nI258782857561008\nsVcreative_id\np18449\nV6005358981565\np18450\nsVpreview_url\np18451\nVhttp://www.facebook.com/ads/a'
p6
sS'hash'
p7
S'1583c7c82469013a6afd758f5d0deb803d8f9c3b'
p8
sS'stack'
p9
S''
s.