(dp1
S'args'
p2
S''
sS'methodname'
p3
S''
sS'packet_num'
p4
I60
sS'returnval'
p5
S"reative_preview.php?cid=6003662010765\np7495\nsVid\np7496\nV6003662010765\np7497\nsVimage_url\np7498\nVhttps://fbcdn-creative-a.akamaihd.net/hads-ak-prn1/s110x80/708182_6006845351365_23312_n.jpg\np7499\nsVcount_current_adgroups\np7500\nI0\nsVrun_status\np7501\nI1\nsVtype\np7502\nI1\nsVlink_url\np7503\nVhttp://bzfd.it/oILuTC\np7504\nsVview_tag\np7505\ng37\nsa(dp7506\nValt_view_tags\np7507\n(lp7508\nsVbody\np7509\nVWe are the creative team! Now the opinions of people are taken into consideration when brands need to send a message. Read More Now!\np7510\nsVimage_hash\np7511\nVe53145e3018e37b06f371d9b3c38b319\np7512\nsVname\np7513\nVCreativity Redefined\np7514\nsVtitle\np7515\nVCreativity Redefined\np7516\nsVcreative_id\np7517\nV6003668630365\np7518\nsVpreview_url\np7519\nVhttp://www.facebook.com/ads/api/creative_preview.php?cid=6003668630365\np7520\nsVid\np7521\nV6003668630365\np7522\nsVimage_url\np7523\nVhttps://fbcdn-creative-a.akamaihd.net/hads-ak-prn1/s110x80/708185_6006845432165_4492_n.jpg\np7524\nsVcount_current_adgroups\np7525\nI0\nsVrun_status\np7526\nI1\nsVtype\np7527\nI1\nsVlink_url\np7528\nVhttp://bzfd.it/nzarCk\np7529\nsVview_tag\np7530\ng37\nsa(dp7531\nValt_view_tags\np7532\n(lp7533\nsVbody\np7534\nVWe are the creative team! Now the opinions of people are taken into consideration when brands need to send a message. Read More Now!\np7535\nsVimage_hash\np7536\nV2a7379d47862ac542ed888087a587096\np7537\nsVname\np7538\nVOur Brains and Creativity\np7539\nsVtitle\np7540\nVOur Brains and Creativity\np7541\nsVcreative_id\np7542\nV6003668633365\np7543\nsVpreview_url\np7544\nVhttp://www.facebook.com/ads/api/creative_preview.php?cid=6003668633365\np7545\nsVid\np7546\nV6003668633365\np7547\nsVimage_url\np7548\nVhttps://fbcdn-creative-a.akamaihd.net/hads-ak-prn1/s110x80/708172_6006844307765_25021_n.jpg\np7549\nsVcount_current_adgroups\np7550\nI0\nsVrun_status\np7551\nI1\nsVtype\np7552\nI1\nsVlink_url\np7553\nVhttp://bzfd.it/nzarCk\np7554\nsVview_tag\np7555\ng37\nsa(dp7556\nValt_view_tags\np7557\n(lp7558\nsVbody\np7559\nVEver loose something and can't remember where you left it? Although embarrassing, you might want to check out these places.  Good luck!\np7560\nsVimage_hash\np7561\nVeb18dac19a0f023eb3305a852eed1d38\np7562\nsVname\np7563\nVLost Something? Look Here\np7564\nsVtitle\np7565\nVLost Something? Look Here\np7566\nsVcreative_id\np7567\nV6003671995765\np7568\nsVpreview_url\np7569\nVhttp://www.facebook.com/ads/api/creative_preview.php?cid=6003671995765\np7570\nsVid\np7571\nV6003671995765\np7572\nsVimage_url\np7573\nVhttps://fbcdn-creative-a.akamaihd.net/hads-ak-prn1/s110x80/708164_6006845472965_23013_n.jpg\np7574\nsVcount_current_adgroups\np7575\nI0\nsVrun_status\np7576\nI1\nsVtype\np7577\nI1\nsVlink_url\np7578\nVhttp://bzfd.it/neLE8s\np7579\nsVview_tag\np7580\ng37\nsa(dp7581\nValt_view_tags\np7582\n(lp7583\nsVbody\np7584\nVLoose something recently? Think you looked everywhere?  Think again! There are several embarrassing places that you might not think of.\np7585\nsVimage_hash\np7586\nVf54a953fd3e587d0dc12efec43c5af5f\np7587\nsVname\np7588\nVI Looked Everywhere!\np7589\nsVtitle\np7590\nVI Looked Everywhere!\np7591\nsVcreative_id\np7592\nV6003672016765\np7593\nsVpreview_url\np7594\nVhttp://www.facebook.com/ads/api/creative_preview.php?cid=6003672016765\np7595\nsVid\np7596\nV6003672016765\np7597\nsVimage_url\np7598\nVhttps://fbcdn-creative-a.akamaihd.net/hads-ak-prn1/s110x80/708186_6006845533965_43874_n.jpg\np7599\nsVcount_current_adgroups\np7600\nI0\nsVrun_status\np7601\nI1\nsVtype\np7602\nI1\nsVlink_url\np7603\nVhttp://bzfd.it/neLE8s\np7604\nsVview_tag\np7605\ng37\nsa(dp7606\nValt_view_tags\np7607\n(lp7608\nsVbody\np7609\nVRan out of things to do at the office? Relax, have fun, and play a little! See how we take care of work and play hard at the same time!\np7610\nsVimage_hash\np7611\nV6fb5e96b3f64cf52f3432890bb4ea188\np7612\nsVname\np7613\nVWork Hard, Play Harder!\np7614\nsVtitle\np7615\nVWork Hard, Play Harder!\np7616\nsVcreative_id\np7617\nV6003674292565\np7618\nsVpreview_url\np7619\nVhttp://www.facebook.com/ads/api/creative_preview.php?cid=6003674292565\np7620\nsVid\np7621\nV6003674292565\np7622\nsVimage_url\np7623\nVhttps://fbcdn-creative-a.akamaihd.net/hads-ak-ash3/s110x80/701899_6006844726765_57118_n.jpg\np7624\nsVcount_current_adgroups\np7625\nI0\nsVrun_status\np7626\nI1\nsVtype\np"
p6
sS'hash'
p7
S'1583c7c82469013a6afd758f5d0deb803d8f9c3b'
p8
sS'stack'
p9
S''
s.