(dp1
S'args'
p2
S''
sS'methodname'
p3
S''
sS'packet_num'
p4
I44
sS'returnval'
p5
S'p5424\nsVcount_current_adgroups\np5425\nI0\nsVrun_status\np5426\nI1\nsVtype\np5427\nI1\nsVlink_url\np5428\nVhttp://www.buzzfeed.com/ht/thecw/the-hottest-witches-in-hollywood/HFBA1\np5429\nsVview_tag\np5430\ng37\nsa(dp5431\nValt_view_tags\np5432\n(lp5433\nsVbody\np5434\nVBe careful when you check out "The Hottest Witches In Hollywood". these ladies are hot enough to cast a spell on you. Check it out Now!\np5435\nsVimage_hash\np5436\nV8beb9a00d842beed9f5ff47fcc656932\np5437\nsVname\np5438\nVHott Hollywood Witches!-00\np5439\nsVtitle\np5440\nVHott Hollywood Witches!\np5441\nsVcreative_id\np5442\nV6003799323565\np5443\nsVpreview_url\np5444\nVhttp://www.facebook.com/ads/api/creative_preview.php?cid=6003799323565\np5445\nsVid\np5446\nV6003799323565\np5447\nsVimage_url\np5448\nVhttps://fbcdn-creative-a.akamaihd.net/hads-ak-ash3/s110x80/708199_6006844883965_7172_n.jpg\np5449\nsVcount_current_adgroups\np5450\nI0\nsVrun_status\np5451\nI1\nsVtype\np5452\nI1\nsVlink_url\np5453\nVhttp://www.buzzfeed.com/ht/thecw/the-hottest-witches-in-hollywood/HFBA1\np5454\nsVview_tag\np5455\ng37\nsa(dp5456\nValt_view_tags\np5457\n(lp5458\nsVbody\np5459\nVCome check out the "Top 5 Musical Performances" on It\'s Always Sunny In Philadelphia, brought to you by FX Networks and BuzzFeed!\np5460\nsVimage_hash\np5461\nV96916d60410b1e6bf90f9f5c5d366d04\np5462\nsVname\np5463\nVBuzzFeed Exclusive-02\np5464\nsVtitle\np5465\nVBuzzFeed Exclusive\np5466\nsVcreative_id\np5467\nV6003796306765\np5468\nsVpreview_url\np5469\nVhttp://www.facebook.com/ads/api/creative_preview.php?cid=6003796306765\np5470\nsVid\np5471\nV6003796306765\np5472\nsVimage_url\np5473\nVhttps://fbcdn-creative-a.akamaihd.net/hads-ak-prn1/s110x80/708172_6006844951165_57215_n.jpg\np5474\nsVcount_current_adgroups\np5475\nI0\nsVrun_status\np5476\nI1\nsVtype\np5477\nI1\nsVlink_url\np5478\nVhttp://www.buzzfeed.com/ht/fxnetwork/the-best-musical-performances-on-its-always-sunny/HFBA1?utm_source=Facebook&utm_medium=Seed&utm_campaign=FX_Always_Sunny&utm_content=Musical\np5479\nsVview_tag\np5480\ng37\nsa(dp5481\nValt_view_tags\np5482\n(lp5483\nsVbody\np5484\nVCheck out the new Flipadelphia Flip Cup App and start flipping off your lame friends and family now! It\'s Always Sunny In Philadelphia!\np5485\nsVimage_hash\np5486\nV5d54d12669d8c36e57e7d94eeabbc15f\np5487\nsVname\np5488\nVSunny In Philly Flip Cup!\np5489\nsVtitle\np5490\nVSunny In Philly Flip Cup!\np5491\nsVcreative_id\np5492\nV6003796164165\np5493\nsVpreview_url\np5494\nVhttp://www.facebook.com/ads/api/creative_preview.php?cid=6003796164165\np5495\nsVid\np5496\nV6003796164165\np5497\nsVimage_url\np5498\nVhttps://fbcdn-creative-a.akamaihd.net/hads-ak-ash3/s110x80/708195_6006844625965_20194_n.jpg\np5499\nsVcount_current_adgroups\np5500\nI0\nsVrun_status\np5501\nI1\nsVtype\np5502\nI1\nsVlink_url\np5503\nVhttp://www.buzzfeed.com/ht/fxnetwork/play-flip-cup-with-its-always-sunny-in-philadelp/HFBA1?utm_source=Facebook&utm_medium=Seed&utm_campaign=FX_Always_Sunny&utm_content=Flip_Cup\np5504\nsVview_tag\np5505\ng37\nsa(dp5506\nValt_view_tags\np5507\n(lp5508\nsVbody\np5509\nVWhat would you with the power of telekinesis or conduct electricity? Having magical powers would make life a lot easier. Check out how!\np5510\nsVimage_hash\np5511\nV738575332463f359b31ed5cfae3c6d6c\np5512\nsVname\np5513\nVMagical Powers Would Rock\np5514\nsVtitle\np5515\nVMagical Powers Would Rock\np5516\nsVcreative_id\np5517\nV6003795715165\np5518\nsVpreview_url\np5519\nVhttp://www.facebook.com/ads/api/creative_preview.php?cid=6003795715165\np5520\nsVid\np5521\nV6003795715165\np5522\nsVimage_url\np5523\nVhttps://fbcdn-creative-a.akamaihd.net/hads-ak-ash3/s110x80/708168_6006844745565_58383_n.jpg\np5524\nsVcount_current_adgroups\np5525\nI0\nsVrun_status\np5526\nI1\nsVtype\np5527\nI1\nsVlink_url\np5528\nVhttp://www.buzzfeed.com/ht/thecw/10-ways-magical-powers-could-make-your-everyday-li/HFBA1\np5529\nsVview_tag\np5530\ng37\nsa(dp5531\nValt_view_tags\np5532\n(lp5533\nsVbody\np5534\nVCome check out "Claire Dunphy\'s Top 5 Moments on Modern Family" a\\u000aBuzzfeed Exclisive on Claire\'s most memorable rants!\np5535\nsVimage_hash\np5536\nV44c76add5431877cc5b37efd460f6d9e\np5537\nsVname\np5538\nVClaire on Modern Family!\np5539\nsVtitle\np5540\nVClaire on Modern Family!\np5541\nsVcreative_id\np5542\nV6003795580365\np5543\nsVpreview_url\np5544\n'
p6
sS'hash'
p7
S'1583c7c82469013a6afd758f5d0deb803d8f9c3b'
p8
sS'stack'
p9
S''
s.