(dp1
S'args'
p2
S''
sS'methodname'
p3
S''
sS'packet_num'
p4
I41
sS'returnval'
p5
S'd\np5046\nV6003808328765\np5047\nsVimage_url\np5048\nVhttps://fbcdn-creative-a.akamaihd.net/hads-ak-prn1/s110x80/708169_6006845489165_48262_n.jpg\np5049\nsVcount_current_adgroups\np5050\nI0\nsVrun_status\np5051\nI1\nsVtype\np5052\nI1\nsVlink_url\np5053\nVhttp://www.buzzfeed.com/ht/theroastofcharliesheen/the-best-of-comedy-centrals-roast/HFBA1\np5054\nsVview_tag\np5055\ng37\nsa(dp5056\nValt_view_tags\np5057\n(lp5058\nsVbody\np5059\nVCheck out our list of "The Best Comedy Central Roasts" and see if your favorites made the list.\np5060\nsVimage_hash\np5061\nVed7294aa09e92dfe244d960ad66f79b2\np5062\nsVname\np5063\nVBest Comedy Central Roast-00\np5064\nsVtitle\np5065\nVBest Comedy Central Roast\np5066\nsVcreative_id\np5067\nV6003808331165\np5068\nsVpreview_url\np5069\nVhttp://www.facebook.com/ads/api/creative_preview.php?cid=6003808331165\np5070\nsVid\np5071\nV6003808331165\np5072\nsVimage_url\np5073\nVhttps://fbcdn-creative-a.akamaihd.net/hads-ak-prn1/s110x80/708169_6006845489165_48262_n.jpg\np5074\nsVcount_current_adgroups\np5075\nI0\nsVrun_status\np5076\nI1\nsVtype\np5077\nI1\nsVlink_url\np5078\nVhttp://www.buzzfeed.com/ht/theroastofcharliesheen/the-best-of-comedy-centrals-roast/HFBA1\np5079\nsVview_tag\np5080\ng37\nsa(dp5081\nValt_view_tags\np5082\n(lp5083\nsVbody\np5084\nVIt\'s been a wild ride for Charlie Sheen all the way to Comedy Central\'s Roast.  Come check out the 10 most epic Charlie Sheen Moments!\np5085\nsVimage_hash\np5086\nV20fdc8b8ce982c79f2dec6082159e4b9\np5087\nsVname\np5088\nVTop Charlie Sheen Moments\np5089\nsVtitle\np5090\nVTop Charlie Sheen Moments\np5091\nsVcreative_id\np5092\nV6003807678365\np5093\nsVpreview_url\np5094\nVhttp://www.facebook.com/ads/api/creative_preview.php?cid=6003807678365\np5095\nsVid\np5096\nV6003807678365\np5097\nsVimage_url\np5098\nVhttps://fbcdn-creative-a.akamaihd.net/hads-ak-prn1/s110x80/708159_6006844255365_36687_n.jpg\np5099\nsVcount_current_adgroups\np5100\nI0\nsVrun_status\np5101\nI1\nsVtype\np5102\nI1\nsVlink_url\np5103\nVhttp://www.buzzfeed.com/ht/theroastofcharliesheen/the-10-most-epic-charlie-sheen-moments/HFBA1\np5104\nsVview_tag\np5105\ng37\nsa(dp5106\nValt_view_tags\np5107\n(lp5108\nsVbody\np5109\nVIt\'s been a wild ride for Charlie Sheen all the way to Comedy Central\'s Roast.  Come check out the 10 most epic Charlie Sheen Moments!\np5110\nsVimage_hash\np5111\nV6798eb6e26a93d138598684bf4c9fba8\np5112\nsVname\np5113\nVTop Charlie Sheen Moments-00\np5114\nsVtitle\np5115\nVTop Charlie Sheen Moments\np5116\nsVcreative_id\np5117\nV6003807680565\np5118\nsVpreview_url\np5119\nVhttp://www.facebook.com/ads/api/creative_preview.php?cid=6003807680565\np5120\nsVid\np5121\nV6003807680565\np5122\nsVimage_url\np5123\nVhttps://fbcdn-creative-a.akamaihd.net/hads-ak-ash3/s110x80/708186_6006844677765_63688_n.jpg\np5124\nsVcount_current_adgroups\np5125\nI0\nsVrun_status\np5126\nI1\nsVtype\np5127\nI1\nsVlink_url\np5128\nVhttp://www.buzzfeed.com/ht/theroastofcharliesheen/the-10-most-epic-charlie-sheen-moments/HFBA1\np5129\nsVview_tag\np5130\ng37\nsa(dp5131\nValt_view_tags\np5132\n(lp5133\nsVbody\np5134\nVThis award winning pooch made the list of "The Most Iconic Animals In Showbiz." See more!\np5135\nsVimage_hash\np5136\nV94a7ef3839bba1b8d12312afe7f2a3ad\np5137\nsVname\np5138\nVAir Bud -00\np5139\nsVtitle\np5140\nVUggie \np5141\nsVcreative_id\np5142\nV6005805978365\np5143\nsVpreview_url\np5144\nVhttp://www.facebook.com/ads/api/creative_preview.php?cid=6005805978365\np5145\nsVid\np5146\nV6005805978365\np5147\nsVimage_url\np5148\nVhttps://fbcdn-creative-a.akamaihd.net/hads-ak-prn1/s110x80/708196_6006844941965_34678_n.jpg\np5149\nsVcount_current_adgroups\np5150\nI1\nsVrun_status\np5151\nI1\nsVtype\np5152\nI1\nsVlink_url\np5153\nVhttp://www.buzzfeed.com/h1/fbad/animalpractice/the-most-iconic-animals-in-showbiz\np5154\nsVview_tag\np5155\ng37\nsa(dp5156\nValt_view_tags\np5157\n(lp5158\nsVbody\np5159\nVThen you need to check out "19 Reasons Why Work Will Rock Today" to get through it!\np5160\nsVimage_hash\np5161\nV6c5d4f261a69a09e0d028c4136a483c7\np5162\nsVname\np5163\nVThink Your Job Is Rough?\np5164\nsVtitle\np5165\nVThink Your Job Is Rough?\np5166\nsVcreative_id\np5167\nV6005776594765\np5168\nsVpreview_url\np5169\nVhttp://www.facebook.com/ads/api/creative_preview.php?cid=6005776594765\np5170\nsVid\np5171\nV6005776594765\np5172\nsVimage_url\np5173\nVhttps'
p6
sS'hash'
p7
S'1583c7c82469013a6afd758f5d0deb803d8f9c3b'
p8
sS'stack'
p9
S''
s.