(dp1
S'args'
p2
S''
sS'methodname'
p3
S''
sS'packet_num'
p4
I13
sS'returnval'
p5
S''
sS'hash'
p6
S'1640b524a6203b554b2fedd16130a0379c9354ed'
p7
sS'stack'
p8
S'se/suite.py __call__ /home/orozco/development/django/buzzfeed/local/lib/python2.7/site-packages/nose/core.py run /home/orozco/development/django/buzzfeed/local/lib/python2.7/site-packages/nose/core.py runTests /usr/lib/python2.7/unittest/main.py __init__ /home/orozco/development/django/buzzfeed/local/lib/python2.7/site-packages/nose/core.py __init__ /home/orozco/development/django/buzzfeed/bin/nosetests <module> '
p9
s.