(dp1
S'args'
p2
S''
sS'methodname'
p3
S''
sS'packet_num'
p4
I12
sS'returnval'
p5
S'e\np1848\nV2012-09-21T13:12:18-0700\np1849\nsVcampaign_status\np1850\nI2\nsVid\np1851\nV6005588980165\np1852\nsVname\np1853\nVA&E: Coma: Aug_2012 | A-Real-Conspiracy-6X59\np1854\nsa(dp1855\nVdaily_budget\np1856\nI20000\nsVstart_time\np1857\nV2012-08-03T11:02:00-0700\np1858\nsVcampaign_id\np1859\nI6005593103765\nsVaccount_id\np1860\nI40156177\nsVdaily_imps\np1861\nI0\nsVend_time\np1862\nV2012-08-20T23:30:00-0700\np1863\nsVfrequency_cap\np1864\nI0\nsVcreated_time\np1865\nV2012-08-03T09:15:52-0700\np1866\nsVupdated_time\np1867\nV2012-09-21T13:12:21-0700\np1868\nsVcampaign_status\np1869\nI2\nsVid\np1870\nV6005593103765\np1871\nsVname\np1872\nVAT&T Daybreak: Aug_2012 | 11-Things-You-Never-Knew-About-Sacred-Geometry\np1873\nsa(dp1874\nVdaily_budget\np1875\nI20000\nsVstart_time\np1876\nV2012-08-03T12:22:00-0700\np1877\nsVcampaign_id\np1878\nI6005593143965\nsVaccount_id\np1879\nI40156177\nsVdaily_imps\np1880\nI0\nsVend_time\np1881\nV2012-08-20T23:30:00-0700\np1882\nsVfrequency_cap\np1883\nI0\nsVcreated_time\np1884\nV2012-08-03T09:33:49-0700\np1885\nsVupdated_time\np1886\nV2012-09-21T13:12:23-0700\np1887\nsVcampaign_status\np1888\nI2\nsVid\np1889\nV6005593143965\np1890\nsVname\np1891\nVAT&T Daybreak: Aug_2012 | 11-Reasons-Why-You-Should-Know-About-Tesla\np1892\nsa(dp1893\nVname\np1894\nVFX: Totally Biased: July-Aug_2012 | 21-Of-The-Most-Outrageous-Google-Search-Suggestion\np1895\nsVstart_time\np1896\nV2012-08-03T12:31:00-0700\np1897\nsVcampaign_id\np1898\nI6005593147765\nsVfrequency_cap\np1899\nI0\nsVdaily_imps\np1900\nI0\nsVlifetime_budget\np1901\nI75000\nsVend_time\np1902\nV2012-08-05T12:31:00-0700\np1903\nsVcreated_time\np1904\nV2012-08-03T09:34:49-0700\np1905\nsVupdated_time\np1906\nV2012-09-21T13:12:25-0700\np1907\nsVcampaign_status\np1908\nI2\nsVid\np1909\nV6005593147765\np1910\nsVaccount_id\np1911\nI40156177\nsasVoffset\np1912\nV1200\np1913\ns.'
p6
sS'hash'
p7
S'1640b524a6203b554b2fedd16130a0379c9354ed'
p8
sS'stack'
p9
S'__json_response /home/orozco/development/django/buzzfeed/local/lib/python2.7/site-packages/caliendo/facade.py cache /home/orozco/development/django/buzzfeed/pyfacebook/pyfacebook/__init__.py get /home/orozco/development/django/buzzfeed/pyfacebook/pyfacebook/__init__.py get_all /home/orozco/development/django/buzzfeed/pyfacebook/pyfacebook/__init__.py get_list_from_fb /home/orozco/development/django/buzzfeed/pyfacebook/pyfacebook/api/adcampaign.py find_by_adaccount_id /home/orozco/development/django/buzzfeed/local/lib/python2.7/site-packages/caliendo/facade.py __cache /home/orozco/development/django/buzzfeed/local/lib/python2.7/site-packages/caliendo/facade.py <lambda> /home/orozco/development/django/buzzfeed/pyfacebook/test/adcampaign_test.py test_find_by_adaccount_id /home/orozco/development/django/buzzfeed/local/lib/python2.7/site-packages/nose/case.py runTest /usr/lib/python2.7/unittest/case.py run /usr/lib/python2.7/unittest/case.py __call__ /home/orozco/development/django/buzzfeed/local/lib/python2.7/site-packages/nose/case.py runTest /home/orozco/development/django/buzzfeed/local/lib/python2.7/site-packages/nose/case.py run /home/orozco/development/django/buzzfeed/local/lib/python2.7/site-packages/nose/case.py __call__ /home/orozco/development/django/buzzfeed/local/lib/python2.7/site-packages/nose/suite.py run /home/orozco/development/django/buzzfeed/local/lib/python2.7/site-packages/nose/suite.py __call__ /home/orozco/development/django/buzzfeed/local/lib/python2.7/site-packages/nose/suite.py run /home/orozco/development/django/buzzfeed/local/lib/python2.7/site-packages/nose/suite.py __call__ /home/orozco/development/django/buzzfeed/local/lib/python2.7/site-packages/nose/suite.py run /home/orozco/development/django/buzzfeed/local/lib/python2.7/site-packages/nose/suite.py __call__ /home/orozco/development/django/buzzfeed/local/lib/python2.7/site-packages/nose/suite.py run /home/orozco/development/django/buzzfeed/local/lib/python2.7/site-packages/nose/suite.py __call__ /home/orozco/development/django/buzzfeed/local/lib/python2.7/site-packages/nose/suite.py run /home/orozco/development/django/buzzfeed/local/lib/python2.7/site-packages/nose/suite.py __call__ /home/orozco/development/django/buzzfeed/local/lib/python2.7/site-packages/nose/suite.py run /home/orozco/development/django/buzzfeed/local/lib/python2.7/site-packages/no'
p10
s.