(dp1
S'args'
p2
S'(t.'
p3
sS'methodname'
p4
S'__json_response'
p5
sS'packet_num'
p6
I0
sS'returnval'
p7
S'(dp0\nV6005558357365\np1\n(dp2\nVdaily_budget\np3\nI36500\nsVstart_time\np4\nV2012-07-25T18:19:00-0700\np5\nsVcampaign_id\np6\nI6005558357365\nsVaccount_id\np7\nI40156177\nsVdaily_imps\np8\nI0\nsVend_time\np9\nV2012-09-26T23:00:00-0700\np10\nsVfrequency_cap\np11\nI0\nsVcreated_time\np12\nV2012-07-25T15:22:35-0700\np13\nsVupdated_time\np14\nV2012-09-25T12:41:14-0700\np15\nsVcampaign_status\np16\nI1\nsVid\np17\nV6005558357365\np18\nsVname\np19\nVSamsung Flight 2: June-Aug_2012 | 10-Things-We-Wish-Took-Less-Than-10-Seconds-6G87\np20\nssV6005783865965\np21\n(dp22\nVdaily_budget\np23\nI50000\nsVstart_time\np24\nV2012-09-07T11:36:00-0700\np25\nsVcampaign_id\np26\nI6005783865965\nsVaccount_id\np27\nI40156177\nsVdaily_imps\np28\nI0\nsVend_time\np29\nV2012-09-30T00:00:00-0700\np30\nsVfrequency_cap\np31\nI0\nsVcreated_time\np32\nV2012-09-07T11:36:00-0700\np33\nsVupdated_time\np34\nV2012-09-22T10:55:30-0700\np35\nsVcampaign_status\np36\nI1\nsVid\np37\nV6005783865965\np38\nsVname\np39\nVVirgin Mobile: Q3 2012 | 18-mind-boggling-text-fails-5l87\np40\nssV6005782939965\np41\n(dp42\nVdaily_budget\np43\nI50000\nsVstart_time\np44\nV2012-09-07T09:24:38-0700\np45\nsVcampaign_id\np46\nI6005782939965\nsVaccount_id\np47\nI40156177\nsVdaily_imps\np48\nI0\nsVend_time\np49\nV2012-09-30T00:00:00-0700\np50\nsVfrequency_cap\np51\nI0\nsVcreated_time\np52\nV2012-09-07T09:24:38-0700\np53\nsVupdated_time\np54\nV2012-09-27T07:47:56-0700\np55\nsVcampaign_status\np56\nI1\nsVid\np57\nV6005782939965\np58\nsVname\np59\nVVirgin Mobile: Q3 2012 | 20-publicly-shamed-animal-twitpics-5l87\np60\nssV6005784312965\np61\n(dp62\nVname\np63\nVGE: Nostalgia: Sept_2012 | The-Evolution-Of-10-Edison-Inventions-We-Still-Use-6Ieg\np64\nsVstart_time\np65\nV2012-09-07T14:44:11-0700\np66\nsVcampaign_id\np67\nI6005784312965\nsVfrequency_cap\np68\nI0\nsVdaily_imps\np69\nI0\nsVlifetime_budget\np70\nI50000\nsVend_time\np71\nV2012-09-30T00:00:00-0700\np72\nsVcreated_time\np73\nV2012-09-07T14:44:11-0700\np74\nsVupdated_time\np75\nV2012-09-21T14:32:17-0700\np76\nsVcampaign_status\np77\nI1\nsVid\np78\nV6005784312965\np79\nsVaccount_id\np80\nI40156177\nssV6005801290565\np81\n(dp82\nVname\np83\nVMSFT: IE9 BYLTH: Sept-Oct_2012 | The-13-Most-Common-Misconceptions\np84\nsVstart_time\np85\nV2012-09-11T07:30:57-0700\np86\nsVcampaign_id\np87\nI6005801290565\nsVfrequency_cap\np88\nI0\nsVdaily_imps\np89\nI0\nsVlifetime_budget\np90\nI50000\nsVend_time\np91\nV2012-10-22T00:00:00-0700\np92\nsVcreated_time\np93\nV2012-09-11T07:30:57-0700\np94\nsVupdated_time\np95\nV2012-09-21T14:33:23-0700\np96\nsVcampaign_status\np97\nI1\nsVid\np98\nV6005801290565\np99\nsVaccount_id\np100\nI40156177\nssV6005784330365\np101\n(dp102\nVname\np103\nVGE: Nostalgia: Sept_2012 | Famous-Geeks-Hanging-Out-In-The-1900S-6Ieg\np104\nsVstart_time\np105\nV2012-09-07T14:53:22-0700\np106\nsVcampaign_id\np107\nI6005784330365\nsVfrequency_cap\np108\nI0\nsVdaily_imps\np109\nI0\nsVlifetime_budget\np110\nI50000\nsVend_time\np111\nV2012-09-30T00:00:00-0700\np112\nsVcreated_time\np113\nV2012-09-07T14:53:22-0700\np114\nsVupdated_time\np115\nV2012-09-21T14:32:14-0700\np116\nsVcampaign_status\np117\nI1\nsVid\np118\nV6005784330365\np119\nsVaccount_id\np120\nI40156177\nssV6005798478365\np121\n(dp122\nVdaily_budget\np123\nI40000\nsVstart_time\np124\nV2012-09-10T11:30:00-0700\np125\nsVcampaign_id\np126\nI6005798478365\nsVaccount_id\np127\nI40156177\nsVdaily_imps\np128\nI0\nsVend_time\np129\nV2012-10-03T23:57:00-0700\np130\nsVfrequency_cap\np131\nI0\nsVcreated_time\np132\nV2012-09-10T11:02:59-0700\np133\nsVupdated_time\np134\nV2012-10-01T10:40:03-0700\np135\nsVcampaign_status\np136\nI1\nsVid\np137\nV6005798478365\np138\nsVname\np139\nVUniqlo Lucky Cube: Sept-Oct_2012 | The-Best-Gifs-Of-Maru-The-Internets-Favorite-Cat\np140\nssV6005784334165\np141\n(dp142\nVname\np143\nVGE: Nostalgia: Sept_2012 | Timeless-Ge-Ads-Through-The-Years-6Ieg\np144\nsVstart_time\np145\nV2012-09-07T14:54:30-0700\np146\nsVcampaign_id\np147\nI6005784334165\nsVfrequency_cap\np148\nI0\nsVdaily_imps\np149\nI0\nsVlifetime_budget\np150\nI50000\nsVend_time\np151\nV2012-09-30T00:00:00-0700\np152\nsVcreated_time\np153\nV2012-09-07T14:54:30-0700\np154\nsVupdated_time\np155\nV2012-09-21T14:32:22-0700\np156\nsVcampaign_status\np157\nI1\nsVid\np158\nV6005784334165\np159\nsVaccount_id\np160\nI40156177\nssV6005784323765\np161\n(dp162\nVname\np163\nVGE: Nostalgia: Sept_2012 | 20-Pictures-Where-Instagram-Actually-Makes-Sense-6Ieg\np'
p8
sS'hash'
p9
S'169e491cb03d099885f44f8863e3fbd758033ec3'
p10
sS'stack'
p11
S''
s.