(dp1
S'args'
p2
S''
sS'methodname'
p3
S''
sS'packet_num'
p4
I11
sS'returnval'
p5
S'\np2175\nsa(dp2176\nVcampaign_id\np2177\nI6006436844365\nsVsocial_unique_clicks\np2178\nI0\nsVunique_impressions\np2179\nI0\nsVstart_time\np2180\nV2012-11-26T06:00:00+0000\np2181\nsVspent\np2182\nV39324\np2183\nsVactions\np2184\nNsVclicks\np2185\nV702\np2186\nsVconnections\np2187\nI0\nsVsocial_clicks\np2188\nV0\np2189\nsVevents\np2190\n(dp2191\nVvideo_play\np2192\nI0\nsVtitle_clicks\np2193\nI0\nsVinline_like\np2194\nI0\nsVinline_comment\np2195\nI0\nsVrsvp_maybe\np2196\nI0\nsVlink_open\np2197\nI0\nsVphoto_view\np2198\nI0\nsVrsvp_yes\np2199\nI0\nsVfans\np2200\nI0\nsVquestion_vote\np2201\nI0\nssVsocial_impressions\np2202\nV0\np2203\nsVadgroup_id\np2204\nI6006436845365\nsVsocial_unique_impressions\np2205\nI0\nsVsocial_spent\np2206\nV0\np2207\nsVimpressions\np2208\nV2351616\np2209\nsVnewsfeed_position\np2210\n(dp2211\nVnewsfeed_clicks\np2212\nV0\np2213\nsVnewsfeed_impressions\np2214\nV0\np2215\nsVnewsfeed_average_position\np2216\nI0\nssVid\np2217\nV6006436845365/stats/1353909600/1356588000\np2218\nsVunique_clicks\np2219\nI0\nsVend_time\np2220\nV2012-12-27T06:00:00+0000\np2221\nsa(dp2222\nVcampaign_id\np2223\nI6006436844365\nsVsocial_unique_clicks\np2224\nI0\nsVunique_impressions\np2225\nI0\nsVstart_time\np2226\nV2012-11-26T06:00:00+0000\np2227\nsVspent\np2228\nV40670\np2229\nsVactions\np2230\nNsVclicks\np2231\nV763\np2232\nsVconnections\np2233\nI0\nsVsocial_clicks\np2234\nV0\np2235\nsVevents\np2236\n(dp2237\nVvideo_play\np2238\nI0\nsVtitle_clicks\np2239\nI0\nsVinline_like\np2240\nI0\nsVinline_comment\np2241\nI0\nsVrsvp_maybe\np2242\nI0\nsVlink_open\np2243\nI0\nsVphoto_view\np2244\nI0\nsVrsvp_yes\np2245\nI0\nsVfans\np2246\nI0\nsVquestion_vote\np2247\nI0\nssVsocial_impressions\np2248\nV0\np2249\nsVadgroup_id\np2250\nI6006452691165\nsVsocial_unique_impressions\np2251\nI0\nsVsocial_spent\np2252\nV0\np2253\nsVimpressions\np2254\nV2153951\np2255\nsVnewsfeed_position\np2256\n(dp2257\nVnewsfeed_clicks\np2258\nV0\np2259\nsVnewsfeed_impressions\np2260\nV0\np2261\nsVnewsfeed_average_position\np2262\nI0\nssVid\np2263\nV6006452691165/stats/1353909600/1356588000\np2264\nsVunique_clicks\np2265\nI0\nsVend_time\np2266\nV2012-12-27T06:00:00+0000\np2267\nsa(dp2268\nVcampaign_id\np2269\nI6006452011765\nsVsocial_unique_clicks\np2270\nI0\nsVunique_impressions\np2271\nI0\nsVstart_time\np2272\nV2012-11-26T06:00:00+0000\np2273\nsVspent\np2274\nV80000\np2275\nsVactions\np2276\nNsVclicks\np2277\nV5493\np2278\nsVconnections\np2279\nI0\nsVsocial_clicks\np2280\nV0\np2281\nsVevents\np2282\n(dp2283\nVvideo_play\np2284\nI0\nsVtitle_clicks\np2285\nI0\nsVinline_like\np2286\nI0\nsVinline_comment\np2287\nI0\nsVrsvp_maybe\np2288\nI0\nsVlink_open\np2289\nI0\nsVphoto_view\np2290\nI0\nsVrsvp_yes\np2291\nI0\nsVfans\np2292\nI0\nsVquestion_vote\np2293\nI0\nssVsocial_impressions\np2294\nV0\np2295\nsVadgroup_id\np2296\nI6006452012765\nsVsocial_unique_impressions\np2297\nI0\nsVsocial_spent\np2298\nV0\np2299\nsVimpressions\np2300\nV3992108\np2301\nsVnewsfeed_position\np2302\n(dp2303\nVnewsfeed_clicks\np2304\nV0\np2305\nsVnewsfeed_impressions\np2306\nV0\np2307\nsVnewsfeed_average_position\np2308\nI0\nssVid\np2309\nV6006452012765/stats/1353909600/1356588000\np2310\nsVunique_clicks\np2311\nI0\nsVend_time\np2312\nV2012-12-27T06:00:00+0000\np2313\nsa(dp2314\nVcampaign_id\np2315\nI6006452091165\nsVsocial_unique_clicks\np2316\nI0\nsVunique_impressions\np2317\nI0\nsVstart_time\np2318\nV2012-11-26T06:00:00+0000\np2319\nsVspent\np2320\nV80000\np2321\nsVactions\np2322\nNsVclicks\np2323\nV3979\np2324\nsVconnections\np2325\nI0\nsVsocial_clicks\np2326\nV0\np2327\nsVevents\np2328\n(dp2329\nVvideo_play\np2330\nI0\nsVtitle_clicks\np2331\nI0\nsVinline_like\np2332\nI0\nsVinline_comment\np2333\nI0\nsVrsvp_maybe\np2334\nI0\nsVlink_open\np2335\nI0\nsVphoto_view\np2336\nI0\nsVrsvp_yes\np2337\nI0\nsVfans\np2338\nI0\nsVquestion_vote\np2339\nI0\nssVsocial_impressions\np2340\nV0\np2341\nsVadgroup_id\np2342\nI6006452092165\nsVsocial_unique_impressions\np2343\nI0\nsVsocial_spent\np2344\nV0\np2345\nsVimpressions\np2346\nV4079116\np2347\nsVnewsfeed_position\np2348\n(dp2349\nVnewsfeed_clicks\np2350\nV0\np2351\nsVnewsfeed_impressions\np2352\nV0\np2353\nsVnewsfeed_average_position\np2354\nI0\nssVid\np2355\nV6006452092165/stats/1353909600/1356588000\np2356\nsVunique_clicks\np2357\nI0\nsVend_time\np2358\nV2012-12-27T06:00:00+0000\np2359\nsa(dp2360\nVcampaign_id\np2361\nI6006454306765\nsVsocial_unique_clicks\np2362\nI0\nsVunique_impressions\np2363\nI0\nsVstart_time\np2364\nV2012-11-26T06:00:00+0000\np2365\nsVspent\np2366\nV20000\np2367\nsVactions\np'
p6
sS'hash'
p7
S'23e8c2f881e6c330aa4782e93ec6232818cb41cf'
p8
sS'stack'
p9
S''
s.