(dp1
S'args'
p2
S''
sS'methodname'
p3
S''
sS'packet_num'
p4
I22
sS'returnval'
p5
S'6\nsVnewsfeed_average_position\np4307\nI0\nssVid\np4308\nV6006574832165/stats/1353909600/1356588000\np4309\nsVunique_clicks\np4310\nI0\nsVend_time\np4311\nV2012-12-27T06:00:00+0000\np4312\nsa(dp4313\nVcampaign_id\np4314\nI6006574920565\nsVsocial_unique_clicks\np4315\nI0\nsVunique_impressions\np4316\nI0\nsVstart_time\np4317\nV2012-11-26T06:00:00+0000\np4318\nsVspent\np4319\nV1075\np4320\nsVactions\np4321\nNsVclicks\np4322\nV20\np4323\nsVconnections\np4324\nI0\nsVsocial_clicks\np4325\nV0\np4326\nsVevents\np4327\n(dp4328\nVvideo_play\np4329\nI0\nsVtitle_clicks\np4330\nI0\nsVinline_like\np4331\nI0\nsVinline_comment\np4332\nI0\nsVrsvp_maybe\np4333\nI0\nsVlink_open\np4334\nI0\nsVphoto_view\np4335\nI0\nsVrsvp_yes\np4336\nI0\nsVfans\np4337\nI0\nsVquestion_vote\np4338\nI0\nssVsocial_impressions\np4339\nV0\np4340\nsVadgroup_id\np4341\nI6006574921565\nsVsocial_unique_impressions\np4342\nI0\nsVsocial_spent\np4343\nV0\np4344\nsVimpressions\np4345\nV50692\np4346\nsVnewsfeed_position\np4347\n(dp4348\nVnewsfeed_clicks\np4349\nV0\np4350\nsVnewsfeed_impressions\np4351\nV0\np4352\nsVnewsfeed_average_position\np4353\nI0\nssVid\np4354\nV6006574921565/stats/1353909600/1356588000\np4355\nsVunique_clicks\np4356\nI0\nsVend_time\np4357\nV2012-12-27T06:00:00+0000\np4358\nsa(dp4359\nVcampaign_id\np4360\nI6006574920565\nsVsocial_unique_clicks\np4361\nI0\nsVunique_impressions\np4362\nI0\nsVstart_time\np4363\nV2012-11-26T06:00:00+0000\np4364\nsVspent\np4365\nV58925\np4366\nsVactions\np4367\nNsVclicks\np4368\nV1269\np4369\nsVconnections\np4370\nI0\nsVsocial_clicks\np4371\nV0\np4372\nsVevents\np4373\n(dp4374\nVvideo_play\np4375\nI0\nsVtitle_clicks\np4376\nI0\nsVinline_like\np4377\nI0\nsVinline_comment\np4378\nI0\nsVrsvp_maybe\np4379\nI0\nsVlink_open\np4380\nI0\nsVphoto_view\np4381\nI0\nsVrsvp_yes\np4382\nI0\nsVfans\np4383\nI0\nsVquestion_vote\np4384\nI0\nssVsocial_impressions\np4385\nV0\np4386\nsVadgroup_id\np4387\nI6006574963965\nsVsocial_unique_impressions\np4388\nI0\nsVsocial_spent\np4389\nV0\np4390\nsVimpressions\np4391\nV2464009\np4392\nsVnewsfeed_position\np4393\n(dp4394\nVnewsfeed_clicks\np4395\nV0\np4396\nsVnewsfeed_impressions\np4397\nV0\np4398\nsVnewsfeed_average_position\np4399\nI0\nssVid\np4400\nV6006574963965/stats/1353909600/1356588000\np4401\nsVunique_clicks\np4402\nI0\nsVend_time\np4403\nV2012-12-27T06:00:00+0000\np4404\nsa(dp4405\nVcampaign_id\np4406\nI6006576674965\nsVsocial_unique_clicks\np4407\nI0\nsVunique_impressions\np4408\nI0\nsVstart_time\np4409\nV2012-11-26T06:00:00+0000\np4410\nsVspent\np4411\nV79820\np4412\nsVactions\np4413\nNsVclicks\np4414\nV4826\np4415\nsVconnections\np4416\nI0\nsVsocial_clicks\np4417\nV0\np4418\nsVevents\np4419\n(dp4420\nVvideo_play\np4421\nI0\nsVtitle_clicks\np4422\nI0\nsVinline_like\np4423\nI0\nsVinline_comment\np4424\nI0\nsVrsvp_maybe\np4425\nI0\nsVlink_open\np4426\nI0\nsVphoto_view\np4427\nI0\nsVrsvp_yes\np4428\nI0\nsVfans\np4429\nI0\nsVquestion_vote\np4430\nI0\nssVsocial_impressions\np4431\nV0\np4432\nsVadgroup_id\np4433\nI6006576675965\nsVsocial_unique_impressions\np4434\nI0\nsVsocial_spent\np4435\nV0\np4436\nsVimpressions\np4437\nV2706582\np4438\nsVnewsfeed_position\np4439\n(dp4440\nVnewsfeed_clicks\np4441\nV0\np4442\nsVnewsfeed_impressions\np4443\nV0\np4444\nsVnewsfeed_average_position\np4445\nI0\nssVid\np4446\nV6006576675965/stats/1353909600/1356588000\np4447\nsVunique_clicks\np4448\nI0\nsVend_time\np4449\nV2012-12-27T06:00:00+0000\np4450\nsa(dp4451\nVcampaign_id\np4452\nI6006576674965\nsVsocial_unique_clicks\np4453\nI0\nsVunique_impressions\np4454\nI0\nsVstart_time\np4455\nV2012-11-26T06:00:00+0000\np4456\nsVspent\np4457\nV180\np4458\nsVactions\np4459\nNsVclicks\np4460\nV5\np4461\nsVconnections\np4462\nI0\nsVsocial_clicks\np4463\nV0\np4464\nsVevents\np4465\n(dp4466\nVvideo_play\np4467\nI0\nsVtitle_clicks\np4468\nI0\nsVinline_like\np4469\nI0\nsVinline_comment\np4470\nI0\nsVrsvp_maybe\np4471\nI0\nsVlink_open\np4472\nI0\nsVphoto_view\np4473\nI0\nsVrsvp_yes\np4474\nI0\nsVfans\np4475\nI0\nsVquestion_vote\np4476\nI0\nssVsocial_impressions\np4477\nV0\np4478\nsVadgroup_id\np4479\nI6006576691965\nsVsocial_unique_impressions\np4480\nI0\nsVsocial_spent\np4481\nV0\np4482\nsVimpressions\np4483\nV8572\np4484\nsVnewsfeed_position\np4485\n(dp4486\nVnewsfeed_clicks\np4487\nV0\np4488\nsVnewsfeed_impressions\np4489\nV0\np4490\nsVnewsfeed_average_position\np4491\nI0\nssVid\np4492\nV6006576691965/stats/1353909600/1356588000\np4493\nsVunique_clicks\np4494\nI0\nsVend_time\np4495\nV2012-12-27T06:00:00+0000\np4496\nsa(dp4497\nVcampaign_id\np4498\nI600659060'
p6
sS'hash'
p7
S'23e8c2f881e6c330aa4782e93ec6232818cb41cf'
p8
sS'stack'
p9
S''
s.