(dp1
S'args'
p2
S''
sS'methodname'
p3
S''
sS'packet_num'
p4
I18
sS'returnval'
p5
S'cial_clicks\np3531\nV0\np3532\nsVevents\np3533\n(dp3534\nVvideo_play\np3535\nI0\nsVtitle_clicks\np3536\nI0\nsVinline_like\np3537\nI0\nsVinline_comment\np3538\nI0\nsVrsvp_maybe\np3539\nI0\nsVlink_open\np3540\nI0\nsVphoto_view\np3541\nI0\nsVrsvp_yes\np3542\nI0\nsVfans\np3543\nI0\nsVquestion_vote\np3544\nI0\nssVsocial_impressions\np3545\nV0\np3546\nsVadgroup_id\np3547\nI6006490573965\nsVsocial_unique_impressions\np3548\nI0\nsVsocial_spent\np3549\nV0\np3550\nsVimpressions\np3551\nV33868\np3552\nsVnewsfeed_position\np3553\n(dp3554\nVnewsfeed_clicks\np3555\nV0\np3556\nsVnewsfeed_impressions\np3557\nV0\np3558\nsVnewsfeed_average_position\np3559\nI0\nssVid\np3560\nV6006490573965/stats/1353909600/1356588000\np3561\nsVunique_clicks\np3562\nI0\nsVend_time\np3563\nV2012-12-27T06:00:00+0000\np3564\nsa(dp3565\nVcampaign_id\np3566\nI6006492680365\nsVsocial_unique_clicks\np3567\nI0\nsVunique_impressions\np3568\nI0\nsVstart_time\np3569\nV2012-11-26T06:00:00+0000\np3570\nsVspent\np3571\nV17933\np3572\nsVactions\np3573\nNsVclicks\np3574\nV341\np3575\nsVconnections\np3576\nI0\nsVsocial_clicks\np3577\nV0\np3578\nsVevents\np3579\n(dp3580\nVvideo_play\np3581\nI0\nsVtitle_clicks\np3582\nI0\nsVinline_like\np3583\nI0\nsVinline_comment\np3584\nI0\nsVrsvp_maybe\np3585\nI0\nsVlink_open\np3586\nI0\nsVphoto_view\np3587\nI0\nsVrsvp_yes\np3588\nI0\nsVfans\np3589\nI0\nsVquestion_vote\np3590\nI0\nssVsocial_impressions\np3591\nV0\np3592\nsVadgroup_id\np3593\nI6006492681365\nsVsocial_unique_impressions\np3594\nI0\nsVsocial_spent\np3595\nV0\np3596\nsVimpressions\np3597\nV909196\np3598\nsVnewsfeed_position\np3599\n(dp3600\nVnewsfeed_clicks\np3601\nV0\np3602\nsVnewsfeed_impressions\np3603\nV0\np3604\nsVnewsfeed_average_position\np3605\nI0\nssVid\np3606\nV6006492681365/stats/1353909600/1356588000\np3607\nsVunique_clicks\np3608\nI0\nsVend_time\np3609\nV2012-12-27T06:00:00+0000\np3610\nsa(dp3611\nVcampaign_id\np3612\nI6006492680365\nsVsocial_unique_clicks\np3613\nI0\nsVunique_impressions\np3614\nI0\nsVstart_time\np3615\nV2012-11-26T06:00:00+0000\np3616\nsVspent\np3617\nV28500\np3618\nsVactions\np3619\nNsVclicks\np3620\nV542\np3621\nsVconnections\np3622\nI0\nsVsocial_clicks\np3623\nV0\np3624\nsVevents\np3625\n(dp3626\nVvideo_play\np3627\nI0\nsVtitle_clicks\np3628\nI0\nsVinline_like\np3629\nI0\nsVinline_comment\np3630\nI0\nsVrsvp_maybe\np3631\nI0\nsVlink_open\np3632\nI0\nsVphoto_view\np3633\nI0\nsVrsvp_yes\np3634\nI0\nsVfans\np3635\nI0\nsVquestion_vote\np3636\nI0\nssVsocial_impressions\np3637\nV0\np3638\nsVadgroup_id\np3639\nI6006492748965\nsVsocial_unique_impressions\np3640\nI0\nsVsocial_spent\np3641\nV0\np3642\nsVimpressions\np3643\nV1412961\np3644\nsVnewsfeed_position\np3645\n(dp3646\nVnewsfeed_clicks\np3647\nV0\np3648\nsVnewsfeed_impressions\np3649\nV0\np3650\nsVnewsfeed_average_position\np3651\nI0\nssVid\np3652\nV6006492748965/stats/1353909600/1356588000\np3653\nsVunique_clicks\np3654\nI0\nsVend_time\np3655\nV2012-12-27T06:00:00+0000\np3656\nsa(dp3657\nVcampaign_id\np3658\nI6006506751765\nsVsocial_unique_clicks\np3659\nI0\nsVunique_impressions\np3660\nI0\nsVstart_time\np3661\nV2012-11-26T06:00:00+0000\np3662\nsVspent\np3663\nV17599\np3664\nsVactions\np3665\nNsVclicks\np3666\nV327\np3667\nsVconnections\np3668\nI0\nsVsocial_clicks\np3669\nV0\np3670\nsVevents\np3671\n(dp3672\nVvideo_play\np3673\nI0\nsVtitle_clicks\np3674\nI0\nsVinline_like\np3675\nI0\nsVinline_comment\np3676\nI0\nsVrsvp_maybe\np3677\nI0\nsVlink_open\np3678\nI0\nsVphoto_view\np3679\nI0\nsVrsvp_yes\np3680\nI0\nsVfans\np3681\nI0\nsVquestion_vote\np3682\nI0\nssVsocial_impressions\np3683\nV0\np3684\nsVadgroup_id\np3685\nI6006506752765\nsVsocial_unique_impressions\np3686\nI0\nsVsocial_spent\np3687\nV0\np3688\nsVimpressions\np3689\nV1256316\np3690\nsVnewsfeed_position\np3691\n(dp3692\nVnewsfeed_clicks\np3693\nV0\np3694\nsVnewsfeed_impressions\np3695\nV0\np3696\nsVnewsfeed_average_position\np3697\nI0\nssVid\np3698\nV6006506752765/stats/1353909600/1356588000\np3699\nsVunique_clicks\np3700\nI0\nsVend_time\np3701\nV2012-12-27T06:00:00+0000\np3702\nsa(dp3703\nVcampaign_id\np3704\nI6006506751765\nsVsocial_unique_clicks\np3705\nI0\nsVunique_impressions\np3706\nI0\nsVstart_time\np3707\nV2012-11-26T06:00:00+0000\np3708\nsVspent\np3709\nV12070\np3710\nsVactions\np3711\nNsVclicks\np3712\nV204\np3713\nsVconnections\np3714\nI0\nsVsocial_clicks\np3715\nV0\np3716\nsVevents\np3717\n(dp3718\nVvideo_play\np3719\nI0\nsVtitle_clicks\np3720\nI0\nsVinline_like\np3721\nI0\nsVinline_comment\np3722\nI0\nsVrsvp_maybe\np3723\nI0\nsVlink_open\np3724\nI0\nsVphoto_view\np3725\nI'
p6
sS'hash'
p7
S'23e8c2f881e6c330aa4782e93ec6232818cb41cf'
p8
sS'stack'
p9
S''
s.