(dp1
S'args'
p2
S''
sS'methodname'
p3
S''
sS'packet_num'
p4
I17
sS'returnval'
p5
S'clicks\np3338\nV0\np3339\nsVevents\np3340\n(dp3341\nVvideo_play\np3342\nI0\nsVtitle_clicks\np3343\nI0\nsVinline_like\np3344\nI0\nsVinline_comment\np3345\nI0\nsVrsvp_maybe\np3346\nI0\nsVlink_open\np3347\nI0\nsVphoto_view\np3348\nI0\nsVrsvp_yes\np3349\nI0\nsVfans\np3350\nI0\nsVquestion_vote\np3351\nI0\nssVsocial_impressions\np3352\nV0\np3353\nsVadgroup_id\np3354\nI6006474706765\nsVsocial_unique_impressions\np3355\nI0\nsVsocial_spent\np3356\nV0\np3357\nsVimpressions\np3358\nV2539317\np3359\nsVnewsfeed_position\np3360\n(dp3361\nVnewsfeed_clicks\np3362\nV0\np3363\nsVnewsfeed_impressions\np3364\nV0\np3365\nsVnewsfeed_average_position\np3366\nI0\nssVid\np3367\nV6006474706765/stats/1353909600/1356588000\np3368\nsVunique_clicks\np3369\nI0\nsVend_time\np3370\nV2012-12-27T06:00:00+0000\np3371\nsa(dp3372\nVcampaign_id\np3373\nI6006474713965\nsVsocial_unique_clicks\np3374\nI0\nsVunique_impressions\np3375\nI0\nsVstart_time\np3376\nV2012-11-26T06:00:00+0000\np3377\nsVspent\np3378\nV99811\np3379\nsVactions\np3380\n(dp3381\nVcomment\np3382\nI6\nsVlike\np3383\nI100\nsVpost_like\np3384\nI346\nsVphoto_view\np3385\nI0\nsVlink_click\np3386\nI212\nsVpost\np3387\nI2\nssVclicks\np3388\nV2282\np3389\nsVconnections\np3390\nI92\nsVsocial_clicks\np3391\nV289\np3392\nsVevents\np3393\n(dp3394\nVvideo_play\np3395\nI0\nsVtitle_clicks\np3396\nI26\nsVinline_like\np3397\nI166\nsVinline_comment\np3398\nI1\nsVrsvp_maybe\np3399\nI0\nsVlink_open\np3400\nI1117\nsVphoto_view\np3401\nI28\nsVrsvp_yes\np3402\nI0\nsVfans\np3403\nI81\nsVquestion_vote\np3404\nI0\nssVsocial_impressions\np3405\nV23778\np3406\nsVadgroup_id\np3407\nI6006474714965\nsVsocial_unique_impressions\np3408\nI0\nsVsocial_spent\np3409\nV10331\np3410\nsVimpressions\np3411\nV459109\np3412\nsVnewsfeed_position\np3413\n(dp3414\nVnewsfeed_clicks\np3415\nV2139\np3416\nsVnewsfeed_impressions\np3417\nV107136\np3418\nsVnewsfeed_average_position\np3419\nF37.478970654122\nssVid\np3420\nV6006474714965/stats/1353909600/1356588000\np3421\nsVunique_clicks\np3422\nI0\nsVend_time\np3423\nV2012-12-27T06:00:00+0000\np3424\nsa(dp3425\nVcampaign_id\np3426\nI6006474713965\nsVsocial_unique_clicks\np3427\nI0\nsVunique_impressions\np3428\nI0\nsVstart_time\np3429\nV2012-11-26T06:00:00+0000\np3430\nsVspent\np3431\nV189\np3432\nsVactions\np3433\n(dp3434\nVpost_like\np3435\nI1\nssVclicks\np3436\nV7\np3437\nsVconnections\np3438\nI0\nsVsocial_clicks\np3439\nV7\np3440\nsVevents\np3441\n(dp3442\nVvideo_play\np3443\nI0\nsVtitle_clicks\np3444\nI0\nsVinline_like\np3445\nI0\nsVinline_comment\np3446\nI0\nsVrsvp_maybe\np3447\nI0\nsVlink_open\np3448\nI4\nsVphoto_view\np3449\nI0\nsVrsvp_yes\np3450\nI0\nsVfans\np3451\nI0\nsVquestion_vote\np3452\nI0\nssVsocial_impressions\np3453\nV557\np3454\nsVadgroup_id\np3455\nI6006474716765\nsVsocial_unique_impressions\np3456\nI0\nsVsocial_spent\np3457\nV189\np3458\nsVimpressions\np3459\nV566\np3460\nsVnewsfeed_position\np3461\n(dp3462\nVnewsfeed_clicks\np3463\nV6\np3464\nsVnewsfeed_impressions\np3465\nV413\np3466\nsVnewsfeed_average_position\np3467\nF10.007263922518\nssVid\np3468\nV6006474716765/stats/1353909600/1356588000\np3469\nsVunique_clicks\np3470\nI0\nsVend_time\np3471\nV2012-12-27T06:00:00+0000\np3472\nsa(dp3473\nVcampaign_id\np3474\nI6006490538965\nsVsocial_unique_clicks\np3475\nI0\nsVunique_impressions\np3476\nI0\nsVstart_time\np3477\nV2012-11-26T06:00:00+0000\np3478\nsVspent\np3479\nV119375\np3480\nsVactions\np3481\nNsVclicks\np3482\nV2550\np3483\nsVconnections\np3484\nI0\nsVsocial_clicks\np3485\nV0\np3486\nsVevents\np3487\n(dp3488\nVvideo_play\np3489\nI0\nsVtitle_clicks\np3490\nI0\nsVinline_like\np3491\nI0\nsVinline_comment\np3492\nI0\nsVrsvp_maybe\np3493\nI0\nsVlink_open\np3494\nI0\nsVphoto_view\np3495\nI0\nsVrsvp_yes\np3496\nI0\nsVfans\np3497\nI0\nsVquestion_vote\np3498\nI0\nssVsocial_impressions\np3499\nV0\np3500\nsVadgroup_id\np3501\nI6006490539965\nsVsocial_unique_impressions\np3502\nI0\nsVsocial_spent\np3503\nV0\np3504\nsVimpressions\np3505\nV4967889\np3506\nsVnewsfeed_position\np3507\n(dp3508\nVnewsfeed_clicks\np3509\nV0\np3510\nsVnewsfeed_impressions\np3511\nV0\np3512\nsVnewsfeed_average_position\np3513\nI0\nssVid\np3514\nV6006490539965/stats/1353909600/1356588000\np3515\nsVunique_clicks\np3516\nI0\nsVend_time\np3517\nV2012-12-27T06:00:00+0000\np3518\nsa(dp3519\nVcampaign_id\np3520\nI6006490538965\nsVsocial_unique_clicks\np3521\nI0\nsVunique_impressions\np3522\nI0\nsVstart_time\np3523\nV2012-11-26T06:00:00+0000\np3524\nsVspent\np3525\nV625\np3526\nsVactions\np3527\nNsVclicks\np3528\nV12\np3529\nsVconnections\np3530\nI0\nsVso'
p6
sS'hash'
p7
S'23e8c2f881e6c330aa4782e93ec6232818cb41cf'
p8
sS'stack'
p9
S''
s.