(dp1
S'args'
p2
S''
sS'methodname'
p3
S''
sS'packet_num'
p4
I2
sS'returnval'
p5
S"The-Jet-Age-Was-Better-Th-6Ieg\np235\nsbag1\n(g2\ng3\nNtp236\nRp237\n(dp238\ng7\nI30000\nsg8\nV2012-09-20T09:00:00-0700\np239\nsg10\nI40156177\nsg11\nNsg12\nV2012-09-22T20:30:00-0700\np240\nsg14\nI1\nsg15\nV6005853131965\np241\nsg17\nVVW: Smiles: Sept-Oct 2012 | Can-You-Make-It-Through-This-Post-Without-Smiling\np242\nsbag1\n(g2\ng3\nNtp243\nRp244\n(dp245\ng7\nI40000\nsg8\nV2012-09-22T06:30:00-0700\np246\nsg10\nI40156177\nsg11\nNsg12\nV2012-09-25T20:30:00-0700\np247\nsg14\nI1\nsg15\nV6005853227965\np248\nsg17\nVVW: Smiles: Sept-Oct 2012 | Pictures-Of-Smiles-Taken-At-Just-The-Right-Moment\np249\nsbag1\n(g2\ng3\nNtp250\nRp251\n(dp252\ng7\nI15000\nsg8\nV2012-09-20T10:45:00-0700\np253\nsg10\nI40156177\nsg11\nNsg12\nV2012-09-26T23:11:00-0700\np254\nsg14\nI1\nsg15\nV6005853826765\np255\nsg17\nVF'Real Phase 2: Sept-Oct_2012 | 20-Crazy-Events-You-Wont-Believe-Are-Freal-5K2R\np256\nsbag1\n(g2\ng3\nNtp257\nRp258\n(dp259\ng7\nI10000\nsg8\nV2012-09-20T10:30:28-0700\np260\nsg10\nI40156177\nsg11\nNsg12\nV2012-09-22T20:30:00-0700\np261\nsg14\nI1\nsg15\nV6005853977965\np262\nsg17\nVStarbucks: DoubleShot: Sept-Oct 2012 | 25-Things-You-Never-Knew-About-Coffee-78M6\np263\nsbag1\n(g2\ng3\nNtp264\nRp265\n(dp266\ng7\nNsg8\nV2012-09-20T10:45:31-0700\np267\nsg10\nI40156177\nsg11\nI50000\nsg12\nV2012-10-02T00:00:00-0700\np268\nsg14\nI1\nsg15\nV6005854042565\np269\nsg17\nVBenefit Cosmetics: Sept-Oct_2012 | Yuk-Or-Wow-Celebrity-Beauty-Looks-From-This-Year-7Dgb\np270\nsbag1\n(g2\ng3\nNtp271\nRp272\n(dp273\ng7\nNsg8\nV2012-09-20T10:48:20-0700\np274\nsg10\nI40156177\nsg11\nI50000\nsg12\nV2012-10-31T00:00:00-0700\np275\nsg14\nI1\nsg15\nV6005854058765\np276\nsg17\nVVW: Smiles: Sept-Oct 2012 | Can-You-Make-It-Through-This-Post-Without-Smiling\np277\nsbag1\n(g2\ng3\nNtp278\nRp279\n(dp280\ng7\nI20000\nsg8\nV2012-09-20T15:47:00-0700\np281\nsg10\nI40156177\nsg11\nNsg12\nV2012-09-25T20:30:00-0700\np282\nsg14\nI1\nsg15\nV6005858648365\np283\nsg17\nVStarbucks: DoubleShot: Sept-Oct 2012 | 10-Celebrities-You-Never-Knew-Had-A-Twin-78M6\np284\nsbag1\n(g2\ng3\nNtp285\nRp286\n(dp287\ng7\nI40000\nsg8\nV2012-09-20T16:32:00-0700\np288\nsg10\nI40156177\nsg11\nNsg12\nV2012-09-22T20:30:00-0700\np289\nsg14\nI1\nsg15\nV6005859590565\np290\nsg17\nVFrankenweenie: Sept-Oct_2012 | 17-Things-You-Need-To-Know-About-Frankenweenie\np291\nsbag1\n(g2\ng3\nNtp292\nRp293\n(dp294\ng7\nNsg8\nV2012-09-20T13:54:37-0700\np295\nsg10\nI40156177\nsg11\nI10000\nsg12\nV2012-10-20T00:00:00-0700\np296\nsg14\nI1\nsg15\nV6005860406565\np297\nsg17\nVMicrosoft Outlook: Aug-Oct_2012 | FBSS | 17-Easy-Diy-Ways-To-Upgrade-Your-Life-76Ab\np298\nsbag1\n(g2\ng3\nNtp299\nRp300\n(dp301\ng7\nNsg8\nV2012-09-20T13:56:19-0700\np302\nsg10\nI40156177\nsg11\nI10000\nsg12\nV2012-10-20T00:00:00-0700\np303\nsg14\nI1\nsg15\nV6005860411765\np304\nsg17\nVMicrosoft Outlook: Aug-Oct_2012 | 12-Ways-The-World-Has-Changed-Since-The-90S-76Ab\np305\nsbag1\n(g2\ng3\nNtp306\nRp307\n(dp308\ng7\nI20000\nsg8\nV2012-09-21T15:10:00-0700\np309\nsg10\nI40156177\nsg11\nNsg12\nV2012-09-23T20:30:00-0700\np310\nsg14\nI1\nsg15\nV6005866844765\np311\nsg17\nVBuzzFeed RnD: MySpace Yourself\np312\nsbag1\n(g2\ng3\nNtp313\nRp314\n(dp315\ng7\nI20000\nsg8\nV2012-09-21T18:09:00-0700\np316\nsg10\nI40156177\nsg11\nNsg12\nV2012-09-23T20:30:00-0700\np317\nsg14\nI1\nsg15\nV6005866882165\np318\nsg17\nVBuzzFeed RnD: Geocities Yourself\np319\nsbag1\n(g2\ng3\nNtp320\nRp321\n(dp322\ng7\nI10000\nsg8\nV2012-09-24T06:44:21-0700\np323\nsg10\nI40156177\nsg11\nNsg12\nV2012-09-25T20:30:00-0700\np324\nsg14\nI1\nsg15\nV6005888022365\np325\nsg17\nVGE: Nostalgia: Sept_2012 | Rub-Your-Way-Through-History-With-Ge-Rubbable-Gifs-6Ieg\np326\nsbag1\n(g2\ng3\nNtp327\nRp328\n(dp329\ng7\nNsg8\nV2012-09-24T07:09:55-0700\np330\nsg10\nI40156177\nsg11\nI50000\nsg12\nV2012-10-07T00:00:00-0700\np331\nsg14\nI1\nsg15\nV6005888135965\np332\nsg17\nVFrankenweenie: Sept-Oct_2012 | 17-Things-You-Need-To-Know-About-Frankenweenie \np333\nsbag1\n(g2\ng3\nNtp334\nRp335\n(dp336\ng7\nI23300\nsg8\nV2012-09-24T08:48:00-0700\np337\nsg10\nI40156177\nsg11\nNsg12\nV2012-09-26T23:48:00-0700\np338\nsg14\nI1\nsg15\nV6005888922565\np339\nsg17\nVSamsung Flight 2: June-Aug_2012 | 20-Computer-Firsts-Thatll-Take-You-Back-6G87\np340\nsbag1\n(g2\ng3\nNtp341\nRp342\n(dp343\ng7\nI38100\nsg8\nV2012-09-24T08:35:00-0700\np344\nsg10\nI40156177\nsg11\nNsg12\nV2012-09-28T23:05:00-0700\np345\nsg14\nI1\nsg15\nV6005889071365\np346\nsg17\nVSamsung Flight 2: June-Aug_2012 | 7-Movie-Characters-That-Could-Have-Benefitted-F"
p6
sS'hash'
p7
S'242270d02626e99ce1fbb3ff5dd331e7bc3cb224'
p8
sS'stack'
p9
S''
s.