(dp1
S'args'
p2
S''
sS'methodname'
p3
S''
sS'packet_num'
p4
I41
sS'returnval'
p5
S"V2013-01-18T16:21:00-0800\np4558\nsg10\nI40156177\nsg11\nI100000\nsg12\nV2013-01-23T21:00:00-0800\np4559\nsg14\nI1\nsg15\nV6007873236565\np4560\nsg17\nVATT: Talk and Surf: Dec-Jan_2013 | The-Instagram-Of-Dorian-Gray\np4561\nsbag1\n(g2\ng3\nNtp4562\nRp4563\n(dp4564\ng7\nI100000\nsg8\nV2013-01-18T17:03:00-0800\np4565\nsg10\nI40156177\nsg11\nNsg12\nV2013-01-19T21:03:00-0800\np4566\nsg14\nI1\nsg15\nV6007874198365\np4567\nsg17\nVSamsung: Galaxy S Camera: Nov-Dec 2012 | A Cat's Guide To NYC\np4568\nsbag1\n(g2\ng3\nNtp4569\nRp4570\n(dp4571\ng7\nI25000\nsg8\nV2013-01-22T07:30:00-0800\np4572\nsg10\nI40156177\nsg11\nNsg12\nV2013-01-23T23:45:00-0800\np4573\nsg14\nI1\nsg15\nV6007963354965\np4574\nsg17\nVArchetypeMe: Jan-Feb_2013 | 14-Kids-That-Are-Definitely-Rebels\np4575\nsbag1\n(g2\ng3\nNtp4576\nRp4577\n(dp4578\ng7\nI25000\nsg8\nV2013-01-22T08:30:00-0800\np4579\nsg10\nI40156177\nsg11\nNsg12\nV2013-01-24T23:45:00-0800\np4580\nsg14\nI1\nsg15\nV6007964558965\np4581\nsg17\nVPnG: Scope Oct-Jan_2013 | 15-Cute-And-Courageous-Animals\np4582\nsbag1\n(g2\ng3\nNtp4583\nRp4584\n(dp4585\ng7\nI25000\nsg8\nV2013-01-22T08:45:00-0800\np4586\nsg10\nI40156177\nsg11\nNsg12\nV2013-01-25T23:45:00-0800\np4587\nsg14\nI1\nsg15\nV6007964721965\np4588\nsg17\nVPnG: Scope Oct-Jan_2013 | 19-People-With-Really-Couragous-Mustaches-73I7\np4589\nsbag1\n(g2\ng3\nNtp4590\nRp4591\n(dp4592\ng7\nI25000\nsg8\nV2013-01-22T08:45:00-0800\np4593\nsg10\nI40156177\nsg11\nNsg12\nV2013-01-24T23:45:00-0800\np4594\nsg14\nI1\nsg15\nV6007964940765\np4595\nsg17\nVPnG: Scope Oct-Jan_2013 | The-Most-Courageous-Moves-To-Use-On-The-Dance-Floo\np4596\nsbag1\n(g2\ng3\nNtp4597\nRp4598\n(dp4599\ng7\nI20000\nsg8\nV2013-01-22T12:04:37-0800\np4600\nsg10\nI40156177\nsg11\nNsg12\nV2013-01-23T23:00:00-0800\np4601\nsg14\nI1\nsg15\nV6007968610165\np4602\nsg17\nVSpike: Joe Schmo Flight 1 Jan_2013 | The-Best-Wtf-Faces-From-Joe-Schmo-2611\np4603\nsbag1\n(g2\ng3\nNtp4604\nRp4605\n(dp4606\ng7\nI35000\nsg8\nV2013-01-22T12:33:20-0800\np4607\nsg10\nI40156177\nsg11\nNsg12\nV2013-01-23T20:30:00-0800\np4608\nsg14\nI1\nsg15\nV6007969149765\np4609\nsg17\nVUSA: Suits 2.5 Jan 2013 | The-Timeline-Of-The-Suit-67U4\np4610\nsbag1\n(g2\ng3\nNtp4611\nRp4612\n(dp4613\ng7\nI20000\nsg8\nV2013-01-22T13:00:00-0800\np4614\nsg10\nI40156177\nsg11\nNsg12\nV2013-01-24T23:45:00-0800\np4615\nsg14\nI1\nsg15\nV6007969382165\np4616\nsg17\nVNewsreaders: Jan_2013 | Can-You-Tell-Real-News-Headlines-From-Satire-8Npp\np4617\nsbag1\n(g2\ng3\nNtp4618\nRp4619\n(dp4620\ng7\nI40000\nsg8\nV2013-01-22T14:37:13-0800\np4621\nsg10\nI40156177\nsg11\nNsg12\nV2013-01-23T20:30:00-0800\np4622\nsg14\nI1\nsg15\nV6007971325765\np4623\nsg17\nVSilk Almond: Jan-Feb 2013 | 10-Sweet-And-Savory-Food-Substitutes-That-Are-Bett-8I9R\np4624\nsbag1\n(g2\ng3\nNtp4625\nRp4626\n(dp4627\ng7\nI25000\nsg8\nV2013-01-23T07:30:00-0800\np4628\nsg10\nI40156177\nsg11\nNsg12\nV2013-01-24T23:45:00-0800\np4629\nsg14\nI1\nsg15\nV6007986816765\np4630\nsg17\nVArchetypeMe: Jan-Feb_2013 | 16-Creative-Ways-To-Kill-Time\np4631\nsbag1\n(g2\ng3\nNtp4632\nRp4633\n(dp4634\ng7\nI30000\nsg8\nV2013-01-23T08:45:00-0800\np4635\nsg10\nI40156177\nsg11\nNsg12\nV2013-01-24T23:45:00-0800\np4636\nsg14\nI1\nsg15\nV6007988082565\np4637\nsg17\nVFilm District Parker: Jan_2013 | 10-Disguises-You-Should-Never-Use-In-A-Heist-8C9X\np4638\nsbag1\n(g2\ng3\nNtp4639\nRp4640\n(dp4641\ng7\nI25000\nsg8\nV2013-01-23T09:00:00-0800\np4642\nsg10\nI40156177\nsg11\nNsg12\nV2013-01-25T23:45:00-0800\np4643\nsg14\nI1\nsg15\nV6007988719165\np4644\nsg17\nVSeven Psychopaths DVD: Jan_2013 | 10-Christopher-Walken-Impressions-Well-Love-Forev-8Rf6\np4645\nsbag1\n(g2\ng3\nNtp4646\nRp4647\n(dp4648\ng7\nI25000\nsg8\nV2013-01-23T09:30:00-0800\np4649\nsg10\nI40156177\nsg11\nNsg12\nV2013-01-25T23:45:00-0800\np4650\nsg14\nI1\nsg15\nV6007989063965\np4651\nsg17\nVSeven Psychopaths DVD: Jan_2013 | 12-Iconic-Death-Scenes-From-Movies-8Rf6\np4652\nsbag1\n(g2\ng3\nNtp4653\nRp4654\n(dp4655\ng7\nI20000\nsg8\nV2013-01-23T09:30:00-0800\np4656\nsg10\nI40156177\nsg11\nNsg12\nV2013-01-24T23:45:00-0800\np4657\nsg14\nI1\nsg15\nV6007989121965\np4658\nsg17\nVSeven Psychopaths DVD: Jan_2013 | 10-Of-The-Scariest-Celebrity-Stalkers-8Rf6\np4659\nsbag1\n(g2\ng3\nNtp4660\nRp4661\n(dp4662\ng7\nI40000\nsg8\nV2013-01-23T12:37:23-0800\np4663\nsg10\nI40156177\nsg11\nNsg12\nV2013-01-24T20:30:00-0800\np4664\nsg14\nI1\nsg15\nV6007993032565\np4665\nsg17\nVTNT: Monday Morning Jan-Feb 2013 | The-16-Faces-You-Make-On-Monday-Morning-7Dfc\np4666\nsbag1\n(g2\ng3\nNt"
p6
sS'hash'
p7
S'242270d02626e99ce1fbb3ff5dd331e7bc3cb224'
p8
sS'stack'
p9
S''
s.