(dp1
S'args'
p2
S''
sS'methodname'
p3
S''
sS'packet_num'
p4
I33
sS'returnval'
p5
S'14\nI1\nsg15\nV6007329436165\np3685\nsg17\nVTaco Bell: Loaded Grillers Dec-Feb 2013 | 2012-Fashion-Statements-That-Couldve-Gone-Unshare\np3686\nsbag1\n(g2\ng3\nNtp3687\nRp3688\n(dp3689\ng7\nI90000\nsg8\nV2012-12-27T10:48:00-0800\np3690\nsg10\nI40156177\nsg11\nNsg12\nV2013-01-04T21:00:00-0800\np3691\nsg14\nI1\nsg15\nV6007329496565\np3692\nsg17\nVTWC: Social One: Dec-Jan 2013 | 11-Reasons-Why-Tv-Shows-Are-The-New-Movies\np3693\nsbag1\n(g2\ng3\nNtp3694\nRp3695\n(dp3696\ng7\nI85000\nsg8\nV2012-12-27T12:56:00-0800\np3697\nsg10\nI40156177\nsg11\nNsg12\nV2012-12-27T21:00:00-0800\np3698\nsg14\nI1\nsg15\nV6007331808765\np3699\nsg17\nVBoxee: Dec_2012 | 16-Things-We-Should-Stop-Doing-In-2013\np3700\nsbag1\n(g2\ng3\nNtp3701\nRp3702\n(dp3703\ng7\nI40000\nsg8\nV2012-12-28T09:03:23-0800\np3704\nsg10\nI40156177\nsg11\nNsg12\nV2012-12-29T20:30:00-0800\np3705\nsg14\nI1\nsg15\nV6007372208565\np3706\nsg17\nVCinemax: Banshee S1 Dec-Jan 2013 | 10-Of-Our-Favorite-Hard-Boiled-Fight-Scenes-8Bqh\np3707\nsbag1\n(g2\ng3\nNtp3708\nRp3709\n(dp3710\ng7\nI40000\nsg8\nV2012-12-30T06:30:00-0800\np3711\nsg10\nI40156177\nsg11\nNsg12\nV2012-12-31T20:30:00-0800\np3712\nsg14\nI1\nsg15\nV6007372359365\np3713\nsg17\nVCinemax: Banshee S1 Dec-Jan 2013 | 10-Film-And-Tv-Visionaries-Summarized-In-4-Gifs-8Bqh\np3714\nsbag1\n(g2\ng3\nNtp3715\nRp3716\n(dp3717\ng7\nI40000\nsg8\nV2013-01-02T06:30:00-0800\np3718\nsg10\nI40156177\nsg11\nNsg12\nV2013-01-03T20:30:00-0800\np3719\nsg14\nI1\nsg15\nV6007372493565\np3720\nsg17\nVCinemax: Banshee S1 Dec-Jan 2013 | 10-Classic-Movies-Told-In-3-Gifs-8Bqh\np3721\nsbag1\n(g2\ng3\nNtp3722\nRp3723\n(dp3724\ng7\nI40000\nsg8\nV2012-12-28T09:51:37-0800\np3725\nsg10\nI40156177\nsg11\nNsg12\nV2012-12-29T20:30:00-0800\np3726\nsg14\nI1\nsg15\nV6007372924765\np3727\nsg17\nVTaco Bell: Loaded Grillers Dec-Feb 2013 | 10-Photos-From-2012-That-Shouldve-Never-Been-Shar\np3728\nsbag1\n(g2\ng3\nNtp3729\nRp3730\n(dp3731\ng7\nNsg8\nV2012-12-28T14:14:31-0800\np3732\nsg10\nI40156177\nsg11\nI60000\nsg12\nV2012-12-30T20:30:00-0800\np3733\nsg14\nI1\nsg15\nV6007377443765\np3734\nsg17\nVHasbro Family Game Night: Dec_2012 | 10-Weird-Board-Game-Facts-You-Probably-Didnt-Know-87Fq\np3735\nsbag1\n(g2\ng3\nNtp3736\nRp3737\n(dp3738\ng7\nI30000\nsg8\nV2013-01-02T06:18:25-0800\np3739\nsg10\nI40156177\nsg11\nNsg12\nV2013-01-03T20:30:00-0800\np3740\nsg14\nI1\nsg15\nV6007478014965\np3741\nsg17\nVZero Dark: Dec-Jan 2013 | 10-Modern-Military-Heroes-You-Should-Know-About-8Alx\np3742\nsbag1\n(g2\ng3\nNtp3743\nRp3744\n(dp3745\ng7\nI30000\nsg8\nV2013-01-02T07:50:21-0800\np3746\nsg10\nI40156177\nsg11\nNsg12\nV2013-01-03T20:30:00-0800\np3747\nsg14\nI1\nsg15\nV6007480545165\np3748\nsg17\nVLifetime: Double Divas Dec-Jan 2013 | 13-Embarrassing-But-Understandable-Wardrobe-Malf\np3749\nsbag1\n(g2\ng3\nNtp3750\nRp3751\n(dp3752\ng7\nI50000\nsg8\nV2013-01-02T08:40:43-0800\np3753\nsg10\nI40156177\nsg11\nNsg12\nV2013-01-03T20:30:00-0800\np3754\nsg14\nI1\nsg15\nV6007481345165\np3755\nsg17\nVNevada Tourism: Dec-Feb 2013 | 12-Amazing-Desert-Photos-That-Look-Like-Theyre-8Dgq\np3756\nsbag1\n(g2\ng3\nNtp3757\nRp3758\n(dp3759\ng7\nI50000\nsg8\nV2013-01-04T06:30:00-0800\np3760\nsg10\nI40156177\nsg11\nNsg12\nV2013-01-05T20:30:00-0800\np3761\nsg14\nI1\nsg15\nV6007481463565\np3762\nsg17\nVNevada Tourism: Dec-Feb 2013 | 10-Jaw-Dropping-Sights-You-Can-Only-See-In-Nevada-8Dgq\np3763\nsbag1\n(g2\ng3\nNtp3764\nRp3765\n(dp3766\ng7\nI30000\nsg8\nV2013-01-04T06:30:00-0800\np3767\nsg10\nI40156177\nsg11\nNsg12\nV2013-01-05T20:30:00-0800\np3768\nsg14\nI1\nsg15\nV6007482108965\np3769\nsg17\nVZero Dark: Dec-Jan 2013 | 10-Big-Ways-Our-World-Has-Changed-In-Last-Decade-8Alx\np3770\nsbag1\n(g2\ng3\nNtp3771\nRp3772\n(dp3773\ng7\nI30000\nsg8\nV2013-01-02T10:45:00-0800\np3774\nsg10\nI40156177\nsg11\nNsg12\nV2013-01-04T23:45:00-0800\np3775\nsg14\nI1\nsg15\nV6007483296565\np3776\nsg17\nVFilm District Parker: Jan_2013 | 10-Ways-Jason-Statham-Could-Kick-Your-Ass-8C9X\np3777\nsbag1\n(g2\ng3\nNtp3778\nRp3779\n(dp3780\ng7\nI3000\nsg8\nV2013-01-02T11:14:24-0800\np3781\nsg10\nI40156177\nsg11\nNsg12\nV2013-01-08T12:55:00-0800\np3782\nsg14\nI1\nsg15\nV6007484062565\np3783\nsg17\nVNewcastle: Dec_2012 | Decoding-Your-Choice-Of-Instagram-Filter-7Nwr\np3784\nsbag1\n(g2\ng3\nNtp3785\nRp3786\n(dp3787\ng7\nI30000\nsg8\nV2013-01-03T06:00:00-0800\np3788\nsg10\nI40156177\nsg11\nNsg12\nV2013-01-08T23:45:00-0800\np3789\nsg14\nI1\nsg15\nV6007484116565\np3790\nsg17\nVCW Carrie Diaries: Jan_2013 | 15-Things-High-Schooler'
p6
sS'hash'
p7
S'242270d02626e99ce1fbb3ff5dd331e7bc3cb224'
p8
sS'stack'
p9
S''
s.