(dp1
S'args'
p2
S''
sS'methodname'
p3
S''
sS'packet_num'
p4
I85
sS'returnval'
p5
S'rn Comfort: Aug-Sept_2012 | The-Most-Unwaveringly-Comfortable-Historical-Figur-6Sgb\np9636\nsbag1\n(g2\ng3\nNtp9637\nRp9638\n(dp9639\ng7\nI25000\nsg8\nV2012-08-23T08:11:00-0700\np9640\nsg10\nI40156177\nsg11\nNsg12\nV2012-09-14T23:11:00-0700\np9641\nsg14\nI2\nsg15\nV6005718444165\np9642\nsg17\nVVirgin Mobile: Q3 2012 | celebrities-and-their-musician-dopplegangers-5l87\np9643\nsbag1\n(g2\ng3\nNtp9644\nRp9645\n(dp9646\ng7\nI50000\nsg8\nV2012-08-23T08:08:33-0700\np9647\nsg10\nI40156177\nsg11\nNsg12\nV2012-09-30T00:00:00-0700\np9648\nsg14\nI2\nsg15\nV6005718595165\np9649\nsg17\nVVirgin Mobile: Q3 2012 | FBSS | 20-awkward-celebrity-twitpic-moments-with-fans-5l87\np9650\nsbag1\n(g2\ng3\nNtp9651\nRp9652\n(dp9653\ng7\nI50000\nsg8\nV2012-08-23T08:11:38-0700\np9654\nsg10\nI40156177\nsg11\nNsg12\nV2012-09-30T00:00:00-0700\np9655\nsg14\nI2\nsg15\nV6005718601765\np9656\nsg17\nVVirgin Mobile: Q3 2012 | FBSS | 25-of-the-worst-things-ever-ever-5l87\np9657\nsbag1\n(g2\ng3\nNtp9658\nRp9659\n(dp9660\ng7\nI50000\nsg8\nV2012-08-23T08:13:34-0700\np9661\nsg10\nI40156177\nsg11\nNsg12\nV2012-09-30T00:00:00-0700\np9662\nsg14\nI2\nsg15\nV6005718613765\np9663\nsg17\nVVirgin Mobile: Q3 2012 | FBSS | 15-amazing-hashtags-from-your-first-week-at-colleg-5l87\np9664\nsbag1\n(g2\ng3\nNtp9665\nRp9666\n(dp9667\ng7\nI50000\nsg8\nV2012-08-23T08:14:31-0700\np9668\nsg10\nI40156177\nsg11\nNsg12\nV2012-09-30T00:00:00-0700\np9669\nsg14\nI2\nsg15\nV6005718620965\np9670\nsg17\nVVirgin Mobile: Q3 2012 | FBSS | 10-words-the-internet-has-changed-forever-5l87\np9671\nsbag1\n(g2\ng3\nNtp9672\nRp9673\n(dp9674\ng7\nI50000\nsg8\nV2012-08-23T08:15:20-0700\np9675\nsg10\nI40156177\nsg11\nNsg12\nV2012-09-30T00:00:00-0700\np9676\nsg14\nI2\nsg15\nV6005718626165\np9677\nsg17\nVVirgin Mobile: Q3 2012 | FBSS | 10-reasons-to-unfriend-your-parents-on-facebook-5l87\np9678\nsbag1\n(g2\ng3\nNtp9679\nRp9680\n(dp9681\ng7\nI50000\nsg8\nV2012-08-23T08:24:30-0700\np9682\nsg10\nI40156177\nsg11\nNsg12\nV2012-09-30T00:00:00-0700\np9683\nsg14\nI2\nsg15\nV6005718669365\np9684\nsg17\nVVirgin Mobile: Q3 2012 | FBSS | 25-ways-the-internet-can-save-your-crappy-day-5l87\np9685\nsbag1\n(g2\ng3\nNtp9686\nRp9687\n(dp9688\ng7\nI25000\nsg8\nV2012-08-23T09:00:00-0700\np9689\nsg10\nI40156177\nsg11\nNsg12\nV2012-09-12T23:31:00-0700\np9690\nsg14\nI2\nsg15\nV6005718745565\np9691\nsg17\nVVirgin Mobile: Q3 2012 | 10-times-its-really-not-ok-to-instagram-5l87\np9692\nsbag1\n(g2\ng3\nNtp9693\nRp9694\n(dp9695\ng7\nI25000\nsg8\nV2012-08-23T15:08:47-0700\np9696\nsg10\nI40156177\nsg11\nNsg12\nV2012-08-24T20:30:00-0700\np9697\nsg14\nI2\nsg15\nV6005722411965\np9698\nsg17\nVSmart Car: Aug-Sept 2012 | 17-Awesome-Works-Of-Art-In-Unexpected-Places-5Yip\np9699\nsbag1\n(g2\ng3\nNtp9700\nRp9701\n(dp9702\ng7\nI50000\nsg8\nV2012-08-23T14:54:55-0700\np9703\nsg10\nI40156177\nsg11\nNsg12\nV2012-09-30T00:00:00-0700\np9704\nsg14\nI2\nsg15\nV6005723966765\np9705\nsg17\nVVirgin Mobile: Q3 2012 | FBSS | LIkes | 15-amazing-hashtags-from-your-first-week-at-colleg-5l87\np9706\nsbag1\n(g2\ng3\nNtp9707\nRp9708\n(dp9709\ng7\nI50000\nsg8\nV2012-08-23T14:56:22-0700\np9710\nsg10\nI40156177\nsg11\nNsg12\nV2012-09-30T00:00:00-0700\np9711\nsg14\nI2\nsg15\nV6005723974565\np9712\nsg17\nVVirgin Mobile: Q3 2012 | FBSS | Shares | 15-amazing-hashtags-from-your-first-week-at-colleg-5l87\np9713\nsbag1\n(g2\ng3\nNtp9714\nRp9715\n(dp9716\ng7\nI25000\nsg8\nV2012-08-27T06:30:00-0700\np9717\nsg10\nI40156177\nsg11\nNsg12\nV2012-09-01T20:30:00-0700\np9718\nsg14\nI2\nsg15\nV6005724010365\np9719\nsg17\nVSmart Car: Aug-Sept 2012 | 12-Mind-Blowing-Product-Customizations-5Yip\np9720\nsbag1\n(g2\ng3\nNtp9721\nRp9722\n(dp9723\ng7\nI40000\nsg8\nV2012-08-24T11:35:18-0700\np9724\nsg10\nI40156177\nsg11\nNsg12\nV2012-08-25T20:30:00-0700\np9725\nsg14\nI2\nsg15\nV6005727234565\np9726\nsg17\nVIntel Film Maker: Aug_2012 | 18-Awesome-Movie-Scenes-From-The-90S-721N\np9727\nsbag1\n(g2\ng3\nNtp9728\nRp9729\n(dp9730\ng7\nNsg8\nV2012-08-24T12:32:38-0700\np9731\nsg10\nI40156177\nsg11\nI40000\nsg12\nV2012-08-26T20:30:00-0700\np9732\nsg14\nI2\nsg15\nV6005727407365\np9733\nsg17\nVBBCA: Copper: Aug_2012 | Things-We-Really-Missed-Out-On-In-The-1860S\np9734\nsbag1\n(g2\ng3\nNtp9735\nRp9736\n(dp9737\ng7\nI20000\nsg8\nV2012-08-27T07:20:00-0700\np9738\nsg10\nI40156177\nsg11\nNsg12\nV2012-08-30T22:59:00-0700\np9739\nsg14\nI2\nsg15\nV6005734960565\np9740\nsg17\nVMTV: VMAs: Aug-Sept 2012 | The-11-Most-Outrageous-Moments-From-The-Vmas-In-G\np9741\nsbag1\n(g2\ng3\nNtp9742\nRp9'
p6
sS'hash'
p7
S'242270d02626e99ce1fbb3ff5dd331e7bc3cb224'
p8
sS'stack'
p9
S''
s.