(dp1
S'args'
p2
S''
sS'methodname'
p3
S''
sS'packet_num'
p4
I14
sS'returnval'
p5
S'ents\np2745\n(dp2746\nVvideo_play\np2747\nI0\nsVtitle_clicks\np2748\nI0\nsVinline_like\np2749\nI0\nsVinline_comment\np2750\nI0\nsVrsvp_maybe\np2751\nI0\nsVlink_open\np2752\nI0\nsVphoto_view\np2753\nI0\nsVrsvp_yes\np2754\nI0\nsVfans\np2755\nI0\nsVquestion_vote\np2756\nI0\nssVsocial_impressions\np2757\nV0\np2758\nsVadgroup_id\np2759\nI6006711740165\nsVsocial_unique_impressions\np2760\nI0\nsVsocial_spent\np2761\nV0\np2762\nsVimpressions\np2763\nV3984421\np2764\nsVnewsfeed_position\np2765\n(dp2766\nVnewsfeed_clicks\np2767\nV0\np2768\nsVnewsfeed_impressions\np2769\nV0\np2770\nsVnewsfeed_average_position\np2771\nI0\nssVid\np2772\nV6006711740165/stats/1353909600/1356588000\np2773\nsVunique_clicks\np2774\nI0\nsVend_time\np2775\nV2012-12-27T06:00:00+0000\np2776\nsa(dp2777\nVcampaign_id\np2778\nI6006711739165\nsVsocial_unique_clicks\np2779\nI0\nsVunique_impressions\np2780\nI0\nsVstart_time\np2781\nV2012-11-26T06:00:00+0000\np2782\nsVspent\np2783\nV80000\np2784\nsVactions\np2785\nNsVclicks\np2786\nV1622\np2787\nsVconnections\np2788\nI0\nsVsocial_clicks\np2789\nV0\np2790\nsVevents\np2791\n(dp2792\nVvideo_play\np2793\nI0\nsVtitle_clicks\np2794\nI0\nsVinline_like\np2795\nI0\nsVinline_comment\np2796\nI0\nsVrsvp_maybe\np2797\nI0\nsVlink_open\np2798\nI0\nsVphoto_view\np2799\nI0\nsVrsvp_yes\np2800\nI0\nsVfans\np2801\nI0\nsVquestion_vote\np2802\nI0\nssVsocial_impressions\np2803\nV0\np2804\nsVadgroup_id\np2805\nI6007307345965\nsVsocial_unique_impressions\np2806\nI0\nsVsocial_spent\np2807\nV0\np2808\nsVimpressions\np2809\nV2749290\np2810\nsVnewsfeed_position\np2811\n(dp2812\nVnewsfeed_clicks\np2813\nV0\np2814\nsVnewsfeed_impressions\np2815\nV0\np2816\nsVnewsfeed_average_position\np2817\nI0\nssVid\np2818\nV6007307345965/stats/1353909600/1356588000\np2819\nsVunique_clicks\np2820\nI0\nsVend_time\np2821\nV2012-12-27T06:00:00+0000\np2822\nsa(dp2823\nVcampaign_id\np2824\nI6006723083965\nsVsocial_unique_clicks\np2825\nI0\nsVunique_impressions\np2826\nI0\nsVstart_time\np2827\nV2012-11-26T06:00:00+0000\np2828\nsVspent\np2829\nV236\np2830\nsVactions\np2831\nNsVclicks\np2832\nV7\np2833\nsVconnections\np2834\nI0\nsVsocial_clicks\np2835\nV0\np2836\nsVevents\np2837\n(dp2838\nVvideo_play\np2839\nI0\nsVtitle_clicks\np2840\nI0\nsVinline_like\np2841\nI0\nsVinline_comment\np2842\nI0\nsVrsvp_maybe\np2843\nI0\nsVlink_open\np2844\nI0\nsVphoto_view\np2845\nI0\nsVrsvp_yes\np2846\nI0\nsVfans\np2847\nI0\nsVquestion_vote\np2848\nI0\nssVsocial_impressions\np2849\nV0\np2850\nsVadgroup_id\np2851\nI6006723084965\nsVsocial_unique_impressions\np2852\nI0\nsVsocial_spent\np2853\nV0\np2854\nsVimpressions\np2855\nV21098\np2856\nsVnewsfeed_position\np2857\n(dp2858\nVnewsfeed_clicks\np2859\nV0\np2860\nsVnewsfeed_impressions\np2861\nV0\np2862\nsVnewsfeed_average_position\np2863\nI0\nssVid\np2864\nV6006723084965/stats/1353909600/1356588000\np2865\nsVunique_clicks\np2866\nI0\nsVend_time\np2867\nV2012-12-27T06:00:00+0000\np2868\nsa(dp2869\nVcampaign_id\np2870\nI6006723083965\nsVsocial_unique_clicks\np2871\nI0\nsVunique_impressions\np2872\nI0\nsVstart_time\np2873\nV2012-11-26T06:00:00+0000\np2874\nsVspent\np2875\nV0\np2876\nsVactions\np2877\nNsVclicks\np2878\nV0\np2879\nsVconnections\np2880\nI0\nsVsocial_clicks\np2881\nV0\np2882\nsVevents\np2883\n(dp2884\nVvideo_play\np2885\nI0\nsVtitle_clicks\np2886\nI0\nsVinline_like\np2887\nI0\nsVinline_comment\np2888\nI0\nsVrsvp_maybe\np2889\nI0\nsVlink_open\np2890\nI0\nsVphoto_view\np2891\nI0\nsVrsvp_yes\np2892\nI0\nsVfans\np2893\nI0\nsVquestion_vote\np2894\nI0\nssVsocial_impressions\np2895\nV0\np2896\nsVadgroup_id\np2897\nI6006723120965\nsVsocial_unique_impressions\np2898\nI0\nsVsocial_spent\np2899\nV0\np2900\nsVimpressions\np2901\nV2685\np2902\nsVnewsfeed_position\np2903\n(dp2904\nVnewsfeed_clicks\np2905\nV0\np2906\nsVnewsfeed_impressions\np2907\nV0\np2908\nsVnewsfeed_average_position\np2909\nI0\nssVid\np2910\nV6006723120965/stats/1353909600/1356588000\np2911\nsVunique_clicks\np2912\nI0\nsVend_time\np2913\nV2012-12-27T06:00:00+0000\np2914\nsa(dp2915\nVcampaign_id\np2916\nI6006723083965\nsVsocial_unique_clicks\np2917\nI0\nsVunique_impressions\np2918\nI0\nsVstart_time\np2919\nV2012-11-26T06:00:00+0000\np2920\nsVspent\np2921\nV119764\np2922\nsVactions\np2923\nNsVclicks\np2924\nV3816\np2925\nsVconnections\np2926\nI0\nsVsocial_clicks\np2927\nV0\np2928\nsVevents\np2929\n(dp2930\nVvideo_play\np2931\nI0\nsVtitle_clicks\np2932\nI0\nsVinline_like\np2933\nI0\nsVinline_comment\np2934\nI0\nsVrsvp_maybe\np2935\nI0\nsVlink_open\np2936\nI0\nsVphoto_view\np2937\nI0\nsVrsvp_yes\np2938\nI0\nsVfans\np2939\nI0\nsV'
p6
sS'hash'
p7
S'24230dee45fb7cc91b06b3a4a7df37a47e46e85f'
p8
sS'stack'
p9
S''
s.