(dp1
S'args'
p2
S''
sS'methodname'
p3
S''
sS'packet_num'
p4
I1
sS'returnval'
p5
S''
sS'hash'
p6
S'244a0a6d8a8150bdbfb0457b8ba9b500c1f59d6c'
p7
sS'stack'
p8
S'ozco/development/django/buzzfeed/local/lib/python2.7/site-packages/nose/core.py runTests /usr/lib/python2.7/unittest/main.py __init__ /home/orozco/development/django/buzzfeed/local/lib/python2.7/site-packages/nose/core.py __init__ /home/orozco/development/django/buzzfeed/bin/nosetests <module> '
p9
s.