(dp1
S'args'
p2
S''
sS'methodname'
p3
S''
sS'packet_num'
p4
I24
sS'returnval'
p5
S'The Best Soci\np3247\nsVcreative_id\np3248\nV6002896072965\np3249\nsVpreview_url\np3250\nVhttp://www.facebook.com/ads/api/creative_preview.php?cid=6002896072965\np3251\nsVid\np3252\nV6002896072965\np3253\nsVimage_url\np3254\nVhttps://fbcdn-creative-a.akamaihd.net/hads-ak-snc7/s110x80/701901_6006844344765_9333_n.jpg\np3255\nsVcount_current_adgroups\np3256\nI0\nsVrun_status\np3257\nI1\nsVtype\np3258\nI1\nsVlink_url\np3259\nVhttp://buzzfeed.com/scott/nthngcom-the-best-social-network\np3260\nsVview_tag\np3261\ng36\nsa(dp3262\nValt_view_tags\np3263\n(lp3264\nsVbody\np3265\nVThe BuzzFeed development team just made understanding your viral traffic easier than ever!\np3266\nsVimage_hash\np3267\nV5388f110c3e91785e87280f6320dec19\np3268\nsVname\np3269\nVNew Features! Viral Dash-00\np3270\nsVtitle\np3271\nVNew Features! Viral Dash\np3272\nsVcreative_id\np3273\nV6002896067365\np3274\nsVpreview_url\np3275\nVhttp://www.facebook.com/ads/api/creative_preview.php?cid=6002896067365\np3276\nsVid\np3277\nV6002896067365\np3278\nsVimage_url\np3279\nVhttps://fbcdn-creative-a.akamaihd.net/hads-ak-prn1/s110x80/708166_6006844575965_42313_n.jpg\np3280\nsVcount_current_adgroups\np3281\nI0\nsVrun_status\np3282\nI1\nsVtype\np3283\nI1\nsVlink_url\np3284\nVhttp://buzzfeed.com/chrismenning/new-features-viral-dashboard-enhancements\np3285\nsVview_tag\np3286\ng36\nsa(dp3287\nValt_view_tags\np3288\n(lp3289\nsVbody\np3290\nVShow them this.\np3291\nsVimage_hash\np3292\nVa87f8a5508ec1670306e42152703caad\np3293\nsVname\np3294\nVHow To Piss Off Nerds\np3295\nsVtitle\np3296\nVHow To Piss Off Nerds\np3297\nsVcreative_id\np3298\nV6002896162165\np3299\nsVpreview_url\np3300\nVhttp://www.facebook.com/ads/api/creative_preview.php?cid=6002896162165\np3301\nsVid\np3302\nV6002896162165\np3303\nsVimage_url\np3304\nVhttps://fbcdn-creative-a.akamaihd.net/hads-ak-prn1/s110x80/708187_6006845066565_13984_n.jpg\np3305\nsVcount_current_adgroups\np3306\nI0\nsVrun_status\np3307\nI1\nsVtype\np3308\nI1\nsVlink_url\np3309\nVhttp://buzzfeed.com/awesomer/how-to-piss-off-nerds\np3310\nsVview_tag\np3311\ng36\nsa(dp3312\nValt_view_tags\np3313\n(lp3314\nsVbody\np3315\nVAt first, I laughed. Then I reflected for a moment on why I was laughing, and immediately felt dead inside. Enjoy!\np3316\nsVimage_hash\np3317\nV46a754b58db7f560903ee766e3e016ed\np3318\nsVname\np3319\nVThe Most Disturbing Sims\np3320\nsVtitle\np3321\nVThe Most Disturbing Sims\np3322\nsVcreative_id\np3323\nV6002896087765\np3324\nsVpreview_url\np3325\nVhttp://www.facebook.com/ads/api/creative_preview.php?cid=6002896087765\np3326\nsVid\np3327\nV6002896087765\np3328\nsVimage_url\np3329\nVhttps://fbcdn-creative-a.akamaihd.net/hads-ak-prn1/s110x80/701889_6006844477365_13849_n.jpg\np3330\nsVcount_current_adgroups\np3331\nI0\nsVrun_status\np3332\nI1\nsVtype\np3333\nI1\nsVlink_url\np3334\nVhttp://buzzfeed.com/chrismenning/the-most-disturbing-sims-movie-ever\np3335\nsVview_tag\np3336\ng36\nsa(dp3337\nValt_view_tags\np3338\n(lp3339\nsVbody\np3340\nVThe BuzzFeed development team just made understanding your viral traffic easier than ever!\np3341\nsVimage_hash\np3342\nV5388f110c3e91785e87280f6320dec19\np3343\nsVname\np3344\nVNew Features! Viral Dash-01\np3345\nsVtitle\np3346\nVNew Features! Viral Dash\np3347\nsVcreative_id\np3348\nV6002896089565\np3349\nsVpreview_url\np3350\nVhttp://www.facebook.com/ads/api/creative_preview.php?cid=6002896089565\np3351\nsVid\np3352\nV6002896089565\np3353\nsVimage_url\np3354\nVhttps://fbcdn-creative-a.akamaihd.net/hads-ak-prn1/s110x80/708166_6006844575965_42313_n.jpg\np3355\nsVcount_current_adgroups\np3356\nI0\nsVrun_status\np3357\nI1\nsVtype\np3358\nI1\nsVlink_url\np3359\nVhttp://buzzfeed.com/chrismenning/new-features-viral-dashboard-enhancements\np3360\nsVview_tag\np3361\ng36\nsa(dp3362\nValt_view_tags\np3363\n(lp3364\nsVbody\np3365\nVIs it me?\np3366\nsVimage_hash\np3367\nVca3c7e2c6a7898b61cbd64ebfe687ea8\np3368\nsVname\np3369\nVMark Wahlberg Wants To R-00\np3370\nsVtitle\np3371\nVMark Wahlberg Wants To R\np3372\nsVcreative_id\np3373\nV6002896091565\np3374\nsVpreview_url\np3375\nVhttp://www.facebook.com/ads/api/creative_preview.php?cid=6002896091565\np3376\nsVid\np3377\nV6002896091565\np3378\nsVimage_url\np3379\nVhttps://fbcdn-creative-a.akamaihd.net/hads-ak-ash3/s110x80/701898_6006845262965_43483_n.jpg\np3380\nsVcount_current_adgroups\np3381\nI0\nsVrun_status\np3382\nI1\nsVtype\np'
p6
sS'hash'
p7
S'274d62ebdac4f1ed2471235b0b9dcf2965ef87e8'
p8
sS'stack'
p9
S''
s.