(dp1
S'args'
p2
S''
sS'methodname'
p3
S''
sS'packet_num'
p4
I52
sS'returnval'
p5
S' body\np7016\nsVimage_hash\np7017\nV564fb22a16816f179f4f569e83436dd3\np7018\nsVname\np7019\nVTest Campaign 1-09\np7020\nsVtitle\np7021\nVTest Campaign 1\np7022\nsVcreative_id\np7023\nV6002878004365\np7024\nsVpreview_url\np7025\nVhttp://www.facebook.com/ads/api/creative_preview.php?cid=6002878004365\np7026\nsVid\np7027\nV6002878004365\np7028\nsVimage_url\np7029\nVhttps://fbcdn-creative-a.akamaihd.net/hads-ak-ash3/s110x80/708176_6006844590565_48352_n.jpg\np7030\nsVcount_current_adgroups\np7031\nI0\nsVrun_status\np7032\nI1\nsVtype\np7033\nI1\nsVlink_url\np7034\nVhttp://www.buzzfeed.com/marcos/ted-stevens-former-senator-is-in-plane-crash-in\np7035\nsVview_tag\np7036\ng36\nsa(dp7037\nValt_view_tags\np7038\n(lp7039\nsVbody\np7040\nVTest Campaign 1 body\np7041\nsVimage_hash\np7042\nV564fb22a16816f179f4f569e83436dd3\np7043\nsVname\np7044\nVTest Campaign 1-08\np7045\nsVtitle\np7046\nVTest Campaign 1\np7047\nsVcreative_id\np7048\nV6002877982565\np7049\nsVpreview_url\np7050\nVhttp://www.facebook.com/ads/api/creative_preview.php?cid=6002877982565\np7051\nsVid\np7052\nV6002877982565\np7053\nsVimage_url\np7054\nVhttps://fbcdn-creative-a.akamaihd.net/hads-ak-ash3/s110x80/708176_6006844590565_48352_n.jpg\np7055\nsVcount_current_adgroups\np7056\nI0\nsVrun_status\np7057\nI1\nsVtype\np7058\nI1\nsVlink_url\np7059\nVhttp://www.buzzfeed.com/marcos/ted-stevens-former-senator-is-in-plane-crash-in\np7060\nsVview_tag\np7061\ng36\nsa(dp7062\nValt_view_tags\np7063\n(lp7064\nsVbody\np7065\nVTest Campaign 2 Body\np7066\nsVimage_hash\np7067\nV3fb7a939597f5334ec09ac6a7ac8e96b\np7068\nsVname\np7069\nVTest Campaign 2-08\np7070\nsVtitle\np7071\nVTest Campaign 2\np7072\nsVcreative_id\np7073\nV6002877984365\np7074\nsVpreview_url\np7075\nVhttp://www.facebook.com/ads/api/creative_preview.php?cid=6002877984365\np7076\nsVid\np7077\nV6002877984365\np7078\nsVimage_url\np7079\nVhttps://fbcdn-creative-a.akamaihd.net/hads-ak-ash3/s110x80/708157_6006844421765_60679_n.jpg\np7080\nsVcount_current_adgroups\np7081\nI0\nsVrun_status\np7082\nI1\nsVtype\np7083\nI1\nsVlink_url\np7084\nVhttp://www.buzzfeed.com/awesomer/the-least-appropriate-way-to-wash-your-eyepet\np7085\nsVview_tag\np7086\ng36\nsa(dp7087\nValt_view_tags\np7088\n(lp7089\nsVbody\np7090\nVTest Campaign 1 body\np7091\nsVimage_hash\np7092\nV564fb22a16816f179f4f569e83436dd3\np7093\nsVname\np7094\nVTest Campaign 1-07\np7095\nsVtitle\np7096\nVTest Campaign 1\np7097\nsVcreative_id\np7098\nV6002877977965\np7099\nsVpreview_url\np7100\nVhttp://www.facebook.com/ads/api/creative_preview.php?cid=6002877977965\np7101\nsVid\np7102\nV6002877977965\np7103\nsVimage_url\np7104\nVhttps://fbcdn-creative-a.akamaihd.net/hads-ak-ash3/s110x80/708176_6006844590565_48352_n.jpg\np7105\nsVcount_current_adgroups\np7106\nI0\nsVrun_status\np7107\nI1\nsVtype\np7108\nI1\nsVlink_url\np7109\nVhttp://www.buzzfeed.com/marcos/ted-stevens-former-senator-is-in-plane-crash-in\np7110\nsVview_tag\np7111\ng36\nsa(dp7112\nValt_view_tags\np7113\n(lp7114\nsVbody\np7115\nVTest Campaign 2 Body\np7116\nsVimage_hash\np7117\nV3fb7a939597f5334ec09ac6a7ac8e96b\np7118\nsVname\np7119\nVTest Campaign 2-07\np7120\nsVtitle\np7121\nVTest Campaign 2\np7122\nsVcreative_id\np7123\nV6002877979765\np7124\nsVpreview_url\np7125\nVhttp://www.facebook.com/ads/api/creative_preview.php?cid=6002877979765\np7126\nsVid\np7127\nV6002877979765\np7128\nsVimage_url\np7129\nVhttps://fbcdn-creative-a.akamaihd.net/hads-ak-ash3/s110x80/708157_6006844421765_60679_n.jpg\np7130\nsVcount_current_adgroups\np7131\nI0\nsVrun_status\np7132\nI1\nsVtype\np7133\nI1\nsVlink_url\np7134\nVhttp://www.buzzfeed.com/awesomer/the-least-appropriate-way-to-wash-your-eyepet\np7135\nsVview_tag\np7136\ng36\nsa(dp7137\nValt_view_tags\np7138\n(lp7139\nsVbody\np7140\nVTest Campaign 1 body\np7141\nsVimage_hash\np7142\nV564fb22a16816f179f4f569e83436dd3\np7143\nsVname\np7144\nVTest Campaign 1-06\np7145\nsVtitle\np7146\nVTest Campaign 1\np7147\nsVcreative_id\np7148\nV6002877973765\np7149\nsVpreview_url\np7150\nVhttp://www.facebook.com/ads/api/creative_preview.php?cid=6002877973765\np7151\nsVid\np7152\nV6002877973765\np7153\nsVimage_url\np7154\nVhttps://fbcdn-creative-a.akamaihd.net/hads-ak-ash3/s110x80/708176_6006844590565_48352_n.jpg\np7155\nsVcount_current_adgroups\np7156\nI0\nsVrun_status\np7157\nI1\nsVtype\np7158\nI1\nsVlink_url\np7159\nVhttp://www.buzzfeed.com/marcos/ted-stevens-former-senator-is-in-plane-crash-'
p6
sS'hash'
p7
S'274d62ebdac4f1ed2471235b0b9dcf2965ef87e8'
p8
sS'stack'
p9
S''
s.