(dp1
S'args'
p2
S''
sS'methodname'
p3
S''
sS'packet_num'
p4
I50
sS'returnval'
p5
S'sVlink_url\np6734\nVhttp://buzzfeed.com/rickyftw/cat-muzzle-19ta\np6735\nsVview_tag\np6736\ng36\nsa(dp6737\nValt_view_tags\np6738\n(lp6739\nsVbody\np6740\nVSo apparently there\xe2s this show on Cartoon Network called \xe2Sym-Bionic Titan\xe2 which aired an episode in November wher\np6741\nsVimage_hash\np6742\nV2057e14e368ab3c07e7171e0c8635cc9\np6743\nsVname\np6744\nVKids Cartoon Shows Are G\np6745\nsVtitle\np6746\nVKids Cartoon Shows Are G\np6747\nsVcreative_id\np6748\nV6002879011365\np6749\nsVpreview_url\np6750\nVhttp://www.facebook.com/ads/api/creative_preview.php?cid=6002879011365\np6751\nsVid\np6752\nV6002879011365\np6753\nsVimage_url\np6754\nVhttps://fbcdn-creative-a.akamaihd.net/hads-ak-prn1/s110x80/708205_6006844248365_20395_n.jpg\np6755\nsVcount_current_adgroups\np6756\nI0\nsVrun_status\np6757\nI1\nsVtype\np6758\nI1\nsVlink_url\np6759\nVhttp://buzzfeed.com/rickyftw/kids-cartoon-shows-are-getting-awesome-sym-bionic-19ta\np6760\nsVview_tag\np6761\ng36\nsa(dp6762\nValt_view_tags\np6763\n(lp6764\nsVbody\np6765\nVThis has got to be the absolute coolest way to score a touchdown.\np6766\nsVimage_hash\np6767\nVe1544895effa1fe29a4443a5c19efbbf\np6768\nsVname\np6769\nVAmazing Middle School Fo\np6770\nsVtitle\np6771\nVAmazing Middle School Fo\np6772\nsVcreative_id\np6773\nV6002879013165\np6774\nsVpreview_url\np6775\nVhttp://www.facebook.com/ads/api/creative_preview.php?cid=6002879013165\np6776\nsVid\np6777\nV6002879013165\np6778\nsVimage_url\np6779\nVhttps://fbcdn-creative-a.akamaihd.net/hads-ak-ash3/s110x80/701894_6006845405165_17376_n.jpg\np6780\nsVcount_current_adgroups\np6781\nI0\nsVrun_status\np6782\nI1\nsVtype\np6783\nI1\nsVlink_url\np6784\nVhttp://buzzfeed.com/rickyftw/middle-school-football-team-scores-with-an-amazing-19ta\np6785\nsVview_tag\np6786\ng36\nsa(dp6787\nValt_view_tags\np6788\n(lp6789\nsVbody\np6790\nVWhy does this even exist\xe2\xa6.it covers the cat\xe2s eyes? For some reason I feel like that would only piss off the feline even f\np6791\nsVimage_hash\np6792\nVe1dce3edfce0d2cf60db428a7c6af01b\np6793\nsVname\np6794\nVCat Muzzle-00\np6795\nsVtitle\np6796\nVCat Muzzle\np6797\nsVcreative_id\np6798\nV6002879005965\np6799\nsVpreview_url\np6800\nVhttp://www.facebook.com/ads/api/creative_preview.php?cid=6002879005965\np6801\nsVid\np6802\nV6002879005965\np6803\nsVimage_url\np6804\nVhttps://fbcdn-creative-a.akamaihd.net/hads-ak-prn1/s110x80/708157_6006845411165_52759_n.jpg\np6805\nsVcount_current_adgroups\np6806\nI0\nsVrun_status\np6807\nI1\nsVtype\np6808\nI1\nsVlink_url\np6809\nVhttp://buzzfeed.com/rickyftw/cat-muzzle-19ta\np6810\nsVview_tag\np6811\ng36\nsa(dp6812\nValt_view_tags\np6813\n(lp6814\nsVbody\np6815\nVWhy does this even exist\xe2\xa6.it covers the cat\xe2s eyes? For some reason I feel like that would only piss off the feline even further! This is so full of fail, anyone that uses this should buy a matching one for themselves.\np6816\nsVimage_hash\np6817\nVe1dce3edfce0d2cf60db428a7c6af01b\np6818\nsVname\np6819\nVCat Muzzle\np6820\nsVtitle\np6821\nVCat Muzzle\np6822\nsVcreative_id\np6823\nV6002878996565\np6824\nsVpreview_url\np6825\nVhttp://www.facebook.com/ads/api/creative_preview.php?cid=6002878996565\np6826\nsVid\np6827\nV6002878996565\np6828\nsVimage_url\np6829\nVhttps://fbcdn-creative-a.akamaihd.net/hads-ak-prn1/s110x80/708157_6006845411165_52759_n.jpg\np6830\nsVcount_current_adgroups\np6831\nI0\nsVrun_status\np6832\nI1\nsVtype\np6833\nI1\nsVlink_url\np6834\nVhttp://buzzfeed.com/rickyftw/cat-muzzle-19ta\np6835\nsVview_tag\np6836\ng36\nsa(dp6837\nValt_view_tags\np6838\n(lp6839\nsVbody\np6840\nVThis is the body\np6841\nsVimage_hash\np6842\nV564fb22a16816f179f4f569e83436dd3\np6843\nsVname\np6844\nVTest Creative 1291927766\np6845\nsVtitle\np6846\nVTest Creative 1291927766\np6847\nsVcreative_id\np6848\nV6002878325965\np6849\nsVpreview_url\np6850\nVhttp://www.facebook.com/ads/api/creative_preview.php?cid=6002878325965\np6851\nsVid\np6852\nV6002878325965\np6853\nsVimage_url\np6854\nVhttps://fbcdn-creative-a.akamaihd.net/hads-ak-ash3/s110x80/708176_6006844590565_48352_n.jpg\np6855\nsVcount_current_adgroups\np6856\nI0\nsVrun_status\np6857\nI1\nsVtype\np6858\nI1\nsVlink_url\np6859\nVhttp://buzzfeed.com\np6860\nsVview_tag\np6861\ng36\nsa(dp6862\nValt_view_tags\np6863\n(lp6864\nsVbody\np6865\nVTest Campaign 1 body\np6866\nsVimage_hash\np6867\nV564fb22a16816f179f4f569e83436dd3\np6868\nsVname\np6869\nVTest Campaign'
p6
sS'hash'
p7
S'274d62ebdac4f1ed2471235b0b9dcf2965ef87e8'
p8
sS'stack'
p9
S''
s.