(dp1
S'args'
p2
S''
sS'methodname'
p3
S''
sS'packet_num'
p4
I34
sS'returnval'
p5
S'p4579\nVhttps://fbcdn-creative-a.akamaihd.net/hads-ak-ash3/s110x80/701896_6006844219165_37236_n.jpg\np4580\nsVcount_current_adgroups\np4581\nI0\nsVrun_status\np4582\nI1\nsVtype\np4583\nI1\nsVlink_url\np4584\nVhttp://buzzfeed.com/awesomer/if-super-mario-bros-was-made-today\np4585\nsVview_tag\np4586\ng36\nsa(dp4587\nValt_view_tags\np4588\n(lp4589\nsVbody\np4590\nVIs it me?\np4591\nsVimage_hash\np4592\nVca3c7e2c6a7898b61cbd64ebfe687ea8\np4593\nsVname\np4594\nVMark Wahlberg Wants To R\np4595\nsVtitle\np4596\nVMark Wahlberg Wants To R\np4597\nsVcreative_id\np4598\nV6002892226565\np4599\nsVpreview_url\np4600\nVhttp://www.facebook.com/ads/api/creative_preview.php?cid=6002892226565\np4601\nsVid\np4602\nV6002892226565\np4603\nsVimage_url\np4604\nVhttps://fbcdn-creative-a.akamaihd.net/hads-ak-ash3/s110x80/701898_6006845262965_43483_n.jpg\np4605\nsVcount_current_adgroups\np4606\nI0\nsVrun_status\np4607\nI1\nsVtype\np4608\nI1\nsVlink_url\np4609\nVhttp://buzzfeed.com/chrismenning/mark-wahlberg-wants-to-remind-you-who-the-fighter\np4610\nsVview_tag\np4611\ng36\nsa(dp4612\nValt_view_tags\np4613\n(lp4614\nsVbody\np4615\nVIf you were born in December then you already know that no one will remember your birthday. Using this infographic, you can not-so-sub\np4616\nsVimage_hash\np4617\nV81e13a642862f36c734ed3004a702091\np4618\nsVname\np4619\nVDecember Birthdays Suck\np4620\nsVtitle\np4621\nVDecember Birthdays Suck\np4622\nsVcreative_id\np4623\nV6002892223965\np4624\nsVpreview_url\np4625\nVhttp://www.facebook.com/ads/api/creative_preview.php?cid=6002892223965\np4626\nsVid\np4627\nV6002892223965\np4628\nsVimage_url\np4629\nVhttps://fbcdn-creative-a.akamaihd.net/hads-ak-ash3/s110x80/701894_6006844829765_8585_n.jpg\np4630\nsVcount_current_adgroups\np4631\nI0\nsVrun_status\np4632\nI1\nsVtype\np4633\nI1\nsVlink_url\np4634\nVhttp://buzzfeed.com/chrismenning/december-birthdays-suck\np4635\nsVview_tag\np4636\ng36\nsa(dp4637\nValt_view_tags\np4638\n(lp4639\nsVbody\np4640\nVBefore he founded Wikileaks, Julian Assange was just another "Passionate, and often pig headed activist intellectual" seeking a "spiri\np4641\nsVimage_hash\np4642\nVdf96817856b68707e1a6f49bc588cd55\np4643\nsVname\np4644\nVJulian Assange\'s OK Cupi-00\np4645\nsVtitle\np4646\nVJulian Assange\'s OK Cupi\np4647\nsVcreative_id\np4648\nV6002892218965\np4649\nsVpreview_url\np4650\nVhttp://www.facebook.com/ads/api/creative_preview.php?cid=6002892218965\np4651\nsVid\np4652\nV6002892218965\np4653\nsVimage_url\np4654\nVhttps://fbcdn-creative-a.akamaihd.net/hads-ak-prn1/s110x80/708179_6006845389365_38628_n.jpg\np4655\nsVcount_current_adgroups\np4656\nI0\nsVrun_status\np4657\nI1\nsVtype\np4658\nI1\nsVlink_url\np4659\nVhttp://buzzfeed.com/awesomer/julian-assanges-ok-cupid-profile\np4660\nsVview_tag\np4661\ng36\nsa(dp4662\nValt_view_tags\np4663\n(lp4664\nsVbody\np4665\nVYou\'ll all agree when I say, without hyperbole, that dogs are the greatest animals that have ever and will ever exist. Join me as\np4666\nsVimage_hash\np4667\nVf708611c48572b0e8322a2f1f2709718\np4668\nsVname\np4669\nVThe 30 Most Important Do\np4670\nsVtitle\np4671\nVThe 30 Most Important Do\np4672\nsVcreative_id\np4673\nV6002892215765\np4674\nsVpreview_url\np4675\nVhttp://www.facebook.com/ads/api/creative_preview.php?cid=6002892215765\np4676\nsVid\np4677\nV6002892215765\np4678\nsVimage_url\np4679\nVhttps://fbcdn-creative-a.akamaihd.net/hads-ak-prn1/s110x80/708163_6006845545165_63199_n.jpg\np4680\nsVcount_current_adgroups\np4681\nI0\nsVrun_status\np4682\nI1\nsVtype\np4683\nI1\nsVlink_url\np4684\nVhttp://buzzfeed.com/awesomer/the-30-most-important-dogs-of-2010\np4685\nsVview_tag\np4686\ng36\nsa(dp4687\nValt_view_tags\np4688\n(lp4689\nsVbody\np4690\nVFacebook has released their list of the Top 10 Status Update Trends of the last year. Oddly absent are bra colors and where your mom l\np4691\nsVimage_hash\np4692\nVbdd3330c0e050a9591829282639612f4\np4693\nsVname\np4694\nVFacebook\xe2s Top 10\np4695\nsVtitle\np4696\nVFacebook\xe2s Top 10\np4697\nsVcreative_id\np4698\nV6002892211565\np4699\nsVpreview_url\np4700\nVhttp://www.facebook.com/ads/api/creative_preview.php?cid=6002892211565\np4701\nsVid\np4702\nV6002892211565\np4703\nsVimage_url\np4704\nVhttps://fbcdn-creative-a.akamaihd.net/hads-ak-prn1/s110x80/708178_6006845191965_11940_n.jpg\np4705\nsVcount_current_adgroups\np4706\nI0\nsVrun_status\np4707\nI1\nsVty'
p6
sS'hash'
p7
S'274d62ebdac4f1ed2471235b0b9dcf2965ef87e8'
p8
sS'stack'
p9
S''
s.