(dp1
S'args'
p2
S''
sS'methodname'
p3
S''
sS'packet_num'
p4
I22
sS'returnval'
p5
S'708173_6006845149165_3002_n.jpg\np2980\nsVcount_current_adgroups\np2981\nI0\nsVrun_status\np2982\nI1\nsVtype\np2983\nI1\nsVlink_url\np2984\nVhttp://buzzfeed.com/jonah/smart-people\np2985\nsVview_tag\np2986\ng36\nsa(dp2987\nValt_view_tags\np2988\n(lp2989\nsVbody\np2990\nVHow are you getting along with your family this holiday season???\np2991\nsVimage_hash\np2992\nV386ba93b31ecbe165fbdb05ab156b19e\np2993\nsVname\np2994\nVA Republican Relative Ju-00\np2995\nsVtitle\np2996\nVA Republican Relative Ju\np2997\nsVcreative_id\np2998\nV6002896420165\np2999\nsVpreview_url\np3000\nVhttp://www.facebook.com/ads/api/creative_preview.php?cid=6002896420165\np3001\nsVid\np3002\nV6002896420165\np3003\nsVimage_url\np3004\nVhttps://fbcdn-creative-a.akamaihd.net/hads-ak-prn1/s110x80/708193_6006844379365_46733_n.jpg\np3005\nsVcount_current_adgroups\np3006\nI0\nsVrun_status\np3007\nI1\nsVtype\np3008\nI1\nsVlink_url\np3009\nVhttp://buzzfeed.com/jonah/a-republican-relative-just-sent-me-this\np3010\nsVview_tag\np3011\ng36\nsa(dp3012\nValt_view_tags\np3013\n(lp3014\nsVbody\np3015\nVWe had over 5 million unique visitors for the month of November!!  And we are on pace for 5.5 million unique visitors for December.  T\np3016\nsVimage_hash\np3017\nV9816a914c5de09026cb40e590e34034c\np3018\nsVname\np3019\nVBuzzFeed Has Over 5 Mill-00\np3020\nsVtitle\np3021\nVBuzzFeed Has Over 5 Mill\np3022\nsVcreative_id\np3023\nV6002896422165\np3024\nsVpreview_url\np3025\nVhttp://www.facebook.com/ads/api/creative_preview.php?cid=6002896422165\np3026\nsVid\np3027\nV6002896422165\np3028\nsVimage_url\np3029\nVhttps://fbcdn-creative-a.akamaihd.net/hads-ak-prn1/s110x80/708176_6006844959565_9256_n.jpg\np3030\nsVcount_current_adgroups\np3031\nI0\nsVrun_status\np3032\nI1\nsVtype\np3033\nI1\nsVlink_url\np3034\nVhttp://buzzfeed.com/jonah/buzzfeed-has-over-5-million-readers\np3035\nsVview_tag\np3036\ng36\nsa(dp3037\nValt_view_tags\np3038\n(lp3039\nsVbody\np3040\nVAre you at risk for alcoholism? Or perhaps a friend or family member needs help with a drinking problem?  Here are the top signs to lo\np3041\nsVimage_hash\np3042\nV85b3baba813b9a43e3895df35b55dff9\np3043\nsVname\np3044\nVTop 10 Signs of Alcoholi-01\np3045\nsVtitle\np3046\nVTop 10 Signs of Alcoholi\np3047\nsVcreative_id\np3048\nV6002896424165\np3049\nsVpreview_url\np3050\nVhttp://www.facebook.com/ads/api/creative_preview.php?cid=6002896424165\np3051\nsVid\np3052\nV6002896424165\np3053\nsVimage_url\np3054\nVhttps://fbcdn-creative-a.akamaihd.net/hads-ak-prn1/s110x80/708187_6006844849165_37128_n.jpg\np3055\nsVcount_current_adgroups\np3056\nI0\nsVrun_status\np3057\nI1\nsVtype\np3058\nI1\nsVlink_url\np3059\nVhttp://buzzfeed.com/jonah/top-10-signs-of-alcoholism\np3060\nsVview_tag\np3061\ng36\nsa(dp3062\nValt_view_tags\np3063\n(lp3064\nsVbody\np3065\nVNew feature for anyone who is bored at work.  Just click the "random button" on the upper right of any BuzzFeed page.  You can click i\np3066\nsVimage_hash\np3067\nV5f521b572b56411dac4aacd7adfe4bef\np3068\nsVname\np3069\nVRandom Button (New BuzzF-00\np3070\nsVtitle\np3071\nVRandom Button (New BuzzF\np3072\nsVcreative_id\np3073\nV6002896425965\np3074\nsVpreview_url\np3075\nVhttp://www.facebook.com/ads/api/creative_preview.php?cid=6002896425965\np3076\nsVid\np3077\nV6002896425965\np3078\nsVimage_url\np3079\nVhttps://fbcdn-creative-a.akamaihd.net/hads-ak-snc7/s110x80/701899_6006844635365_42367_n.jpg\np3080\nsVcount_current_adgroups\np3081\nI0\nsVrun_status\np3082\nI1\nsVtype\np3083\nI1\nsVlink_url\np3084\nVhttp://buzzfeed.com/jonah/random-button-new-buzzfeed-feature\np3085\nsVview_tag\np3086\ng36\nsa(dp3087\nValt_view_tags\np3088\n(lp3089\nsVbody\np3090\nVYo yo yo check out this new BuzzFeed created by the future hip hop moguls at Dollar Van Demo.  Aspiring rappers get on a $1 group taxi\np3091\nsVimage_hash\np3092\nV429acca74c970dafae8fb06fd63a7ffa\np3093\nsVname\np3094\nV1) Get On Van 2) Rap 3)-00\np3095\nsVtitle\np3096\nV1) Get On Van 2) Rap 3)\np3097\nsVcreative_id\np3098\nV6002896427765\np3099\nsVpreview_url\np3100\nVhttp://www.facebook.com/ads/api/creative_preview.php?cid=6002896427765\np3101\nsVid\np3102\nV6002896427765\np3103\nsVimage_url\np3104\nVhttps://fbcdn-creative-a.akamaihd.net/hads-ak-ash3/s110x80/708205_6006844452965_38470_n.jpg\np3105\nsVcount_current_adgroups\np3106\nI0\nsVrun_status\np3107\nI1\nsVtype\np3108\nI1\nsVlink_url\np3109\n'
p6
sS'hash'
p7
S'274d62ebdac4f1ed2471235b0b9dcf2965ef87e8'
p8
sS'stack'
p9
S''
s.