(dp1
S'args'
p2
S''
sS'methodname'
p3
S''
sS'packet_num'
p4
I46
sS'returnval'
p5
S'65\np6203\nsVimage_url\np6204\nVhttps://fbcdn-creative-a.akamaihd.net/hads-ak-prn1/s110x80/708205_6006844248365_20395_n.jpg\np6205\nsVcount_current_adgroups\np6206\nI0\nsVrun_status\np6207\nI1\nsVtype\np6208\nI1\nsVlink_url\np6209\nVhttp://buzzfeed.com/rickyftw/kids-cartoon-shows-are-getting-awesome-sym-bionic-19ta\np6210\nsVview_tag\np6211\ng36\nsa(dp6212\nValt_view_tags\np6213\n(lp6214\nsVbody\np6215\nVThis has got to be the absolute coolest way to score a touchdown.\np6216\nsVimage_hash\np6217\nVe1544895effa1fe29a4443a5c19efbbf\np6218\nsVname\np6219\nVAmazing Middle School Fo-03\np6220\nsVtitle\np6221\nVAmazing Middle School Fo\np6222\nsVcreative_id\np6223\nV6002880362565\np6224\nsVpreview_url\np6225\nVhttp://www.facebook.com/ads/api/creative_preview.php?cid=6002880362565\np6226\nsVid\np6227\nV6002880362565\np6228\nsVimage_url\np6229\nVhttps://fbcdn-creative-a.akamaihd.net/hads-ak-ash3/s110x80/701894_6006845405165_17376_n.jpg\np6230\nsVcount_current_adgroups\np6231\nI0\nsVrun_status\np6232\nI1\nsVtype\np6233\nI1\nsVlink_url\np6234\nVhttp://buzzfeed.com/rickyftw/middle-school-football-team-scores-with-an-amazing-19ta\np6235\nsVview_tag\np6236\ng36\nsa(dp6237\nValt_view_tags\np6238\n(lp6239\nsVbody\np6240\nVWhy does this even exist\xe2\xa6.it covers the cat\xe2s eyes? For some reason I feel like that would only piss off the feline even\np6241\nsVimage_hash\np6242\nVe1dce3edfce0d2cf60db428a7c6af01b\np6243\nsVname\np6244\nVCat Muzzle-12\np6245\nsVtitle\np6246\nVCat Muzzle\np6247\nsVcreative_id\np6248\nV6002880350965\np6249\nsVpreview_url\np6250\nVhttp://www.facebook.com/ads/api/creative_preview.php?cid=6002880350965\np6251\nsVid\np6252\nV6002880350965\np6253\nsVimage_url\np6254\nVhttps://fbcdn-creative-a.akamaihd.net/hads-ak-prn1/s110x80/708157_6006845411165_52759_n.jpg\np6255\nsVcount_current_adgroups\np6256\nI0\nsVrun_status\np6257\nI1\nsVtype\np6258\nI1\nsVlink_url\np6259\nVhttp://buzzfeed.com/rickyftw/cat-muzzle-19ta\np6260\nsVview_tag\np6261\ng36\nsa(dp6262\nValt_view_tags\np6263\n(lp6264\nsVbody\np6265\nVSo apparently there\xe2s this show on Cartoon Network called \xe2Sym-Bionic Titan\xe2 which aired an episode in November wher\np6266\nsVimage_hash\np6267\nV2057e14e368ab3c07e7171e0c8635cc9\np6268\nsVname\np6269\nVKids Cartoon Shows Are G-03\np6270\nsVtitle\np6271\nVKids Cartoon Shows Are G\np6272\nsVcreative_id\np6273\nV6002880352965\np6274\nsVpreview_url\np6275\nVhttp://www.facebook.com/ads/api/creative_preview.php?cid=6002880352965\np6276\nsVid\np6277\nV6002880352965\np6278\nsVimage_url\np6279\nVhttps://fbcdn-creative-a.akamaihd.net/hads-ak-prn1/s110x80/708205_6006844248365_20395_n.jpg\np6280\nsVcount_current_adgroups\np6281\nI0\nsVrun_status\np6282\nI1\nsVtype\np6283\nI1\nsVlink_url\np6284\nVhttp://buzzfeed.com/rickyftw/kids-cartoon-shows-are-getting-awesome-sym-bionic-19ta\np6285\nsVview_tag\np6286\ng36\nsa(dp6287\nValt_view_tags\np6288\n(lp6289\nsVbody\np6290\nVThis has got to be the absolute coolest way to score a touchdown.\np6291\nsVimage_hash\np6292\nVe1544895effa1fe29a4443a5c19efbbf\np6293\nsVname\np6294\nVAmazing Middle School Fo-02\np6295\nsVtitle\np6296\nVAmazing Middle School Fo\np6297\nsVcreative_id\np6298\nV6002880354765\np6299\nsVpreview_url\np6300\nVhttp://www.facebook.com/ads/api/creative_preview.php?cid=6002880354765\np6301\nsVid\np6302\nV6002880354765\np6303\nsVimage_url\np6304\nVhttps://fbcdn-creative-a.akamaihd.net/hads-ak-ash3/s110x80/701894_6006845405165_17376_n.jpg\np6305\nsVcount_current_adgroups\np6306\nI0\nsVrun_status\np6307\nI1\nsVtype\np6308\nI1\nsVlink_url\np6309\nVhttp://buzzfeed.com/rickyftw/middle-school-football-team-scores-with-an-amazing-19ta\np6310\nsVview_tag\np6311\ng36\nsa(dp6312\nValt_view_tags\np6313\n(lp6314\nsVbody\np6315\nVWhy does this even exist\xe2\xa6.it covers the cat\xe2s eyes? For some reason I feel like that would only piss off the feline even\np6316\nsVimage_hash\np6317\nVe1dce3edfce0d2cf60db428a7c6af01b\np6318\nsVname\np6319\nVCat Muzzle-11\np6320\nsVtitle\np6321\nVCat Muzzle\np6322\nsVcreative_id\np6323\nV6002880340365\np6324\nsVpreview_url\np6325\nVhttp://www.facebook.com/ads/api/creative_preview.php?cid=6002880340365\np6326\nsVid\np6327\nV6002880340365\np6328\nsVimage_url\np6329\nVhttps://fbcdn-creative-a.akamaihd.net/hads-ak-prn1/s110x80/708157_6006845411165_52759_n.jpg\np6330\nsVcount_current_adgroups\np6331\nI0\nsVrun_status\np6332\nI1\nsVtype\np6'
p6
sS'hash'
p7
S'274d62ebdac4f1ed2471235b0b9dcf2965ef87e8'
p8
sS'stack'
p9
S''
s.