(dp1
S'args'
p2
S''
sS'methodname'
p3
S''
sS'packet_num'
p4
I26
sS'returnval'
p5
S"hrismenning/december-birthdays-suck\np3510\nsVview_tag\np3511\ng36\nsa(dp3512\nValt_view_tags\np3513\n(lp3514\nsVbody\np3515\nVThis cat is a helmet. Your argument is invalid. Kitties don't need reasons to be absurdly adorable.\np3516\nsVimage_hash\np3517\nV217d5a1cd5f14d74f82a11a4f23876a7\np3518\nsVname\np3519\nVDog Wears Cat Helmet\np3520\nsVtitle\np3521\nVDog Wears Cat Helmet\np3522\nsVcreative_id\np3523\nV6002896102565\np3524\nsVpreview_url\np3525\nVhttp://www.facebook.com/ads/api/creative_preview.php?cid=6002896102565\np3526\nsVid\np3527\nV6002896102565\np3528\nsVimage_url\np3529\nVhttps://fbcdn-creative-a.akamaihd.net/hads-ak-prn1/s110x80/708180_6006844262165_13945_n.jpg\np3530\nsVcount_current_adgroups\np3531\nI0\nsVrun_status\np3532\nI1\nsVtype\np3533\nI1\nsVlink_url\np3534\nVhttp://buzzfeed.com/chrismenning/dog-wears-cat-helmet\np3535\nsVview_tag\np3536\ng36\nsa(dp3537\nValt_view_tags\np3538\n(lp3539\nsVbody\np3540\nV1,200 toy cars race along 18 intertwined lanes in this massive, warehouse-sized racetrack by artist Chris Burden. Sorry, kids. Hot Whe\np3541\nsVimage_hash\np3542\nV981c01cfd9bdb1fcaf95051e05c5365e\np3543\nsVname\np3544\nVBest Toy Car Race Track\np3545\nsVtitle\np3546\nVBest Toy Car Race Track\np3547\nsVcreative_id\np3548\nV6002896104365\np3549\nsVpreview_url\np3550\nVhttp://www.facebook.com/ads/api/creative_preview.php?cid=6002896104365\np3551\nsVid\np3552\nV6002896104365\np3553\nsVimage_url\np3554\nVhttps://fbcdn-creative-a.akamaihd.net/hads-ak-prn1/s110x80/708176_6006844959765_22580_n.jpg\np3555\nsVcount_current_adgroups\np3556\nI0\nsVrun_status\np3557\nI1\nsVtype\np3558\nI1\nsVlink_url\np3559\nVhttp://buzzfeed.com/chrismenning/best-toy-car-race-track-ever\np3560\nsVview_tag\np3561\ng36\nsa(dp3562\nValt_view_tags\np3563\n(lp3564\nsVbody\np3565\nVLesson #827 from Surviving The World warns of the dangerously high number of cats on the Internet.\np3566\nsVimage_hash\np3567\nV718cfd1be3568b10487c3e0303a32f16\np3568\nsVname\np3569\nVSurviving The World: Cat\np3570\nsVtitle\np3571\nVSurviving The World: Cat\np3572\nsVcreative_id\np3573\nV6002896106165\np3574\nsVpreview_url\np3575\nVhttp://www.facebook.com/ads/api/creative_preview.php?cid=6002896106165\np3576\nsVid\np3577\nV6002896106165\np3578\nsVimage_url\np3579\nVhttps://fbcdn-creative-a.akamaihd.net/hads-ak-ash3/s110x80/708190_6006844735565_30070_n.jpg\np3580\nsVcount_current_adgroups\np3581\nI0\nsVrun_status\np3582\nI1\nsVtype\np3583\nI1\nsVlink_url\np3584\nVhttp://buzzfeed.com/chrismenning/surviving-the-world-cats-on-the-internet\np3585\nsVview_tag\np3586\ng36\nsa(dp3587\nValt_view_tags\np3588\n(lp3589\nsVbody\np3590\nVIn Austria, naughty boys and girls don't get coal in their stockings. They're kidnapped by Santa's demon friend Krampus.\np3591\nsVimage_hash\np3592\nV28a8244d14a0cf15e91888d826193a9e\np3593\nsVname\np3594\nVBeen Naughty? Prepare to\np3595\nsVtitle\np3596\nVBeen Naughty? Prepare to\np3597\nsVcreative_id\np3598\nV6002896107965\np3599\nsVpreview_url\np3600\nVhttp://www.facebook.com/ads/api/creative_preview.php?cid=6002896107965\np3601\nsVid\np3602\nV6002896107965\np3603\nsVimage_url\np3604\nVhttps://fbcdn-creative-a.akamaihd.net/hads-ak-ash3/s110x80/708161_6006844300565_51003_n.jpg\np3605\nsVcount_current_adgroups\np3606\nI0\nsVrun_status\np3607\nI1\nsVtype\np3608\nI1\nsVlink_url\np3609\nVhttp://buzzfeed.com/chrismenning/been-naughty-prepare-to-face-krampus\np3610\nsVview_tag\np3611\ng36\nsa(dp3612\nValt_view_tags\np3613\n(lp3614\nsVbody\np3615\nVBecause the original Double Dream Hands video wasn't enough.\np3616\nsVimage_hash\np3617\nV32d5fba7ff487ed94a28180e4fee5880\np3618\nsVname\np3619\nVDouble Dream Hands: Bang\np3620\nsVtitle\np3621\nVDouble Dream Hands: Bang\np3622\nsVcreative_id\np3623\nV6002896109965\np3624\nsVpreview_url\np3625\nVhttp://www.facebook.com/ads/api/creative_preview.php?cid=6002896109965\np3626\nsVid\np3627\nV6002896109965\np3628\nsVimage_url\np3629\nVhttps://fbcdn-creative-a.akamaihd.net/hads-ak-ash3/s110x80/708164_6006844351365_64133_n.jpg\np3630\nsVcount_current_adgroups\np3631\nI0\nsVrun_status\np3632\nI1\nsVtype\np3633\nI1\nsVlink_url\np3634\nVhttp://buzzfeed.com/chrismenning/double-dream-hands-bangin-techno-remix\np3635\nsVview_tag\np3636\ng36\nsa(dp3637\nValt_view_tags\np3638\n(lp3639\nsVbody\np3640\nVGus the ugly pug is back for another round of captions. Do your worst! U"
p6
sS'hash'
p7
S'274d62ebdac4f1ed2471235b0b9dcf2965ef87e8'
p8
sS'stack'
p9
S''
s.