(dp1
S'args'
p2
S''
sS'methodname'
p3
S''
sS'packet_num'
p4
I36
sS'returnval'
p5
S'w_tags\np4838\n(lp4839\nsVbody\np4840\nVA gritty re-imagining of Super Mario Brothers set in a violent gangland Mushroom Kingdom.\np4841\nsVimage_hash\np4842\nV1a5bfc53b04d6d1a870c861916f99fba\np4843\nsVname\np4844\nVIf Super Mario Bros. Was\np4845\nsVtitle\np4846\nVIf Super Mario Bros. Was\np4847\nsVcreative_id\np4848\nV6002891456365\np4849\nsVpreview_url\np4850\nVhttp://www.facebook.com/ads/api/creative_preview.php?cid=6002891456365\np4851\nsVid\np4852\nV6002891456365\np4853\nsVimage_url\np4854\nVhttps://fbcdn-creative-a.akamaihd.net/hads-ak-ash3/s110x80/701896_6006844219165_37236_n.jpg\np4855\nsVcount_current_adgroups\np4856\nI0\nsVrun_status\np4857\nI1\nsVtype\np4858\nI1\nsVlink_url\np4859\nVhttp://buzzfeed.com/awesomer/if-super-mario-bros-was-made-today\np4860\nsVview_tag\np4861\ng36\nsa(dp4862\nValt_view_tags\np4863\n(lp4864\nsVbody\np4865\nVProtocol droid suicide is a serious problem. If you know a droid who is struggling with depression, please encourage them (or program\np4866\nsVimage_hash\np4867\nVf4f47c955c5fb9f4ee63e9338f9935a8\np4868\nsVname\np4869\nVC3PO Suicides\np4870\nsVtitle\np4871\nVC3PO Suicides\np4872\nsVcreative_id\np4873\nV6002891458165\np4874\nsVpreview_url\np4875\nVhttp://www.facebook.com/ads/api/creative_preview.php?cid=6002891458165\np4876\nsVid\np4877\nV6002891458165\np4878\nsVimage_url\np4879\nVhttps://fbcdn-creative-a.akamaihd.net/hads-ak-prn1/s110x80/708186_6006845532165_4895_n.jpg\np4880\nsVcount_current_adgroups\np4881\nI0\nsVrun_status\np4882\nI1\nsVtype\np4883\nI1\nsVlink_url\np4884\nVhttp://buzzfeed.com/awesomer/c3po-suicides\np4885\nsVview_tag\np4886\ng36\nsa(dp4887\nValt_view_tags\np4888\n(lp4889\nsVbody\np4890\nVBefore he founded Wikileaks, Julian Assange was just another "Passionate, and often pig headed activist intellectual" seeking a "spiri\np4891\nsVimage_hash\np4892\nVdf96817856b68707e1a6f49bc588cd55\np4893\nsVname\np4894\nVJulian Assange\'s OK Cupi\np4895\nsVtitle\np4896\nVJulian Assange\'s OK Cupi\np4897\nsVcreative_id\np4898\nV6002891459965\np4899\nsVpreview_url\np4900\nVhttp://www.facebook.com/ads/api/creative_preview.php?cid=6002891459965\np4901\nsVid\np4902\nV6002891459965\np4903\nsVimage_url\np4904\nVhttps://fbcdn-creative-a.akamaihd.net/hads-ak-prn1/s110x80/708179_6006845389365_38628_n.jpg\np4905\nsVcount_current_adgroups\np4906\nI0\nsVrun_status\np4907\nI1\nsVtype\np4908\nI1\nsVlink_url\np4909\nVhttp://buzzfeed.com/awesomer/julian-assanges-ok-cupid-profile\np4910\nsVview_tag\np4911\ng36\nsa(dp4912\nValt_view_tags\np4913\n(lp4914\nsVbody\np4915\nVThis is the body\np4916\nsVimage_hash\np4917\nV564fb22a16816f179f4f569e83436dd3\np4918\nsVname\np4919\nVTest Creative 1292429663\np4920\nsVtitle\np4921\nVTest Creative 1292429663\np4922\nsVcreative_id\np4923\nV6002891211165\np4924\nsVpreview_url\np4925\nVhttp://www.facebook.com/ads/api/creative_preview.php?cid=6002891211165\np4926\nsVid\np4927\nV6002891211165\np4928\nsVimage_url\np4929\nVhttps://fbcdn-creative-a.akamaihd.net/hads-ak-ash3/s110x80/708176_6006844590565_48352_n.jpg\np4930\nsVcount_current_adgroups\np4931\nI0\nsVrun_status\np4932\nI1\nsVtype\np4933\nI1\nsVlink_url\np4934\nVhttp://buzzfeed.com\np4935\nsVview_tag\np4936\ng36\nsa(dp4937\nValt_view_tags\np4938\n(lp4939\nsVbody\np4940\nVThis is the body\np4941\nsVimage_hash\np4942\nV564fb22a16816f179f4f569e83436dd3\np4943\nsVname\np4944\nVTest Creative 1292431653\np4945\nsVtitle\np4946\nVTest Creative 1292431653\np4947\nsVcreative_id\np4948\nV6002891278965\np4949\nsVpreview_url\np4950\nVhttp://www.facebook.com/ads/api/creative_preview.php?cid=6002891278965\np4951\nsVid\np4952\nV6002891278965\np4953\nsVimage_url\np4954\nVhttps://fbcdn-creative-a.akamaihd.net/hads-ak-ash3/s110x80/708176_6006844590565_48352_n.jpg\np4955\nsVcount_current_adgroups\np4956\nI0\nsVrun_status\np4957\nI1\nsVtype\np4958\nI1\nsVlink_url\np4959\nVhttp://buzzfeed.com\np4960\nsVview_tag\np4961\ng36\nsa(dp4962\nValt_view_tags\np4963\n(lp4964\nsVbody\np4965\nVThis is the body\np4966\nsVimage_hash\np4967\nV564fb22a16816f179f4f569e83436dd3\np4968\nsVname\np4969\nVTest Creative 1292431489\np4970\nsVtitle\np4971\nVTest Creative 1292431489\np4972\nsVcreative_id\np4973\nV6002891261765\np4974\nsVpreview_url\np4975\nVhttp://www.facebook.com/ads/api/creative_preview.php?cid=6002891261765\np4976\nsVid\np4977\nV6002891261765\np4978\nsVimage_url\np4979\nVhttps://fbcdn-creative-a.akamaihd.net/hads-ak-ash'
p6
sS'hash'
p7
S'274d62ebdac4f1ed2471235b0b9dcf2965ef87e8'
p8
sS'stack'
p9
S''
s.