(dp1
S'args'
p2
S''
sS'methodname'
p3
S''
sS'packet_num'
p4
I13
sS'returnval'
p5
S"ows Are G\np1772\nsVcreative_id\np1773\nV6002897847765\np1774\nsVpreview_url\np1775\nVhttp://www.facebook.com/ads/api/creative_preview.php?cid=6002897847765\np1776\nsVid\np1777\nV6002897847765\np1778\nsVimage_url\np1779\nVhttps://fbcdn-creative-a.akamaihd.net/hads-ak-prn1/s110x80/708205_6006844248365_20395_n.jpg\np1780\nsVcount_current_adgroups\np1781\nI0\nsVrun_status\np1782\nI1\nsVtype\np1783\nI1\nsVlink_url\np1784\nVhttp://buzzfeed.com/rickyftw/kids-cartoon-shows-are-getting-awesome-sym-bionic-19ta\np1785\nsVview_tag\np1786\ng36\nsa(dp1787\nValt_view_tags\np1788\n(lp1789\nsVbody\np1790\nVThis is what you get when you take the past year's 12 editions of Vogue and overlay them on top of one another. This is also what\np1791\nsVimage_hash\np1792\nV5a5d64bf8aad4b83bf2266759d3f0813\np1793\nsVname\np1794\nVEvery 2010 Vogue Overlai\np1795\nsVtitle\np1796\nVEvery 2010 Vogue Overlai\np1797\nsVcreative_id\np1798\nV6002897285165\np1799\nsVpreview_url\np1800\nVhttp://www.facebook.com/ads/api/creative_preview.php?cid=6002897285165\np1801\nsVid\np1802\nV6002897285165\np1803\nsVimage_url\np1804\nVhttps://fbcdn-creative-a.akamaihd.net/hads-ak-ash3/s110x80/708164_6006844609565_6306_n.jpg\np1805\nsVcount_current_adgroups\np1806\nI0\nsVrun_status\np1807\nI1\nsVtype\np1808\nI1\nsVlink_url\np1809\nVhttp://buzzfeed.com/awesomer/every-2010-vogue-overlaid-on-one-another\np1810\nsVview_tag\np1811\ng36\nsa(dp1812\nValt_view_tags\np1813\n(lp1814\nsVbody\np1815\nVAll parrots his age are into that loud rock and roll music.\np1816\nsVimage_hash\np1817\nVaed5a1392cf467c5ffb5df3e1bde72e1\np1818\nsVname\np1819\nVParrot Sings-00\np1820\nsVtitle\np1821\nVParrot Sings\np1822\nsVcreative_id\np1823\nV6002897286965\np1824\nsVpreview_url\np1825\nVhttp://www.facebook.com/ads/api/creative_preview.php?cid=6002897286965\np1826\nsVid\np1827\nV6002897286965\np1828\nsVimage_url\np1829\nVhttps://fbcdn-creative-a.akamaihd.net/hads-ak-prn1/s110x80/708189_6006845104165_5952_n.jpg\np1830\nsVcount_current_adgroups\np1831\nI0\nsVrun_status\np1832\nI1\nsVtype\np1833\nI1\nsVlink_url\np1834\nVhttp://buzzfeed.com/awesomer/parrot-sings-let-the-bodies-hit-the-floor\np1835\nsVview_tag\np1836\ng36\nsa(dp1837\nValt_view_tags\np1838\n(lp1839\nsVbody\np1840\nVIntroducing the Vuvutech 5000. The year's most annoying sound-making device, combined with high-powered air horns, then hooked up\np1841\nsVimage_hash\np1842\nVf143cda85d38d6ce6d5b02834a48ce15\np1843\nsVname\np1844\nVThe World's Most Annoyin\np1845\nsVtitle\np1846\nVThe World's Most Annoyin\np1847\nsVcreative_id\np1848\nV6002897288765\np1849\nsVpreview_url\np1850\nVhttp://www.facebook.com/ads/api/creative_preview.php?cid=6002897288765\np1851\nsVid\np1852\nV6002897288765\np1853\nsVimage_url\np1854\nVhttps://fbcdn-creative-a.akamaihd.net/hads-ak-ash3/s110x80/701894_6006845514765_2514_n.jpg\np1855\nsVcount_current_adgroups\np1856\nI0\nsVrun_status\np1857\nI1\nsVtype\np1858\nI1\nsVlink_url\np1859\nVhttp://buzzfeed.com/awesomer/the-worlds-most-annoying-burglar-alarm\np1860\nsVview_tag\np1861\ng36\nsa(dp1862\nValt_view_tags\np1863\n(lp1864\nsVbody\np1865\nVWhen life gives you snow, make snow dicks. Then stand next to them and look uncomfortable while someone takes your photo.\np1866\nsVimage_hash\np1867\nVfbdc0c7247358b82cee49e3ea0d2958a\np1868\nsVname\np1869\nV30 People Posing Awkward\np1870\nsVtitle\np1871\nV30 People Posing Awkward\np1872\nsVcreative_id\np1873\nV6002897290565\np1874\nsVpreview_url\np1875\nVhttp://www.facebook.com/ads/api/creative_preview.php?cid=6002897290565\np1876\nsVid\np1877\nV6002897290565\np1878\nsVimage_url\np1879\nVhttps://fbcdn-creative-a.akamaihd.net/hads-ak-prn1/s110x80/708202_6006845577565_4299_n.jpg\np1880\nsVcount_current_adgroups\np1881\nI0\nsVrun_status\np1882\nI1\nsVtype\np1883\nI1\nsVlink_url\np1884\nVhttp://buzzfeed.com/awesomer/30-people-posing-awkwardly-with-snow-dicks\np1885\nsVview_tag\np1886\ng36\nsa(dp1887\nValt_view_tags\np1888\n(lp1889\nsVbody\np1890\nVPresented as a gift from Seth Green on last night's Conan.\np1891\nsVimage_hash\np1892\nV951010830ef06e498df498247e906025\np1893\nsVname\np1894\nVThe Definitive Conan O'B\np1895\nsVtitle\np1896\nVThe Definitive Conan O'B\np1897\nsVcreative_id\np1898\nV6002897292365\np1899\nsVpreview_url\np1900\nVhttp://www.facebook.com/ads/api/creative_preview.php?cid=6002897292365\np1901\nsVid\np1902\nV6002897292365\np190"
p6
sS'hash'
p7
S'274d62ebdac4f1ed2471235b0b9dcf2965ef87e8'
p8
sS'stack'
p9
S''
s.