(dp1
S'args'
p2
S''
sS'methodname'
p3
S''
sS'packet_num'
p4
I6
sS'returnval'
p5
S'\np847\nsVcreative_id\np848\nV6003012770165\np849\nsVpreview_url\np850\nVhttp://www.facebook.com/ads/api/creative_preview.php?cid=6003012770165\np851\nsVid\np852\nV6003012770165\np853\nsVimage_url\np854\nVhttps://fbcdn-creative-a.akamaihd.net/hads-ak-prn1/s110x80/708194_6006844065365_60675_n.jpg\np855\nsVcount_current_adgroups\np856\nI0\nsVrun_status\np857\nI1\nsVtype\np858\nI1\nsVlink_url\np859\nVhttp://www.buzzfeed.com/ht/bravo/americas-favorite-skinny-girl-isback-2byk/HFAA1\np860\nsVview_tag\np861\ng36\nsa(dp862\nValt_view_tags\np863\n(lp864\nsVbody\np865\nVBethenny Frankel and humor go hand in hand, or should we say tongue in cheek? If you couldn\'t get enough of Bethenny\'s witty o\np866\nsVimage_hash\np867\nV3096544bd09a234237da631cffa2551b\np868\nsVname\np869\nVThe 10 Funniest Women On-02\np870\nsVtitle\np871\nVThe 10 Funniest Women On\np872\nsVcreative_id\np873\nV6003012772165\np874\nsVpreview_url\np875\nVhttp://www.facebook.com/ads/api/creative_preview.php?cid=6003012772165\np876\nsVid\np877\nV6003012772165\np878\nsVimage_url\np879\nVhttps://fbcdn-creative-a.akamaihd.net/hads-ak-ash3/s110x80/701901_6006844340565_16990_n.jpg\np880\nsVcount_current_adgroups\np881\nI0\nsVrun_status\np882\nI1\nsVtype\np883\nI1\nsVlink_url\np884\nVhttp://www.buzzfeed.com/ht/bravo/the-10-funniest-women-on-tv/HFAA1\np885\nsVview_tag\np886\ng36\nsa(dp887\nValt_view_tags\np888\n(lp889\nsVbody\np890\nVWith a new baby, and a fast paced career, Bethenny Frankel\xe2s life is anything but ordinary. In the new season of Bethenny Ever A\np891\nsVimage_hash\np892\nV02dafaa7714c1a4f9608a3816baf2d85\np893\nsVname\np894\nVAmericas Favorite-00\np895\nsVtitle\np896\nVAmericas Favorite\np897\nsVcreative_id\np898\nV6003012766565\np899\nsVpreview_url\np900\nVhttp://www.facebook.com/ads/api/creative_preview.php?cid=6003012766565\np901\nsVid\np902\nV6003012766565\np903\nsVimage_url\np904\nVhttps://fbcdn-creative-a.akamaihd.net/hads-ak-prn1/s110x80/708194_6006844065365_60675_n.jpg\np905\nsVcount_current_adgroups\np906\nI0\nsVrun_status\np907\nI1\nsVtype\np908\nI1\nsVlink_url\np909\nVhttp://www.buzzfeed.com/ht/bravo/americas-favorite-skinny-girl-isback-2byk/HFAA1\np910\nsVview_tag\np911\ng36\nsa(dp912\nValt_view_tags\np913\n(lp914\nsVbody\np915\nVWith a new baby, and a fast paced career, Bethenny Frankel\xe2s life is anything but ordinary. In the new season of Bethenny Ever A\np916\nsVimage_hash\np917\nV02dafaa7714c1a4f9608a3816baf2d85\np918\nsVname\np919\nVAmericas Favorite-02\np920\nsVtitle\np921\nVAmericas Favorite\np922\nsVcreative_id\np923\nV6003012773965\np924\nsVpreview_url\np925\nVhttp://www.facebook.com/ads/api/creative_preview.php?cid=6003012773965\np926\nsVid\np927\nV6003012773965\np928\nsVimage_url\np929\nVhttps://fbcdn-creative-a.akamaihd.net/hads-ak-prn1/s110x80/708194_6006844065365_60675_n.jpg\np930\nsVcount_current_adgroups\np931\nI0\nsVrun_status\np932\nI1\nsVtype\np933\nI1\nsVlink_url\np934\nVhttp://www.buzzfeed.com/ht/bravo/americas-favorite-skinny-girl-isback-2byk/HFAA1\np935\nsVview_tag\np936\ng36\nsa(dp937\nValt_view_tags\np938\n(lp939\nsVbody\np940\nVLA Clipper all-star forward Blake Griffin is taking over MySpace!\np941\nsVimage_hash\np942\nV81c0ab06d150c577d6f9fe1da5492889\np943\nsVname\np944\nVMySpace Hijacks\np945\nsVtitle\np946\nVMySpace Hijacks\np947\nsVcreative_id\np948\nV6003000688965\np949\nsVpreview_url\np950\nVhttp://www.facebook.com/ads/api/creative_preview.php?cid=6003000688965\np951\nsVid\np952\nV6003000688965\np953\nsVimage_url\np954\nVhttps://fbcdn-creative-a.akamaihd.net/hads-ak-prn1/s110x80/708196_6006844824965_53141_n.jpg\np955\nsVcount_current_adgroups\np956\nI0\nsVrun_status\np957\nI1\nsVtype\np958\nI1\nsVlink_url\np959\nVhttp://www.myspace.com/hijacks\np960\nsVview_tag\np961\ng36\nsa(dp962\nValt_view_tags\np963\n(lp964\nsVbody\np965\nVThis is great: Someone at the Red Cross accidentally tweeted about "getting slizzard," Dogfish Head beer noticed, and people started d\np966\nsVimage_hash\np967\nV5d4ebd7a9b1a5a3bf3ffe1e35d4aecb6\np968\nsVname\np969\nVRed Cross Employee Accid\np970\nsVtitle\np971\nVRed Cross Employee Accid\np972\nsVcreative_id\np973\nV6003000078965\np974\nsVpreview_url\np975\nVhttp://www.facebook.com/ads/api/creative_preview.php?cid=6003000078965\np976\nsVid\np977\nV6003000078965\np978\nsVimage_url\np979\nVhttps://fbcdn-creative-a.akamaihd.net/hads-ak-prn1/s110x80/708195_600684'
p6
sS'hash'
p7
S'274d62ebdac4f1ed2471235b0b9dcf2965ef87e8'
p8
sS'stack'
p9
S''
s.