(dp1
S'args'
p2
S''
sS'methodname'
p3
S''
sS'packet_num'
p4
I49
sS'returnval'
p5
S'review_url\np6600\nVhttp://www.facebook.com/ads/api/creative_preview.php?cid=6002879167965\np6601\nsVid\np6602\nV6002879167965\np6603\nsVimage_url\np6604\nVhttps://fbcdn-creative-a.akamaihd.net/hads-ak-prn1/s110x80/708157_6006845411165_52759_n.jpg\np6605\nsVcount_current_adgroups\np6606\nI0\nsVrun_status\np6607\nI1\nsVtype\np6608\nI1\nsVlink_url\np6609\nVhttp://buzzfeed.com/rickyftw/cat-muzzle-19ta\np6610\nsVview_tag\np6611\ng36\nsa(dp6612\nValt_view_tags\np6613\n(lp6614\nsVbody\np6615\nVWhy does this even exist\xe2\xa6.it covers the cat\xe2s eyes? For some reason I feel like that would only piss off the feline even\np6616\nsVimage_hash\np6617\nVe1dce3edfce0d2cf60db428a7c6af01b\np6618\nsVname\np6619\nVCat Muzzle-05\np6620\nsVtitle\np6621\nVCat Muzzle\np6622\nsVcreative_id\np6623\nV6002879067965\np6624\nsVpreview_url\np6625\nVhttp://www.facebook.com/ads/api/creative_preview.php?cid=6002879067965\np6626\nsVid\np6627\nV6002879067965\np6628\nsVimage_url\np6629\nVhttps://fbcdn-creative-a.akamaihd.net/hads-ak-prn1/s110x80/708157_6006845411165_52759_n.jpg\np6630\nsVcount_current_adgroups\np6631\nI0\nsVrun_status\np6632\nI1\nsVtype\np6633\nI1\nsVlink_url\np6634\nVhttp://buzzfeed.com/rickyftw/cat-muzzle-19ta\np6635\nsVview_tag\np6636\ng36\nsa(dp6637\nValt_view_tags\np6638\n(lp6639\nsVbody\np6640\nVWhy does this even exist\xe2\xa6.it covers the cat\xe2s eyes? For some reason I feel like that would only piss off the feline even\np6641\nsVimage_hash\np6642\nVe1dce3edfce0d2cf60db428a7c6af01b\np6643\nsVname\np6644\nVCat Muzzle-04\np6645\nsVtitle\np6646\nVCat Muzzle\np6647\nsVcreative_id\np6648\nV6002879043565\np6649\nsVpreview_url\np6650\nVhttp://www.facebook.com/ads/api/creative_preview.php?cid=6002879043565\np6651\nsVid\np6652\nV6002879043565\np6653\nsVimage_url\np6654\nVhttps://fbcdn-creative-a.akamaihd.net/hads-ak-prn1/s110x80/708157_6006845411165_52759_n.jpg\np6655\nsVcount_current_adgroups\np6656\nI0\nsVrun_status\np6657\nI1\nsVtype\np6658\nI1\nsVlink_url\np6659\nVhttp://buzzfeed.com/rickyftw/cat-muzzle-19ta\np6660\nsVview_tag\np6661\ng36\nsa(dp6662\nValt_view_tags\np6663\n(lp6664\nsVbody\np6665\nVWhy does this even exist\xe2\xa6.it covers the cat\xe2s eyes? For some reason I feel like that would only piss off the feline even\np6666\nsVimage_hash\np6667\nVe1dce3edfce0d2cf60db428a7c6af01b\np6668\nsVname\np6669\nVCat Muzzle-03\np6670\nsVtitle\np6671\nVCat Muzzle\np6672\nsVcreative_id\np6673\nV6002879037565\np6674\nsVpreview_url\np6675\nVhttp://www.facebook.com/ads/api/creative_preview.php?cid=6002879037565\np6676\nsVid\np6677\nV6002879037565\np6678\nsVimage_url\np6679\nVhttps://fbcdn-creative-a.akamaihd.net/hads-ak-prn1/s110x80/708157_6006845411165_52759_n.jpg\np6680\nsVcount_current_adgroups\np6681\nI0\nsVrun_status\np6682\nI1\nsVtype\np6683\nI1\nsVlink_url\np6684\nVhttp://buzzfeed.com/rickyftw/cat-muzzle-19ta\np6685\nsVview_tag\np6686\ng36\nsa(dp6687\nValt_view_tags\np6688\n(lp6689\nsVbody\np6690\nVWhy does this even exist\xe2\xa6.it covers the cat\xe2s eyes? For some reason I feel like that would only piss off the feline even\np6691\nsVimage_hash\np6692\nVe1dce3edfce0d2cf60db428a7c6af01b\np6693\nsVname\np6694\nVCat Muzzle-02\np6695\nsVtitle\np6696\nVCat Muzzle\np6697\nsVcreative_id\np6698\nV6002879025965\np6699\nsVpreview_url\np6700\nVhttp://www.facebook.com/ads/api/creative_preview.php?cid=6002879025965\np6701\nsVid\np6702\nV6002879025965\np6703\nsVimage_url\np6704\nVhttps://fbcdn-creative-a.akamaihd.net/hads-ak-prn1/s110x80/708157_6006845411165_52759_n.jpg\np6705\nsVcount_current_adgroups\np6706\nI0\nsVrun_status\np6707\nI1\nsVtype\np6708\nI1\nsVlink_url\np6709\nVhttp://buzzfeed.com/rickyftw/cat-muzzle-19ta\np6710\nsVview_tag\np6711\ng36\nsa(dp6712\nValt_view_tags\np6713\n(lp6714\nsVbody\np6715\nVWhy does this even exist\xe2\xa6.it covers the cat\xe2s eyes? For some reason I feel like that would only piss off the feline even\np6716\nsVimage_hash\np6717\nVe1dce3edfce0d2cf60db428a7c6af01b\np6718\nsVname\np6719\nVCat Muzzle-01\np6720\nsVtitle\np6721\nVCat Muzzle\np6722\nsVcreative_id\np6723\nV6002879009565\np6724\nsVpreview_url\np6725\nVhttp://www.facebook.com/ads/api/creative_preview.php?cid=6002879009565\np6726\nsVid\np6727\nV6002879009565\np6728\nsVimage_url\np6729\nVhttps://fbcdn-creative-a.akamaihd.net/hads-ak-prn1/s110x80/708157_6006845411165_52759_n.jpg\np6730\nsVcount_current_adgroups\np6731\nI0\nsVrun_status\np6732\nI1\nsVtype\np6733\nI1\n'
p6
sS'hash'
p7
S'274d62ebdac4f1ed2471235b0b9dcf2965ef87e8'
p8
sS'stack'
p9
S''
s.