(dp1
S'args'
p2
S''
sS'methodname'
p3
S''
sS'packet_num'
p4
I10
sS'returnval'
p5
S"3\nI1\nsVlink_url\np1384\nVhttp://www.buzzfeed.com/ht/awesomer/dog-steals-sled-and-escapes/HFAA1\np1385\nsVview_tag\np1386\ng36\nsa(dp1387\nValt_view_tags\np1388\n(lp1389\nsVbody\np1390\nVWhen Kevin McCallister finds himself stranded on a quarantined Manhattan island with an army of zombie vampires, he'll do whatever\np1391\nsVimage_hash\np1392\nV30821efec2be39528375f5f3dc2b0a1c\np1393\nsVname\np1394\nVI Am Home Alone\np1395\nsVtitle\np1396\nVI Am Home Alone\np1397\nsVcreative_id\np1398\nV6002930419565\np1399\nsVpreview_url\np1400\nVhttp://www.facebook.com/ads/api/creative_preview.php?cid=6002930419565\np1401\nsVid\np1402\nV6002930419565\np1403\nsVimage_url\np1404\nVhttps://fbcdn-creative-a.akamaihd.net/hads-ak-prn1/s110x80/708176_6006844336365_1022_n.jpg\np1405\nsVcount_current_adgroups\np1406\nI0\nsVrun_status\np1407\nI1\nsVtype\np1408\nI1\nsVlink_url\np1409\nVhttp://www.buzzfeed.com/ht/awesomer/i-am-home-alone/HFAA1\np1410\nsVview_tag\np1411\ng36\nsa(dp1412\nValt_view_tags\np1413\n(lp1414\nsVbody\np1415\nVMariah Carey wants you to know that she's festive.\np1416\nsVimage_hash\np1417\nVd86079269732f1b9e342aca132660d8c\np1418\nsVname\np1419\nVMariah Carey is Festive-00\np1420\nsVtitle\np1421\nVMariah Carey is Festive\np1422\nsVcreative_id\np1423\nV6002930443165\np1424\nsVpreview_url\np1425\nVhttp://www.facebook.com/ads/api/creative_preview.php?cid=6002930443165\np1426\nsVid\np1427\nV6002930443165\np1428\nsVimage_url\np1429\nVhttps://fbcdn-creative-a.akamaihd.net/hads-ak-prn1/s110x80/708161_6006845343165_53752_n.jpg\np1430\nsVcount_current_adgroups\np1431\nI0\nsVrun_status\np1432\nI1\nsVtype\np1433\nI1\nsVlink_url\np1434\nVhttp://www.buzzfeed.com/ht/awesomer/mariah-carey-is-festive/HFAA1\np1435\nsVview_tag\np1436\ng36\nsa(dp1437\nValt_view_tags\np1438\n(lp1439\nsVbody\np1440\nVA 4-year-old girl sits down with her father on behalf of NuubCast and walks us through a game of Starcraft in the most adorable manner\np1441\nsVimage_hash\np1442\nV4b14a85b590d6e5e5af75b0f98f753bc\np1443\nsVname\np1444\nV4yo Narrates Starcraft\np1445\nsVtitle\np1446\nV4yo Narrates Starcraft\np1447\nsVcreative_id\np1448\nV6002930417765\np1449\nsVpreview_url\np1450\nVhttp://www.facebook.com/ads/api/creative_preview.php?cid=6002930417765\np1451\nsVid\np1452\nV6002930417765\np1453\nsVimage_url\np1454\nVhttps://fbcdn-creative-a.akamaihd.net/hads-ak-prn1/s110x80/708167_6006844503565_56184_n.jpg\np1455\nsVcount_current_adgroups\np1456\nI0\nsVrun_status\np1457\nI1\nsVtype\np1458\nI1\nsVlink_url\np1459\nVhttp://www.buzzfeed.com/ht/awesomer/4-year-old-girl-narrates-a-game-of-starcraft/HFAA1\np1460\nsVview_tag\np1461\ng36\nsa(dp1462\nValt_view_tags\np1463\n(lp1464\nsVbody\np1465\nVLast week, street artist Olek completely covered the 11'x16' Charging Bull in NY statue with a crocheted cover.\np1466\nsVimage_hash\np1467\nVaea364e1cf5075f116f0dd7e6d71d1fb\np1468\nsVname\np1469\nVCrocheting for Statues-00\np1470\nsVtitle\np1471\nVCrocheting for Statues\np1472\nsVcreative_id\np1473\nV6002930435965\np1474\nsVpreview_url\np1475\nVhttp://www.facebook.com/ads/api/creative_preview.php?cid=6002930435965\np1476\nsVid\np1477\nV6002930435965\np1478\nsVimage_url\np1479\nVhttps://fbcdn-creative-a.akamaihd.net/hads-ak-ash3/s110x80/708189_6006845102965_62422_n.jpg\np1480\nsVcount_current_adgroups\np1481\nI0\nsVrun_status\np1482\nI1\nsVtype\np1483\nI1\nsVlink_url\np1484\nVhttp://www.buzzfeed.com/ht/awesomer/how-to-crochet-a-7100-lb-bull/HFAA1\np1485\nsVview_tag\np1486\ng36\nsa(dp1487\nValt_view_tags\np1488\n(lp1489\nsVbody\np1490\nVWow, I can't believe they were able to do this! Check it out!\np1491\nsVimage_hash\np1492\nV7018caef7f998affd3094d0695dae436\np1493\nsVname\np1494\nVCool New Google Feature\np1495\nsVtitle\np1496\nVCool New Google Feature\np1497\nsVcreative_id\np1498\nV6002930368165\np1499\nsVpreview_url\np1500\nVhttp://www.facebook.com/ads/api/creative_preview.php?cid=6002930368165\np1501\nsVid\np1502\nV6002930368165\np1503\nsVimage_url\np1504\nVhttps://fbcdn-creative-a.akamaihd.net/hads-ak-ash3/s110x80/701899_6006844728765_53905_n.jpg\np1505\nsVcount_current_adgroups\np1506\nI0\nsVrun_status\np1507\nI1\nsVtype\np1508\nI1\nsVlink_url\np1509\nVhttp://www.buzzfeed.com/chris/cool-new-google-feature\np1510\nsVview_tag\np1511\ng36\nsa(dp1512\nValt_view_tags\np1513\n(lp1514\nsVbody\np1515\nVThese are the most cringe-inducing fashion accesso"
p6
sS'hash'
p7
S'274d62ebdac4f1ed2471235b0b9dcf2965ef87e8'
p8
sS'stack'
p9
S''
s.