(dp1
S'args'
p2
S''
sS'methodname'
p3
S''
sS'packet_num'
p4
I60
sS'returnval'
p5
S"es this even exist.it covers the cats eyes? For some reason I feel like that would only piss off the feline even\np8180\nsVimage_hash\np8181\nVe1dce3edfce0d2cf60db428a7c6af01b\np8182\nsVname\np8183\nVCat Muzzle-27\np8184\nsVtitle\np8185\nVCat Muzzle\np8186\nsVcreative_id\np8187\nV6002887763365\np8188\nsVpreview_url\np8189\nVhttp://www.facebook.com/ads/api/creative_preview.php?cid=6002887763365\np8190\nsVid\np8191\nV6002887763365\np8192\nsVimage_url\np8193\nVhttps://fbcdn-creative-a.akamaihd.net/hads-ak-prn1/s110x80/708157_6006845411165_52759_n.jpg\np8194\nsVcount_current_adgroups\np8195\nI0\nsVrun_status\np8196\nI1\nsVtype\np8197\nI1\nsVlink_url\np8198\nVhttp://buzzfeed.com/rickyftw/cat-muzzle-19ta\np8199\nsVview_tag\np8200\ng36\nsa(dp8201\nValt_view_tags\np8202\n(lp8203\nsVbody\np8204\nVYou may think you know how to spot dangerous people online, but sometimes the warning signs are less than apparent. Here are ten real\np8205\nsVimage_hash\np8206\nV93edec7fe89d9a91dd02cb0c7c9ac36e\np8207\nsVname\np8208\nV10 Creepy Craigslist Ads-00\np8209\nsVtitle\np8210\nV10 Creepy Craigslist Ads\np8211\nsVcreative_id\np8212\nV6002938677765\np8213\nsVpreview_url\np8214\nVhttp://www.facebook.com/ads/api/creative_preview.php?cid=6002938677765\np8215\nsVid\np8216\nV6002938677765\np8217\nsVimage_url\np8218\nVhttps://fbcdn-creative-a.akamaihd.net/hads-ak-prn1/s110x80/708188_6006844935565_44802_n.jpg\np8219\nsVcount_current_adgroups\np8220\nI0\nsVrun_status\np8221\nI1\nsVtype\np8222\nI1\nsVlink_url\np8223\nVhttp://www.buzzfeed.com/craigslistkiller/10-creepy-craigslist-ads-from-potential-serial-kil\np8224\nsVview_tag\np8225\ng36\nsa(dp8226\nValt_view_tags\np8227\n(lp8228\nsVbody\np8229\nVThe Craigslist Killer isn't the only murderer to use the web. Even before Craigslist was invented, criminals were using the web to\np8230\nsVimage_hash\np8231\nVb552e4b041fc20d54730dc1e7c9ed372\np8232\nsVname\np8233\nV9 Famous Online Killers\np8234\nsVtitle\np8235\nV9 Famous Online Killers\np8236\nsVcreative_id\np8237\nV6002938677965\np8238\nsVpreview_url\np8239\nVhttp://www.facebook.com/ads/api/creative_preview.php?cid=6002938677965\np8240\nsVid\np8241\nV6002938677965\np8242\nsVimage_url\np8243\nVhttps://fbcdn-creative-a.akamaihd.net/hads-ak-ash3/s110x80/701899_6006845141365_3086_n.jpg\np8244\nsVcount_current_adgroups\np8245\nI0\nsVrun_status\np8246\nI1\nsVtype\np8247\nI1\nsVlink_url\np8248\nVhttp://www.buzzfeed.com/craigslistkiller/9-famous-online-killers\np8249\nsVview_tag\np8250\ng36\nsa(dp8251\nValt_view_tags\np8252\n(lp8253\nsVbody\np8254\nVThere\xe2s a copycat Craigslist killer on the loose. Much like the original Craigslist Killer Phillip Markoff, a new murderer has b\np8255\nsVimage_hash\np8256\nVfc31f94c9f44b663f2c965ac87d5be81\np8257\nsVname\np8258\nVA Comparison Of  Craigsl\np8259\nsVtitle\np8260\nVA Comparison Of  Craigsl\np8261\nsVcreative_id\np8262\nV6002938678165\np8263\nsVpreview_url\np8264\nVhttp://www.facebook.com/ads/api/creative_preview.php?cid=6002938678165\np8265\nsVid\np8266\nV6002938678165\np8267\nsVimage_url\np8268\nVhttps://fbcdn-creative-a.akamaihd.net/hads-ak-prn1/s110x80/708202_6006845578965_62757_n.jpg\np8269\nsVcount_current_adgroups\np8270\nI0\nsVrun_status\np8271\nI1\nsVtype\np8272\nI1\nsVlink_url\np8273\nVhttp://www.buzzfeed.com/craigslistkiller/a-comparison-of-craigslist-killers\np8274\nsVview_tag\np8275\ng36\nsa(dp8276\nValt_view_tags\np8277\n(lp8278\nsVbody\np8279\nVPhilip Markoff was a mystery, even to those who knew him well. Here are five shocking things you'd probably never heard about the\np8280\nsVimage_hash\np8281\nVaef1a3ba9acaa0abe6a88a897bf198a2\np8282\nsVname\np8283\nV5 Things You Didnt Know\np8284\nsVtitle\np8285\nV5 Things You Didnt Know\np8286\nsVcreative_id\np8287\nV6002938678365\np8288\nsVpreview_url\np8289\nVhttp://www.facebook.com/ads/api/creative_preview.php?cid=6002938678365\np8290\nsVid\np8291\nV6002938678365\np8292\nsVimage_url\np8293\nVhttps://fbcdn-creative-a.akamaihd.net/hads-ak-prn1/s110x80/708189_6006845104565_430_n.jpg\np8294\nsVcount_current_adgroups\np8295\nI0\nsVrun_status\np8296\nI1\nsVtype\np8297\nI1\nsVlink_url\np8298\nVhttp://www.buzzfeed.com/craigslistkiller/5-things-you-didnt-know-about-the-craigslist-kill\np8299\nsVview_tag\np8300\ng36\nsa(dp8301\nValt_view_tags\np8302\n(lp8303\nsVbody\np8304\nVEven the world's most violent killers participate"
p6
sS'hash'
p7
S'274d62ebdac4f1ed2471235b0b9dcf2965ef87e8'
p8
sS'stack'
p9
S''
s.