(dp1
S'args'
p2
S''
sS'methodname'
p3
S''
sS'packet_num'
p4
I17
sS'returnval'
p5
S'creative-a.akamaihd.net/hads-ak-ash3/s110x80/701898_6006844718765_41016_n.jpg\np2305\nsVcount_current_adgroups\np2306\nI0\nsVrun_status\np2307\nI1\nsVtype\np2308\nI1\nsVlink_url\np2309\nVhttp://buzzfeed.com/jonah/nobody-retweets-anymore\np2310\nsVview_tag\np2311\ng36\nsa(dp2312\nValt_view_tags\np2313\n(lp2314\nsVbody\np2315\nVAwesome advertisement choice for the New York Times article about the Lance Armstrong doping investigation!\np2316\nsVimage_hash\np2317\nV1ec471d00345cedb40d3f8676bc4e6c2\np2318\nsVname\np2319\nVLance Armstrong Doping A\np2320\nsVtitle\np2321\nVLance Armstrong Doping A\np2322\nsVcreative_id\np2323\nV6002896369965\np2324\nsVpreview_url\np2325\nVhttp://www.facebook.com/ads/api/creative_preview.php?cid=6002896369965\np2326\nsVid\np2327\nV6002896369965\np2328\nsVimage_url\np2329\nVhttps://fbcdn-creative-a.akamaihd.net/hads-ak-ash3/s110x80/701889_6006844240565_15209_n.jpg\np2330\nsVcount_current_adgroups\np2331\nI0\nsVrun_status\np2332\nI1\nsVtype\np2333\nI1\nsVlink_url\np2334\nVhttp://buzzfeed.com/jonah/lance-armstrong-doping-ad\np2335\nsVview_tag\np2336\ng36\nsa(dp2337\nValt_view_tags\np2338\n(lp2339\nsVbody\np2340\nVEvan Roth captures graffiti in 3D, does huge projections on the side of buildings, and makes it reactive to sound. Sooooo cool and thi\np2341\nsVimage_hash\np2342\nV4cf6e3f6a9a5a48dfc39580e2762292d\np2343\nsVname\np2344\nV3D Graffiti by Evan Roth\np2345\nsVtitle\np2346\nV3D Graffiti by Evan Roth\np2347\nsVcreative_id\np2348\nV6002896371765\np2349\nsVpreview_url\np2350\nVhttp://www.facebook.com/ads/api/creative_preview.php?cid=6002896371765\np2351\nsVid\np2352\nV6002896371765\np2353\nsVimage_url\np2354\nVhttps://fbcdn-creative-a.akamaihd.net/hads-ak-ash3/s110x80/701895_6006844525965_53012_n.jpg\np2355\nsVcount_current_adgroups\np2356\nI0\nsVrun_status\np2357\nI1\nsVtype\np2358\nI1\nsVlink_url\np2359\nVhttp://buzzfeed.com/jonah/3d-graffiti-by-evan-roth\np2360\nsVview_tag\np2361\ng36\nsa(dp2362\nValt_view_tags\np2363\n(lp2364\nsVbody\np2365\nVHave you ever noticed how much Atheists suck? Here are the top 10 reasons why!\np2366\nsVimage_hash\np2367\nVb148d1b86e22a0c50abd3c433500186b\np2368\nsVname\np2369\nVTop 10 Reasons Atheists\np2370\nsVtitle\np2371\nVTop 10 Reasons Atheists\np2372\nsVcreative_id\np2373\nV6002896373765\np2374\nsVpreview_url\np2375\nVhttp://www.facebook.com/ads/api/creative_preview.php?cid=6002896373765\np2376\nsVid\np2377\nV6002896373765\np2378\nsVimage_url\np2379\nVhttps://fbcdn-creative-a.akamaihd.net/hads-ak-ash3/s110x80/701894_6006845120165_54665_n.jpg\np2380\nsVcount_current_adgroups\np2381\nI0\nsVrun_status\np2382\nI1\nsVtype\np2383\nI1\nsVlink_url\np2384\nVhttp://buzzfeed.com/jonah/top-10-reasons-atheists-suck\np2385\nsVview_tag\np2386\ng36\nsa(dp2387\nValt_view_tags\np2388\n(lp2389\nsVbody\np2390\nVGeorge Cascone is offended his ex-wife didn\'t pay more to have him killed. "The part that insulted me the most is the fact that sh\np2391\nsVimage_hash\np2392\nVa33799b8b7f52a5e0b7f28dac5343045\np2393\nsVname\np2394\nVGeorge Cascone Is Awesom\np2395\nsVtitle\np2396\nVGeorge Cascone Is Awesom\np2397\nsVcreative_id\np2398\nV6002896375565\np2399\nsVpreview_url\np2400\nVhttp://www.facebook.com/ads/api/creative_preview.php?cid=6002896375565\np2401\nsVid\np2402\nV6002896375565\np2403\nsVimage_url\np2404\nVhttps://fbcdn-creative-a.akamaihd.net/hads-ak-ash3/s110x80/708199_6006845031565_23678_n.jpg\np2405\nsVcount_current_adgroups\np2406\nI0\nsVrun_status\np2407\nI1\nsVtype\np2408\nI1\nsVlink_url\np2409\nVhttp://buzzfeed.com/jonah/george-cascone-is-awesome\np2410\nsVview_tag\np2411\ng36\nsa(dp2412\nValt_view_tags\np2413\n(lp2414\nsVbody\np2415\nVThis Venn diagram totally did your mom.\np2416\nsVimage_hash\np2417\nVb35f943ae3641081761b6008d4967734\np2418\nsVname\np2419\nVHow Nerds Make Yo Mamma\np2420\nsVtitle\np2421\nVHow Nerds Make Yo Mamma\np2422\nsVcreative_id\np2423\nV6002896377365\np2424\nsVpreview_url\np2425\nVhttp://www.facebook.com/ads/api/creative_preview.php?cid=6002896377365\np2426\nsVid\np2427\nV6002896377365\np2428\nsVimage_url\np2429\nVhttps://fbcdn-creative-a.akamaihd.net/hads-ak-prn1/s110x80/708188_6006845131365_13471_n.jpg\np2430\nsVcount_current_adgroups\np2431\nI0\nsVrun_status\np2432\nI1\nsVtype\np2433\nI1\nsVlink_url\np2434\nVhttp://buzzfeed.com/jonah/how-nerds-make-yo-mamma-jokes\np2435\nsVview_tag\np2436\ng36\nsa(dp2437\nValt_view_'
p6
sS'hash'
p7
S'274d62ebdac4f1ed2471235b0b9dcf2965ef87e8'
p8
sS'stack'
p9
S''
s.