(dp1
S'args'
p2
S''
sS'methodname'
p3
S''
sS'packet_num'
p4
I11
sS'returnval'
p5
S'n_id\np1726\nI6007159949765\nsVaccount_id\np1727\nI40156177\nsVdaily_imps\np1728\nI0\nsVend_time\np1729\nV2012-12-21T20:30:00-0800\np1730\nsVfrequency_cap\np1731\nI0\nsVcreated_time\np1732\nV2012-12-20T06:19:17-0800\np1733\nsVupdated_time\np1734\nV2012-12-21T13:19:31-0800\np1735\nsVcampaign_status\np1736\nI1\nsVid\np1737\nV6007159949765\np1738\nsVname\np1739\nVHBO: Girls S2 Phase 1 Dec 2012 | 10-Resolutions-Girls-Always-Break-587N\np1740\nsa(dp1741\nVdaily_budget\np1742\nI50000\nsVstart_time\np1743\nV2012-12-20T06:57:00-0800\np1744\nsVcampaign_id\np1745\nI6007160392565\nsVaccount_id\np1746\nI40156177\nsVdaily_imps\np1747\nI0\nsVend_time\np1748\nV2012-12-21T23:55:00-0800\np1749\nsVfrequency_cap\np1750\nI0\nsVcreated_time\np1751\nV2012-12-20T06:45:28-0800\np1752\nsVupdated_time\np1753\nV2012-12-20T09:13:26-0800\np1754\nsVcampaign_status\np1755\nI1\nsVid\np1756\nV6007160392565\np1757\nsVname\np1758\nVSyFy Defiance: Dec_2012 | 7-Doomsday-Predictions-Fails-6Wms\np1759\nsa(dp1760\nVdaily_budget\np1761\nI50000\nsVstart_time\np1762\nV2012-12-20T09:02:54-0800\np1763\nsVcampaign_id\np1764\nI6007162704565\nsVaccount_id\np1765\nI40156177\nsVdaily_imps\np1766\nI0\nsVend_time\np1767\nV2012-12-24T20:30:00-0800\np1768\nsVfrequency_cap\np1769\nI0\nsVcreated_time\np1770\nV2012-12-20T09:02:54-0800\np1771\nsVupdated_time\np1772\nV2012-12-21T13:29:51-0800\np1773\nsVcampaign_status\np1774\nI1\nsVid\np1775\nV6007162704565\np1776\nsVname\np1777\nVTexas Chainsaw 3D: Dec-Jan 2013 | 20-Of-The-Creepiest-Vintage-Holiday-Photos-7Rul\np1778\nsa(dp1779\nVdaily_budget\np1780\nI40000\nsVstart_time\np1781\nV2012-12-20T09:08:59-0800\np1782\nsVcampaign_id\np1783\nI6007162840565\nsVaccount_id\np1784\nI40156177\nsVdaily_imps\np1785\nI0\nsVend_time\np1786\nV2012-12-21T20:30:00-0800\np1787\nsVfrequency_cap\np1788\nI0\nsVcreated_time\np1789\nV2012-12-20T09:08:59-0800\np1790\nsVupdated_time\np1791\nV2012-12-20T18:11:59-0800\np1792\nsVcampaign_status\np1793\nI1\nsVid\np1794\nV6007162840565\np1795\nsVname\np1796\nVTexas Chainsaw 3D: Dec-Jan 2013 | Turn-Your-Christmas-Card-Into-A-Chainsaw-Massacre-7Rul\np1797\nsa(dp1798\nVdaily_budget\np1799\nI40000\nsVstart_time\np1800\nV2012-12-22T06:30:00-0800\np1801\nsVcampaign_id\np1802\nI6007162957165\nsVaccount_id\np1803\nI40156177\nsVdaily_imps\np1804\nI0\nsVend_time\np1805\nV2012-12-23T20:30:00-0800\np1806\nsVfrequency_cap\np1807\nI0\nsVcreated_time\np1808\nV2012-12-20T09:16:17-0800\np1809\nsVupdated_time\np1810\nV2012-12-20T09:19:27-0800\np1811\nsVcampaign_status\np1812\nI1\nsVid\np1813\nV6007162957165\np1814\nsVname\np1815\nVTexas Chainsaw 3D: Dec-Jan 2013 | 20-Terrifyingly-Awkward-Holiday-Portraits-7Rul\np1816\nsa(dp1817\nVname\np1818\nVOld Navy Holiday: Nov-Dec 2012 | 17-Adorable-Animals-In-Holiday-Sweaters\np1819\nsVstart_time\np1820\nV2012-12-20T13:28:00-0800\np1821\nsVcampaign_id\np1822\nI6007164290365\nsVfrequency_cap\np1823\nI0\nsVdaily_imps\np1824\nI0\nsVlifetime_budget\np1825\nI100000\nsVend_time\np1826\nV2012-12-21T21:00:00-0800\np1827\nsVcreated_time\np1828\nV2012-12-20T10:34:52-0800\np1829\nsVupdated_time\np1830\nV2012-12-21T10:30:46-0800\np1831\nsVcampaign_status\np1832\nI1\nsVid\np1833\nV6007164290365\np1834\nsVaccount_id\np1835\nI40156177\nsa(dp1836\nVdaily_budget\np1837\nI45000\nsVstart_time\np1838\nV2012-12-20T12:08:39-0800\np1839\nsVcampaign_id\np1840\nI6007167349565\nsVaccount_id\np1841\nI40156177\nsVdaily_imps\np1842\nI0\nsVend_time\np1843\nV2012-12-22T20:30:00-0800\np1844\nsVfrequency_cap\np1845\nI0\nsVcreated_time\np1846\nV2012-12-20T12:08:39-0800\np1847\nsVupdated_time\np1848\nV2012-12-21T09:19:36-0800\np1849\nsVcampaign_status\np1850\nI1\nsVid\np1851\nV6007167349565\np1852\nsVname\np1853\nVTaco Bell: Loaded Grillers Dec-Feb 2013 | 10-International-Crossover-Hits-That-Couldve-Gone-10Az\np1854\nsa(dp1855\nVname\np1856\nVHBO: Girls S2 Phase 1 Dec 2012 | 10-Resolutions-Girls-Always-Break-587N | SP\np1857\nsVstart_time\np1858\nV2012-12-20T12:32:31-0800\np1859\nsVcampaign_id\np1860\nI6007167778765\nsVfrequency_cap\np1861\nI0\nsVdaily_imps\np1862\nI0\nsVlifetime_budget\np1863\nI60000\nsVend_time\np1864\nV2012-12-23T20:30:00-0800\np1865\nsVcreated_time\np1866\nV2012-12-20T12:32:31-0800\np1867\nsVupdated_time\np1868\nV2012-12-20T14:56:34-0800\np1869\nsVcampaign_status\np1870\nI1\nsVid\np1871\nV6007167778765\np1872\nsVaccount_id\np1873\nI40156177\nsa(dp1874\nVdaily_budget\np1875\nI100000\nsVstart_time\np1876\nV2012-12-20T22:17:00-0800\np1877\nsV'
p6
sS'hash'
p7
S'2f51441cba7acded0b45368ab4c6fafa404907ef'
p8
sS'stack'
p9
S''
s.