(dp1
S'args'
p2
S''
sS'methodname'
p3
S''
sS'packet_num'
p4
I120
sS'returnval'
p5
S"limit\np22784\nI6\nsVuser_impression_limit_period_unit\np22785\nI0\nsVimpression_control_type\np22786\nI2\nssVlocation\np22787\nI3\nsasVcreative_ids\np22788\n(lp22789\nI6007306318965\nasVtracking_pixel_ids\np22790\n(lp22791\nsVbid_type\np22792\nI1\nsVname\np22793\nVqueens 2\np22794\nsVupdated_time\np22795\nV2012-12-26T18:23:52+0000\np22796\nsVend_time\np22797\nNsa(dp22798\nVbid_info\np22799\n(dp22800\nV1\np22801\nV65\np22802\nssVcampaign_id\np22803\nI6007306307165\nsVlast_updated_by_app_id\np22804\nI6802152230\nsVcreated_time\np22805\nV2012-12-26T18:22:23+0000\np22806\nsVconversion_specs\np22807\n(lp22808\nsVadgroup_id\np22809\nI6007306345565\nsVtargeting\np22810\n(dp22811\nVkeywords\np22812\n(lp22813\nV#The Cabin in the Woods\np22814\naV#GQ\np22815\naV#Night of the Living Dead\np22816\naV#Can't Hardly Wait\np22817\naV#Halloween (1978 film)\np22818\naV#A Nightmare on Elm Street\np22819\naV#Spike (TV channel)\np22820\naV#Saw VI\np22821\naV#Details (magazine)\np22822\naV#ESPN\np22823\naV#Heartbreakers (2001 film)\np22824\naV#The Texas Chain Saw Massacre\np22825\naV#American Horror Story\np22826\naV#Party of Five\np22827\naV#I Know What You Did Last Summer\np22828\naV#American Horror Story (season 1)\np22829\naV#Maxim (magazine)\np22830\naV#Stuff (magazine)\np22831\naV#The Texas Chainsaw Massacre: The Beginning\np22832\naV#The Texas Chainsaw Massacre (2003 film)\np22833\naV#Saw (film)\np22834\naV#Jennifer Love Hewitt\np22835\naV#Friday the 13th (franchise)\np22836\naV#Halloween (franchise)\np22837\naV#The Texas Chainsaw Massacre (franchise)\np22838\naV#Horror film\np22839\naV#The Client List (TV series)\np22840\naV#I Still Know What You Did Last Summer\np22841\naV#AskMen\np22842\nasVage_max\np22843\nI65\nsVcountries\np22844\n(lp22845\nVUS\np22846\nasVbroad_age\np22847\nI1\nsVage_min\np22848\nI13\nssVid\np22849\nV6007306345565\np22850\nsVobjective\np22851\nI2\nsVmax_bid\np22852\nV65\np22853\nsVad_id\np22854\nI6007306345565\nsVaccount_id\np22855\nI40156177\nsVstart_time\np22856\nNsVlocations\np22857\n(lp22858\nI3\nasVadgroup_status\np22859\nI1\nsVad_status\np22860\nI1\nsVimpression_control_map\np22861\n(lp22862\n(dp22863\nVcontrol\np22864\n(dp22865\nVuser_impression_limit_period\np22866\nI24\nsVuser_impression_limit\np22867\nI6\nsVuser_impression_limit_period_unit\np22868\nI0\nsVimpression_control_type\np22869\nI2\nssVlocation\np22870\nI3\nsasVcreative_ids\np22871\n(lp22872\nI6007306345165\nasVtracking_pixel_ids\np22873\n(lp22874\nsVbid_type\np22875\nI1\nsVname\np22876\nVjlh\np22877\nsVupdated_time\np22878\nV2012-12-26T18:26:36+0000\np22879\nsVend_time\np22880\nNsa(dp22881\nVbid_info\np22882\n(dp22883\nV1\np22884\nV70\np22885\nssVcampaign_id\np22886\nI6007306482965\nsVlast_updated_by_app_id\np22887\nI6802152230\nsVcreated_time\np22888\nV2012-12-26T18:31:21+0000\np22889\nsVconversion_specs\np22890\n(lp22891\nsVadgroup_id\np22892\nI6007306484165\nsVtargeting\np22893\n(dp22894\nVkeywords\np22895\n(lp22896\nV#Kim Kardashian\np22897\naV#Spanx\np22898\naV#Spike (TV channel)\np22899\naV#Keeping Up with the Kardashians\np22900\naV#Lifetime (TV network)\np22901\naV#Tyra Banks\np22902\naV#Chantelle (underwear)\np22903\naV#FHM\np22904\naV#Fruit of the Loom\np22905\naV#Intimissimi\np22906\naV#Heidi Klum\np22907\naV#Brassiere\np22908\naV#Agent Provocateur (lingerie)\np22909\naV#Victoria's Secret Fashion Show\np22910\naV#Frederick's of Hollywood\np22911\naV#Anna Nicole Smith\np22912\naV#Maxim (magazine)\np22913\naV#Victoria's Secret\np22914\naV#AskMen\np22915\naV#La Perla (clothing)\np22916\naV#Ultimo (brand)\np22917\nasVage_max\np22918\nI65\nsVcountries\np22919\n(lp22920\nVUS\np22921\nasVbroad_age\np22922\nI1\nsVage_min\np22923\nI13\nssVid\np22924\nV6007306484165\np22925\nsVobjective\np22926\nI2\nsVmax_bid\np22927\nV70\np22928\nsVad_id\np22929\nI6007306484165\nsVaccount_id\np22930\nI40156177\nsVstart_time\np22931\nV2012-12-26T18:45:18+0000\np22932\nsVlocations\np22933\n(lp22934\nI3\nasVadgroup_status\np22935\nI1\nsVad_status\np22936\nI1\nsVimpression_control_map\np22937\n(lp22938\n(dp22939\nVcontrol\np22940\n(dp22941\nVuser_impression_limit_period\np22942\nI24\nsVuser_impression_limit\np22943\nI6\nsVuser_impression_limit_period_unit\np22944\nI0\nsVimpression_control_type\np22945\nI2\nssVlocation\np22946\nI3\nsasVcreative_ids\np22947\n(lp22948\nI6007306483765\nasVtracking_pixel_ids\np22949\n(lp22950\nsVbid_type\np22951\nI1\nsVname\np22952\nVlingerie 1\np22953\nsVupdated_time\np22954\nV2013-01"
p6
sS'hash'
p7
S'3366763720ff57e41930a294da971bf6c8a8acdf'
p8
sS'stack'
p9
S''
s.