(dp1
S'args'
p2
S''
sS'methodname'
p3
S''
sS'packet_num'
p4
I101
sS'returnval'
p5
S'7\nI2\nsVmax_bid\np19288\nV75\np19289\nsVad_id\np19290\nI6007162958165\nsVaccount_id\np19291\nI40156177\nsVstart_time\np19292\nNsVlocations\np19293\n(lp19294\nI3\nasVadgroup_status\np19295\nI1\nsVad_status\np19296\nI1\nsVimpression_control_map\np19297\n(lp19298\n(dp19299\nVcontrol\np19300\n(dp19301\nVuser_impression_limit_period\np19302\nI24\nsVuser_impression_limit\np19303\nI6\nsVuser_impression_limit_period_unit\np19304\nI0\nsVimpression_control_type\np19305\nI2\nssVlocation\np19306\nI3\nsasVcreative_ids\np19307\n(lp19308\nI6007162957765\nasVtracking_pixel_ids\np19309\n(lp19310\nsVbid_type\np19311\nI1\nsVname\np19312\nVawk 1\np19313\nsVupdated_time\np19314\nV2012-12-20T17:17:04+0000\np19315\nsVend_time\np19316\nNsa(dp19317\nVbid_info\np19318\n(dp19319\nV1\np19320\nV75\np19321\nssVcampaign_id\np19322\nI6007162957165\nsVlast_updated_by_app_id\np19323\nI6802152230\nsVcreated_time\np19324\nV2012-12-20T17:16:53+0000\np19325\nsVconversion_specs\np19326\n(lp19327\nsVadgroup_id\np19328\nI6007162971365\nsVtargeting\np19329\n(dp19330\nVkeywords\np19331\n(lp19332\nV#Mashable\np19333\naV#Halloween (1978 film)\np19334\naV#Internet meme\np19335\naV#Imgur\np19336\naV#Digg\np19337\naV#The Onion\np19338\naV#The Texas Chain Saw Massacre\np19339\naV#CollegeHumor\np19340\naV#Cracked.com\np19341\naV#Reddit\np19342\naV#BuzzFeed\np19343\naV#The Nightmare Before Christmas\np19344\naV#Comedy Central\np19345\nasVage_max\np19346\nI65\nsVcountries\np19347\n(lp19348\nVUS\np19349\nasVbroad_age\np19350\nI1\nsVage_min\np19351\nI13\nssVid\np19352\nV6007162971365\np19353\nsVobjective\np19354\nI2\nsVmax_bid\np19355\nV75\np19356\nsVad_id\np19357\nI6007162971365\nsVaccount_id\np19358\nI40156177\nsVstart_time\np19359\nNsVlocations\np19360\n(lp19361\nI3\nasVadgroup_status\np19362\nI1\nsVad_status\np19363\nI1\nsVimpression_control_map\np19364\n(lp19365\n(dp19366\nVcontrol\np19367\n(dp19368\nVuser_impression_limit_period\np19369\nI24\nsVuser_impression_limit\np19370\nI6\nsVuser_impression_limit_period_unit\np19371\nI0\nsVimpression_control_type\np19372\nI2\nssVlocation\np19373\nI3\nsasVcreative_ids\np19374\n(lp19375\nI6007162970765\nasVtracking_pixel_ids\np19376\n(lp19377\nsVbid_type\np19378\nI1\nsVname\np19379\nVawk 2\np19380\nsVupdated_time\np19381\nV2012-12-20T17:17:31+0000\np19382\nsVend_time\np19383\nNsa(dp19384\nVbid_info\np19385\n(dp19386\nV1\np19387\nV75\np19388\nssVcampaign_id\np19389\nI6007162957165\nsVlast_updated_by_app_id\np19390\nI6802152230\nsVcreated_time\np19391\nV2012-12-20T17:17:27+0000\np19392\nsVconversion_specs\np19393\n(lp19394\nsVadgroup_id\np19395\nI6007162986165\nsVtargeting\np19396\n(dp19397\nVkeywords\np19398\n(lp19399\nV#Mashable\np19400\naV#Halloween (1978 film)\np19401\naV#Internet meme\np19402\naV#Imgur\np19403\naV#Digg\np19404\naV#The Onion\np19405\naV#The Texas Chain Saw Massacre\np19406\naV#CollegeHumor\np19407\naV#Cracked.com\np19408\naV#Reddit\np19409\naV#BuzzFeed\np19410\naV#The Nightmare Before Christmas\np19411\naV#Comedy Central\np19412\nasVage_max\np19413\nI65\nsVcountries\np19414\n(lp19415\nVUS\np19416\nasVbroad_age\np19417\nI1\nsVage_min\np19418\nI13\nssVid\np19419\nV6007162986165\np19420\nsVobjective\np19421\nI2\nsVmax_bid\np19422\nV75\np19423\nsVad_id\np19424\nI6007162986165\nsVaccount_id\np19425\nI40156177\nsVstart_time\np19426\nNsVlocations\np19427\n(lp19428\nI3\nasVadgroup_status\np19429\nI1\nsVad_status\np19430\nI1\nsVimpression_control_map\np19431\n(lp19432\n(dp19433\nVcontrol\np19434\n(dp19435\nVuser_impression_limit_period\np19436\nI24\nsVuser_impression_limit\np19437\nI6\nsVuser_impression_limit_period_unit\np19438\nI0\nsVimpression_control_type\np19439\nI2\nssVlocation\np19440\nI3\nsasVcreative_ids\np19441\n(lp19442\nI6007162985565\nasVtracking_pixel_ids\np19443\n(lp19444\nsVbid_type\np19445\nI1\nsVname\np19446\nVawk 3\np19447\nsVupdated_time\np19448\nV2012-12-20T17:19:27+0000\np19449\nsVend_time\np19450\nNsa(dp19451\nVbid_info\np19452\n(dp19453\nV1\np19454\nV100\np19455\nssVcampaign_id\np19456\nI6007164282765\nsVlast_updated_by_app_id\np19457\nI6802152230\nsVcreated_time\np19458\nV2012-12-20T18:33:58+0000\np19459\nsVconversion_specs\np19460\n(lp19461\nsVadgroup_id\np19462\nI6007164283765\nsVtargeting\np19463\n(dp19464\nVage_max\np19465\nI65\nsVcountries\np19466\n(lp19467\nVUS\np19468\nasVbroad_age\np19469\nI1\nsVage_min\np19470\nI13\nssVid\np19471\nV6007164283765\np19472\nsVobjective\np19473\nI2\nsVmax_bid\np19474\nV100\np19475\nsVad_id\np19476\nI6007164283765\nsVaccount_id\np19477\nI40156177\nsVstart_'
p6
sS'hash'
p7
S'3366763720ff57e41930a294da971bf6c8a8acdf'
p8
sS'stack'
p9
S''
s.