(dp1
S'args'
p2
S''
sS'methodname'
p3
S''
sS'packet_num'
p4
I1
sS'returnval'
p5
S'eriod_unit\np200\nI0\nsVimpression_control_type\np201\nI2\nssVlocation\np202\nI3\nsasVcreative_ids\np203\n(lp204\nI6006574963565\nasVtracking_pixel_ids\np205\n(lp206\nsVbid_type\np207\nI1\nsVname\np208\nVLuigi\np209\nsVupdated_time\np210\nV2012-12-05T14:40:43+0000\np211\nsVend_time\np212\nNsa(dp213\nVbid_info\np214\n(dp215\nV1\np216\nV65\np217\nssVcampaign_id\np218\nI6006576674965\nsVlast_updated_by_app_id\np219\nI207192552749284\nsVcreated_time\np220\nV2012-12-03T23:46:42+0000\np221\nsVconversion_specs\np222\n(lp223\nsVadgroup_id\np224\nI6006576675965\nsVtargeting\np225\n(dp226\nVage_max\np227\nI65\nsVcountries\np228\n(lp229\nVUS\np230\nasVbroad_age\np231\nI1\nsVage_min\np232\nI13\nsVkeywords\np233\n(lp234\nV#Williamsburg, Brooklyn\np235\naV#Urban Outfitters\np236\naV#Cosmopolitan (magazine)\np237\naV#Just Jared\np238\naV#Sex and the City 2\np239\naV#Jezebel (website)\np240\naV#H&M\np241\naV#HBO\np242\naV#Tiny Furniture\np243\naV#Sex and the City\np244\naV#Music Hall of Williamsburg\np245\naV#Sex and the City (film)\np246\naV#Jessamine County, Kentucky\np247\naV#Judd Apatow\np248\naV#Lena Dunham\np249\naV#Allison Williams (actress)\np250\naV#Jemima Kirke\np251\naV#Zosia Mamet\np252\naV#Girls (TV series)\np253\nasVgenders\np254\n(lp255\nI2\nassVid\np256\nV6006576675965\np257\nsVobjective\np258\nI2\nsVmax_bid\np259\nV65\np260\nsVad_id\np261\nI6006576675965\nsVaccount_id\np262\nI40156177\nsVstart_time\np263\nNsVlocations\np264\n(lp265\nI3\nasVadgroup_status\np266\nI1\nsVad_status\np267\nI1\nsVimpression_control_map\np268\n(lp269\n(dp270\nVcontrol\np271\n(dp272\nVuser_impression_limit_period\np273\nI24\nsVuser_impression_limit\np274\nI3\nsVuser_impression_limit_period_unit\np275\nI0\nsVimpression_control_type\np276\nI2\nssVlocation\np277\nI3\nsasVcreative_ids\np278\n(lp279\nI6006576675565\nasVtracking_pixel_ids\np280\n(lp281\nsVbid_type\np282\nI1\nsVname\np283\nVDrunk\np284\nsVupdated_time\np285\nV2012-12-04T00:36:06+0000\np286\nsVend_time\np287\nNsa(dp288\nVbid_info\np289\n(dp290\nV1\np291\nV65\np292\nssVcampaign_id\np293\nI6006576674965\nsVlast_updated_by_app_id\np294\nI207192552749284\nsVcreated_time\np295\nV2012-12-03T23:48:05+0000\np296\nsVconversion_specs\np297\n(lp298\nsVadgroup_id\np299\nI6006576691965\nsVtargeting\np300\n(dp301\nVage_max\np302\nI65\nsVcountries\np303\n(lp304\nVUS\np305\nasVbroad_age\np306\nI1\nsVage_min\np307\nI13\nsVkeywords\np308\n(lp309\nV#Williamsburg, Brooklyn\np310\naV#Urban Outfitters\np311\naV#Cosmopolitan (magazine)\np312\naV#Just Jared\np313\naV#Sex and the City 2\np314\naV#Jezebel (website)\np315\naV#H&M\np316\naV#HBO\np317\naV#Tiny Furniture\np318\naV#Sex and the City\np319\naV#Music Hall of Williamsburg\np320\naV#Sex and the City (film)\np321\naV#Jessamine County, Kentucky\np322\naV#Judd Apatow\np323\naV#Lena Dunham\np324\naV#Allison Williams (actress)\np325\naV#Jemima Kirke\np326\naV#Zosia Mamet\np327\naV#Girls (TV series)\np328\nasVgenders\np329\n(lp330\nI2\nassVid\np331\nV6006576691965\np332\nsVobjective\np333\nI2\nsVmax_bid\np334\nV65\np335\nsVad_id\np336\nI6006576691965\nsVaccount_id\np337\nI40156177\nsVstart_time\np338\nNsVlocations\np339\n(lp340\nI3\nasVadgroup_status\np341\nI1\nsVad_status\np342\nI1\nsVimpression_control_map\np343\n(lp344\n(dp345\nVcontrol\np346\n(dp347\nVuser_impression_limit_period\np348\nI24\nsVuser_impression_limit\np349\nI3\nsVuser_impression_limit_period_unit\np350\nI0\nsVimpression_control_type\np351\nI2\nssVlocation\np352\nI3\nsasVcreative_ids\np353\n(lp354\nI6006576691565\nasVtracking_pixel_ids\np355\n(lp356\nsVbid_type\np357\nI1\nsVname\np358\nVVirgin\np359\nsVupdated_time\np360\nV2012-12-04T00:36:06+0000\np361\nsVend_time\np362\nNsa(dp363\nVbid_info\np364\n(dp365\nV1\np366\nV66\np367\nssVcampaign_id\np368\nI6006590604365\nsVlast_updated_by_app_id\np369\nI6802152230\nsVcreated_time\np370\nV2012-12-04T16:49:24+0000\np371\nsVconversion_specs\np372\n(lp373\nsVadgroup_id\np374\nI6006590605365\nsVtargeting\np375\n(dp376\nVkeywords\np377\n(lp378\nV#Spin (magazine)\np379\naV#MTV\np380\naV#Spotify\np381\naV#Rhapsody (music)\np382\naV#Stereogum\np383\naV#Grooveshark\np384\naV#Pitchfork Media\np385\naV#Jango (website)\np386\naV#Billboard (magazine)\np387\naV#Last.fm\np388\naV#Pandora Radio\np389\naV#KCRW\np390\naV#Rdio\np391\naV#Lollapalooza\np392\naV#Coachella Valley Music and Arts Festival\np393\nasVage_max\np394\nI65\nsVcountries\np395\n(lp396\nVUS\np397\nasVbroad_age\np398\nI1\nsVage_min\np399\nI13\nssVid\np400\nV6006590605365\np401\nsVobjective\np402\nI2\nsVmax_bid\np403\nV'
p6
sS'hash'
p7
S'3366763720ff57e41930a294da971bf6c8a8acdf'
p8
sS'stack'
p9
S''
s.