(dp1
S'args'
p2
S''
sS'methodname'
p3
S''
sS'packet_num'
p4
I165
sS'returnval'
p5
S"p30962\n(lp30963\nsVadgroup_id\np30964\nI6007511498565\nsVtargeting\np30965\n(dp30966\nVkeywords\np30967\n(lp30968\nV#McDonald's\np30969\naV#Krusty the Clown\np30970\naV#Ronald McDonald\np30971\naV#Circus\np30972\naV#Clown\np30973\nasVage_max\np30974\nI65\nsVcountries\np30975\n(lp30976\nVUS\np30977\nasVbroad_age\np30978\nI1\nsVage_min\np30979\nI13\nssVid\np30980\nV6007511498565\np30981\nsVobjective\np30982\nI2\nsVmax_bid\np30983\nV65\np30984\nsVad_id\np30985\nI6007511498565\nsVaccount_id\np30986\nI40156177\nsVstart_time\np30987\nNsVlocations\np30988\n(lp30989\nI3\nasVadgroup_status\np30990\nI9\nsVad_status\np30991\nI2\nsVimpression_control_map\np30992\n(lp30993\n(dp30994\nVcontrol\np30995\n(dp30996\nVuser_impression_limit_period\np30997\nI24\nsVuser_impression_limit\np30998\nI6\nsVuser_impression_limit_period_unit\np30999\nI0\nsVimpression_control_type\np31000\nI2\nssVlocation\np31001\nI3\nsasVcreative_ids\np31002\n(lp31003\nI6007511498165\nasVtracking_pixel_ids\np31004\n(lp31005\nsVbid_type\np31006\nI1\nsVname\np31007\nVhttp://ad.doubleclick.net/clk;266212546;92028855;m;pc=[TPAS_ID]?http://www.buzzfeed.com/h1/f... - Ad\np31008\nsVupdated_time\np31009\nV2013-01-07T19:09:44+0000\np31010\nsVend_time\np31011\nNsa(dp31012\nVbid_info\np31013\n(dp31014\nV1\np31015\nV65\np31016\nssVcampaign_id\np31017\nI6007511497565\nsVlast_updated_by_app_id\np31018\nI6802152230\nsVcreated_time\np31019\nV2013-01-07T19:09:34+0000\np31020\nsVconversion_specs\np31021\n(lp31022\nsVadgroup_id\np31023\nI6007598597765\nsVtargeting\np31024\n(dp31025\nVkeywords\np31026\n(lp31027\nV#McDonald's\np31028\naV#Krusty the Clown\np31029\naV#Ronald McDonald\np31030\naV#Circus\np31031\naV#Clown\np31032\nasVage_max\np31033\nI65\nsVcountries\np31034\n(lp31035\nVUS\np31036\nasVbroad_age\np31037\nI1\nsVage_min\np31038\nI13\nssVid\np31039\nV6007598597765\np31040\nsVobjective\np31041\nI2\nsVmax_bid\np31042\nV65\np31043\nsVad_id\np31044\nI6007598597765\nsVaccount_id\np31045\nI40156177\nsVstart_time\np31046\nNsVlocations\np31047\n(lp31048\nI3\nasVadgroup_status\np31049\nI9\nsVad_status\np31050\nI2\nsVimpression_control_map\np31051\n(lp31052\n(dp31053\nVcontrol\np31054\n(dp31055\nVuser_impression_limit_period\np31056\nI24\nsVuser_impression_limit\np31057\nI6\nsVuser_impression_limit_period_unit\np31058\nI0\nsVimpression_control_type\np31059\nI2\nssVlocation\np31060\nI3\nsasVcreative_ids\np31061\n(lp31062\nI6007511498165\nasVtracking_pixel_ids\np31063\n(lp31064\nsVbid_type\np31065\nI1\nsVname\np31066\nVClown2\np31067\nsVupdated_time\np31068\nV2013-01-08T20:56:08+0000\np31069\nsVend_time\np31070\nNsa(dp31071\nVbid_info\np31072\n(dp31073\nV1\np31074\nV65\np31075\nssVcampaign_id\np31076\nI6007528524365\nsVlast_updated_by_app_id\np31077\nI209787012415271\nsVcreated_time\np31078\nV2013-01-04T15:51:45+0000\np31079\nsVconversion_specs\np31080\n(lp31081\nsVadgroup_id\np31082\nI6007528525365\nsVtargeting\np31083\n(dp31084\nVkeywords\np31085\n(lp31086\nV#King Kong (2005 film)\np31087\naV#Saving Silverman\np31088\naV#Kung Fu Panda 2\np31089\naV#Tenacious D (album)\np31090\naV#Jack Black\np31091\naV#Tropic Thunder\np31092\naV#Kung Fu Panda\np31093\naV#Wonderboy (Tenacious D song)\np31094\naV#Enemy of the State (film)\np31095\naV#Kyle Gass\np31096\naV#High Fidelity (film)\np31097\naV#Orange County (film)\np31098\naV#Tenacious D\np31099\naV#The Cable Guy\np31100\naV#Nacho Libre\np31101\naV#Envy (2004 film)\np31102\naV#Bernie (2011 film)\np31103\naV#School of Rock\np31104\naV#Tenacious D (TV series)\np31105\naV#Year One (film)\np31106\naV#Kung Fu Panda (franchise)\np31107\naV#Tenacious D in The Pick of Destiny\np31108\nasVage_max\np31109\nI65\nsVcountries\np31110\n(lp31111\nVUS\np31112\nasVbroad_age\np31113\nI1\nsVage_min\np31114\nI13\nssVid\np31115\nV6007528525365\np31116\nsVobjective\np31117\nI2\nsVmax_bid\np31118\nV65\np31119\nsVad_id\np31120\nI6007528525365\nsVaccount_id\np31121\nI40156177\nsVstart_time\np31122\nNsVlocations\np31123\n(lp31124\nI3\nasVadgroup_status\np31125\nI1\nsVad_status\np31126\nI1\nsVimpression_control_map\np31127\n(lp31128\n(dp31129\nVcontrol\np31130\n(dp31131\nVuser_impression_limit_period\np31132\nI24\nsVuser_impression_limit\np31133\nI3\nsVuser_impression_limit_period_unit\np31134\nI0\nsVimpression_control_type\np31135\nI2\nssVlocation\np31136\nI3\nsasVcreative_ids\np31137\n(lp31138\nI6007528524965\nasVtracking_pixel_ids\np31139\n(lp31140\nsVbid_type\np31141\nI1\nsVname\np31142\nVhttp://ad.doubleclick.net/clk;266305998;92196608;c;pc"
p6
sS'hash'
p7
S'3366763720ff57e41930a294da971bf6c8a8acdf'
p8
sS'stack'
p9
S''
s.