(dp1
S'args'
p2
S''
sS'methodname'
p3
S''
sS'packet_num'
p4
I61
sS'returnval'
p5
S'\naV#Walmart\np11931\nasVage_max\np11932\nI65\nsVcountries\np11933\n(lp11934\nVUS\np11935\nasVbroad_age\np11936\nI1\nsVage_min\np11937\nI13\nssVid\np11938\nV6007150778165\np11939\nsVobjective\np11940\nI2\nsVmax_bid\np11941\nV79\np11942\nsVad_id\np11943\nI6007150778165\nsVaccount_id\np11944\nI40156177\nsVstart_time\np11945\nNsVlocations\np11946\n(lp11947\nI3\nasVadgroup_status\np11948\nI1\nsVad_status\np11949\nI1\nsVimpression_control_map\np11950\n(lp11951\n(dp11952\nVcontrol\np11953\n(dp11954\nVuser_impression_limit_period\np11955\nI24\nsVuser_impression_limit\np11956\nI3\nsVuser_impression_limit_period_unit\np11957\nI0\nsVimpression_control_type\np11958\nI2\nssVlocation\np11959\nI3\nsasVcreative_ids\np11960\n(lp11961\nI6007150777765\nasVtracking_pixel_ids\np11962\n(lp11963\nsVbid_type\np11964\nI1\nsVname\np11965\nVhttp://www.buzzfeed.com/h1/fbad/oldnavy/19-lessons-about-the-holidays-from-our-favorite-ch - Ad\np11966\nsVupdated_time\np11967\nV2012-12-23T00:05:36+0000\np11968\nsVend_time\np11969\nV2012-12-23T20:08:00+0000\np11970\nsa(dp11971\nVbid_info\np11972\n(dp11973\nV1\np11974\nV80\np11975\nssVcampaign_id\np11976\nI6006829125565\nsVlast_updated_by_app_id\np11977\nI6802152230\nsVcreated_time\np11978\nV2012-12-14T17:36:29+0000\np11979\nsVconversion_specs\np11980\n(lp11981\nsVadgroup_id\np11982\nI6006829126565\nsVtargeting\np11983\n(dp11984\nVkeywords\np11985\n(lp11986\nV#Mashable\np11987\naV#Match.com\np11988\naV#Digg\np11989\naV#The Onion\np11990\naV#CollegeHumor\np11991\naV#Cracked.com\np11992\naV#Reddit\np11993\naV#EHarmony\np11994\naV#Samsung Telecommunications\np11995\naV#BuzzFeed\np11996\naV#OkCupid\np11997\naV#Funny or Die\np11998\nasVage_max\np11999\nI65\nsVcountries\np12000\n(lp12001\nVUS\np12002\nasVbroad_age\np12003\nI1\nsVage_min\np12004\nI13\nssVid\np12005\nV6006829126565\np12006\nsVobjective\np12007\nI2\nsVmax_bid\np12008\nV80\np12009\nsVad_id\np12010\nI6006829126565\nsVaccount_id\np12011\nI40156177\nsVstart_time\np12012\nNsVlocations\np12013\n(lp12014\nI3\nasVadgroup_status\np12015\nI1\nsVad_status\np12016\nI1\nsVimpression_control_map\np12017\n(lp12018\n(dp12019\nVcontrol\np12020\n(dp12021\nVuser_impression_limit_period\np12022\nI24\nsVuser_impression_limit\np12023\nI3\nsVuser_impression_limit_period_unit\np12024\nI0\nsVimpression_control_type\np12025\nI2\nssVlocation\np12026\nI3\nsasVcreative_ids\np12027\n(lp12028\nI6006829126165\nasVtracking_pixel_ids\np12029\n(lp12030\nsVbid_type\np12031\nI1\nsVname\np12032\nVDate\np12033\nsVupdated_time\np12034\nV2012-12-26T20:09:28+0000\np12035\nsVend_time\np12036\nV2012-12-28T04:30:00+0000\np12037\nsa(dp12038\nVbid_info\np12039\n(dp12040\nV1\np12041\nV90\np12042\nssVcampaign_id\np12043\nI6006829125565\nsVlast_updated_by_app_id\np12044\nI6802152230\nsVcreated_time\np12045\nV2012-12-14T17:38:32+0000\np12046\nsVconversion_specs\np12047\n(lp12048\nsVadgroup_id\np12049\nI6006829157765\nsVtargeting\np12050\n(dp12051\nVkeywords\np12052\n(lp12053\nV#Mashable\np12054\naV#Digg\np12055\naV#The Onion\np12056\naV#CollegeHumor\np12057\naV#Cracked.com\np12058\naV#Reddit\np12059\naV#Samsung Telecommunications\np12060\naV#BuzzFeed\np12061\naV#Funny or Die\np12062\nasVage_max\np12063\nI65\nsVcountries\np12064\n(lp12065\nVUS\np12066\nasVbroad_age\np12067\nI1\nsVage_min\np12068\nI13\nssVid\np12069\nV6006829157765\np12070\nsVobjective\np12071\nI2\nsVmax_bid\np12072\nV90\np12073\nsVad_id\np12074\nI6006829157765\nsVaccount_id\np12075\nI40156177\nsVstart_time\np12076\nNsVlocations\np12077\n(lp12078\nI3\nasVadgroup_status\np12079\nI1\nsVad_status\np12080\nI1\nsVimpression_control_map\np12081\n(lp12082\n(dp12083\nVcontrol\np12084\n(dp12085\nVuser_impression_limit_period\np12086\nI24\nsVuser_impression_limit\np12087\nI6\nsVuser_impression_limit_period_unit\np12088\nI0\nsVimpression_control_type\np12089\nI2\nssVlocation\np12090\nI3\nsasVcreative_ids\np12091\n(lp12092\nI6006829157365\nasVtracking_pixel_ids\np12093\n(lp12094\nsVbid_type\np12095\nI1\nsVname\np12096\nVEttiquette\np12097\nsVupdated_time\np12098\nV2012-12-26T20:09:35+0000\np12099\nsVend_time\np12100\nV2012-12-28T04:30:00+0000\np12101\nsa(dp12102\nVbid_info\np12103\n(dp12104\nV1\np12105\nV110\np12106\nssVcampaign_id\np12107\nI6006831236765\nsVlast_updated_by_app_id\np12108\nI6802152230\nsVcreated_time\np12109\nV2012-12-14T20:17:16+0000\np12110\nsVconversion_specs\np12111\n(lp12112\nsVadgroup_id\np12113\nI6006831237765\nsVtargeting\np12114\n(dp12115\nVkeywords\np12116\n(lp12117\nV#Brittany Murphy\np12118\naV#Clueless (film'
p6
sS'hash'
p7
S'3366763720ff57e41930a294da971bf6c8a8acdf'
p8
sS'stack'
p9
S''
s.