(dp1
S'args'
p2
S''
sS'methodname'
p3
S''
sS'packet_num'
p4
I137
sS'returnval'
p5
S"16+0000\np25933\nsVconversion_specs\np25934\n(lp25935\nsVadgroup_id\np25936\nI6007480679765\nsVtargeting\np25937\n(dp25938\nVkeywords\np25939\n(lp25940\nV#Perez Hilton\np25941\naV#27 Dresses\np25942\naV#The Ugly Truth\np25943\naV#Patrick Dempsey\np25944\naV#Just Jared\np25945\naV#Grey's Anatomy\np25946\naV#Katherine Heigl\np25947\naV#Us Weekly\np25948\naV#TMZ.com\np25949\naV#Meredith Grey\np25950\naV#Derek Shepherd\np25951\naVohnotheydidnt\np25952\naV#Ellen Pompeo\np25953\naV#Sandra Oh\np25954\naV#Knocked Up\np25955\naV#TMZ (website)\np25956\nasVage_max\np25957\nI65\nsVcountries\np25958\n(lp25959\nVUS\np25960\nasVbroad_age\np25961\nI1\nsVage_min\np25962\nI13\nssVid\np25963\nV6007480679765\np25964\nsVobjective\np25965\nI2\nsVmax_bid\np25966\nV65\np25967\nsVad_id\np25968\nI6007480679765\nsVaccount_id\np25969\nI40156177\nsVstart_time\np25970\nNsVlocations\np25971\n(lp25972\nI3\nasVadgroup_status\np25973\nI1\nsVad_status\np25974\nI1\nsVimpression_control_map\np25975\n(lp25976\n(dp25977\nVcontrol\np25978\n(dp25979\nVuser_impression_limit_period\np25980\nI24\nsVuser_impression_limit\np25981\nI6\nsVuser_impression_limit_period_unit\np25982\nI0\nsVimpression_control_type\np25983\nI2\nssVlocation\np25984\nI3\nsasVcreative_ids\np25985\n(lp25986\nI6007480679365\nasVtracking_pixel_ids\np25987\n(lp25988\nsVbid_type\np25989\nI1\nsVname\np25990\nVkatherine\np25991\nsVupdated_time\np25992\nV2013-01-02T16:03:09+0000\np25993\nsVend_time\np25994\nNsa(dp25995\nVbid_info\np25996\n(dp25997\nV1\np25998\nV65\np25999\nssVcampaign_id\np26000\nI6007481345165\nsVlast_updated_by_app_id\np26001\nI6802152230\nsVcreated_time\np26002\nV2013-01-02T16:40:44+0000\np26003\nsVconversion_specs\np26004\n(lp26005\nsVadgroup_id\np26006\nI6007481346165\nsVtargeting\np26007\n(dp26008\nVkeywords\np26009\n(lp26010\nV#Sequoia National Park\np26011\naV#Great Basin National Park\np26012\naV#Planet Earth (TV series)\np26013\naV#National park\np26014\naV#Digital photography\np26015\naV#Reno, Nevada\np26016\naV#Discovery Channel\np26017\naV#Nature photography\np26018\naV#Wildlife photography\np26019\naV#Death Valley\np26020\naV#National Geographic Channel\np26021\naV#Desert\np26022\naV#Valley of Fire State Park\np26023\naV#Red Rock Canyon National Conservation Area\np26024\naV#Red Rock Canyon State Park (California)\np26025\naV#Great Basin\np26026\naV#Landscape photography\np26027\naV#Nevada\np26028\naV#Travel Channel\np26029\naV#Black Rock Desert\np26030\naV#Death Valley National Park\np26031\nasVage_max\np26032\nI65\nsVcountries\np26033\n(lp26034\nVUS\np26035\nasVbroad_age\np26036\nI1\nsVage_min\np26037\nI13\nssVid\np26038\nV6007481346165\np26039\nsVobjective\np26040\nI2\nsVmax_bid\np26041\nV65\np26042\nsVad_id\np26043\nI6007481346165\nsVaccount_id\np26044\nI40156177\nsVstart_time\np26045\nNsVlocations\np26046\n(lp26047\nI3\nasVadgroup_status\np26048\nI1\nsVad_status\np26049\nI1\nsVimpression_control_map\np26050\n(lp26051\n(dp26052\nVcontrol\np26053\n(dp26054\nVuser_impression_limit_period\np26055\nI24\nsVuser_impression_limit\np26056\nI3\nsVuser_impression_limit_period_unit\np26057\nI0\nsVimpression_control_type\np26058\nI2\nssVlocation\np26059\nI3\nsasVcreative_ids\np26060\n(lp26061\nI6007481345765\nasVtracking_pixel_ids\np26062\n(lp26063\nsVbid_type\np26064\nI1\nsVname\np26065\nVvalley of fire 1\np26066\nsVupdated_time\np26067\nV2013-01-02T16:45:09+0000\np26068\nsVend_time\np26069\nNsa(dp26070\nVbid_info\np26071\n(dp26072\nV1\np26073\nV65\np26074\nssVcampaign_id\np26075\nI6007481345165\nsVlast_updated_by_app_id\np26076\nI6802152230\nsVcreated_time\np26077\nV2013-01-02T16:43:00+0000\np26078\nsVconversion_specs\np26079\n(lp26080\nsVadgroup_id\np26081\nI6007481374765\nsVtargeting\np26082\n(dp26083\nVkeywords\np26084\n(lp26085\nV#Sequoia National Park\np26086\naV#Great Basin National Park\np26087\naV#Planet Earth (TV series)\np26088\naV#National park\np26089\naV#Digital photography\np26090\naV#Reno, Nevada\np26091\naV#Discovery Channel\np26092\naV#Nature photography\np26093\naV#Wildlife photography\np26094\naV#Death Valley\np26095\naV#National Geographic Channel\np26096\naV#Desert\np26097\naV#Valley of Fire State Park\np26098\naV#Red Rock Canyon National Conservation Area\np26099\naV#Red Rock Canyon State Park (California)\np26100\naV#Great Basin\np26101\naV#Landscape photography\np26102\naV#Nevada\np26103\naV#Travel Channel\np26104\naV#Black Rock Desert\np26105\naV#Death Valley National Park\np26106\nasVage_max\np26107\nI65\n"
p6
sS'hash'
p7
S'3366763720ff57e41930a294da971bf6c8a8acdf'
p8
sS'stack'
p9
S''
s.