(dp1
S'args'
p2
S''
sS'methodname'
p3
S''
sS'packet_num'
p4
I177
sS'returnval'
p5
S'Vlast_updated_by_app_id\np33136\nI6802152230\nsVcreated_time\np33137\nV2013-01-07T17:56:59+0000\np33138\nsVconversion_specs\np33139\n(lp33140\nsVadgroup_id\np33141\nI6007597238765\nsVtargeting\np33142\n(dp33143\nVkeywords\np33144\n(lp33145\nV#Breaking Bad\np33146\naV#David Lynch\np33147\naV#The X-Files\np33148\naV#Twin Peaks: Fire Walk with Me\np33149\naV#Lara Flynn Boyle\np33150\naV#Blue Velvet (film)\np33151\naV#Inland Empire (film)\np33152\naV#Mulholland Drive (film)\np33153\naV#Memento (film)\np33154\naV#Twin Peaks\np33155\naV#Kyle MacLachlan\np33156\naV#Lost Highway (film)\np33157\naV#Twin Peaks (San Francisco)\np33158\nasVage_max\np33159\nI65\nsVcountries\np33160\n(lp33161\nVUS\np33162\nasVbroad_age\np33163\nI1\nsVage_min\np33164\nI13\nssVid\np33165\nV6007597238765\np33166\nsVobjective\np33167\nI2\nsVmax_bid\np33168\nV65\np33169\nsVad_id\np33170\nI6007597238765\nsVaccount_id\np33171\nI40156177\nsVstart_time\np33172\nNsVlocations\np33173\n(lp33174\nI3\nasVadgroup_status\np33175\nI1\nsVad_status\np33176\nI1\nsVimpression_control_map\np33177\n(lp33178\n(dp33179\nVcontrol\np33180\n(dp33181\nVuser_impression_limit_period\np33182\nI24\nsVuser_impression_limit\np33183\nI6\nsVuser_impression_limit_period_unit\np33184\nI0\nsVimpression_control_type\np33185\nI2\nssVlocation\np33186\nI3\nsasVcreative_ids\np33187\n(lp33188\nI6007597238365\nasVtracking_pixel_ids\np33189\n(lp33190\nsVbid_type\np33191\nI1\nsVname\np33192\nVtwin peaks\np33193\nsVupdated_time\np33194\nV2013-01-07T18:01:44+0000\np33195\nsVend_time\np33196\nNsa(dp33197\nVbid_info\np33198\n(dp33199\nV1\np33200\nV65\np33201\nssVcampaign_id\np33202\nI6007597180965\nsVlast_updated_by_app_id\np33203\nI6802152230\nsVcreated_time\np33204\nV2013-01-07T17:59:03+0000\np33205\nsVconversion_specs\np33206\n(lp33207\nsVadgroup_id\np33208\nI6007597268765\nsVtargeting\np33209\n(dp33210\nVkeywords\np33211\n(lp33212\nV#Batman: Arkham City\np33213\naV#Batman: Arkham Asylum\np33214\naV#Batman (comic book)\np33215\naV#Batman Returns\np33216\naV#Gotham City\np33217\naV#Batman: The Return of Bruce Wayne\np33218\naV#Batman Begins\np33219\naV#Batman: The Animated Series\np33220\naV#The Dark Knight Rises\np33221\naV#Batman Forever\np33222\naV#Batman (1989 film)\np33223\naV#The Dark Knight (film)\np33224\naV#Gotham City Police Department\np33225\naV#Batman (TV series)\np33226\naV#Batman\np33227\naV#Gotham City Impostors\np33228\nasVage_max\np33229\nI65\nsVcountries\np33230\n(lp33231\nVUS\np33232\nasVbroad_age\np33233\nI1\nsVage_min\np33234\nI13\nssVid\np33235\nV6007597268765\np33236\nsVobjective\np33237\nI2\nsVmax_bid\np33238\nV65\np33239\nsVad_id\np33240\nI6007597268765\nsVaccount_id\np33241\nI40156177\nsVstart_time\np33242\nNsVlocations\np33243\n(lp33244\nI3\nasVadgroup_status\np33245\nI1\nsVad_status\np33246\nI1\nsVimpression_control_map\np33247\n(lp33248\n(dp33249\nVcontrol\np33250\n(dp33251\nVuser_impression_limit_period\np33252\nI24\nsVuser_impression_limit\np33253\nI6\nsVuser_impression_limit_period_unit\np33254\nI0\nsVimpression_control_type\np33255\nI2\nssVlocation\np33256\nI3\nsasVcreative_ids\np33257\n(lp33258\nI6007597268365\nasVtracking_pixel_ids\np33259\n(lp33260\nsVbid_type\np33261\nI1\nsVname\np33262\nVgotham city\np33263\nsVupdated_time\np33264\nV2013-01-07T18:02:59+0000\np33265\nsVend_time\np33266\nNsa(dp33267\nVbid_info\np33268\n(dp33269\nV1\np33270\nV65\np33271\nssVcampaign_id\np33272\nI6007597438965\nsVlast_updated_by_app_id\np33273\nI6802152230\nsVcreated_time\np33274\nV2013-01-07T18:09:10+0000\np33275\nsVconversion_specs\np33276\n(lp33277\nsVadgroup_id\np33278\nI6007597439965\nsVtargeting\np33279\n(dp33280\nVkeywords\np33281\n(lp33282\nV#X-Men: The Last Stand\np33283\naV#X-Men (film)\np33284\naV#X-Men Origins: Wolverine\np33285\naV#Marvel Comics\np33286\naV#X-Men: Evolution\np33287\naV#X-Men (film series)\np33288\naV#X-Men: First Class\np33289\naV#Marvel Studios\np33290\naV#X-Men: Legacy\np33291\naV#Thor (Marvel Comics)\np33292\naV#Marvel Universe\np33293\naV#Wolverine (comics)\np33294\naV#X-Men\np33295\naV#X-Men (TV series)\np33296\naV#Marvel: Avengers Alliance\np33297\naV#Wolverine and the X-Men (TV series)\np33298\nasVage_max\np33299\nI65\nsVcountries\np33300\n(lp33301\nVUS\np33302\nasVbroad_age\np33303\nI1\nsVage_min\np33304\nI13\nssVid\np33305\nV6007597439965\np33306\nsVobjective\np33307\nI2\nsVmax_bid\np33308\nV65\np33309\nsVad_id\np33310\nI6007597439965\nsVaccount_id\np33311\nI40156177\nsVstart_time\np33312\nNsVlocations\np33313\n'
p6
sS'hash'
p7
S'3366763720ff57e41930a294da971bf6c8a8acdf'
p8
sS'stack'
p9
S''
s.