(dp1
S'args'
p2
S''
sS'methodname'
p3
S''
sS'packet_num'
p4
I86
sS'returnval'
p5
S'8\naV#CollegeHumor\np16509\naV#LinkedIn\np16510\naV#Michael Scott (The Office)\np16511\naV#Cracked.com\np16512\naV#AT&T U-verse\np16513\naV#Reddit\np16514\naV#The Devil Wears Prada (novel)\np16515\naV#BuzzFeed\np16516\naV#Funny or Die\np16517\naV#Will Arnett\np16518\naV#AT&T\np16519\naV#Monster.com\np16520\naV#The Office (UK TV series)\np16521\nasVage_max\np16522\nI65\nsVcountries\np16523\n(lp16524\nVUS\np16525\nasVbroad_age\np16526\nI1\nsVage_min\np16527\nI13\nssVid\np16528\nV6007135562365\np16529\nsVobjective\np16530\nI2\nsVmax_bid\np16531\nV100\np16532\nsVad_id\np16533\nI6007135562365\nsVaccount_id\np16534\nI40156177\nsVstart_time\np16535\nNsVlocations\np16536\n(lp16537\nI3\nasVadgroup_status\np16538\nI9\nsVad_status\np16539\nI2\nsVimpression_control_map\np16540\n(lp16541\n(dp16542\nVcontrol\np16543\n(dp16544\nVuser_impression_limit_period\np16545\nI24\nsVuser_impression_limit\np16546\nI6\nsVuser_impression_limit_period_unit\np16547\nI0\nsVimpression_control_type\np16548\nI2\nssVlocation\np16549\nI3\nsasVcreative_ids\np16550\n(lp16551\nI6007135561965\nasVtracking_pixel_ids\np16552\n(lp16553\nsVbid_type\np16554\nI1\nsVname\np16555\nVgirl\np16556\nsVupdated_time\np16557\nV2012-12-21T20:03:09+0000\np16558\nsVend_time\np16559\nV2012-12-25T04:30:00+0000\np16560\nsa(dp16561\nVbid_info\np16562\n(dp16563\nV1\np16564\nV110\np16565\nssVcampaign_id\np16566\nI6007135561165\nsVlast_updated_by_app_id\np16567\nI6802152230\nsVcreated_time\np16568\nV2012-12-19T14:45:03+0000\np16569\nsVconversion_specs\np16570\n(lp16571\nsVadgroup_id\np16572\nI6007135630965\nsVtargeting\np16573\n(dp16574\nVkeywords\np16575\n(lp16576\nV#Dwight Schrute\np16577\naV#CareerBuilder\np16578\naV#The Devil Wears Prada (film)\np16579\naV#Mashable\np16580\naV#Internet meme\np16581\naV#Digg\np16582\naV#Personal assistant\np16583\naVfunny stories\np16584\naV#The Office (U.S. TV series)\np16585\naV#The Onion\np16586\naV#Office Space\np16587\naV#CollegeHumor\np16588\naV#LinkedIn\np16589\naV#Michael Scott (The Office)\np16590\naV#Cracked.com\np16591\naV#AT&T U-verse\np16592\naV#Reddit\np16593\naV#The Devil Wears Prada (novel)\np16594\naV#BuzzFeed\np16595\naV#Funny or Die\np16596\naV#Will Arnett\np16597\naV#AT&T\np16598\nasVage_max\np16599\nI65\nsVcountries\np16600\n(lp16601\nVUS\np16602\nasVbroad_age\np16603\nI1\nsVage_min\np16604\nI13\nssVid\np16605\nV6007135630965\np16606\nsVobjective\np16607\nI2\nsVmax_bid\np16608\nV110\np16609\nsVad_id\np16610\nI6007135630965\nsVaccount_id\np16611\nI40156177\nsVstart_time\np16612\nNsVlocations\np16613\n(lp16614\nI3\nasVadgroup_status\np16615\nI9\nsVad_status\np16616\nI2\nsVimpression_control_map\np16617\n(lp16618\n(dp16619\nVcontrol\np16620\n(dp16621\nVuser_impression_limit_period\np16622\nI24\nsVuser_impression_limit\np16623\nI6\nsVuser_impression_limit_period_unit\np16624\nI0\nsVimpression_control_type\np16625\nI2\nssVlocation\np16626\nI3\nsasVcreative_ids\np16627\n(lp16628\nI6007135630565\nasVtracking_pixel_ids\np16629\n(lp16630\nsVbid_type\np16631\nI1\nsVname\np16632\nVchin hairs\np16633\nsVupdated_time\np16634\nV2012-12-21T20:03:13+0000\np16635\nsVend_time\np16636\nV2012-12-25T04:30:00+0000\np16637\nsa(dp16638\nVbid_info\np16639\n(dp16640\nV1\np16641\nV110\np16642\nssVcampaign_id\np16643\nI6007135561165\nsVlast_updated_by_app_id\np16644\nI6802152230\nsVcreated_time\np16645\nV2012-12-20T15:12:50+0000\np16646\nsVconversion_specs\np16647\n(lp16648\nsVadgroup_id\np16649\nI6007160815765\nsVtargeting\np16650\n(dp16651\nVage_max\np16652\nI65\nsVcountries\np16653\n(lp16654\nVUS\np16655\nasVbroad_age\np16656\nI1\nsVage_min\np16657\nI13\nssVid\np16658\nV6007160815765\np16659\nsVobjective\np16660\nI2\nsVmax_bid\np16661\nV110\np16662\nsVad_id\np16663\nI6007160815765\nsVaccount_id\np16664\nI40156177\nsVstart_time\np16665\nNsVlocations\np16666\n(lp16667\nI3\nasVadgroup_status\np16668\nI9\nsVad_status\np16669\nI2\nsVimpression_control_map\np16670\n(lp16671\n(dp16672\nVcontrol\np16673\n(dp16674\nVuser_impression_limit_period\np16675\nI24\nsVuser_impression_limit\np16676\nI3\nsVuser_impression_limit_period_unit\np16677\nI0\nsVimpression_control_type\np16678\nI2\nssVlocation\np16679\nI3\nsasVcreative_ids\np16680\n(lp16681\nI6007135561965\nasVtracking_pixel_ids\np16682\n(lp16683\nsVbid_type\np16684\nI1\nsVname\np16685\nVgirl - general\np16686\nsVupdated_time\np16687\nV2012-12-21T20:03:08+0000\np16688\nsVend_time\np16689\nV2012-12-25T04:30:00+0000\np16690\nsa(dp16691\nVbid_info\np16692\n(dp16693\nV1\np16694\nV100\np16695\nssVcampaign_'
p6
sS'hash'
p7
S'3366763720ff57e41930a294da971bf6c8a8acdf'
p8
sS'stack'
p9
S''
s.