(dp1
S'args'
p2
S''
sS'methodname'
p3
S''
sS'packet_num'
p4
I180
sS'returnval'
p5
S'r\np33677\naV#Digg\np33678\naV#The Onion\np33679\naV#CollegeHumor\np33680\naV#Stingray\np33681\naV#Fark\np33682\naV#Cracked.com\np33683\naV#Marine biology\np33684\naV#Reddit\np33685\naV#BuzzFeed\np33686\naV#Meme\np33687\naV#Funny or Die\np33688\naV#Shutterfly\np33689\nasVage_max\np33690\nI65\nsVcountries\np33691\n(lp33692\nVUS\np33693\nasVbroad_age\np33694\nI1\nsVage_min\np33695\nI13\nssVid\np33696\nV6007670955565\np33697\nsVobjective\np33698\nI2\nsVmax_bid\np33699\nV65\np33700\nsVad_id\np33701\nI6007670955565\nsVaccount_id\np33702\nI40156177\nsVstart_time\np33703\nNsVlocations\np33704\n(lp33705\nI3\nasVadgroup_status\np33706\nI1\nsVad_status\np33707\nI1\nsVimpression_control_map\np33708\n(lp33709\n(dp33710\nVcontrol\np33711\n(dp33712\nVuser_impression_limit_period\np33713\nI24\nsVuser_impression_limit\np33714\nI3\nsVuser_impression_limit_period_unit\np33715\nI0\nsVimpression_control_type\np33716\nI2\nssVlocation\np33717\nI3\nsasVcreative_ids\np33718\n(lp33719\nI6007597645965\nasVtracking_pixel_ids\np33720\n(lp33721\nsVbid_type\np33722\nI1\nsVname\np33723\nVhttp://www.buzzfeed.com/h1/fbad/shameless/the-15-most-shameless-people-of-2012 - Ad 1\np33724\nsVupdated_time\np33725\nV2013-01-10T15:48:13+0000\np33726\nsVend_time\np33727\nNsa(dp33728\nVbid_info\np33729\n(dp33730\nV1\np33731\nV65\np33732\nssVcampaign_id\np33733\nI6007597737965\nsVlast_updated_by_app_id\np33734\nI209787012415271\nsVcreated_time\np33735\nV2013-01-07T18:25:21+0000\np33736\nsVconversion_specs\np33737\n(lp33738\nsVadgroup_id\np33739\nI6007597738965\nsVtargeting\np33740\n(dp33741\nVkeywords\np33742\n(lp33743\nV#Breaking Bad\np33744\naV#Emmy Rossum\np33745\naV#Cinemax\np33746\naV#Showtime Networks\np33747\naV#Showtime (TV channel)\np33748\naV#Skins (TV series)\np33749\naV#William H. Macy\np33750\naV#HBO\np33751\naV#Justin Chatwin\np33752\naV#Shameless (U.S. TV series)\np33753\naV#Showtime (TV network)\np33754\naV#Starz (TV channel)\np33755\naV#Shameless (TV series)\np33756\naV#Frank Gallagher (Shameless)\np33757\naV#Mickey Maguire (Shameless)\np33758\nasVage_max\np33759\nI65\nsVcountries\np33760\n(lp33761\nVUS\np33762\nasVbroad_age\np33763\nI1\nsVage_min\np33764\nI13\nssVid\np33765\nV6007597738965\np33766\nsVobjective\np33767\nI2\nsVmax_bid\np33768\nV65\np33769\nsVad_id\np33770\nI6007597738965\nsVaccount_id\np33771\nI40156177\nsVstart_time\np33772\nNsVlocations\np33773\n(lp33774\nI3\nasVadgroup_status\np33775\nI1\nsVad_status\np33776\nI1\nsVimpression_control_map\np33777\n(lp33778\n(dp33779\nVcontrol\np33780\n(dp33781\nVuser_impression_limit_period\np33782\nI24\nsVuser_impression_limit\np33783\nI3\nsVuser_impression_limit_period_unit\np33784\nI0\nsVimpression_control_type\np33785\nI2\nssVlocation\np33786\nI3\nsasVcreative_ids\np33787\n(lp33788\nI6007597738565\nasVtracking_pixel_ids\np33789\n(lp33790\nsVbid_type\np33791\nI1\nsVname\np33792\nVhttp://www.buzzfeed.com/h1/fbad/shameless/our-favorite-moments-from-shameless-thus-far - Ad\np33793\nsVupdated_time\np33794\nV2013-01-07T18:28:47+0000\np33795\nsVend_time\np33796\nNsa(dp33797\nVbid_info\np33798\n(dp33799\nV1\np33800\nV65\np33801\nssVcampaign_id\np33802\nI6007597737965\nsVlast_updated_by_app_id\np33803\nI209787012415271\nsVcreated_time\np33804\nV2013-01-07T21:32:24+0000\np33805\nsVconversion_specs\np33806\n(lp33807\nsVadgroup_id\np33808\nI6007601180165\nsVtargeting\np33809\n(dp33810\nVkeywords\np33811\n(lp33812\nV#Boardwalk Empire\np33813\naV#Breaking Bad\np33814\naV#Emmy Rossum\np33815\naV#Cinemax\np33816\naV#Showtime Networks\np33817\naV#Showtime (TV channel)\np33818\naV#Skins (TV series)\np33819\naV#Dexter (TV series)\np33820\naV#William H. Macy\np33821\naV#Weeds (TV series)\np33822\naV#Mad Men\np33823\naV#HBO\np33824\naV#Justin Chatwin\np33825\naV#Shameless (U.S. TV series)\np33826\naV#How to Make It in America\np33827\naV#Showtime (TV network)\np33828\naV#Starz (TV channel)\np33829\naV#Game of Thrones (TV series)\np33830\naV#Shameless (TV series)\np33831\naV#Frank Gallagher (Shameless)\np33832\naV#Mickey Maguire (Shameless)\np33833\nasVage_max\np33834\nI65\nsVcountries\np33835\n(lp33836\nVUS\np33837\nasVbroad_age\np33838\nI1\nsVage_min\np33839\nI13\nssVid\np33840\nV6007601180165\np33841\nsVobjective\np33842\nI2\nsVmax_bid\np33843\nV65\np33844\nsVad_id\np33845\nI6007601180165\nsVaccount_id\np33846\nI40156177\nsVstart_time\np33847\nNsVlocations\np33848\n(lp33849\nI3\nasVadgroup_status\np33850\nI1\nsVad_status\np33851\nI1\nsVimpression_control_map\np33852\n(lp33853\n(d'
p6
sS'hash'
p7
S'3366763720ff57e41930a294da971bf6c8a8acdf'
p8
sS'stack'
p9
S''
s.