(dp1
S'args'
p2
S''
sS'methodname'
p3
S''
sS'packet_num'
p4
I131
sS'returnval'
p5
S'status\np24826\nI1\nsVad_status\np24827\nI1\nsVimpression_control_map\np24828\n(lp24829\n(dp24830\nVcontrol\np24831\n(dp24832\nVuser_impression_limit_period\np24833\nI24\nsVuser_impression_limit\np24834\nI6\nsVuser_impression_limit_period_unit\np24835\nI0\nsVimpression_control_type\np24836\nI2\nssVlocation\np24837\nI3\nsasVcreative_ids\np24838\n(lp24839\nI6007372226565\nasVtracking_pixel_ids\np24840\n(lp24841\nsVbid_type\np24842\nI1\nsVname\np24843\nVbloodsport\np24844\nsVupdated_time\np24845\nV2012-12-28T17:08:24+0000\np24846\nsVend_time\np24847\nNsa(dp24848\nVbid_info\np24849\n(dp24850\nV1\np24851\nV65\np24852\nssVcampaign_id\np24853\nI6007372359365\nsVlast_updated_by_app_id\np24854\nI6802152230\nsVcreated_time\np24855\nV2012-12-28T17:13:28+0000\np24856\nsVconversion_specs\np24857\n(lp24858\nsVadgroup_id\np24859\nI6007372360565\nsVtargeting\np24860\n(dp24861\nVkeywords\np24862\n(lp24863\nV#Inception\np24864\naV#Gene Siskel\np24865\naV#Fargo (film)\np24866\naV#Movies\np24867\naV#Aaron Sorkin\np24868\naV#Martin Scorsese\np24869\naV#Roger Ebert\np24870\naV#Alfred Hitchcock\np24871\naV#The Hurt Locker\np24872\naV#Alan Ball (screenwriter)\np24873\naV#No Country for Old Men\np24874\naV#Pulp Fiction\np24875\naV#Vince Gilligan\np24876\naV#Akira Kurosawa\np24877\naV#Quentin Tarantino\np24878\naV#The Social Network\np24879\naV#Inglourious Basterds\np24880\naV#Film studies\np24881\naV#Kill Bill Volume 2\np24882\naV#Kill Bill\np24883\naV#Francis Ford Coppola\np24884\naV#Fight Club (film)\np24885\naV#Coen brothers\np24886\naV#David Fincher\np24887\naV#American Beauty (film)\np24888\naV#Bill (Kill Bill)\np24889\naV#The Departed\np24890\naV#Kill Bill Volume 1\np24891\naV#Variety Film Reviews\np24892\naV#Rotten Tomatoes\np24893\naV#Paul Thomas Anderson\np24894\nasVage_max\np24895\nI65\nsVcountries\np24896\n(lp24897\nVUS\np24898\nasVbroad_age\np24899\nI1\nsVage_min\np24900\nI13\nssVid\np24901\nV6007372360565\np24902\nsVobjective\np24903\nI2\nsVmax_bid\np24904\nV65\np24905\nsVad_id\np24906\nI6007372360565\nsVaccount_id\np24907\nI40156177\nsVstart_time\np24908\nNsVlocations\np24909\n(lp24910\nI3\nasVadgroup_status\np24911\nI1\nsVad_status\np24912\nI1\nsVimpression_control_map\np24913\n(lp24914\n(dp24915\nVcontrol\np24916\n(dp24917\nVuser_impression_limit_period\np24918\nI24\nsVuser_impression_limit\np24919\nI6\nsVuser_impression_limit_period_unit\np24920\nI0\nsVimpression_control_type\np24921\nI2\nssVlocation\np24922\nI3\nsasVcreative_ids\np24923\n(lp24924\nI6007372360165\nasVtracking_pixel_ids\np24925\n(lp24926\nsVbid_type\np24927\nI1\nsVname\np24928\nVquentin 1\np24929\nsVupdated_time\np24930\nV2012-12-28T17:17:37+0000\np24931\nsVend_time\np24932\nNsa(dp24933\nVbid_info\np24934\n(dp24935\nV1\np24936\nV65\np24937\nssVcampaign_id\np24938\nI6007372359365\nsVlast_updated_by_app_id\np24939\nI6802152230\nsVcreated_time\np24940\nV2012-12-28T17:13:58+0000\np24941\nsVconversion_specs\np24942\n(lp24943\nsVadgroup_id\np24944\nI6007372368565\nsVtargeting\np24945\n(dp24946\nVkeywords\np24947\n(lp24948\nV#Inception\np24949\naV#Gene Siskel\np24950\naV#Fargo (film)\np24951\naV#Movies\np24952\naV#Aaron Sorkin\np24953\naV#Martin Scorsese\np24954\naV#Roger Ebert\np24955\naV#Alfred Hitchcock\np24956\naV#The Hurt Locker\np24957\naV#Alan Ball (screenwriter)\np24958\naV#No Country for Old Men\np24959\naV#Pulp Fiction\np24960\naV#Vince Gilligan\np24961\naV#Akira Kurosawa\np24962\naV#Quentin Tarantino\np24963\naV#The Social Network\np24964\naV#Inglourious Basterds\np24965\naV#Film studies\np24966\naV#Kill Bill Volume 2\np24967\naV#Kill Bill\np24968\naV#Francis Ford Coppola\np24969\naV#Fight Club (film)\np24970\naV#Coen brothers\np24971\naV#David Fincher\np24972\naV#American Beauty (film)\np24973\naV#Bill (Kill Bill)\np24974\naV#The Departed\np24975\naV#Kill Bill Volume 1\np24976\naV#Variety Film Reviews\np24977\naV#Rotten Tomatoes\np24978\naV#Paul Thomas Anderson\np24979\nasVage_max\np24980\nI65\nsVcountries\np24981\n(lp24982\nVUS\np24983\nasVbroad_age\np24984\nI1\nsVage_min\np24985\nI13\nssVid\np24986\nV6007372368565\np24987\nsVobjective\np24988\nI2\nsVmax_bid\np24989\nV65\np24990\nsVad_id\np24991\nI6007372368565\nsVaccount_id\np24992\nI40156177\nsVstart_time\np24993\nNsVlocations\np24994\n(lp24995\nI3\nasVadgroup_status\np24996\nI1\nsVad_status\np24997\nI1\nsVimpression_control_map\np24998\n(lp24999\n(dp25000\nVcontrol\np25001\n(dp25002\nVuser_impression_limit_period\np25003\nI24\nsVuser_impression_limit\np25004\nI6\nsVuser'
p6
sS'hash'
p7
S'3366763720ff57e41930a294da971bf6c8a8acdf'
p8
sS'stack'
p9
S''
s.