(dp1
S'args'
p2
S''
sS'methodname'
p3
S''
sS'packet_num'
p4
I122
sS'returnval'
p5
S'\np23134\naV#TMZ (website)\np23135\nasVage_max\np23136\nI65\nsVcountries\np23137\n(lp23138\nVUS\np23139\nasVbroad_age\np23140\nI1\nsVage_min\np23141\nI13\nssVid\np23142\nV6007306681165\np23143\nsVobjective\np23144\nI2\nsVmax_bid\np23145\nV78\np23146\nsVad_id\np23147\nI6007306681165\nsVaccount_id\np23148\nI40156177\nsVstart_time\np23149\nNsVlocations\np23150\n(lp23151\nI3\nasVadgroup_status\np23152\nI1\nsVad_status\np23153\nI1\nsVimpression_control_map\np23154\n(lp23155\n(dp23156\nVcontrol\np23157\n(dp23158\nVuser_impression_limit_period\np23159\nI24\nsVuser_impression_limit\np23160\nI6\nsVuser_impression_limit_period_unit\np23161\nI0\nsVimpression_control_type\np23162\nI2\nssVlocation\np23163\nI3\nsasVcreative_ids\np23164\n(lp23165\nI6007306680765\nasVtracking_pixel_ids\np23166\n(lp23167\nsVbid_type\np23168\nI1\nsVname\np23169\nVjess jenn\np23170\nsVupdated_time\np23171\nV2012-12-28T20:12:30+0000\np23172\nsVend_time\np23173\nNsa(dp23174\nVbid_info\np23175\n(dp23176\nV1\np23177\nV80\np23178\nssVcampaign_id\np23179\nI6007308443165\nsVlast_updated_by_app_id\np23180\nI209787012415271\nsVcreated_time\np23181\nV2013-01-03T16:04:59+0000\np23182\nsVconversion_specs\np23183\n(lp23184\nsVadgroup_id\np23185\nI6007504189965\nsVtargeting\np23186\n(dp23187\nVkeywords\np23188\n(lp23189\nV#Mashable\np23190\naV#Monster Energy\np23191\naV#Drinking\np23192\naV#Newcastle Brown Ale\np23193\naV#BuzzFeed\np23194\naV#Gawker\np23195\naV#Alcohol intoxication\np23196\naV#Deadspin\np23197\naV#HootSuite\np23198\naV#Instagram\np23199\naV#Pinterest\np23200\nasVage_max\np23201\nI65\nsVcountries\np23202\n(lp23203\nVUS\np23204\nasVbroad_age\np23205\nI1\nsVage_min\np23206\nI21\nssVid\np23207\nV6007504189965\np23208\nsVobjective\np23209\nI2\nsVmax_bid\np23210\nV80\np23211\nsVad_id\np23212\nI6007504189965\nsVaccount_id\np23213\nI40156177\nsVstart_time\np23214\nNsVlocations\np23215\n(lp23216\nI3\nasVadgroup_status\np23217\nI1\nsVad_status\np23218\nI1\nsVimpression_control_map\np23219\n(lp23220\n(dp23221\nVcontrol\np23222\n(dp23223\nVuser_impression_limit_period\np23224\nI24\nsVuser_impression_limit\np23225\nI3\nsVuser_impression_limit_period_unit\np23226\nI0\nsVimpression_control_type\np23227\nI2\nssVlocation\np23228\nI3\nsasVcreative_ids\np23229\n(lp23230\nI6007504189565\nasVtracking_pixel_ids\np23231\n(lp23232\nsVbid_type\np23233\nI1\nsVname\np23234\nVhttp://ad.doubleclick.net/clk;266629037;92602821;k - Ad 1\np23235\nsVupdated_time\np23236\nV2013-01-03T16:08:56+0000\np23237\nsVend_time\np23238\nNsa(dp23239\nVbid_info\np23240\n(dp23241\nV1\np23242\nV80\np23243\nssVcampaign_id\np23244\nI6007308443165\nsVlast_updated_by_app_id\np23245\nI209787012415271\nsVcreated_time\np23246\nV2013-01-03T21:47:17+0000\np23247\nsVconversion_specs\np23248\n(lp23249\nsVadgroup_id\np23250\nI6007510927765\nsVtargeting\np23251\n(dp23252\nVkeywords\np23253\n(lp23254\nV#Beer pong\np23255\naV#The Hangover\np23256\naV#Monster Energy\np23257\naV#Drinking\np23258\naV#Newcastle Brown Ale\np23259\naV#BuzzFeed\np23260\naV#Gawker\np23261\naV#Alcohol intoxication\np23262\naV#Deadspin\np23263\naV#Beerfest\np23264\naV#HootSuite\np23265\naV#Instagram\np23266\naV#Pinterest\np23267\naV#Beer pong (paddles)\np23268\nasVage_max\np23269\nI65\nsVcountries\np23270\n(lp23271\nVUS\np23272\nasVbroad_age\np23273\nI1\nsVage_min\np23274\nI21\nssVid\np23275\nV6007510927765\np23276\nsVobjective\np23277\nI2\nsVmax_bid\np23278\nV80\np23279\nsVad_id\np23280\nI6007510927765\nsVaccount_id\np23281\nI40156177\nsVstart_time\np23282\nNsVlocations\np23283\n(lp23284\nI3\nasVadgroup_status\np23285\nI1\nsVad_status\np23286\nI1\nsVimpression_control_map\np23287\n(lp23288\n(dp23289\nVcontrol\np23290\n(dp23291\nVuser_impression_limit_period\np23292\nI24\nsVuser_impression_limit\np23293\nI3\nsVuser_impression_limit_period_unit\np23294\nI0\nsVimpression_control_type\np23295\nI2\nssVlocation\np23296\nI3\nsasVcreative_ids\np23297\n(lp23298\nI6007510927365\nasVtracking_pixel_ids\np23299\n(lp23300\nsVbid_type\np23301\nI1\nsVname\np23302\nVhttp://ad.doubleclick.net/clk;266629037;92602821;k - Ad 2\np23303\nsVupdated_time\np23304\nV2013-01-03T21:52:21+0000\np23305\nsVend_time\np23306\nNsa(dp23307\nVbid_info\np23308\n(dp23309\nV1\np23310\nV80\np23311\nssVcampaign_id\np23312\nI6007308443165\nsVlast_updated_by_app_id\np23313\nI6802152230\nsVcreated_time\np23314\nV2012-12-26T20:35:13+0000\np23315\nsVconversion_specs\np23316\n(lp23317\nsVadgroup_id\np23318\nI6007308444165\nsVtargeting\np23319\n(dp23320\nVkeywords\np23321\n(lp2332'
p6
sS'hash'
p7
S'3366763720ff57e41930a294da971bf6c8a8acdf'
p8
sS'stack'
p9
S''
s.