(dp1
S'args'
p2
S''
sS'methodname'
p3
S''
sS'packet_num'
p4
I132
sS'returnval'
p5
S'_impression_limit_period_unit\np25005\nI0\nsVimpression_control_type\np25006\nI2\nssVlocation\np25007\nI3\nsasVcreative_ids\np25008\n(lp25009\nI6007372368165\nasVtracking_pixel_ids\np25010\n(lp25011\nsVbid_type\np25012\nI1\nsVname\np25013\nVquentin 2\np25014\nsVupdated_time\np25015\nV2012-12-28T17:17:37+0000\np25016\nsVend_time\np25017\nNsa(dp25018\nVbid_info\np25019\n(dp25020\nV1\np25021\nV65\np25022\nssVcampaign_id\np25023\nI6007372359365\nsVlast_updated_by_app_id\np25024\nI6802152230\nsVcreated_time\np25025\nV2012-12-28T17:15:40+0000\np25026\nsVconversion_specs\np25027\n(lp25028\nsVadgroup_id\np25029\nI6007372405765\nsVtargeting\np25030\n(dp25031\nVkeywords\np25032\n(lp25033\nV#Inception\np25034\naV#Gene Siskel\np25035\naV#Fargo (film)\np25036\naV#Movies\np25037\naV#Janet Leigh\np25038\naV#Aaron Sorkin\np25039\naV#Martin Scorsese\np25040\naV#Roger Ebert\np25041\naV#Alfred Hitchcock\np25042\naV#The Hurt Locker\np25043\naV#Alan Ball (screenwriter)\np25044\naV#Turner Classic Movies\np25045\naV#No Country for Old Men\np25046\naV#Pulp Fiction\np25047\naV#Vince Gilligan\np25048\naV#Akira Kurosawa\np25049\naV#Quentin Tarantino\np25050\naV#The Social Network\np25051\naV#Inglourious Basterds\np25052\naV#Film studies\np25053\naV#Kill Bill Volume 2\np25054\naV#Kill Bill\np25055\naV#Francis Ford Coppola\np25056\naV#Fight Club (film)\np25057\naV#Coen brothers\np25058\naV#David Fincher\np25059\naV#American Beauty (film)\np25060\naV#Bill (Kill Bill)\np25061\naV#The Departed\np25062\naV#Kill Bill Volume 1\np25063\naV#Variety Film Reviews\np25064\naV#Rotten Tomatoes\np25065\naV#Psycho (film)\np25066\naV#The Birds (film)\np25067\naV#Paul Thomas Anderson\np25068\nasVage_max\np25069\nI65\nsVcountries\np25070\n(lp25071\nVUS\np25072\nasVbroad_age\np25073\nI1\nsVage_min\np25074\nI13\nssVid\np25075\nV6007372405765\np25076\nsVobjective\np25077\nI2\nsVmax_bid\np25078\nV65\np25079\nsVad_id\np25080\nI6007372405765\nsVaccount_id\np25081\nI40156177\nsVstart_time\np25082\nNsVlocations\np25083\n(lp25084\nI3\nasVadgroup_status\np25085\nI1\nsVad_status\np25086\nI1\nsVimpression_control_map\np25087\n(lp25088\n(dp25089\nVcontrol\np25090\n(dp25091\nVuser_impression_limit_period\np25092\nI24\nsVuser_impression_limit\np25093\nI6\nsVuser_impression_limit_period_unit\np25094\nI0\nsVimpression_control_type\np25095\nI2\nssVlocation\np25096\nI3\nsasVcreative_ids\np25097\n(lp25098\nI6007372405365\nasVtracking_pixel_ids\np25099\n(lp25100\nsVbid_type\np25101\nI1\nsVname\np25102\nVhitchcock\np25103\nsVupdated_time\np25104\nV2012-12-28T17:20:20+0000\np25105\nsVend_time\np25106\nNsa(dp25107\nVbid_info\np25108\n(dp25109\nV1\np25110\nV65\np25111\nssVcampaign_id\np25112\nI6007372493565\nsVlast_updated_by_app_id\np25113\nI6802152230\nsVcreated_time\np25114\nV2012-12-28T17:21:58+0000\np25115\nsVconversion_specs\np25116\n(lp25117\nsVadgroup_id\np25118\nI6007372494565\nsVtargeting\np25119\n(dp25120\nVkeywords\np25121\n(lp25122\nV#Raging Bull\np25123\naV#Seven (film)\np25124\naV#Movies\np25125\naV#Taxi Driver\np25126\naV#Reservoir Dogs\np25127\naV#A Fistful of Dollars\np25128\naV#Imgur\np25129\naV#Turner Classic Movies\np25130\naV#Reddit\np25131\naV#Kevin Spacey\np25132\naV#Film studies\np25133\naV#Benicio del Toro\np25134\naV#The Usual Suspects\np25135\naV#BuzzFeed\np25136\naV#Goodfellas\np25137\naV#American Beauty (film)\np25138\naV#Fight Club\np25139\naV#Rotten Tomatoes\np25140\naV#Casino (film)\np25141\nasVage_max\np25142\nI65\nsVcountries\np25143\n(lp25144\nVUS\np25145\nasVbroad_age\np25146\nI1\nsVage_min\np25147\nI13\nssVid\np25148\nV6007372494565\np25149\nsVobjective\np25150\nI2\nsVmax_bid\np25151\nV65\np25152\nsVad_id\np25153\nI6007372494565\nsVaccount_id\np25154\nI40156177\nsVstart_time\np25155\nNsVlocations\np25156\n(lp25157\nI3\nasVadgroup_status\np25158\nI1\nsVad_status\np25159\nI1\nsVimpression_control_map\np25160\n(lp25161\n(dp25162\nVcontrol\np25163\n(dp25164\nVuser_impression_limit_period\np25165\nI24\nsVuser_impression_limit\np25166\nI6\nsVuser_impression_limit_period_unit\np25167\nI0\nsVimpression_control_type\np25168\nI2\nssVlocation\np25169\nI3\nsasVcreative_ids\np25170\n(lp25171\nI6007372494165\nasVtracking_pixel_ids\np25172\n(lp25173\nsVbid_type\np25174\nI1\nsVname\np25175\nVusual suspects\np25176\nsVupdated_time\np25177\nV2012-12-28T17:28:34+0000\np25178\nsVend_time\np25179\nNsa(dp25180\nVbid_info\np25181\n(dp25182\nV1\np25183\nV65\np25184\nssVcampaign_id\np25185\nI6007372493565\nsVlast_updated_by_app_id\np25186\nI2097870124'
p6
sS'hash'
p7
S'3366763720ff57e41930a294da971bf6c8a8acdf'
p8
sS'stack'
p9
S''
s.