(dp1
S'args'
p2
S''
sS'methodname'
p3
S''
sS'packet_num'
p4
I102
sS'returnval'
p5
S'time\np19478\nNsVlocations\np19479\n(lp19480\nI3\nasVadgroup_status\np19481\nI8\nsVad_status\np19482\nI2\nsVimpression_control_map\np19483\n(lp19484\n(dp19485\nVcontrol\np19486\n(dp19487\nVuser_impression_limit_period\np19488\nI24\nsVuser_impression_limit\np19489\nI3\nsVuser_impression_limit_period_unit\np19490\nI0\nsVimpression_control_type\np19491\nI2\nssVlocation\np19492\nI3\nsasVcreative_ids\np19493\n(lp19494\nI6007164283365\nasVtracking_pixel_ids\np19495\n(lp19496\nsVbid_type\np19497\nI1\nsVname\np19498\nVhttp://www.buzzfeed.com/h1/fbad/boxee/important-steps-in-the-history-of-television - Ad\np19499\nsVupdated_time\np19500\nV2012-12-27T18:08:58+0000\np19501\nsVend_time\np19502\nV2012-12-28T07:31:00+0000\np19503\nsa(dp19504\nVbid_info\np19505\n(dp19506\nV1\np19507\nV100\np19508\nssVcampaign_id\np19509\nI6007164282765\nsVlast_updated_by_app_id\np19510\nI6802152230\nsVcreated_time\np19511\nV2012-12-20T18:34:37+0000\np19512\nsVconversion_specs\np19513\n(lp19514\nsVadgroup_id\np19515\nI6007164288565\nsVtargeting\np19516\n(dp19517\nVkeywords\np19518\n(lp19519\nV#Television channel\np19520\naV#Television program\np19521\naV#Television\np19522\naV#Live television\np19523\naV#PBS\np19524\nasVage_max\np19525\nI65\nsVcountries\np19526\n(lp19527\nVUS\np19528\nasVbroad_age\np19529\nI1\nsVage_min\np19530\nI13\nssVid\np19531\nV6007164288565\np19532\nsVobjective\np19533\nI2\nsVmax_bid\np19534\nV100\np19535\nsVad_id\np19536\nI6007164288565\nsVaccount_id\np19537\nI40156177\nsVstart_time\np19538\nNsVlocations\np19539\n(lp19540\nI3\nasVadgroup_status\np19541\nI8\nsVad_status\np19542\nI2\nsVimpression_control_map\np19543\n(lp19544\n(dp19545\nVcontrol\np19546\n(dp19547\nVuser_impression_limit_period\np19548\nI24\nsVuser_impression_limit\np19549\nI3\nsVuser_impression_limit_period_unit\np19550\nI0\nsVimpression_control_type\np19551\nI2\nssVlocation\np19552\nI3\nsasVcreative_ids\np19553\n(lp19554\nI6007164283365\nasVtracking_pixel_ids\np19555\n(lp19556\nsVbid_type\np19557\nI1\nsVname\np19558\nVhttp://www.buzzfeed.com/h1/fbad/boxee/important-steps-in-the-history-of-television - Ad 1\np19559\nsVupdated_time\np19560\nV2012-12-27T18:08:58+0000\np19561\nsVend_time\np19562\nV2012-12-28T07:31:00+0000\np19563\nsa(dp19564\nVbid_info\np19565\n(dp19566\nV1\np19567\nV80\np19568\nssVcampaign_id\np19569\nI6007164290365\nsVlast_updated_by_app_id\np19570\nI209787012415271\nsVcreated_time\np19571\nV2012-12-21T17:53:15+0000\np19572\nsVconversion_specs\np19573\n(lp19574\nsVadgroup_id\np19575\nI6007190232965\nsVtargeting\np19576\n(dp19577\nVage_max\np19578\nI65\nsVcountries\np19579\n(lp19580\nVUS\np19581\nasVbroad_age\np19582\nI1\nsVage_min\np19583\nI13\nsVkeywords\np19584\n(lp19585\nV#Stray Cats\np19586\naV#Cats (musical)\np19587\naV#Cute Is What We Aim For\np19588\naV#Cat\np19589\naVcats\np19590\naV#Cuteness\np19591\naV#Cats & Dogs\np19592\naV#Cats 101\np19593\naV#Cats Protection\np19594\nasVgenders\np19595\n(lp19596\nI2\nassVid\np19597\nV6007190232965\np19598\nsVobjective\np19599\nI2\nsVmax_bid\np19600\nV80\np19601\nsVad_id\np19602\nI6007190232965\nsVaccount_id\np19603\nI40156177\nsVstart_time\np19604\nNsVlocations\np19605\n(lp19606\nI3\nasVadgroup_status\np19607\nI1\nsVad_status\np19608\nI1\nsVimpression_control_map\np19609\n(lp19610\n(dp19611\nVcontrol\np19612\n(dp19613\nVuser_impression_limit_period\np19614\nI24\nsVuser_impression_limit\np19615\nI3\nsVuser_impression_limit_period_unit\np19616\nI0\nsVimpression_control_type\np19617\nI2\nssVlocation\np19618\nI3\nsasVcreative_ids\np19619\n(lp19620\nI6007190232565\nasVtracking_pixel_ids\np19621\n(lp19622\nsVbid_type\np19623\nI1\nsVname\np19624\nVhttp://www.buzzfeed.com/h1/fbad/oldnavy/17-adorable-animals-in-holiday-sweaters - Ad\np19625\nsVupdated_time\np19626\nV2012-12-21T17:54:18+0000\np19627\nsVend_time\np19628\nNsa(dp19629\nVbid_info\np19630\n(dp19631\nV1\np19632\nV80\np19633\nssVcampaign_id\np19634\nI6007164290365\nsVlast_updated_by_app_id\np19635\nI6802152230\nsVcreated_time\np19636\nV2012-12-20T18:34:53+0000\np19637\nsVconversion_specs\np19638\n(lp19639\nsVadgroup_id\np19640\nI6007164291365\nsVtargeting\np19641\n(dp19642\nVcountries\np19643\n(lp19644\nVUS\np19645\nasVgenders\np19646\n(lp19647\nI2\nasVage_min\np19648\nI13\nsVbroad_age\np19649\nI1\nsVage_max\np19650\nI65\nssVid\np19651\nV6007164291365\np19652\nsVobjective\np19653\nI2\nsVmax_bid\np19654\nV80\np19655\nsVad_id\np19656\nI6007164291365\nsVaccount_id\np19657\nI40156177\nsVstart_time\np19658\nNsVlocations\np19659\n(lp196'
p6
sS'hash'
p7
S'3366763720ff57e41930a294da971bf6c8a8acdf'
p8
sS'stack'
p9
S''
s.