(dp1
S'args'
p2
S''
sS'methodname'
p3
S''
sS'packet_num'
p4
I2
sS'returnval'
p5
S"66\np404\nsVad_id\np405\nI6006590605365\nsVaccount_id\np406\nI40156177\nsVstart_time\np407\nNsVlocations\np408\n(lp409\nI3\nasVadgroup_status\np410\nI1\nsVad_status\np411\nI1\nsVimpression_control_map\np412\n(lp413\n(dp414\nVcontrol\np415\n(dp416\nVuser_impression_limit_period\np417\nI24\nsVuser_impression_limit\np418\nI3\nsVuser_impression_limit_period_unit\np419\nI0\nsVimpression_control_type\np420\nI2\nssVlocation\np421\nI3\nsasVcreative_ids\np422\n(lp423\nI6006590604965\nasVtracking_pixel_ids\np424\n(lp425\nsVbid_type\np426\nI1\nsVname\np427\nVMusic General\np428\nsVupdated_time\np429\nV2012-12-05T14:41:06+0000\np430\nsVend_time\np431\nNsa(dp432\nVbid_info\np433\n(dp434\nV1\np435\nV66\np436\nssVcampaign_id\np437\nI6006590604365\nsVlast_updated_by_app_id\np438\nI6802152230\nsVcreated_time\np439\nV2012-12-04T16:52:58+0000\np440\nsVconversion_specs\np441\n(lp442\nsVadgroup_id\np443\nI6006590697565\nsVtargeting\np444\n(dp445\nVkeywords\np446\n(lp447\nV#Fleetwood Mac\np448\naV#The Doors\np449\naV#Bob Dylan\np450\naV#Queen (band)\np451\naV#The Beach Boys\np452\naV#Tom Lehrer\np453\naV#Toby Keith's I Love This Bar & Grill\np454\naV#Smile (The Beach Boys album)\np455\naV#Green Day\np456\naV#Tim McGraw\np457\naV#Simon & Garfunkel\np458\naV#The Essential Bob Dylan\np459\naV#The Beatles\np460\naV#Green Day discography\np461\naV#Bob Dylan's Dream\np462\naV#The Rolling Stones\np463\naV#LCD Soundsystem (album)\np464\naV#LCD Soundsystem discography\np465\naV#LCD Soundsystem\np466\naV#Mike + The Mechanics\np467\naV#Toby Keith\np468\nasVage_max\np469\nI65\nsVcountries\np470\n(lp471\nVUS\np472\nasVbroad_age\np473\nI1\nsVage_min\np474\nI13\nssVid\np475\nV6006590697565\np476\nsVobjective\np477\nI2\nsVmax_bid\np478\nV66\np479\nsVad_id\np480\nI6006590697565\nsVaccount_id\np481\nI40156177\nsVstart_time\np482\nNsVlocations\np483\n(lp484\nI3\nasVadgroup_status\np485\nI1\nsVad_status\np486\nI1\nsVimpression_control_map\np487\n(lp488\n(dp489\nVcontrol\np490\n(dp491\nVuser_impression_limit_period\np492\nI24\nsVuser_impression_limit\np493\nI3\nsVuser_impression_limit_period_unit\np494\nI0\nsVimpression_control_type\np495\nI2\nssVlocation\np496\nI3\nsasVcreative_ids\np497\n(lp498\nI6006590604965\nasVtracking_pixel_ids\np499\n(lp500\nsVbid_type\np501\nI1\nsVname\np502\nVArtists\np503\nsVupdated_time\np504\nV2012-12-05T14:40:59+0000\np505\nsVend_time\np506\nNsa(dp507\nVbid_info\np508\n(dp509\nV1\np510\nV66\np511\nssVcampaign_id\np512\nI6006590604365\nsVlast_updated_by_app_id\np513\nI6802152230\nsVcreated_time\np514\nV2012-12-04T16:53:35+0000\np515\nsVconversion_specs\np516\n(lp517\nsVadgroup_id\np518\nI6006590705565\nsVtargeting\np519\n(dp520\nVkeywords\np521\n(lp522\nV#Mashable\np523\naV#Internet meme\np524\naV#Imgur\np525\naV#Digg\np526\naV#The Onion\np527\naV#CollegeHumor\np528\naV#Cracked.com\np529\naV#Reddit\np530\nasVage_max\np531\nI65\nsVcountries\np532\n(lp533\nVUS\np534\nasVbroad_age\np535\nI1\nsVage_min\np536\nI13\nssVid\np537\nV6006590705565\np538\nsVobjective\np539\nI2\nsVmax_bid\np540\nV66\np541\nsVad_id\np542\nI6006590705565\nsVaccount_id\np543\nI40156177\nsVstart_time\np544\nNsVlocations\np545\n(lp546\nI3\nasVadgroup_status\np547\nI1\nsVad_status\np548\nI1\nsVimpression_control_map\np549\n(lp550\n(dp551\nVcontrol\np552\n(dp553\nVuser_impression_limit_period\np554\nI24\nsVuser_impression_limit\np555\nI3\nsVuser_impression_limit_period_unit\np556\nI0\nsVimpression_control_type\np557\nI2\nssVlocation\np558\nI3\nsasVcreative_ids\np559\n(lp560\nI6006590604965\nasVtracking_pixel_ids\np561\n(lp562\nsVbid_type\np563\nI1\nsVname\np564\nVInternet Humor\np565\nsVupdated_time\np566\nV2012-12-05T14:41:02+0000\np567\nsVend_time\np568\nNsa(dp569\nVbid_info\np570\n(dp571\nV1\np572\nV67\np573\nssVcampaign_id\np574\nI6006593097965\nsVlast_updated_by_app_id\np575\nI6802152230\nsVcreated_time\np576\nV2012-12-04T19:50:06+0000\np577\nsVconversion_specs\np578\n(lp579\nsVadgroup_id\np580\nI6006593098965\nsVtargeting\np581\n(dp582\nVkeywords\np583\n(lp584\nV#Alec Baldwin\np585\naV#Jimmy Fallon\np586\naV#Saturday Night Live\np587\naV#Tracy Morgan\np588\naV#Mean Girls\np589\naV#Late Night with Jimmy Fallon\np590\naV#Bossypants\np591\naV#The Tracy Morgan Show\np592\naV#Weekend Update\np593\naV#Tina Fey\np594\naV#Bridesmaids (2011 film)\np595\naV#Kenneth Branagh\np596\naV#Amy Poehler\np597\nasVage_max\np598\nI65\nsVcountries\np599\n(lp600\nVUS\np601\nasVbroad_age\np602\nI1\nsVage_min\np603\nI13\nssVid\np604\nV6006593098965\np605\nsVobjective\np606\nI2\nsVmax_bid\np607\nV67\np608\nsVad"
p6
sS'hash'
p7
S'3366763720ff57e41930a294da971bf6c8a8acdf'
p8
sS'stack'
p9
S''
s.