(dp1
S'args'
p2
S''
sS'methodname'
p3
S''
sS'packet_num'
p4
I18
sS'returnval'
p5
S"\nI3\nsasVcreative_ids\np3533\n(lp3534\nI6006784609365\nasVtracking_pixel_ids\np3535\n(lp3536\nsVbid_type\np3537\nI1\nsVname\np3538\nVhttp://ad.doubleclick.net/clk;265950234;91706351;h - Ad 3\np3539\nsVupdated_time\np3540\nV2012-12-26T18:41:35+0000\np3541\nsVend_time\np3542\nV2012-12-27T07:30:00+0000\np3543\nsa(dp3544\nVbid_info\np3545\n(dp3546\nV1\np3547\nV100\np3548\nssVcampaign_id\np3549\nI6006654645365\nsVlast_updated_by_app_id\np3550\nI6802152230\nsVcreated_time\np3551\nV2012-12-20T14:27:09+0000\np3552\nsVconversion_specs\np3553\n(lp3554\nsVadgroup_id\np3555\nI6007160064165\nsVtargeting\np3556\n(dp3557\nVage_max\np3558\nI65\nsVcountries\np3559\n(lp3560\nVUS\np3561\nasVbroad_age\np3562\nI1\nsVage_min\np3563\nI21\nssVid\np3564\nV6007160064165\np3565\nsVobjective\np3566\nI2\nsVmax_bid\np3567\nV100\np3568\nsVad_id\np3569\nI6007160064165\nsVaccount_id\np3570\nI40156177\nsVstart_time\np3571\nNsVlocations\np3572\n(lp3573\nI3\nasVadgroup_status\np3574\nI1\nsVad_status\np3575\nI1\nsVimpression_control_map\np3576\n(lp3577\n(dp3578\nVcontrol\np3579\n(dp3580\nVuser_impression_limit_period\np3581\nI24\nsVuser_impression_limit\np3582\nI3\nsVuser_impression_limit_period_unit\np3583\nI0\nsVimpression_control_type\np3584\nI2\nssVlocation\np3585\nI3\nsasVcreative_ids\np3586\n(lp3587\nI6006723891565\nasVtracking_pixel_ids\np3588\n(lp3589\nsVbid_type\np3590\nI1\nsVname\np3591\nVhttp://ad.doubleclick.net/clk;265950234;91706351;h - Ad 4\np3592\nsVupdated_time\np3593\nV2012-12-26T18:41:35+0000\np3594\nsVend_time\np3595\nV2012-12-27T07:30:00+0000\np3596\nsa(dp3597\nVbid_info\np3598\n(dp3599\nV1\np3600\nV65\np3601\nssVcampaign_id\np3602\nI6006654645365\nsVlast_updated_by_app_id\np3603\nI6802152230\nsVcreated_time\np3604\nV2012-12-07T16:47:18+0000\np3605\nsVconversion_specs\np3606\n(lp3607\nsVadgroup_id\np3608\nI6006654646365\nsVtargeting\np3609\n(dp3610\nVkeywords\np3611\n(lp3612\nV#Failbook\np3613\naV#Flickr\np3614\naV#Twitter\np3615\naV#Instagram\np3616\naV#Watch\np3617\naV#Pinterest\np3618\naV#Snapfish\np3619\nasVage_max\np3620\nI65\nsVcountries\np3621\n(lp3622\nVUS\np3623\nasVbroad_age\np3624\nI1\nsVage_min\np3625\nI21\nssVid\np3626\nV6006654646365\np3627\nsVobjective\np3628\nI2\nsVmax_bid\np3629\nV65\np3630\nsVad_id\np3631\nI6006654646365\nsVaccount_id\np3632\nI40156177\nsVstart_time\np3633\nNsVlocations\np3634\n(lp3635\nI3\nasVadgroup_status\np3636\nI9\nsVad_status\np3637\nI2\nsVimpression_control_map\np3638\n(lp3639\n(dp3640\nVcontrol\np3641\n(dp3642\nVuser_impression_limit_period\np3643\nI24\nsVuser_impression_limit\np3644\nI6\nsVuser_impression_limit_period_unit\np3645\nI0\nsVimpression_control_type\np3646\nI2\nssVlocation\np3647\nI3\nsasVcreative_ids\np3648\n(lp3649\nI6006654645965\nasVtracking_pixel_ids\np3650\n(lp3651\nsVbid_type\np3652\nI1\nsVname\np3653\nVhttp://ad.doubleclick.net/clk;265950234;91706351;h - Ad\np3654\nsVupdated_time\np3655\nV2012-12-26T16:25:19+0000\np3656\nsVend_time\np3657\nV2012-12-27T07:30:00+0000\np3658\nsa(dp3659\nVbid_info\np3660\n(dp3661\nV1\np3662\nV90\np3663\nssVcampaign_id\np3664\nI6006664677965\nsVlast_updated_by_app_id\np3665\nI6802152230\nsVcreated_time\np3666\nV2012-12-07T19:35:59+0000\np3667\nsVconversion_specs\np3668\n(lp3669\nsVadgroup_id\np3670\nI6006664688965\nsVtargeting\np3671\n(dp3672\nVkeywords\np3673\n(lp3674\nV#PetSmart\np3675\naV#Puppy Bowl\np3676\naV#Golden Retriever\np3677\naV#Pembroke Welsh Corgi\np3678\naV#Welsh Corgi\np3679\naV#Petco\np3680\naV#Cuteness\np3681\naV#Puppy mill\np3682\naV#Dog\np3683\naV#Pedigree Petfoods\np3684\naV#Puppy\np3685\naV#Cardigan Welsh Corgi\np3686\naV#It's Me or the Dog\np3687\naV#Santa Claus\np3688\naV#Beagle\np3689\naV#Dogs 101\np3690\naV#Border Collie\np3691\naV#Petco Park\np3692\naV#Dog Whisperer with Cesar Millan\np3693\naV#Pug\np3694\nasVage_max\np3695\nI65\nsVcountries\np3696\n(lp3697\nVUS\np3698\nasVbroad_age\np3699\nI1\nsVage_min\np3700\nI13\nssVid\np3701\nV6006664688965\np3702\nsVobjective\np3703\nI2\nsVmax_bid\np3704\nV90\np3705\nsVad_id\np3706\nI6006664688965\nsVaccount_id\np3707\nI40156177\nsVstart_time\np3708\nNsVlocations\np3709\n(lp3710\nI3\nasVadgroup_status\np3711\nI1\nsVad_status\np3712\nI1\nsVimpression_control_map\np3713\n(lp3714\n(dp3715\nVcontrol\np3716\n(dp3717\nVuser_impression_limit_period\np3718\nI24\nsVuser_impression_limit\np3719\nI3\nsVuser_impression_limit_period_unit\np3720\nI0\nsVimpression_control_type\np3721\nI2\nssVlocation\np3722\nI3\nsasVcreative_ids\np3723\n(lp3724\nI6006664722365\nasVtracking_pixel_ids\np3725\n(lp37"
p6
sS'hash'
p7
S'3366763720ff57e41930a294da971bf6c8a8acdf'
p8
sS'stack'
p9
S''
s.