(dp1
S'args'
p2
S''
sS'methodname'
p3
S''
sS'packet_num'
p4
I53
sS'returnval'
p5
S"info\np10438\n(dp10439\nV1\np10440\nV150\np10441\nssVcampaign_id\np10442\nI6006787723965\nsVlast_updated_by_app_id\np10443\nI207192552749284\nsVcreated_time\np10444\nV2012-12-12T23:39:08+0000\np10445\nsVconversion_specs\np10446\n(lp10447\nsVadgroup_id\np10448\nI6006787724965\nsVtargeting\np10449\n(dp10450\nVcountries\np10451\n(lp10452\nVUS\np10453\nasVradius\np10454\nV50\np10455\nsVage_min\np10456\nI22\nsVkeywords\np10457\n(lp10458\nV#Search engine marketing\np10459\naV#Social media strategist\np10460\naV#Social media optimization\np10461\naV#Social media newsroom\np10462\naV#Search engine optimization\np10463\naV#Social media marketing\np10464\naV#Viral marketing\np10465\naV#Social media\np10466\nasVage_max\np10467\nI32\nsVcities\np10468\n(lp10469\n(dp10470\nVid\np10471\nV2483949\np10472\nsVname\np10473\nVHoboken, NJ\np10474\nsa(dp10475\nVid\np10476\nV2484019\np10477\nsVname\np10478\nVJersey City, NJ\np10479\nsa(dp10480\nVid\np10481\nV2487397\np10482\nsVname\np10483\nVBronx, NY\np10484\nsa(dp10485\nVid\np10486\nV2487404\np10487\nsVname\np10488\nVBrooklyn, NY\np10489\nsa(dp10490\nVid\np10491\nV2490299\np10492\nsVname\np10493\nVNew York, NY\np10494\nsa(dp10495\nVid\np10496\nV2491013\np10497\nsVname\np10498\nVQueens, NY\np10499\nsa(dp10500\nVid\np10501\nV2673555\np10502\nsVname\np10503\nVStaten Island, NY\np10504\nsassVid\np10505\nV6006787724965\np10506\nsVobjective\np10507\nI2\nsVmax_bid\np10508\nV150\np10509\nsVad_id\np10510\nI6006787724965\nsVaccount_id\np10511\nI40156177\nsVstart_time\np10512\nNsVlocations\np10513\n(lp10514\nI3\nasVadgroup_status\np10515\nI1\nsVad_status\np10516\nI1\nsVimpression_control_map\np10517\n(lp10518\n(dp10519\nVcontrol\np10520\n(dp10521\nVuser_impression_limit_period\np10522\nI24\nsVuser_impression_limit\np10523\nI6\nsVuser_impression_limit_period_unit\np10524\nI0\nsVimpression_control_type\np10525\nI2\nssVlocation\np10526\nI3\nsasVcreative_ids\np10527\n(lp10528\nI6006787724565\nasVtracking_pixel_ids\np10529\n(lp10530\nsVbid_type\np10531\nI1\nsVname\np10532\nVhttp://smarturl.it/buzzjobs?IQid=sem_smm - Ad\np10533\nsVupdated_time\np10534\nV2012-12-12T23:39:19+0000\np10535\nsVend_time\np10536\nNsa(dp10537\nVbid_info\np10538\n(dp10539\nV1\np10540\nV65\np10541\nssVcampaign_id\np10542\nI6006798716365\nsVlast_updated_by_app_id\np10543\nI6802152230\nsVcreated_time\np10544\nV2012-12-13T14:27:24+0000\np10545\nsVconversion_specs\np10546\n(lp10547\nsVadgroup_id\np10548\nI6006798717365\nsVtargeting\np10549\n(dp10550\nVkeywords\np10551\n(lp10552\nV#Rivers Cuomo\np10553\naV#Troublemaker (Weezer song)\np10554\naV#Linkin Park\np10555\naV#Winter Weezerland\np10556\naV#Weezer\np10557\naV#Green Day\np10558\naV#Weezer discography\np10559\naV#Maroon 5\np10560\naV#Weezer (2008 album)\np10561\naV#Photograph (Weezer song)\np10562\naV#Weezer (1994 album)\np10563\naV#Make Believe (Weezer album)\np10564\nasVage_max\np10565\nI65\nsVcountries\np10566\n(lp10567\nVUS\np10568\nasVbroad_age\np10569\nI1\nsVage_min\np10570\nI13\nssVid\np10571\nV6006798717365\np10572\nsVobjective\np10573\nI2\nsVmax_bid\np10574\nV65\np10575\nsVad_id\np10576\nI6006798717365\nsVaccount_id\np10577\nI40156177\nsVstart_time\np10578\nNsVlocations\np10579\n(lp10580\nI3\nasVadgroup_status\np10581\nI1\nsVad_status\np10582\nI1\nsVimpression_control_map\np10583\n(lp10584\n(dp10585\nVcontrol\np10586\n(dp10587\nVuser_impression_limit_period\np10588\nI24\nsVuser_impression_limit\np10589\nI3\nsVuser_impression_limit_period_unit\np10590\nI0\nsVimpression_control_type\np10591\nI2\nssVlocation\np10592\nI3\nsasVcreative_ids\np10593\n(lp10594\nI6006798716965\nasVtracking_pixel_ids\np10595\n(lp10596\nsVbid_type\np10597\nI1\nsVname\np10598\nVWeezer\np10599\nsVupdated_time\np10600\nV2012-12-28T15:25:10+0000\np10601\nsVend_time\np10602\nV2012-12-31T04:30:00+0000\np10603\nsa(dp10604\nVbid_info\np10605\n(dp10606\nV1\np10607\nV65\np10608\nssVcampaign_id\np10609\nI6006798716365\nsVlast_updated_by_app_id\np10610\nI207192552749284\nsVcreated_time\np10611\nV2012-12-13T14:29:54+0000\np10612\nsVconversion_specs\np10613\n(lp10614\nsVadgroup_id\np10615\nI6006798751365\nsVtargeting\np10616\n(dp10617\nVkeywords\np10618\n(lp10619\nV#The Clash\np10620\naV#The Doors\np10621\naV#Bob Dylan\np10622\naV#Let's Dance (David Bowie album)\np10623\naV#Queen (band)\np10624\naV#Pearl Jam\np10625\naV#Depeche Mode\np10626\naV#The Cure\np10627\naV#Neil Young\np10628\naV#David Bowie\np10629\naV#Iggy Pop\np10630\naV#David Bowie discography\np10631\naV#Let's Dance (David Bowie song)\np10"
p6
sS'hash'
p7
S'3366763720ff57e41930a294da971bf6c8a8acdf'
p8
sS'stack'
p9
S''
s.