(dp1
S'args'
p2
S''
sS'methodname'
p3
S''
sS'packet_num'
p4
I141
sS'returnval'
p5
S'p26656\naV#Jason Statham\np26657\naV#Transporter 3\np26658\naV#Arnold Schwarzenegger\np26659\naV#The Expendables (2010 film)\np26660\naV#Death Race (film)\np26661\naV#RocknRolla\np26662\naV#Vin Diesel\np26663\naV#Snatch (film)\np26664\naV#Jet Li\np26665\naV#Killer Elite (film)\np26666\naV#Parker (fictional criminal)\np26667\naV#The Expendables 2\np26668\nasVage_max\np26669\nI65\nsVcountries\np26670\n(lp26671\nVUS\np26672\nasVbroad_age\np26673\nI1\nsVage_min\np26674\nI13\nssVid\np26675\nV6007486251765\np26676\nsVobjective\np26677\nI2\nsVmax_bid\np26678\nV65\np26679\nsVad_id\np26680\nI6007486251765\nsVaccount_id\np26681\nI40156177\nsVstart_time\np26682\nNsVlocations\np26683\n(lp26684\nI3\nasVadgroup_status\np26685\nI1\nsVad_status\np26686\nI1\nsVimpression_control_map\np26687\n(lp26688\n(dp26689\nVcontrol\np26690\n(dp26691\nVuser_impression_limit_period\np26692\nI24\nsVuser_impression_limit\np26693\nI3\nsVuser_impression_limit_period_unit\np26694\nI0\nsVimpression_control_type\np26695\nI2\nssVlocation\np26696\nI3\nsasVcreative_ids\np26697\n(lp26698\nI6007486251365\nasVtracking_pixel_ids\np26699\n(lp26700\nsVbid_type\np26701\nI1\nsVname\np26702\nVhttp://www.buzzfeed.com/h1/fbad/parkermovie/10-ways-jason-statham-could-kick-your-ass-8c9x - Ad 1\np26703\nsVupdated_time\np26704\nV2013-01-04T20:44:38+0000\np26705\nsVend_time\np26706\nV2013-01-05T07:45:00+0000\np26707\nsa(dp26708\nVbid_info\np26709\n(dp26710\nV1\np26711\nV65\np26712\nssVcampaign_id\np26713\nI6007483296565\nsVlast_updated_by_app_id\np26714\nI209787012415271\nsVcreated_time\np26715\nV2013-01-03T14:55:10+0000\np26716\nsVconversion_specs\np26717\n(lp26718\nsVadgroup_id\np26719\nI6007503034165\nsVtargeting\np26720\n(dp26721\nVkeywords\np26722\n(lp26723\nV#Lock, Stock and Two Smoking Barrels\np26724\naV#Crank (film)\np26725\naV#The Mechanic (2011 film)\np26726\naV#In the Name of the King: A Dungeon Siege Tale\np26727\naV#Jackie Chan\np26728\naV#Transporter 2\np26729\naV#Badass\np26730\naV#Bruce Willis\np26731\naV#Mixed martial arts\np26732\naV#Crank: High Voltage\np26733\naV#Dwayne Johnson\np26734\naV#Blitz (film)\np26735\naV#The Italian Job (2003 film)\np26736\naV#Chaos (2001 film)\np26737\naV#The Transporter\np26738\naV#Jason Statham\np26739\naV#Transporter 3\np26740\naV#Arnold Schwarzenegger\np26741\naV#MMA Pro Fighter\np26742\naV#The Expendables (2010 film)\np26743\naV#Death Race (film)\np26744\naV#RocknRolla\np26745\naV#Bruce Lee\np26746\naV#Vin Diesel\np26747\naV#Snatch (film)\np26748\naV#Jet Li\np26749\naV#Killer Elite (film)\np26750\naV#Parker (fictional criminal)\np26751\naV#The Expendables 2\np26752\nasVage_max\np26753\nI65\nsVcountries\np26754\n(lp26755\nVUS\np26756\nasVbroad_age\np26757\nI1\nsVage_min\np26758\nI13\nssVid\np26759\nV6007503034165\np26760\nsVobjective\np26761\nI2\nsVmax_bid\np26762\nV65\np26763\nsVad_id\np26764\nI6007503034165\nsVaccount_id\np26765\nI40156177\nsVstart_time\np26766\nNsVlocations\np26767\n(lp26768\nI3\nasVadgroup_status\np26769\nI1\nsVad_status\np26770\nI1\nsVimpression_control_map\np26771\n(lp26772\n(dp26773\nVcontrol\np26774\n(dp26775\nVuser_impression_limit_period\np26776\nI24\nsVuser_impression_limit\np26777\nI3\nsVuser_impression_limit_period_unit\np26778\nI0\nsVimpression_control_type\np26779\nI2\nssVlocation\np26780\nI3\nsasVcreative_ids\np26781\n(lp26782\nI6007483297165\nasVtracking_pixel_ids\np26783\n(lp26784\nsVbid_type\np26785\nI1\nsVname\np26786\nVhttp://www.buzzfeed.com/h1/fbad/parkermovie/10-ways-jason-statham-could-kick-your-ass-8c9x - Ad 2\np26787\nsVupdated_time\np26788\nV2013-01-04T20:44:38+0000\np26789\nsVend_time\np26790\nV2013-01-05T07:45:00+0000\np26791\nsa(dp26792\nVbid_info\np26793\n(dp26794\nV1\np26795\nV65\np26796\nssVcampaign_id\np26797\nI6007483296565\nsVlast_updated_by_app_id\np26798\nI6802152230\nsVcreated_time\np26799\nV2013-01-02T18:30:56+0000\np26800\nsVconversion_specs\np26801\n(lp26802\nsVadgroup_id\np26803\nI6007483297565\nsVtargeting\np26804\n(dp26805\nVkeywords\np26806\n(lp26807\nV#Lock, Stock and Two Smoking Barrels\np26808\naV#Crank (film)\np26809\naV#The Mechanic (2011 film)\np26810\naV#In the Name of the King: A Dungeon Siege Tale\np26811\naV#Transporter 2\np26812\naV#Badass\np26813\naV#Bruce Willis\np26814\naV#Crank: High Voltage\np26815\naV#Dwayne Johnson\np26816\naV#Blitz (film)\np26817\naV#The Italian Job (2003 film)\np26818\naV#Chaos (2001 film)\np26819\naV#The Transporter\np26820\naV#Jason Statham\np26821\naV#Transporte'
p6
sS'hash'
p7
S'3366763720ff57e41930a294da971bf6c8a8acdf'
p8
sS'stack'
p9
S''
s.