(dp1
S'args'
p2
S''
sS'methodname'
p3
S''
sS'packet_num'
p4
I73
sS'returnval'
p5
S'Vstart_time\np14114\nNsVlocations\np14115\n(lp14116\nI3\nasVadgroup_status\np14117\nI9\nsVad_status\np14118\nI2\nsVimpression_control_map\np14119\n(lp14120\n(dp14121\nVcontrol\np14122\n(dp14123\nVuser_impression_limit_period\np14124\nI24\nsVuser_impression_limit\np14125\nI6\nsVuser_impression_limit_period_unit\np14126\nI0\nsVimpression_control_type\np14127\nI2\nssVlocation\np14128\nI3\nsasVcreative_ids\np14129\n(lp14130\nI6007100979565\nasVtracking_pixel_ids\np14131\n(lp14132\nsVbid_type\np14133\nI1\nsVname\np14134\nVhttp://ad.doubleclick.net/clk;264495462;89854573;e?http://www.buzzfeed.com/h1/fbad/lenovo/10... - Ad\np14135\nsVupdated_time\np14136\nV2012-12-20T20:26:32+0000\np14137\nsVend_time\np14138\nNsa(dp14139\nVbid_info\np14140\n(dp14141\nV1\np14142\nV65\np14143\nssVcampaign_id\np14144\nI6007103487965\nsVlast_updated_by_app_id\np14145\nI207192552749284\nsVcreated_time\np14146\nV2012-12-17T22:12:31+0000\np14147\nsVconversion_specs\np14148\n(lp14149\nsVadgroup_id\np14150\nI6007103488965\nsVtargeting\np14151\n(dp14152\nVkeywords\np14153\n(lp14154\nV#Adventure travel\np14155\naV#Ruby Mountains\np14156\naV#Lake Tahoe\np14157\naV#Breckenridge Ski Resort\np14158\naV#2014 Winter Olympics\np14159\naV#Catskill Mountains\np14160\naV#DC Shoes\np14161\naVarmada skis\np14162\naV#Hunter Mountain (New York)\np14163\naV#Freeskier Magazine\np14164\naV#K2 Sports\np14165\naV#Copper Mountain (Colorado)\np14166\naV#Skiing\np14167\naV#Alpine skiing\np14168\naV#Aspen/Snowmass\np14169\naV#Heavenly Mountain Resort\np14170\naV#Hunter Mountain (ski area)\np14171\naV#Keystone Resort\np14172\naV#Quiksilver\np14173\naV#Nevada\np14174\naV#Snowboarding\np14175\naV#Travel Channel\np14176\naV#Mount Rose Ski Tahoe\np14177\naV#Backpacking (travel)\np14178\naV#2018 Winter Olympics\np14179\naV#Burton Snowboards\np14180\naV#Volcom\np14181\nasVage_max\np14182\nI65\nsVcountries\np14183\n(lp14184\nVUS\np14185\nasVbroad_age\np14186\nI1\nsVage_min\np14187\nI13\nssVid\np14188\nV6007103488965\np14189\nsVobjective\np14190\nI2\nsVmax_bid\np14191\nV65\np14192\nsVad_id\np14193\nI6007103488965\nsVaccount_id\np14194\nI40156177\nsVstart_time\np14195\nNsVlocations\np14196\n(lp14197\nI3\nasVadgroup_status\np14198\nI1\nsVad_status\np14199\nI1\nsVimpression_control_map\np14200\n(lp14201\n(dp14202\nVcontrol\np14203\n(dp14204\nVuser_impression_limit_period\np14205\nI24\nsVuser_impression_limit\np14206\nI6\nsVuser_impression_limit_period_unit\np14207\nI0\nsVimpression_control_type\np14208\nI2\nssVlocation\np14209\nI3\nsasVcreative_ids\np14210\n(lp14211\nI6007103488565\nasVtracking_pixel_ids\np14212\n(lp14213\nsVbid_type\np14214\nI1\nsVname\np14215\nVheavenly\np14216\nsVupdated_time\np14217\nV2012-12-17T22:16:04+0000\np14218\nsVend_time\np14219\nNsa(dp14220\nVbid_info\np14221\n(dp14222\nV1\np14223\nV65\np14224\nssVcampaign_id\np14225\nI6007103487965\nsVlast_updated_by_app_id\np14226\nI207192552749284\nsVcreated_time\np14227\nV2012-12-17T22:14:58+0000\np14228\nsVconversion_specs\np14229\n(lp14230\nsVadgroup_id\np14231\nI6007103523165\nsVtargeting\np14232\n(dp14233\nVkeywords\np14234\n(lp14235\nV#Adventure travel\np14236\naV#Ruby Mountains\np14237\naV#Lake Tahoe\np14238\naV#Breckenridge Ski Resort\np14239\naV#2014 Winter Olympics\np14240\naV#Catskill Mountains\np14241\naV#DC Shoes\np14242\naVarmada skis\np14243\naV#Hunter Mountain (New York)\np14244\naV#Freeskier Magazine\np14245\naV#K2 Sports\np14246\naV#Copper Mountain (Colorado)\np14247\naV#Skiing\np14248\naV#Alpine skiing\np14249\naV#Aspen/Snowmass\np14250\naV#Heavenly Mountain Resort\np14251\naV#Hunter Mountain (ski area)\np14252\naV#Keystone Resort\np14253\naV#Quiksilver\np14254\naV#Nevada\np14255\naV#Snowboarding\np14256\naV#Travel Channel\np14257\naV#Mount Rose Ski Tahoe\np14258\naV#Backpacking (travel)\np14259\naV#2018 Winter Olympics\np14260\naV#Burton Snowboards\np14261\naV#Volcom\np14262\nasVage_max\np14263\nI65\nsVcountries\np14264\n(lp14265\nVUS\np14266\nasVbroad_age\np14267\nI1\nsVage_min\np14268\nI13\nssVid\np14269\nV6007103523165\np14270\nsVobjective\np14271\nI2\nsVmax_bid\np14272\nV65\np14273\nsVad_id\np14274\nI6007103523165\nsVaccount_id\np14275\nI40156177\nsVstart_time\np14276\nNsVlocations\np14277\n(lp14278\nI3\nasVadgroup_status\np14279\nI1\nsVad_status\np14280\nI1\nsVimpression_control_map\np14281\n(lp14282\n(dp14283\nVcontrol\np14284\n(dp14285\nVuser_impression_limit_period\np14286\nI24\nsVuser_impression_limit\np14287\nI6\nsVuser_impression_limit_period_unit\np'
p6
sS'hash'
p7
S'3366763720ff57e41930a294da971bf6c8a8acdf'
p8
sS'stack'
p9
S''
s.