(dp1
S'args'
p2
S''
sS'methodname'
p3
S''
sS'packet_num'
p4
I168
sS'returnval'
p5
S"\nsVcountries\np31522\n(lp31523\nVUS\np31524\nasVbroad_age\np31525\nI1\nsVage_min\np31526\nI13\nssVid\np31527\nV6007532631365\np31528\nsVobjective\np31529\nI2\nsVmax_bid\np31530\nV62\np31531\nsVad_id\np31532\nI6007532631365\nsVaccount_id\np31533\nI40156177\nsVstart_time\np31534\nNsVlocations\np31535\n(lp31536\nI3\nasVadgroup_status\np31537\nI8\nsVad_status\np31538\nI2\nsVimpression_control_map\np31539\n(lp31540\n(dp31541\nVcontrol\np31542\n(dp31543\nVuser_impression_limit_period\np31544\nI24\nsVuser_impression_limit\np31545\nI3\nsVuser_impression_limit_period_unit\np31546\nI0\nsVimpression_control_type\np31547\nI2\nssVlocation\np31548\nI3\nsasVcreative_ids\np31549\n(lp31550\nI6007532630965\nasVtracking_pixel_ids\np31551\n(lp31552\nsVbid_type\np31553\nI1\nsVname\np31554\nVBuzzFeed Partner - Sponsored Stories\np31555\nsVupdated_time\np31556\nV2013-01-07T20:42:13+0000\np31557\nsVend_time\np31558\nV2013-01-08T20:41:00+0000\np31559\nsa(dp31560\nVbid_info\np31561\n(dp31562\nV1\np31563\nV65\np31564\nssVcampaign_id\np31565\nI6007533044765\nsVlast_updated_by_app_id\np31566\nI209787012415271\nsVcreated_time\np31567\nV2013-01-04T20:11:26+0000\np31568\nsVconversion_specs\np31569\n(lp31570\nsVadgroup_id\np31571\nI6007533045765\nsVtargeting\np31572\n(dp31573\nVkeywords\np31574\n(lp31575\nV#Band of Brothers (TV miniseries)\np31576\naV#Rita Wilson\np31577\naV#Forrest Gump\np31578\naV#Toy Story\np31579\naV#The Terminal\np31580\naV#The Da Vinci Code (film)\np31581\naV#Tom Hanks\np31582\naV#Catch Me If You Can\np31583\naV#Sleepless in Seattle\np31584\naV#Cast Away\np31585\naV#Larry Crowne\np31586\naV#You've Got Mail\np31587\naV#Saving Private Ryan\np31588\naV#Philadelphia (film)\np31589\naV#Apollo 13 (film)\np31590\naV#Charlie Wilson's War\np31591\naV#Cloud Atlas (film)\np31592\nasVage_max\np31593\nI65\nsVcountries\np31594\n(lp31595\nVUS\np31596\nasVbroad_age\np31597\nI1\nsVage_min\np31598\nI13\nssVid\np31599\nV6007533045765\np31600\nsVobjective\np31601\nI2\nsVmax_bid\np31602\nV65\np31603\nsVad_id\np31604\nI6007533045765\nsVaccount_id\np31605\nI40156177\nsVstart_time\np31606\nNsVlocations\np31607\n(lp31608\nI3\nasVadgroup_status\np31609\nI1\nsVad_status\np31610\nI1\nsVimpression_control_map\np31611\n(lp31612\n(dp31613\nVcontrol\np31614\n(dp31615\nVuser_impression_limit_period\np31616\nI24\nsVuser_impression_limit\np31617\nI3\nsVuser_impression_limit_period_unit\np31618\nI0\nsVimpression_control_type\np31619\nI2\nssVlocation\np31620\nI3\nsasVcreative_ids\np31621\n(lp31622\nI6007533045365\nasVtracking_pixel_ids\np31623\n(lp31624\nsVbid_type\np31625\nI1\nsVname\np31626\nVhttp://ad.doubleclick.net/clk;266305998;92196608;c;pc=[TPAS_ID]?http://www.buzzfeed.com/h1/f... - Ad\np31627\nsVupdated_time\np31628\nV2013-01-04T20:15:33+0000\np31629\nsVend_time\np31630\nNsa(dp31631\nVbid_info\np31632\n(dp31633\nV1\np31634\nV65\np31635\nssVcampaign_id\np31636\nI6007533360765\nsVlast_updated_by_app_id\np31637\nI6802152230\nsVcreated_time\np31638\nV2013-01-04T20:28:55+0000\np31639\nsVconversion_specs\np31640\n(lp31641\nsVadgroup_id\np31642\nI6007533361765\nsVtargeting\np31643\n(dp31644\nVkeywords\np31645\n(lp31646\nV#Osama bin Laden\np31647\naV#George W. Bush\np31648\naV#Chris Pratt\np31649\naV#The Hurt Locker\np31650\naV#United States Army\np31651\naV#Officer (armed forces)\np31652\naV#United States Navy\np31653\naV#Parks and Recreation\np31654\naV#Special Forces (United States Army)\np31655\naV#United States Navy SEALs\np31656\naV#Kathryn Bigelow\np31657\naV#United States Marine Corps\np31658\naV#United States Army Special Operations Command\np31659\nasVage_max\np31660\nI65\nsVcountries\np31661\n(lp31662\nVUS\np31663\nasVbroad_age\np31664\nI1\nsVage_min\np31665\nI13\nssVid\np31666\nV6007533361765\np31667\nsVobjective\np31668\nI2\nsVmax_bid\np31669\nV65\np31670\nsVad_id\np31671\nI6007533361765\nsVaccount_id\np31672\nI40156177\nsVstart_time\np31673\nNsVlocations\np31674\n(lp31675\nI3\nasVadgroup_status\np31676\nI1\nsVad_status\np31677\nI1\nsVimpression_control_map\np31678\n(lp31679\n(dp31680\nVcontrol\np31681\n(dp31682\nVuser_impression_limit_period\np31683\nI24\nsVuser_impression_limit\np31684\nI6\nsVuser_impression_limit_period_unit\np31685\nI0\nsVimpression_control_type\np31686\nI2\nssVlocation\np31687\nI3\nsasVcreative_ids\np31688\n(lp31689\nI6007533361365\nasVtracking_pixel_ids\np31690\n(lp31691\nsVbid_type\np31692\nI1\nsVname\np31693\nVbin laden\np31694\nsVupdated_time\np31695\nV2013-01-08T15:03:34+0000\np31696\nsVend_"
p6
sS'hash'
p7
S'3366763720ff57e41930a294da971bf6c8a8acdf'
p8
sS'stack'
p9
S''
s.