(dp1
S'args'
p2
S''
sS'methodname'
p3
S''
sS'packet_num'
p4
I41
sS'returnval'
p5
S'\nI24\nsVuser_impression_limit\np8003\nI3\nsVuser_impression_limit_period_unit\np8004\nI0\nsVimpression_control_type\np8005\nI2\nssVlocation\np8006\nI3\nsasVcreative_ids\np8007\n(lp8008\nI6006750796565\nasVtracking_pixel_ids\np8009\n(lp8010\nsVbid_type\np8011\nI1\nsVname\np8012\nVRap Jam\np8013\nsVupdated_time\np8014\nV2012-12-12T20:30:29+0000\np8015\nsVend_time\np8016\nNsa(dp8017\nVbid_info\np8018\n(dp8019\nV1\np8020\nV30\np8021\nssVcampaign_id\np8022\nI6006751112365\nsVlast_updated_by_app_id\np8023\nI207192552749284\nsVcreated_time\np8024\nV2012-12-11T15:31:39+0000\np8025\nsVconversion_specs\np8026\n(lp8027\nsVadgroup_id\np8028\nI6006751113565\nsVtargeting\np8029\n(dp8030\nVage_max\np8031\nI65\nsVcountries\np8032\n(lp8033\nVIT\np8034\naVNL\np8035\naVES\np8036\naVGB\np8037\naVAU\np8038\naVFR\np8039\naVDE\np8040\nasVbroad_age\np8041\nI1\nsVage_min\np8042\nI13\nssVid\np8043\nV6006751113565\np8044\nsVobjective\np8045\nI2\nsVmax_bid\np8046\nV30\np8047\nsVad_id\np8048\nI6006751113565\nsVaccount_id\np8049\nI40156177\nsVstart_time\np8050\nNsVlocations\np8051\n(lp8052\nI3\nasVadgroup_status\np8053\nI1\nsVad_status\np8054\nI1\nsVimpression_control_map\np8055\n(lp8056\n(dp8057\nVcontrol\np8058\n(dp8059\nVuser_impression_limit_period\np8060\nI24\nsVuser_impression_limit\np8061\nI6\nsVuser_impression_limit_period_unit\np8062\nI0\nsVimpression_control_type\np8063\nI2\nssVlocation\np8064\nI3\nsasVcreative_ids\np8065\n(lp8066\nI6006751113165\nasVtracking_pixel_ids\np8067\n(lp8068\nsVbid_type\np8069\nI1\nsVname\np8070\nVBuzzFeed Partner - Ad\np8071\nsVupdated_time\np8072\nV2012-12-13T17:08:33+0000\np8073\nsVend_time\np8074\nV2012-12-15T05:00:00+0000\np8075\nsa(dp8076\nVbid_info\np8077\n(dp8078\nV1\np8079\nV30\np8080\nssVcampaign_id\np8081\nI6006751112365\nsVlast_updated_by_app_id\np8082\nI207192552749284\nsVcreated_time\np8083\nV2012-12-11T15:31:40+0000\np8084\nsVconversion_specs\np8085\n(lp8086\nsVadgroup_id\np8087\nI6006751115565\nsVtargeting\np8088\n(dp8089\nVage_max\np8090\nI65\nsVcountries\np8091\n(lp8092\nVIT\np8093\naVNL\np8094\naVES\np8095\naVGB\np8096\naVAU\np8097\naVFR\np8098\naVDE\np8099\nasVbroad_age\np8100\nI1\nsVage_min\np8101\nI13\nssVid\np8102\nV6006751115565\np8103\nsVobjective\np8104\nI2\nsVmax_bid\np8105\nV30\np8106\nsVad_id\np8107\nI6006751115565\nsVaccount_id\np8108\nI40156177\nsVstart_time\np8109\nNsVlocations\np8110\n(lp8111\nI3\nasVadgroup_status\np8112\nI1\nsVad_status\np8113\nI1\nsVimpression_control_map\np8114\n(lp8115\n(dp8116\nVcontrol\np8117\n(dp8118\nVuser_impression_limit_period\np8119\nI24\nsVuser_impression_limit\np8120\nI6\nsVuser_impression_limit_period_unit\np8121\nI0\nsVimpression_control_type\np8122\nI2\nssVlocation\np8123\nI3\nsasVcreative_ids\np8124\n(lp8125\nI6006751115165\nasVtracking_pixel_ids\np8126\n(lp8127\nsVbid_type\np8128\nI1\nsVname\np8129\nVBuzzFeed Partner - Sponsored Stories\np8130\nsVupdated_time\np8131\nV2012-12-13T17:08:33+0000\np8132\nsVend_time\np8133\nV2012-12-15T05:00:00+0000\np8134\nsa(dp8135\nVbid_info\np8136\n(dp8137\nV1\np8138\nV70\np8139\nssVcampaign_id\np8140\nI6006752199765\nsVlast_updated_by_app_id\np8141\nI6802152230\nsVcreated_time\np8142\nV2012-12-11T16:48:59+0000\np8143\nsVconversion_specs\np8144\n(lp8145\nsVadgroup_id\np8146\nI6006752200765\nsVtargeting\np8147\n(dp8148\nVkeywords\np8149\n(lp8150\nV#Jonas Brothers\np8151\naV#Taylor Swift\np8152\naV#Jonas Brothers (album)\np8153\naV#Love Story (Taylor Swift song)\np8154\naV#Taylor Swift discography\np8155\naV#Taylor Lautner\np8156\naV#Taylor Swift (album)\np8157\naV#Fearless (Taylor Swift album)\np8158\nasVage_max\np8159\nI65\nsVcountries\np8160\n(lp8161\nVUS\np8162\nasVbroad_age\np8163\nI1\nsVage_min\np8164\nI13\nssVid\np8165\nV6006752200765\np8166\nsVobjective\np8167\nI2\nsVmax_bid\np8168\nV70\np8169\nsVad_id\np8170\nI6006752200765\nsVaccount_id\np8171\nI40156177\nsVstart_time\np8172\nNsVlocations\np8173\n(lp8174\nI3\nasVadgroup_status\np8175\nI1\nsVad_status\np8176\nI1\nsVimpression_control_map\np8177\n(lp8178\n(dp8179\nVcontrol\np8180\n(dp8181\nVuser_impression_limit_period\np8182\nI24\nsVuser_impression_limit\np8183\nI3\nsVuser_impression_limit_period_unit\np8184\nI0\nsVimpression_control_type\np8185\nI2\nssVlocation\np8186\nI3\nsasVcreative_ids\np8187\n(lp8188\nI6006752200365\nasVtracking_pixel_ids\np8189\n(lp8190\nsVbid_type\np8191\nI1\nsVname\np8192\nVTaylor Swift\np8193\nsVupdated_time\np8194\nV2012-12-11T23:03:19+0000\np8195\nsVend_time\np8196\nNsa(dp8197\nVbid_info\np8198\n(dp8199\nV1\np8200\nV65\np8201\nssVcampaign_id\np'
p6
sS'hash'
p7
S'3366763720ff57e41930a294da971bf6c8a8acdf'
p8
sS'stack'
p9
S''
s.