(dp1
S'args'
p2
S''
sS'methodname'
p3
S''
sS'packet_num'
p4
I153
sS'returnval'
p5
S'1765\np28791\nsVobjective\np28792\nI2\nsVmax_bid\np28793\nV65\np28794\nsVad_id\np28795\nI6007486581765\nsVaccount_id\np28796\nI40156177\nsVstart_time\np28797\nNsVlocations\np28798\n(lp28799\nI3\nasVadgroup_status\np28800\nI9\nsVad_status\np28801\nI2\nsVimpression_control_map\np28802\n(lp28803\n(dp28804\nVcontrol\np28805\n(dp28806\nVuser_impression_limit_period\np28807\nI24\nsVuser_impression_limit\np28808\nI6\nsVuser_impression_limit_period_unit\np28809\nI0\nsVimpression_control_type\np28810\nI2\nssVlocation\np28811\nI3\nsasVcreative_ids\np28812\n(lp28813\nI6007486551965\nasVtracking_pixel_ids\np28814\n(lp28815\nsVbid_type\np28816\nI1\nsVname\np28817\nVBosses\np28818\nsVupdated_time\np28819\nV2013-01-04T18:16:02+0000\np28820\nsVend_time\np28821\nNsa(dp28822\nVbid_info\np28823\n(dp28824\nV1\np28825\nV65\np28826\nssVcampaign_id\np28827\nI6007487479965\nsVlast_updated_by_app_id\np28828\nI6802152230\nsVcreated_time\np28829\nV2013-01-02T22:46:19+0000\np28830\nsVconversion_specs\np28831\n(lp28832\nsVadgroup_id\np28833\nI6007487480965\nsVtargeting\np28834\n(dp28835\nVkeywords\np28836\n(lp28837\nV#Adrien Brody\np28838\naV#Rushmore (film)\np28839\naV#The Royal Tenenbaums\np28840\naV#Anjelica Huston\np28841\naV#Documentary channel\np28842\naV#Film school\np28843\naV#Wes Anderson\np28844\naV#Bill Murray\np28845\naV#Owen Wilson\np28846\naV#Fantastic Mr. Fox (film)\np28847\naV#Film studies\np28848\naV#Documentary film\np28849\naV#The Darjeeling Limited\np28850\naV#Los Angeles Film School\np28851\naV#Cate Blanchett\np28852\naV#Moonrise Kingdom\np28853\naV#Roman Coppola\np28854\naVlife aquatic\np28855\naV#The Life Aquatic with Steve Zissou\np28856\naV#Jason Schwartzman\np28857\naV#Seu Jorge\np28858\nasVage_max\np28859\nI65\nsVcountries\np28860\n(lp28861\nVUS\np28862\nasVbroad_age\np28863\nI1\nsVage_min\np28864\nI13\nssVid\np28865\nV6007487480965\np28866\nsVobjective\np28867\nI2\nsVmax_bid\np28868\nV65\np28869\nsVad_id\np28870\nI6007487480965\nsVaccount_id\np28871\nI40156177\nsVstart_time\np28872\nNsVlocations\np28873\n(lp28874\nI3\nasVadgroup_status\np28875\nI1\nsVad_status\np28876\nI1\nsVimpression_control_map\np28877\n(lp28878\n(dp28879\nVcontrol\np28880\n(dp28881\nVuser_impression_limit_period\np28882\nI24\nsVuser_impression_limit\np28883\nI6\nsVuser_impression_limit_period_unit\np28884\nI0\nsVimpression_control_type\np28885\nI2\nssVlocation\np28886\nI3\nsasVcreative_ids\np28887\n(lp28888\nI6007487480565\nasVtracking_pixel_ids\np28889\n(lp28890\nsVbid_type\np28891\nI1\nsVname\np28892\nVzissou\np28893\nsVupdated_time\np28894\nV2013-01-02T22:49:40+0000\np28895\nsVend_time\np28896\nNsa(dp28897\nVbid_info\np28898\n(dp28899\nV1\np28900\nV65\np28901\nssVcampaign_id\np28902\nI6007487479965\nsVlast_updated_by_app_id\np28903\nI6802152230\nsVcreated_time\np28904\nV2013-01-02T22:51:33+0000\np28905\nsVconversion_specs\np28906\n(lp28907\nsVadgroup_id\np28908\nI6007487574965\nsVtargeting\np28909\n(dp28910\nVkeywords\np28911\n(lp28912\nV#Michael Cera\np28913\naV#Portia de Rossi\np28914\naV#Curb Your Enthusiasm\np28915\naV#Documentary channel\np28916\naV#Arrested Development (group)\np28917\naV#Film school\np28918\naV#Film studies\np28919\naV#Documentary film\np28920\naV#Los Angeles Film School\np28921\naV#Parks and Recreation\np28922\naV#Flight of the Conchords (TV series)\np28923\naV#Will Arnett\np28924\naV#Arrested Development (TV series)\np28925\naV#Jason Bateman\np28926\nasVage_max\np28927\nI65\nsVcountries\np28928\n(lp28929\nVUS\np28930\nasVbroad_age\np28931\nI1\nsVage_min\np28932\nI13\nssVid\np28933\nV6007487574965\np28934\nsVobjective\np28935\nI2\nsVmax_bid\np28936\nV65\np28937\nsVad_id\np28938\nI6007487574965\nsVaccount_id\np28939\nI40156177\nsVstart_time\np28940\nNsVlocations\np28941\n(lp28942\nI3\nasVadgroup_status\np28943\nI1\nsVad_status\np28944\nI1\nsVimpression_control_map\np28945\n(lp28946\n(dp28947\nVcontrol\np28948\n(dp28949\nVuser_impression_limit_period\np28950\nI24\nsVuser_impression_limit\np28951\nI6\nsVuser_impression_limit_period_unit\np28952\nI0\nsVimpression_control_type\np28953\nI2\nssVlocation\np28954\nI3\nsasVcreative_ids\np28955\n(lp28956\nI6007487574565\nasVtracking_pixel_ids\np28957\n(lp28958\nsVbid_type\np28959\nI1\nsVname\np28960\nVles cousins\np28961\nsVupdated_time\np28962\nV2013-01-02T22:55:43+0000\np28963\nsVend_time\np28964\nNsa(dp28965\nVbid_info\np28966\n(dp28967\nV1\np28968\nV65\np28969\nssVcampaign_id\np28970\nI6007487479965\nsVlast_updated_by_app_id\np28971\nI6802152230\nsVcreated'
p6
sS'hash'
p7
S'3366763720ff57e41930a294da971bf6c8a8acdf'
p8
sS'stack'
p9
S''
s.