(dp1
S'args'
p2
S''
sS'methodname'
p3
S''
sS'packet_num'
p4
I160
sS'returnval'
p5
S'p30054\nsVobjective\np30055\nI2\nsVmax_bid\np30056\nV65\np30057\nsVad_id\np30058\nI6007624066365\nsVaccount_id\np30059\nI40156177\nsVstart_time\np30060\nNsVlocations\np30061\n(lp30062\nI3\nasVadgroup_status\np30063\nI1\nsVad_status\np30064\nI1\nsVimpression_control_map\np30065\n(lp30066\n(dp30067\nVcontrol\np30068\n(dp30069\nVuser_impression_limit_period\np30070\nI24\nsVuser_impression_limit\np30071\nI3\nsVuser_impression_limit_period_unit\np30072\nI0\nsVimpression_control_type\np30073\nI2\nssVlocation\np30074\nI3\nsasVcreative_ids\np30075\n(lp30076\nI6007505066165\nasVtracking_pixel_ids\np30077\n(lp30078\nsVbid_type\np30079\nI1\nsVname\np30080\nVhttp://www.buzzfeed.com/h1/fbad/stolen/the-nicolas-cage-career-timeline - Ad 2\np30081\nsVupdated_time\np30082\nV2013-01-08T21:04:35+0000\np30083\nsVend_time\np30084\nNsa(dp30085\nVbid_info\np30086\n(dp30087\nV1\np30088\nV65\np30089\nssVcampaign_id\np30090\nI6007505065565\nsVlast_updated_by_app_id\np30091\nI6802152230\nsVcreated_time\np30092\nV2013-01-03T16:55:04+0000\np30093\nsVconversion_specs\np30094\n(lp30095\nsVadgroup_id\np30096\nI6007505066965\nsVtargeting\np30097\n(dp30098\nVkeywords\np30099\n(lp30100\nV#National Treasure: Book of Secrets\np30101\naV#Internet Movie Database\np30102\naV#Con Air\np30103\naV#The Weather Man\np30104\naV#The Wicker Man (2006 film)\np30105\naV#Ghost Rider: Spirit of Vengeance\np30106\naV#Windtalkers\np30107\naV#Matchstick Men\np30108\naV#The Rock (film)\np30109\naV#City of Angels (film)\np30110\naV#National Treasure (film)\np30111\naV#Lord of War\np30112\naV#Gone in 60 Seconds (2000 film)\np30113\naV#Ghost Rider (film)\np30114\naV#Drive Angry\np30115\naV#Kick-Ass (film)\np30116\naV#Ghost Rider (comics)\np30117\naV#Knowing (film)\np30118\naV#Raising Arizona\np30119\naV#Season of the Witch (2011 film)\np30120\naV#National Treasure (franchise)\np30121\naV#Nicolas Cage\np30122\naV#Honeymoon in Vegas\np30123\naV#Rotten Tomatoes\np30124\naV#Trailer (promotion)\np30125\naV#Adaptation (film)\np30126\naV#Face/Off\np30127\nasVage_max\np30128\nI65\nsVcountries\np30129\n(lp30130\nVUS\np30131\nasVbroad_age\np30132\nI1\nsVage_min\np30133\nI13\nssVid\np30134\nV6007505066965\np30135\nsVobjective\np30136\nI2\nsVmax_bid\np30137\nV65\np30138\nsVad_id\np30139\nI6007505066965\nsVaccount_id\np30140\nI40156177\nsVstart_time\np30141\nNsVlocations\np30142\n(lp30143\nI3\nasVadgroup_status\np30144\nI9\nsVad_status\np30145\nI2\nsVimpression_control_map\np30146\n(lp30147\n(dp30148\nVcontrol\np30149\n(dp30150\nVuser_impression_limit_period\np30151\nI24\nsVuser_impression_limit\np30152\nI6\nsVuser_impression_limit_period_unit\np30153\nI0\nsVimpression_control_type\np30154\nI2\nssVlocation\np30155\nI3\nsasVcreative_ids\np30156\n(lp30157\nI6007505066165\nasVtracking_pixel_ids\np30158\n(lp30159\nsVbid_type\np30160\nI1\nsVname\np30161\nVhttp://www.buzzfeed.com/h1/fbad/stolen/the-nicolas-cage-career-timeline - Ad\np30162\nsVupdated_time\np30163\nV2013-01-08T20:53:49+0000\np30164\nsVend_time\np30165\nNsa(dp30166\nVbid_info\np30167\n(dp30168\nV1\np30169\nV65\np30170\nssVcampaign_id\np30171\nI6007508765765\nsVlast_updated_by_app_id\np30172\nI209787012415271\nsVcreated_time\np30173\nV2013-01-03T20:00:29+0000\np30174\nsVconversion_specs\np30175\n(lp30176\nsVadgroup_id\np30177\nI6007508766765\nsVtargeting\np30178\n(dp30179\nVkeywords\np30180\n(lp30181\nV#Are You Afraid of the Dark?\np30182\naV#Halloween\np30183\naV#SNICK\np30184\naV#Internet meme\np30185\naV#Digg\np30186\naV#Cracked.com\np30187\naV#Reddit\np30188\naV#BuzzFeed\np30189\nasVage_max\np30190\nI65\nsVcountries\np30191\n(lp30192\nVUS\np30193\nasVbroad_age\np30194\nI1\nsVage_min\np30195\nI13\nssVid\np30196\nV6007508766765\np30197\nsVobjective\np30198\nI2\nsVmax_bid\np30199\nV65\np30200\nsVad_id\np30201\nI6007508766765\nsVaccount_id\np30202\nI40156177\nsVstart_time\np30203\nNsVlocations\np30204\n(lp30205\nI3\nasVadgroup_status\np30206\nI1\nsVad_status\np30207\nI1\nsVimpression_control_map\np30208\n(lp30209\n(dp30210\nVcontrol\np30211\n(dp30212\nVuser_impression_limit_period\np30213\nI24\nsVuser_impression_limit\np30214\nI6\nsVuser_impression_limit_period_unit\np30215\nI0\nsVimpression_control_type\np30216\nI2\nssVlocation\np30217\nI3\nsasVcreative_ids\np30218\n(lp30219\nI6007508766365\nasVtracking_pixel_ids\np30220\n(lp30221\nsVbid_type\np30222\nI1\nsVname\np30223\nVhttp://ad.doubleclick.net/clk;266543194;92810455;n?http://www.buzzfeed.com/h1/fbad/syfy/15-r... - Ad\np30224\nsVupdat'
p6
sS'hash'
p7
S'3366763720ff57e41930a294da971bf6c8a8acdf'
p8
sS'stack'
p9
S''
s.