(dp1
S'args'
p2
S''
sS'methodname'
p3
S''
sS'packet_num'
p4
I69
sS'returnval'
p5
S'\nsVimpression_control_type\np13410\nI2\nssVlocation\np13411\nI3\nsasVcreative_ids\np13412\n(lp13413\nI6007099543165\nasVtracking_pixel_ids\np13414\n(lp13415\nsVbid_type\np13416\nI1\nsVname\np13417\nVbabies 2\np13418\nsVupdated_time\np13419\nV2012-12-20T18:49:10+0000\np13420\nsVend_time\np13421\nV2012-12-23T04:30:00+0000\np13422\nsa(dp13423\nVbid_info\np13424\n(dp13425\nV1\np13426\nV65\np13427\nssVcampaign_id\np13428\nI6007099542565\nsVlast_updated_by_app_id\np13429\nI207192552749284\nsVcreated_time\np13430\nV2012-12-17T17:35:10+0000\np13431\nsVconversion_specs\np13432\n(lp13433\nsVadgroup_id\np13434\nI6007099613565\nsVtargeting\np13435\n(dp13436\nVkeywords\np13437\n(lp13438\nV#30 Rock\np13439\naV#Apocalyptic and post-apocalyptic fiction\np13440\naV#Saturday Night Live\np13441\naV#Tracy Morgan\np13442\naV#Doomsday Defense\np13443\naV#Internet meme\np13444\naV#Imgur\np13445\naV#Digg\np13446\naV#The Onion\np13447\naV#CollegeHumor\np13448\naV#Cracked.com\np13449\naV#Reddit\np13450\naV#BuzzFeed\np13451\naV#The Tracy Morgan Show\np13452\naV#Funny or Die\np13453\naV#Tina Fey\np13454\naV#Apocalypse\np13455\naV#Doomsday Preppers\np13456\nasVage_max\np13457\nI65\nsVcountries\np13458\n(lp13459\nVUS\np13460\nasVbroad_age\np13461\nI1\nsVage_min\np13462\nI13\nssVid\np13463\nV6007099613565\np13464\nsVobjective\np13465\nI2\nsVmax_bid\np13466\nV65\np13467\nsVad_id\np13468\nI6007099613565\nsVaccount_id\np13469\nI40156177\nsVstart_time\np13470\nNsVlocations\np13471\n(lp13472\nI3\nasVadgroup_status\np13473\nI8\nsVad_status\np13474\nI2\nsVimpression_control_map\np13475\n(lp13476\n(dp13477\nVcontrol\np13478\n(dp13479\nVuser_impression_limit_period\np13480\nI24\nsVuser_impression_limit\np13481\nI6\nsVuser_impression_limit_period_unit\np13482\nI0\nsVimpression_control_type\np13483\nI2\nssVlocation\np13484\nI3\nsasVcreative_ids\np13485\n(lp13486\nI6007099612965\nasVtracking_pixel_ids\np13487\n(lp13488\nsVbid_type\np13489\nI1\nsVname\np13490\nVtracy morgan\np13491\nsVupdated_time\np13492\nV2012-12-20T18:49:10+0000\np13493\nsVend_time\np13494\nV2012-12-23T04:30:00+0000\np13495\nsa(dp13496\nVbid_info\np13497\n(dp13498\nV1\np13499\nV80\np13500\nssVcampaign_id\np13501\nI6007100202965\nsVlast_updated_by_app_id\np13502\nI6802152230\nsVcreated_time\np13503\nV2012-12-17T21:05:36+0000\np13504\nsVconversion_specs\np13505\n(lp13506\nsVadgroup_id\np13507\nI6007102698165\nsVtargeting\np13508\n(dp13509\nVkeywords\np13510\n(lp13511\nV#Kayak.com\np13512\naV#Reno, Nevada\np13513\naV#Discovery Channel\np13514\naV#Expedia\np13515\naV#Travel agency\np13516\naV#National Geographic Channel\np13517\naV#Ghost town\np13518\naV#Orbitz\np13519\naV#Las Vegas\np13520\naVghost town\np13521\naV#Ghost Town (film)\np13522\naV#Nevada\np13523\naV#Travel Channel\np13524\nasVage_max\np13525\nI65\nsVcountries\np13526\n(lp13527\nVUS\np13528\nasVbroad_age\np13529\nI1\nsVage_min\np13530\nI13\nssVid\np13531\nV6007102698165\np13532\nsVobjective\np13533\nI2\nsVmax_bid\np13534\nV80\np13535\nsVad_id\np13536\nI6007102698165\nsVaccount_id\np13537\nI40156177\nsVstart_time\np13538\nV2012-12-17T21:08:02+0000\np13539\nsVlocations\np13540\n(lp13541\nI3\nasVadgroup_status\np13542\nI1\nsVad_status\np13543\nI1\nsVimpression_control_map\np13544\n(lp13545\n(dp13546\nVcontrol\np13547\n(dp13548\nVuser_impression_limit_period\np13549\nI24\nsVuser_impression_limit\np13550\nI3\nsVuser_impression_limit_period_unit\np13551\nI0\nsVimpression_control_type\np13552\nI2\nssVlocation\np13553\nI3\nsasVcreative_ids\np13554\n(lp13555\nI6007102853365\nasVtracking_pixel_ids\np13556\n(lp13557\nsVbid_type\np13558\nI1\nsVname\np13559\nVghost town 1\np13560\nsVupdated_time\np13561\nV2012-12-18T22:16:18+0000\np13562\nsVend_time\np13563\nNsa(dp13564\nVbid_info\np13565\n(dp13566\nV1\np13567\nV68\np13568\nssVcampaign_id\np13569\nI6007100202965\nsVlast_updated_by_app_id\np13570\nI6802152230\nsVcreated_time\np13571\nV2012-12-17T21:06:43+0000\np13572\nsVconversion_specs\np13573\n(lp13574\nsVadgroup_id\np13575\nI6007102711565\nsVtargeting\np13576\n(dp13577\nVkeywords\np13578\n(lp13579\nV#Kayak.com\np13580\naV#Reno, Nevada\np13581\naV#Discovery Channel\np13582\naV#Expedia\np13583\naV#Travel agency\np13584\naV#National Geographic Channel\np13585\naV#Ghost town\np13586\naV#Orbitz\np13587\naV#Las Vegas\np13588\naVghost town\np13589\naV#Ghost Town (film)\np13590\naV#Nevada\np13591\naV#Travel Channel\np13592\nasVage_max\np13593\nI65\nsVcountries\np13594\n(lp13595\nVUS\np13596\nasVbroad_age\np13597\nI1\nsVage_min\np13598\nI1'
p6
sS'hash'
p7
S'3366763720ff57e41930a294da971bf6c8a8acdf'
p8
sS'stack'
p9
S''
s.