(dp1
S'args'
p2
S''
sS'methodname'
p3
S''
sS'packet_num'
p4
I48
sS'returnval'
p5
S'\n(lp9472\n(dp9473\nVcontrol\np9474\n(dp9475\nVuser_impression_limit_period\np9476\nI24\nsVuser_impression_limit\np9477\nI3\nsVuser_impression_limit_period_unit\np9478\nI0\nsVimpression_control_type\np9479\nI2\nssVlocation\np9480\nI3\nsasVcreative_ids\np9481\n(lp9482\nI6006754620565\nasVtracking_pixel_ids\np9483\n(lp9484\nsVbid_type\np9485\nI1\nsVname\np9486\nVVintage 2\np9487\nsVupdated_time\np9488\nV2012-12-17T19:30:52+0000\np9489\nsVend_time\np9490\nNsa(dp9491\nVbid_info\np9492\n(dp9493\nV1\np9494\nV78\np9495\nssVcampaign_id\np9496\nI6006754609565\nsVlast_updated_by_app_id\np9497\nI6802152230\nsVcreated_time\np9498\nV2012-12-11T18:55:27+0000\np9499\nsVconversion_specs\np9500\n(lp9501\nsVadgroup_id\np9502\nI6006754646365\nsVtargeting\np9503\n(dp9504\nVage_max\np9505\nI65\nsVcountries\np9506\n(lp9507\nVUS\np9508\nasVbroad_age\np9509\nI1\nsVage_min\np9510\nI13\nsVkeywords\np9511\n(lp9512\nV#Flea market\np9513\naV#Buffalo Exchange\np9514\naV#Garage sale\np9515\naV#Ravelry\np9516\naV#Anthropologie\np9517\naV#Etsy\np9518\naV#Vintage clothing\np9519\naV#Knitty\np9520\naV#A Christmas Story\np9521\naV#Instagram\np9522\naV#Pinterest\np9523\naV#Marvins Room\np9524\naVmadewell\np9525\naV#Brooklyn Flea\np9526\naV#Vintage\np9527\nasVgenders\np9528\n(lp9529\nI2\nassVid\np9530\nV6006754646365\np9531\nsVobjective\np9532\nI2\nsVmax_bid\np9533\nV78\np9534\nsVad_id\np9535\nI6006754646365\nsVaccount_id\np9536\nI40156177\nsVstart_time\np9537\nNsVlocations\np9538\n(lp9539\nI3\nasVadgroup_status\np9540\nI1\nsVad_status\np9541\nI1\nsVimpression_control_map\np9542\n(lp9543\n(dp9544\nVcontrol\np9545\n(dp9546\nVuser_impression_limit_period\np9547\nI24\nsVuser_impression_limit\np9548\nI6\nsVuser_impression_limit_period_unit\np9549\nI0\nsVimpression_control_type\np9550\nI2\nssVlocation\np9551\nI3\nsasVcreative_ids\np9552\n(lp9553\nI6006754645965\nasVtracking_pixel_ids\np9554\n(lp9555\nsVbid_type\np9556\nI1\nsVname\np9557\nVVintage 3\np9558\nsVupdated_time\np9559\nV2012-12-17T20:01:43+0000\np9560\nsVend_time\np9561\nNsa(dp9562\nVbid_info\np9563\n(dp9564\nV1\np9565\nV80\np9566\nssVcampaign_id\np9567\nI6006759134565\nsVlast_updated_by_app_id\np9568\nI207192552749284\nsVcreated_time\np9569\nV2012-12-11T23:03:21+0000\np9570\nsVconversion_specs\np9571\n(lp9572\nsVadgroup_id\np9573\nI6006759135765\nsVtargeting\np9574\n(dp9575\nVkeywords\np9576\n(lp9577\nV#Planet Earth (TV series)\np9578\naVplane\np9579\naV#Discovery Channel\np9580\naV#Discovery Channel (UK TV channel)\np9581\naV#National Geographic Channel\np9582\naV#History (TV channel)\np9583\naV#Planes, Trains and Automobiles\np9584\naV#Virtual reality\np9585\naV#Virtual world\np9586\naV#Virtual art\np9587\nasVage_max\np9588\nI65\nsVcountries\np9589\n(lp9590\nVUS\np9591\nasVbroad_age\np9592\nI1\nsVage_min\np9593\nI13\nssVid\np9594\nV6006759135765\np9595\nsVobjective\np9596\nI2\nsVmax_bid\np9597\nV80\np9598\nsVad_id\np9599\nI6006759135765\nsVaccount_id\np9600\nI40156177\nsVstart_time\np9601\nNsVlocations\np9602\n(lp9603\nI3\nasVadgroup_status\np9604\nI1\nsVad_status\np9605\nI1\nsVimpression_control_map\np9606\n(lp9607\n(dp9608\nVcontrol\np9609\n(dp9610\nVuser_impression_limit_period\np9611\nI24\nsVuser_impression_limit\np9612\nI6\nsVuser_impression_limit_period_unit\np9613\nI0\nsVimpression_control_type\np9614\nI2\nssVlocation\np9615\nI3\nsasVcreative_ids\np9616\n(lp9617\nI6006759135165\nasVtracking_pixel_ids\np9618\n(lp9619\nsVbid_type\np9620\nI1\nsVname\np9621\nVBuzzFeed Partner - Ad\np9622\nsVupdated_time\np9623\nV2012-12-11T23:03:47+0000\np9624\nsVend_time\np9625\nNsa(dp9626\nVbid_info\np9627\n(dp9628\nV1\np9629\nV80\np9630\nssVcampaign_id\np9631\nI6006759134565\nsVlast_updated_by_app_id\np9632\nI207192552749284\nsVcreated_time\np9633\nV2012-12-11T23:03:22+0000\np9634\nsVconversion_specs\np9635\n(lp9636\nsVadgroup_id\np9637\nI6006759137765\nsVtargeting\np9638\n(dp9639\nVkeywords\np9640\n(lp9641\nV#Planet Earth (TV series)\np9642\naVplane\np9643\naV#Discovery Channel\np9644\naV#Discovery Channel (UK TV channel)\np9645\naV#National Geographic Channel\np9646\naV#History (TV channel)\np9647\naV#Planes, Trains and Automobiles\np9648\naV#Virtual reality\np9649\naV#Virtual world\np9650\naV#Virtual art\np9651\nasVage_max\np9652\nI65\nsVcountries\np9653\n(lp9654\nVUS\np9655\nasVbroad_age\np9656\nI1\nsVage_min\np9657\nI13\nssVid\np9658\nV6006759137765\np9659\nsVobjective\np9660\nI2\nsVmax_bid\np9661\nV80\np9662\nsVad_id\np9663\nI6006759137765\nsVaccount_id\np9664\nI40156177\nsVstart_time\np9665\nNsVlocations'
p6
sS'hash'
p7
S'3366763720ff57e41930a294da971bf6c8a8acdf'
p8
sS'stack'
p9
S''
s.