(dp1
S'args'
p2
S''
sS'methodname'
p3
S''
sS'packet_num'
p4
I35
sS'returnval'
p5
S'tracking_pixel_ids\np6841\n(lp6842\nsVbid_type\np6843\nI1\nsVname\np6844\nVDavid Bowie\np6845\nsVupdated_time\np6846\nV2012-12-15T13:44:02+0000\np6847\nsVend_time\np6848\nV2012-12-16T04:30:00+0000\np6849\nsa(dp6850\nVbid_info\np6851\n(dp6852\nV1\np6853\nV65\np6854\nssVcampaign_id\np6855\nI6006733869365\nsVlast_updated_by_app_id\np6856\nI207192552749284\nsVcreated_time\np6857\nV2012-12-10T22:12:05+0000\np6858\nsVconversion_specs\np6859\n(lp6860\nsVadgroup_id\np6861\nI6006733870365\nsVtargeting\np6862\n(dp6863\nVkeywords\np6864\n(lp6865\nV#Money\np6866\naV#Lottery\np6867\naV#Powerball\np6868\naV#Lottery Ticket (film)\np6869\naV#Bank\np6870\naV#ATM card\np6871\naV#Cash\np6872\nasVage_max\np6873\nI65\nsVcountries\np6874\n(lp6875\nVUS\np6876\nasVbroad_age\np6877\nI1\nsVage_min\np6878\nI13\nssVid\np6879\nV6006733870365\np6880\nsVobjective\np6881\nI2\nsVmax_bid\np6882\nV65\np6883\nsVad_id\np6884\nI6006733870365\nsVaccount_id\np6885\nI40156177\nsVstart_time\np6886\nV2012-12-11T14:05:00+0000\np6887\nsVlocations\np6888\n(lp6889\nI3\nasVadgroup_status\np6890\nI1\nsVad_status\np6891\nI1\nsVimpression_control_map\np6892\n(lp6893\n(dp6894\nVcontrol\np6895\n(dp6896\nVuser_impression_limit_period\np6897\nI24\nsVuser_impression_limit\np6898\nI6\nsVuser_impression_limit_period_unit\np6899\nI0\nsVimpression_control_type\np6900\nI2\nssVlocation\np6901\nI3\nsasVcreative_ids\np6902\n(lp6903\nI6006751596565\nasVtracking_pixel_ids\np6904\n(lp6905\nsVbid_type\np6906\nI1\nsVname\np6907\nVhttp://ad.doubleclick.net/clk;264977123;90797132;s?http://www.buzzfeed.com/h1/fbad/shahsofsu... - Ad\np6908\nsVupdated_time\np6909\nV2012-12-17T14:47:05+0000\np6910\nsVend_time\np6911\nV2012-12-18T07:40:00+0000\np6912\nsa(dp6913\nVbid_info\np6914\n(dp6915\nV1\np6916\nV65\np6917\nssVcampaign_id\np6918\nI6006733869365\nsVlast_updated_by_app_id\np6919\nI6802152230\nsVcreated_time\np6920\nV2012-12-11T16:03:48+0000\np6921\nsVconversion_specs\np6922\n(lp6923\nsVadgroup_id\np6924\nI6006751612765\nsVtargeting\np6925\n(dp6926\nVkeywords\np6927\n(lp6928\nV#Money\np6929\naV#Water slide\np6930\naV#Lottery\np6931\naV#Powerball\np6932\naV#Lottery Ticket (film)\np6933\naV#Bank\np6934\naV#Cash\np6935\nasVage_max\np6936\nI65\nsVcountries\np6937\n(lp6938\nVUS\np6939\nasVbroad_age\np6940\nI1\nsVage_min\np6941\nI13\nssVid\np6942\nV6006751612765\np6943\nsVobjective\np6944\nI2\nsVmax_bid\np6945\nV65\np6946\nsVad_id\np6947\nI6006751612765\nsVaccount_id\np6948\nI40156177\nsVstart_time\np6949\nNsVlocations\np6950\n(lp6951\nI3\nasVadgroup_status\np6952\nI1\nsVad_status\np6953\nI1\nsVimpression_control_map\np6954\n(lp6955\n(dp6956\nVcontrol\np6957\n(dp6958\nVuser_impression_limit_period\np6959\nI24\nsVuser_impression_limit\np6960\nI6\nsVuser_impression_limit_period_unit\np6961\nI0\nsVimpression_control_type\np6962\nI2\nssVlocation\np6963\nI3\nsasVcreative_ids\np6964\n(lp6965\nI6006733869965\nasVtracking_pixel_ids\np6966\n(lp6967\nsVbid_type\np6968\nI1\nsVname\np6969\nVSlide\np6970\nsVupdated_time\np6971\nV2012-12-17T14:47:05+0000\np6972\nsVend_time\np6973\nV2012-12-18T07:40:00+0000\np6974\nsa(dp6975\nVbid_info\np6976\n(dp6977\nV1\np6978\nV65\np6979\nssVcampaign_id\np6980\nI6006733951165\nsVlast_updated_by_app_id\np6981\nI6802152230\nsVcreated_time\np6982\nV2012-12-10T22:18:13+0000\np6983\nsVconversion_specs\np6984\n(lp6985\nsVadgroup_id\np6986\nI6006733952165\nsVtargeting\np6987\n(dp6988\nVkeywords\np6989\n(lp6990\nV#The Real Housewives\np6991\naV#Kelly Osbourne\np6992\naV#Reality TV\np6993\naV#Ozzy Osbourne\np6994\naV#Sharon Osbourne\np6995\naV#Bravo (U.S. TV channel)\np6996\naV#Shahs of Sunset\np6997\nasVage_max\np6998\nI65\nsVcountries\np6999\n(lp7000\nVUS\np7001\nasVbroad_age\np7002\nI1\nsVage_min\np7003\nI13\nssVid\np7004\nV6006733952165\np7005\nsVobjective\np7006\nI2\nsVmax_bid\np7007\nV65\np7008\nsVad_id\np7009\nI6006733952165\nsVaccount_id\np7010\nI40156177\nsVstart_time\np7011\nNsVlocations\np7012\n(lp7013\nI3\nasVadgroup_status\np7014\nI1\nsVad_status\np7015\nI1\nsVimpression_control_map\np7016\n(lp7017\n(dp7018\nVcontrol\np7019\n(dp7020\nVuser_impression_limit_period\np7021\nI24\nsVuser_impression_limit\np7022\nI6\nsVuser_impression_limit_period_unit\np7023\nI0\nsVimpression_control_type\np7024\nI2\nssVlocation\np7025\nI3\nsasVcreative_ids\np7026\n(lp7027\nI6006733951765\nasVtracking_pixel_ids\np7028\n(lp7029\nsVbid_type\np7030\nI1\nsVname\np7031\nVhttp://ad.doubleclick.net/clk;264977123;90797132;s?http://www.buzzfeed.com/h1/fbad/shahsofsu... - Ad\np7032\nsVupdated_time\np7033'
p6
sS'hash'
p7
S'3366763720ff57e41930a294da971bf6c8a8acdf'
p8
sS'stack'
p9
S''
s.