(dp1
S'args'
p2
S''
sS'methodname'
p3
S''
sS'packet_num'
p4
I56
sS'returnval'
p5
S'impression_limit_period\np11001\nI24\nsVuser_impression_limit\np11002\nI6\nsVuser_impression_limit_period_unit\np11003\nI0\nsVimpression_control_type\np11004\nI2\nssVlocation\np11005\nI3\nsasVcreative_ids\np11006\n(lp11007\nI6006806682365\nasVtracking_pixel_ids\np11008\n(lp11009\nsVbid_type\np11010\nI1\nsVname\np11011\nVhttp://www.buzzfeed.com/h1/fbad/floridaorangejuice/25-things-that-will-instantly-ruin-your-day - Ad\np11012\nsVupdated_time\np11013\nV2012-12-17T14:59:03+0000\np11014\nsVend_time\np11015\nV2012-12-18T07:30:00+0000\np11016\nsa(dp11017\nVbid_info\np11018\n(dp11019\nV1\np11020\nV65\np11021\nssVcampaign_id\np11022\nI6006806656965\nsVlast_updated_by_app_id\np11023\nI207192552749284\nsVcreated_time\np11024\nV2012-12-17T15:01:26+0000\np11025\nsVconversion_specs\np11026\n(lp11027\nsVadgroup_id\np11028\nI6007097583565\nsVtargeting\np11029\n(dp11030\nVkeywords\np11031\n(lp11032\nV#FMyLife\np11033\naV#Internet meme\np11034\naV#The Onion\np11035\naV#CollegeHumor\np11036\naV#Playground\np11037\naV#Cracked.com\np11038\naV#Reddit\np11039\naV#BuzzFeed\np11040\naV#Gawker\np11041\naV#Meme\np11042\naV#Funny or Die\np11043\nasVage_max\np11044\nI65\nsVcountries\np11045\n(lp11046\nVUS\np11047\nasVbroad_age\np11048\nI1\nsVage_min\np11049\nI13\nssVid\np11050\nV6007097583565\np11051\nsVobjective\np11052\nI2\nsVmax_bid\np11053\nV65\np11054\nsVad_id\np11055\nI6007097583565\nsVaccount_id\np11056\nI40156177\nsVstart_time\np11057\nNsVlocations\np11058\n(lp11059\nI3\nasVadgroup_status\np11060\nI1\nsVad_status\np11061\nI1\nsVimpression_control_map\np11062\n(lp11063\n(dp11064\nVcontrol\np11065\n(dp11066\nVuser_impression_limit_period\np11067\nI24\nsVuser_impression_limit\np11068\nI3\nsVuser_impression_limit_period_unit\np11069\nI0\nsVimpression_control_type\np11070\nI2\nssVlocation\np11071\nI3\nsasVcreative_ids\np11072\n(lp11073\nI6007097583165\nasVtracking_pixel_ids\np11074\n(lp11075\nsVbid_type\np11076\nI1\nsVname\np11077\nVhttp://www.buzzfeed.com/h1/ad/floridaorangejuice/25-things-that-will-instantly-ruin-your-day - Ad 1\np11078\nsVupdated_time\np11079\nV2012-12-17T15:05:35+0000\np11080\nsVend_time\np11081\nNsa(dp11082\nVbid_info\np11083\n(dp11084\nV1\np11085\nV100\np11086\nssVcampaign_id\np11087\nI6006807095765\nsVlast_updated_by_app_id\np11088\nI6802152230\nsVcreated_time\np11089\nV2012-12-13T22:47:24+0000\np11090\nsVconversion_specs\np11091\n(lp11092\nsVadgroup_id\np11093\nI6006809331565\nsVtargeting\np11094\n(dp11095\nVkeywords\np11096\n(lp11097\nV#Cyanide and Happiness\np11098\naV#Code\np11099\naV#The Oatmeal\np11100\naV#Xkcd\np11101\naV#Internet meme\np11102\naV#Digg\np11103\naV#CollegeHumor\np11104\naV#Cracked.com\np11105\naV#LOL\np11106\naV#Reddit\np11107\naV#LOL (Laughing Out Loud)\np11108\naV#Graphical user interface\np11109\naV#BuzzFeed\np11110\naV#Meme\np11111\naV#Funny or Die\np11112\naVmemes\np11113\naV#Urban Dictionary\np11114\naV#Anonymous (group)\np11115\naV#4chan\np11116\naV#Emoticon\np11117\naVinsanity wolf\np11118\naV#Gangnam Style\np11119\nasVage_max\np11120\nI65\nsVcountries\np11121\n(lp11122\nVUS\np11123\nasVbroad_age\np11124\nI1\nsVage_min\np11125\nI13\nssVid\np11126\nV6006809331565\np11127\nsVobjective\np11128\nI2\nsVmax_bid\np11129\nV100\np11130\nsVad_id\np11131\nI6006809331565\nsVaccount_id\np11132\nI40156177\nsVstart_time\np11133\nNsVlocations\np11134\n(lp11135\nI3\nasVadgroup_status\np11136\nI1\nsVad_status\np11137\nI1\nsVimpression_control_map\np11138\n(lp11139\n(dp11140\nVcontrol\np11141\n(dp11142\nVuser_impression_limit_period\np11143\nI24\nsVuser_impression_limit\np11144\nI6\nsVuser_impression_limit_period_unit\np11145\nI0\nsVimpression_control_type\np11146\nI2\nssVlocation\np11147\nI3\nsasVcreative_ids\np11148\n(lp11149\nI6007138162565\nasVtracking_pixel_ids\np11150\n(lp11151\nsVbid_type\np11152\nI1\nsVname\np11153\nVhttp://www.buzzfeed.com/h1/fbad/floridaorangejuice/little-annoyances-big-prize - Ad 1\np11154\nsVupdated_time\np11155\nV2012-12-20T21:25:57+0000\np11156\nsVend_time\np11157\nV2012-12-22T07:55:00+0000\np11158\nsa(dp11159\nVbid_info\np11160\n(dp11161\nV1\np11162\nV100\np11163\nssVcampaign_id\np11164\nI6006807095765\nsVlast_updated_by_app_id\np11165\nI6802152230\nsVcreated_time\np11166\nV2012-12-18T20:48:35+0000\np11167\nsVconversion_specs\np11168\n(lp11169\nsVadgroup_id\np11170\nI6007121100365\nsVtargeting\np11171\n(dp11172\nVage_max\np11173\nI65\nsVcountries\np11174\n(lp11175\nVUS\np11176\nasVbroad_age\np11177\nI1\nsVage_min\np11178\nI13\nssVid\np11179\nV60071'
p6
sS'hash'
p7
S'3366763720ff57e41930a294da971bf6c8a8acdf'
p8
sS'stack'
p9
S''
s.