(dp1
S'args'
p2
S''
sS'methodname'
p3
S''
sS'packet_num'
p4
I65
sS'returnval'
p5
S"670\nI6802152230\nsVcreated_time\np12671\nV2012-12-20T15:07:50+0000\np12672\nsVconversion_specs\np12673\n(lp12674\nsVadgroup_id\np12675\nI6007160767565\nsVtargeting\np12676\n(dp12677\nVkeywords\np12678\n(lp12679\nV#Kim Kardashian\np12680\naV#Adriana Lima\np12681\naV#Scarlett Johansson\np12682\naV#Paris Hilton\np12683\naV#Brooklyn Decker\np12684\naV#Megan Fox\np12685\naV#Kate Upton\np12686\naV#Gisele B\xfcndchen\np12687\naV#Blake Lively\np12688\naV#Jessica Alba\np12689\nasVage_max\np12690\nI65\nsVcountries\np12691\n(lp12692\nVUS\np12693\nasVbroad_age\np12694\nI1\nsVage_min\np12695\nI13\nssVid\np12696\nV6007160767565\np12697\nsVobjective\np12698\nI2\nsVmax_bid\np12699\nV100\np12700\nsVad_id\np12701\nI6007160767565\nsVaccount_id\np12702\nI40156177\nsVstart_time\np12703\nNsVlocations\np12704\n(lp12705\nI3\nasVadgroup_status\np12706\nI1\nsVad_status\np12707\nI1\nsVimpression_control_map\np12708\n(lp12709\n(dp12710\nVcontrol\np12711\n(dp12712\nVuser_impression_limit_period\np12713\nI24\nsVuser_impression_limit\np12714\nI6\nsVuser_impression_limit_period_unit\np12715\nI0\nsVimpression_control_type\np12716\nI2\nssVlocation\np12717\nI3\nsasVcreative_ids\np12718\n(lp12719\nI6007096825365\nasVtracking_pixel_ids\np12720\n(lp12721\nsVbid_type\np12722\nI1\nsVname\np12723\nVgirls\np12724\nsVupdated_time\np12725\nV2012-12-20T20:17:12+0000\np12726\nsVend_time\np12727\nNsa(dp12728\nVbid_info\np12729\n(dp12730\nV1\np12731\nV65\np12732\nssVcampaign_id\np12733\nI6007096896365\nsVlast_updated_by_app_id\np12734\nI207192552749284\nsVcreated_time\np12735\nV2012-12-17T14:12:44+0000\np12736\nsVconversion_specs\np12737\n(lp12738\nsVadgroup_id\np12739\nI6007096897365\nsVtargeting\np12740\n(dp12741\nVkeywords\np12742\n(lp12743\nV#Iron Maiden\np12744\naV#AC/DC\np12745\naV#Oh My God (Guns N' Roses song)\np12746\naV#Metallica\np12747\naV#Guns N' Roses discography\np12748\naV#Axl Rose\np12749\naV#Guns N' Roses\np12750\naV#Better (Guns N' Roses song)\np12751\naV#The Roots of Guns N' Roses\np12752\naV#Pink Floyd\np12753\naV#Patience (Guns N' Roses song)\np12754\nasVage_max\np12755\nI65\nsVcountries\np12756\n(lp12757\nVUS\np12758\nasVbroad_age\np12759\nI1\nsVage_min\np12760\nI13\nssVid\np12761\nV6007096897365\np12762\nsVobjective\np12763\nI2\nsVmax_bid\np12764\nV65\np12765\nsVad_id\np12766\nI6007096897365\nsVaccount_id\np12767\nI40156177\nsVstart_time\np12768\nNsVlocations\np12769\n(lp12770\nI3\nasVadgroup_status\np12771\nI1\nsVad_status\np12772\nI1\nsVimpression_control_map\np12773\n(lp12774\n(dp12775\nVcontrol\np12776\n(dp12777\nVuser_impression_limit_period\np12778\nI24\nsVuser_impression_limit\np12779\nI6\nsVuser_impression_limit_period_unit\np12780\nI0\nsVimpression_control_type\np12781\nI2\nssVlocation\np12782\nI3\nsasVcreative_ids\np12783\n(lp12784\nI6007096896965\nasVtracking_pixel_ids\np12785\n(lp12786\nsVbid_type\np12787\nI1\nsVname\np12788\nVguns n roses\np12789\nsVupdated_time\np12790\nV2012-12-28T15:26:03+0000\np12791\nsVend_time\np12792\nV2012-12-30T04:30:00+0000\np12793\nsa(dp12794\nVbid_info\np12795\n(dp12796\nV1\np12797\nV65\np12798\nssVcampaign_id\np12799\nI6007096896365\nsVlast_updated_by_app_id\np12800\nI207192552749284\nsVcreated_time\np12801\nV2012-12-17T14:14:48+0000\np12802\nsVconversion_specs\np12803\n(lp12804\nsVadgroup_id\np12805\nI6007096934765\nsVtargeting\np12806\n(dp12807\nVkeywords\np12808\n(lp12809\nV#Dave Grohl\np12810\naV#Paramore\np12811\naV#Green Day\np12812\naV#Nirvana (band)\np12813\naV#Foo Fighters\np12814\naV#Red Hot Chili Peppers\np12815\naV#Kurt Cobain\np12816\nasVage_max\np12817\nI65\nsVcountries\np12818\n(lp12819\nVUS\np12820\nasVbroad_age\np12821\nI1\nsVage_min\np12822\nI13\nssVid\np12823\nV6007096934765\np12824\nsVobjective\np12825\nI2\nsVmax_bid\np12826\nV65\np12827\nsVad_id\np12828\nI6007096934765\nsVaccount_id\np12829\nI40156177\nsVstart_time\np12830\nNsVlocations\np12831\n(lp12832\nI3\nasVadgroup_status\np12833\nI1\nsVad_status\np12834\nI1\nsVimpression_control_map\np12835\n(lp12836\n(dp12837\nVcontrol\np12838\n(dp12839\nVuser_impression_limit_period\np12840\nI24\nsVuser_impression_limit\np12841\nI6\nsVuser_impression_limit_period_unit\np12842\nI0\nsVimpression_control_type\np12843\nI2\nssVlocation\np12844\nI3\nsasVcreative_ids\np12845\n(lp12846\nI6007097014365\nasVtracking_pixel_ids\np12847\n(lp12848\nsVbid_type\np12849\nI1\nsVname\np12850\nVnirvana\np12851\nsVupdated_time\np12852\nV2012-12-28T15:26:03+0000\np12853\nsVend_time\np12854\nV2012-12-30T04:30:00+0000\np12855\nsa(dp12856\nVbid_info\np12"
p6
sS'hash'
p7
S'3366763720ff57e41930a294da971bf6c8a8acdf'
p8
sS'stack'
p9
S''
s.