(dp1
S'args'
p2
S''
sS'methodname'
p3
S''
sS'packet_num'
p4
I94
sS'returnval'
p5
S'user_impression_limit\np17997\nI3\nsVuser_impression_limit_period_unit\np17998\nI0\nsVimpression_control_type\np17999\nI2\nssVlocation\np18000\nI3\nsasVcreative_ids\np18001\n(lp18002\nI6007142528165\nasVtracking_pixel_ids\np18003\n(lp18004\nsVbid_type\np18005\nI1\nsVname\np18006\nVGnomes\np18007\nsVupdated_time\np18008\nV2012-12-20T20:18:04+0000\np18009\nsVend_time\np18010\nV2012-12-22T07:59:00+0000\np18011\nsa(dp18012\nVbid_info\np18013\n(dp18014\nV1\np18015\nV100\np18016\nssVcampaign_id\np18017\nI6007142519365\nsVlast_updated_by_app_id\np18018\nI6802152230\nsVcreated_time\np18019\nV2012-12-20T14:41:41+0000\np18020\nsVconversion_specs\np18021\n(lp18022\nsVadgroup_id\np18023\nI6007160320365\nsVtargeting\np18024\n(dp18025\nVage_max\np18026\nI65\nsVcountries\np18027\n(lp18028\nVUS\np18029\nasVbroad_age\np18030\nI1\nsVage_min\np18031\nI13\nssVid\np18032\nV6007160320365\np18033\nsVobjective\np18034\nI2\nsVmax_bid\np18035\nV100\np18036\nsVad_id\np18037\nI6007160320365\nsVaccount_id\np18038\nI40156177\nsVstart_time\np18039\nNsVlocations\np18040\n(lp18041\nI3\nasVadgroup_status\np18042\nI1\nsVad_status\np18043\nI1\nsVimpression_control_map\np18044\n(lp18045\n(dp18046\nVcontrol\np18047\n(dp18048\nVuser_impression_limit_period\np18049\nI24\nsVuser_impression_limit\np18050\nI3\nsVuser_impression_limit_period_unit\np18051\nI0\nsVimpression_control_type\np18052\nI2\nssVlocation\np18053\nI3\nsasVcreative_ids\np18054\n(lp18055\nI6007142519965\nasVtracking_pixel_ids\np18056\n(lp18057\nsVbid_type\np18058\nI1\nsVname\np18059\nVGingers- General\np18060\nsVupdated_time\np18061\nV2012-12-20T20:18:09+0000\np18062\nsVend_time\np18063\nNsa(dp18064\nVbid_info\np18065\n(dp18066\nV1\np18067\nV100\np18068\nssVcampaign_id\np18069\nI6007142875965\nsVlast_updated_by_app_id\np18070\nI6802152230\nsVcreated_time\np18071\nV2012-12-19T21:43:56+0000\np18072\nsVconversion_specs\np18073\n(lp18074\nsVadgroup_id\np18075\nI6007142877165\nsVtargeting\np18076\n(dp18077\nVkeywords\np18078\n(lp18079\nV#Chocolate\np18080\naV#Chocolate chip cookie\np18081\naV#Godiva Chocolatier\np18082\naV#Chocolat (2000 film)\np18083\naV#The Hershey Company\np18084\nasVage_max\np18085\nI65\nsVcountries\np18086\n(lp18087\nVUS\np18088\nasVbroad_age\np18089\nI1\nsVage_min\np18090\nI13\nssVid\np18091\nV6007142877165\np18092\nsVobjective\np18093\nI2\nsVmax_bid\np18094\nV100\np18095\nsVad_id\np18096\nI6007142877165\nsVaccount_id\np18097\nI40156177\nsVstart_time\np18098\nNsVlocations\np18099\n(lp18100\nI3\nasVadgroup_status\np18101\nI1\nsVad_status\np18102\nI1\nsVimpression_control_map\np18103\n(lp18104\n(dp18105\nVcontrol\np18106\n(dp18107\nVuser_impression_limit_period\np18108\nI24\nsVuser_impression_limit\np18109\nI3\nsVuser_impression_limit_period_unit\np18110\nI0\nsVimpression_control_type\np18111\nI2\nssVlocation\np18112\nI3\nsasVcreative_ids\np18113\n(lp18114\nI6007142876565\nasVtracking_pixel_ids\np18115\n(lp18116\nsVbid_type\np18117\nI1\nsVname\np18118\nVhttp://ad.doubleclick.net/clk;266222790;91988216;t;pc=[TPAS_ID]?http://www.buzzfeed.com/h1/f... - Ad\np18119\nsVupdated_time\np18120\nV2012-12-24T23:14:47+0000\np18121\nsVend_time\np18122\nV2012-12-26T07:55:00+0000\np18123\nsa(dp18124\nVbid_info\np18125\n(dp18126\nV1\np18127\nV100\np18128\nssVcampaign_id\np18129\nI6007142875965\nsVlast_updated_by_app_id\np18130\nI209787012415271\nsVcreated_time\np18131\nV2012-12-20T20:21:01+0000\np18132\nsVconversion_specs\np18133\n(lp18134\nsVadgroup_id\np18135\nI6007167574765\nsVtargeting\np18136\n(dp18137\nVage_max\np18138\nI65\nsVcountries\np18139\n(lp18140\nVUS\np18141\nasVbroad_age\np18142\nI1\nsVage_min\np18143\nI13\nssVid\np18144\nV6007167574765\np18145\nsVobjective\np18146\nI2\nsVmax_bid\np18147\nV100\np18148\nsVad_id\np18149\nI6007167574765\nsVaccount_id\np18150\nI40156177\nsVstart_time\np18151\nNsVlocations\np18152\n(lp18153\nI3\nasVadgroup_status\np18154\nI1\nsVad_status\np18155\nI1\nsVimpression_control_map\np18156\n(lp18157\n(dp18158\nVcontrol\np18159\n(dp18160\nVuser_impression_limit_period\np18161\nI24\nsVuser_impression_limit\np18162\nI3\nsVuser_impression_limit_period_unit\np18163\nI0\nsVimpression_control_type\np18164\nI2\nssVlocation\np18165\nI3\nsasVcreative_ids\np18166\n(lp18167\nI6007142876565\nasVtracking_pixel_ids\np18168\n(lp18169\nsVbid_type\np18170\nI1\nsVname\np18171\nVGeneral - Choco\np18172\nsVupdated_time\np18173\nV2012-12-24T23:14:47+0000\np18174\nsVend_time\np18175\nV2012-12-26T07:55:00+0000\np18176\nsa(dp18177\nVbid_info\np18178\n(dp18179\nV1\np18'
p6
sS'hash'
p7
S'3366763720ff57e41930a294da971bf6c8a8acdf'
p8
sS'stack'
p9
S''
s.