(dp1
S'args'
p2
S''
sS'methodname'
p3
S''
sS'packet_num'
p4
I240
sS'returnval'
p5
S'p47045\n(lp47046\nI6005163342765\nasVmax_bid\np47047\nV55\np47048\nsVadgroup_id\np47049\nI6005163343165\nsVaccount_id\np47050\nI40156177\nsa(dp47051\nVconversion_specs\np47052\n(lp47053\nsVupdated_time\np47054\nV2012-09-21T20:04:28+0000\np47055\nsVbid_type\np47056\nI1\nsVname\np47057\nVBleeding Gums Murphy\np47058\nsVtracking_pixel_ids\np47059\n(lp47060\nsVtargeting\np47061\n(dp47062\nVkeywords\np47063\n(lp47064\nV#Futurama\np47065\naV#Springfield (The Simpsons)\np47066\naV#The Simpsons Game\np47067\naV#Family Guy\np47068\naV#The Simpsons (franchise)\np47069\naV#The Simpsons Hit & Run\np47070\naV#The Simpsons\np47071\naV#The Simpsons Movie\np47072\nasVage_max\np47073\nI65\nsVcountries\np47074\n(lp47075\nVUS\np47076\nasVbroad_age\np47077\nI1\nsVage_min\np47078\nI13\nssVbid_info\np47079\n(dp47080\nV1\np47081\nV55\np47082\nssVstart_time\np47083\nNsVad_status\np47084\nI2\nsVcampaign_id\np47085\nI6005158791165\nsVlocations\np47086\n(lp47087\nI3\nasVcreated_time\np47088\nV2012-05-16T17:14:12+0000\np47089\nsVend_time\np47090\nNsVadgroup_status\np47091\nI8\nsVid\np47092\nV6005163291165\np47093\nsVad_id\np47094\nI6005163291165\nsVimpression_control_map\np47095\n(lp47096\n(dp47097\nVcontrol\np47098\n(dp47099\nVuser_impression_limit_period\np47100\nI24\nsVuser_impression_limit\np47101\nI6\nsVuser_impression_limit_period_unit\np47102\nI0\nsVimpression_control_type\np47103\nI2\nssVlocation\np47104\nI3\nsasVcreative_ids\np47105\n(lp47106\nI6005163290765\nasVmax_bid\np47107\nV55\np47108\nsVadgroup_id\np47109\nI6005163291165\nsVaccount_id\np47110\nI40156177\nsa(dp47111\nVconversion_specs\np47112\n(lp47113\nsVupdated_time\np47114\nV2012-05-16T04:49:46+0000\np47115\nsVbid_type\np47116\nI1\nsVname\np47117\nVMost Epic Sax Men\np47118\nsVtracking_pixel_ids\np47119\n(lp47120\nsVtargeting\np47121\n(dp47122\nVkeywords\np47123\n(lp47124\nV#Music\np47125\naV#Bill Clinton\np47126\naV#Charlie Parker\np47127\naV#Clarence Clemons\np47128\naV#Lester Young\np47129\naVsaxaphone\np47130\naV#Kenny G\np47131\nasVage_max\np47132\nI65\nsVcountries\np47133\n(lp47134\nVUS\np47135\nasVbroad_age\np47136\nI1\nsVage_min\np47137\nI15\nssVbid_info\np47138\n(dp47139\nV1\np47140\nV57\np47141\nssVstart_time\np47142\nNsVad_status\np47143\nI2\nsVcampaign_id\np47144\nI6005158791165\nsVlocations\np47145\n(lp47146\nI3\nasVcreated_time\np47147\nV2012-05-15T17:49:19+0000\np47148\nsVend_time\np47149\nV2012-05-17T04:00:00+0000\np47150\nsVadgroup_status\np47151\nI9\nsVid\np47152\nV6005158792165\np47153\nsVad_id\np47154\nI6005158792165\nsVimpression_control_map\np47155\n(lp47156\n(dp47157\nVcontrol\np47158\n(dp47159\nVuser_impression_limit_period\np47160\nI24\nsVuser_impression_limit\np47161\nI3\nsVuser_impression_limit_period_unit\np47162\nI0\nsVimpression_control_type\np47163\nI2\nssVlocation\np47164\nI3\nsasVcreative_ids\np47165\n(lp47166\nI6005158791765\nasVmax_bid\np47167\nV57\np47168\nsVadgroup_id\np47169\nI6005158792165\nsVaccount_id\np47170\nI40156177\nsa(dp47171\nVconversion_specs\np47172\n(lp47173\nsVupdated_time\np47174\nV2012-09-21T20:04:30+0000\np47175\nsVbid_type\np47176\nI1\nsVname\np47177\nVBest cities to ride in!\np47178\nsVtracking_pixel_ids\np47179\n(lp47180\nsVtargeting\np47181\n(dp47182\nVkeywords\np47183\n(lp47184\nV#Cycling\np47185\nasVage_max\np47186\nI65\nsVcountries\np47187\n(lp47188\nVUS\np47189\nasVbroad_age\np47190\nI1\nsVage_min\np47191\nI17\nssVbid_info\np47192\n(dp47193\nV1\np47194\nV60\np47195\nssVstart_time\np47196\nNsVad_status\np47197\nI2\nsVcampaign_id\np47198\nI6005158799765\nsVlocations\np47199\n(lp47200\nI3\nasVcreated_time\np47201\nV2012-05-15T17:56:41+0000\np47202\nsVend_time\np47203\nV2012-05-17T04:00:00+0000\np47204\nsVadgroup_status\np47205\nI8\nsVid\np47206\nV6005158800765\np47207\nsVad_id\np47208\nI6005158800765\nsVimpression_control_map\np47209\n(lp47210\n(dp47211\nVcontrol\np47212\n(dp47213\nVuser_impression_limit_period\np47214\nI24\nsVuser_impression_limit\np47215\nI6\nsVuser_impression_limit_period_unit\np47216\nI0\nsVimpression_control_type\np47217\nI2\nssVlocation\np47218\nI3\nsasVcreative_ids\np47219\n(lp47220\nI6005158800365\nasVmax_bid\np47221\nV60\np47222\nsVadgroup_id\np47223\nI6005158800765\nsVaccount_id\np47224\nI40156177\nsa(dp47225\nVconversion_specs\np47226\n(lp47227\nsVupdated_time\np47228\nV2012-09-21T20:04:31+0000\np47229\nsVbid_type\np47230\nI1\nsVname\np47231\nVBeware of these scams\np47232\nsVtracking_pixel_ids\np47233\n(lp47234\nsVtargeting\np47235\n(dp47236\nVage_max\np47237\nI65\nsVcountries\np47238\n('
p6
sS'hash'
p7
S'3452051f1fd24c4c5d19846db74f9a3229af7a7f'
p8
sS'stack'
p9
S''
s.