(dp1
S'args'
p2
S''
sS'methodname'
p3
S''
sS'packet_num'
p4
I243
sS'returnval'
p5
S"sVlocation\np47628\nI3\nsasVcreative_ids\np47629\n(lp47630\nI6005164223565\nasVmax_bid\np47631\nV58\np47632\nsVadgroup_id\np47633\nI6005164223965\nsVaccount_id\np47634\nI40156177\nsa(dp47635\nVconversion_specs\np47636\n(lp47637\nsVupdated_time\np47638\nV2012-09-21T20:04:39+0000\np47639\nsVbid_type\np47640\nI1\nsVname\np47641\nVRobert Mugabe\np47642\nsVtracking_pixel_ids\np47643\n(lp47644\nsVtargeting\np47645\n(dp47646\nVage_max\np47647\nI65\nsVcountries\np47648\n(lp47649\nVUS\np47650\nasVbroad_age\np47651\nI1\nsVage_min\np47652\nI15\nssVbid_info\np47653\n(dp47654\nV1\np47655\nV60\np47656\nssVstart_time\np47657\nNsVad_status\np47658\nI2\nsVcampaign_id\np47659\nI6005167347765\nsVlocations\np47660\n(lp47661\nI3\nasVcreated_time\np47662\nV2012-05-17T21:23:38+0000\np47663\nsVend_time\np47664\nNsVadgroup_status\np47665\nI8\nsVid\np47666\nV6005167348765\np47667\nsVad_id\np47668\nI6005167348765\nsVimpression_control_map\np47669\n(lp47670\n(dp47671\nVcontrol\np47672\n(dp47673\nVuser_impression_limit_period\np47674\nI24\nsVuser_impression_limit\np47675\nI6\nsVuser_impression_limit_period_unit\np47676\nI0\nsVimpression_control_type\np47677\nI2\nssVlocation\np47678\nI3\nsasVcreative_ids\np47679\n(lp47680\nI6005167348365\nasVmax_bid\np47681\nV60\np47682\nsVadgroup_id\np47683\nI6005167348765\nsVaccount_id\np47684\nI40156177\nsa(dp47685\nVconversion_specs\np47686\n(lp47687\nsVupdated_time\np47688\nV2012-09-21T20:04:41+0000\np47689\nsVbid_type\np47690\nI1\nsVname\np47691\nVDid you know?\np47692\nsVtracking_pixel_ids\np47693\n(lp47694\nsVtargeting\np47695\n(dp47696\nVage_max\np47697\nI65\nsVcountries\np47698\n(lp47699\nVUS\np47700\nasVbroad_age\np47701\nI1\nsVage_min\np47702\nI15\nssVbid_info\np47703\n(dp47704\nV1\np47705\nV63\np47706\nssVstart_time\np47707\nNsVad_status\np47708\nI2\nsVcampaign_id\np47709\nI6005167355165\nsVlocations\np47710\n(lp47711\nI3\nasVcreated_time\np47712\nV2012-05-17T21:28:05+0000\np47713\nsVend_time\np47714\nNsVadgroup_status\np47715\nI8\nsVid\np47716\nV6005167355965\np47717\nsVad_id\np47718\nI6005167355965\nsVimpression_control_map\np47719\n(lp47720\n(dp47721\nVcontrol\np47722\n(dp47723\nVuser_impression_limit_period\np47724\nI24\nsVuser_impression_limit\np47725\nI6\nsVuser_impression_limit_period_unit\np47726\nI0\nsVimpression_control_type\np47727\nI2\nssVlocation\np47728\nI3\nsasVcreative_ids\np47729\n(lp47730\nI6005155462765\nasVmax_bid\np47731\nV63\np47732\nsVadgroup_id\np47733\nI6005167355965\nsVaccount_id\np47734\nI40156177\nsa(dp47735\nVconversion_specs\np47736\n(lp47737\nsVupdated_time\np47738\nV2012-09-21T20:04:43+0000\np47739\nsVbid_type\np47740\nI1\nsVname\np47741\nVCheck Out This Sloth!\np47742\nsVtracking_pixel_ids\np47743\n(lp47744\nsVtargeting\np47745\n(dp47746\nVage_max\np47747\nI65\nsVcountries\np47748\n(lp47749\nVUS\np47750\nasVbroad_age\np47751\nI1\nsVage_min\np47752\nI13\nssVbid_info\np47753\n(dp47754\nV1\np47755\nV65\np47756\nssVstart_time\np47757\nNsVad_status\np47758\nI2\nsVcampaign_id\np47759\nI6005168584165\nsVlocations\np47760\n(lp47761\nI3\nasVcreated_time\np47762\nV2012-05-18T03:18:32+0000\np47763\nsVend_time\np47764\nV2012-05-19T13:14:00+0000\np47765\nsVadgroup_status\np47766\nI8\nsVid\np47767\nV6005168585165\np47768\nsVad_id\np47769\nI6005168585165\nsVimpression_control_map\np47770\n(lp47771\n(dp47772\nVcontrol\np47773\n(dp47774\nVuser_impression_limit_period\np47775\nI24\nsVuser_impression_limit\np47776\nI6\nsVuser_impression_limit_period_unit\np47777\nI0\nsVimpression_control_type\np47778\nI2\nssVlocation\np47779\nI3\nsasVcreative_ids\np47780\n(lp47781\nI6005168584765\nasVmax_bid\np47782\nV65\np47783\nsVadgroup_id\np47784\nI6005168585165\nsVaccount_id\np47785\nI40156177\nsa(dp47786\nVconversion_specs\np47787\n(lp47788\nsVupdated_time\np47789\nV2012-09-21T20:04:43+0000\np47790\nsVbid_type\np47791\nI1\nsVname\np47792\nVWho Doesn't Love Kittens?\np47793\nsVtracking_pixel_ids\np47794\n(lp47795\nsVtargeting\np47796\n(dp47797\nVage_max\np47798\nI65\nsVcountries\np47799\n(lp47800\nVUS\np47801\nasVbroad_age\np47802\nI1\nsVage_min\np47803\nI13\nssVbid_info\np47804\n(dp47805\nV1\np47806\nV65\np47807\nssVstart_time\np47808\nNsVad_status\np47809\nI2\nsVcampaign_id\np47810\nI6005168584165\nsVlocations\np47811\n(lp47812\nI3\nasVcreated_time\np47813\nV2012-05-18T03:23:13+0000\np47814\nsVend_time\np47815\nV2012-05-19T13:14:00+0000\np47816\nsVadgroup_status\np47817\nI8\nsVid\np47818\nV6005168591565\np47819\nsVad_id\np47820\nI6005168591565\nsVimpression_control_map\np47821\n(lp47822\n(dp47823\nVcontro"
p6
sS'hash'
p7
S'3452051f1fd24c4c5d19846db74f9a3229af7a7f'
p8
sS'stack'
p9
S''
s.