(dp1
S'args'
p2
S''
sS'methodname'
p3
S''
sS'packet_num'
p4
I28
sS'returnval'
p5
S'lp5736\nI3\nasVcreated_time\np5737\nV2011-12-01T16:49:55+0000\np5738\nsVend_time\np5739\nV2011-12-02T04:30:00+0000\np5740\nsVadgroup_status\np5741\nI8\nsVid\np5742\nV6004091465565\np5743\nsVad_id\np5744\nI6004091465565\nsVimpression_control_map\np5745\n(lp5746\n(dp5747\nVcontrol\np5748\n(dp5749\nVuser_impression_limit_period\np5750\nI24\nsVuser_impression_limit\np5751\nI6\nsVuser_impression_limit_period_unit\np5752\nI0\nsVimpression_control_type\np5753\nI2\nssVlocation\np5754\nI3\nsasVcreative_ids\np5755\n(lp5756\nI6004091465165\nasVmax_bid\np5757\nV68\np5758\nsVadgroup_id\np5759\nI6004091465565\nsVaccount_id\np5760\nI40156177\nsa(dp5761\nVconversion_specs\np5762\n(lp5763\nsVupdated_time\np5764\nV2012-09-21T19:56:43+0000\np5765\nsVbid_type\np5766\nI1\nsVname\np5767\nVRise of the Geek Lobby - hacking\np5768\nsVtracking_pixel_ids\np5769\n(lp5770\nsVtargeting\np5771\n(dp5772\nVkeywords\np5773\n(lp5774\nV#Piracy\np5775\naV#LimeWire\np5776\naV#Kazaa\np5777\naV#Torrentz\np5778\naV#BitDefender\np5779\naV#Napster\np5780\naV#TorrentFreak\np5781\naV#Hacker (term)\np5782\naV#BitTorrent (software)\np5783\naV#BitTorrent (protocol)\np5784\naVbit torrent\np5785\nasVage_max\np5786\nI65\nsVcountries\np5787\n(lp5788\nVUS\np5789\nasVbroad_age\np5790\nI1\nsVage_min\np5791\nI18\nssVbid_info\np5792\n(dp5793\nV1\np5794\nV50\np5795\nssVstart_time\np5796\nNsVad_status\np5797\nI2\nsVcampaign_id\np5798\nI6004091464565\nsVlocations\np5799\n(lp5800\nI3\nasVcreated_time\np5801\nV2011-12-01T16:52:13+0000\np5802\nsVend_time\np5803\nV2011-12-02T04:30:00+0000\np5804\nsVadgroup_status\np5805\nI8\nsVid\np5806\nV6004091467565\np5807\nsVad_id\np5808\nI6004091467565\nsVimpression_control_map\np5809\n(lp5810\n(dp5811\nVcontrol\np5812\n(dp5813\nVuser_impression_limit_period\np5814\nI24\nsVuser_impression_limit\np5815\nI6\nsVuser_impression_limit_period_unit\np5816\nI0\nsVimpression_control_type\np5817\nI2\nssVlocation\np5818\nI3\nsasVcreative_ids\np5819\n(lp5820\nI6004091465165\nasVmax_bid\np5821\nV50\np5822\nsVadgroup_id\np5823\nI6004091467565\nsVaccount_id\np5824\nI40156177\nsa(dp5825\nVconversion_specs\np5826\n(lp5827\nsVupdated_time\np5828\nV2012-09-21T19:56:45+0000\np5829\nsVbid_type\np5830\nI1\nsVname\np5831\nVTired of Slow Internet?\np5832\nsVtracking_pixel_ids\np5833\n(lp5834\nsVtargeting\np5835\n(dp5836\nVage_max\np5837\nI65\nsVcountries\np5838\n(lp5839\nVUS\np5840\nasVbroad_age\np5841\nI1\nsVage_min\np5842\nI18\nssVbid_info\np5843\n(dp5844\nV1\np5845\nV85\np5846\nssVstart_time\np5847\nNsVad_status\np5848\nI2\nsVcampaign_id\np5849\nI6004094262965\nsVlocations\np5850\n(lp5851\nI3\nasVcreated_time\np5852\nV2011-12-01T20:35:09+0000\np5853\nsVend_time\np5854\nV2011-12-06T23:00:00+0000\np5855\nsVadgroup_status\np5856\nI8\nsVid\np5857\nV6004094263965\np5858\nsVad_id\np5859\nI6004094263965\nsVimpression_control_map\np5860\n(lp5861\n(dp5862\nVcontrol\np5863\n(dp5864\nVuser_impression_limit_period\np5865\nI24\nsVuser_impression_limit\np5866\nI6\nsVuser_impression_limit_period_unit\np5867\nI0\nsVimpression_control_type\np5868\nI2\nssVlocation\np5869\nI3\nsasVcreative_ids\np5870\n(lp5871\nI6004094263565\nasVmax_bid\np5872\nV85\np5873\nsVadgroup_id\np5874\nI6004094263965\nsVaccount_id\np5875\nI40156177\nsa(dp5876\nVconversion_specs\np5877\n(lp5878\nsVupdated_time\np5879\nV2012-09-21T19:56:45+0000\np5880\nsVbid_type\np5881\nI1\nsVname\np5882\nVTired of Slow Internet? 1\np5883\nsVtracking_pixel_ids\np5884\n(lp5885\nsVtargeting\np5886\n(dp5887\nVkeywords\np5888\n(lp5889\nV#Wi-Fi\np5890\nasVage_max\np5891\nI65\nsVcountries\np5892\n(lp5893\nVUS\np5894\nasVbroad_age\np5895\nI1\nsVage_min\np5896\nI18\nssVbid_info\np5897\n(dp5898\nV1\np5899\nV85\np5900\nssVstart_time\np5901\nNsVad_status\np5902\nI2\nsVcampaign_id\np5903\nI6004094262965\nsVlocations\np5904\n(lp5905\nI3\nasVcreated_time\np5906\nV2011-12-05T21:52:54+0000\np5907\nsVend_time\np5908\nV2011-12-06T23:00:00+0000\np5909\nsVadgroup_status\np5910\nI8\nsVid\np5911\nV6004119275765\np5912\nsVad_id\np5913\nI6004119275765\nsVimpression_control_map\np5914\n(lp5915\n(dp5916\nVcontrol\np5917\n(dp5918\nVuser_impression_limit_period\np5919\nI24\nsVuser_impression_limit\np5920\nI6\nsVuser_impression_limit_period_unit\np5921\nI0\nsVimpression_control_type\np5922\nI2\nssVlocation\np5923\nI3\nsasVcreative_ids\np5924\n(lp5925\nI6004094263565\nasVmax_bid\np5926\nV85\np5927\nsVadgroup_id\np5928\nI6004119275765\nsVaccount_id\np5929\nI40156177\nsa(dp5930\nVconversion_specs\np5931\n(lp5932\nsVupdated_time\np5933\nV2012-09-21T19:56:46+0000\np5934'
p6
sS'hash'
p7
S'3452051f1fd24c4c5d19846db74f9a3229af7a7f'
p8
sS'stack'
p9
S''
s.