(dp1
S'args'
p2
S''
sS'methodname'
p3
S''
sS'packet_num'
p4
I280
sS'returnval'
p5
S"750\nI40156177\nsa(dp54751\nVconversion_specs\np54752\n(lp54753\nsVupdated_time\np54754\nV2012-09-21T20:06:43+0000\np54755\nsVbid_type\np54756\nI1\nsVname\np54757\nVZZ Top - Still Rockin!\np54758\nsVtracking_pixel_ids\np54759\n(lp54760\nsVtargeting\np54761\n(dp54762\nVkeywords\np54763\n(lp54764\nV#Kiss (band)\np54765\naV#Lynyrd Skynyrd\np54766\naVzztop\np54767\naV#Rock and roll\np54768\naV#ZZ Top\np54769\naV#Southern rock\np54770\naV#AC/DC\np54771\naVzz topp\np54772\naV#Def Leppard\np54773\naV#Aerosmith\np54774\naV#Metallica\np54775\naV#Eddie Van Halen\np54776\naV#M\xf6tley Cr\xfce\np54777\naVzztop en chile\np54778\naV#Country rock\np54779\naV#Led Zeppelin\np54780\naV#Rock music\np54781\naV#Van Halen\np54782\nasVage_max\np54783\nI65\nsVcountries\np54784\n(lp54785\nVUS\np54786\nasVbroad_age\np54787\nI1\nsVage_min\np54788\nI13\nssVbid_info\np54789\n(dp54790\nV1\np54791\nV65\np54792\nssVstart_time\np54793\nNsVad_status\np54794\nI2\nsVcampaign_id\np54795\nI6005274684565\nsVlocations\np54796\n(lp54797\nI3\nasVcreated_time\np54798\nV2012-06-21T14:11:43+0000\np54799\nsVend_time\np54800\nNsVadgroup_status\np54801\nI8\nsVid\np54802\nV6005337356365\np54803\nsVad_id\np54804\nI6005337356365\nsVimpression_control_map\np54805\n(lp54806\n(dp54807\nVcontrol\np54808\n(dp54809\nVuser_impression_limit_period\np54810\nI24\nsVuser_impression_limit\np54811\nI6\nsVuser_impression_limit_period_unit\np54812\nI0\nsVimpression_control_type\np54813\nI2\nssVlocation\np54814\nI3\nsasVcreative_ids\np54815\n(lp54816\nI6005337355765\nasVmax_bid\np54817\nV65\np54818\nsVadgroup_id\np54819\nI6005337356365\nsVaccount_id\np54820\nI40156177\nsa(dp54821\nVconversion_specs\np54822\n(lp54823\nsVupdated_time\np54824\nV2012-09-21T20:06:45+0000\np54825\nsVbid_type\np54826\nI1\nsVname\np54827\nVPa'ina (Pah-ina)\np54828\nsVtracking_pixel_ids\np54829\n(lp54830\nsVtargeting\np54831\n(dp54832\nVkeywords\np54833\n(lp54834\nV#Hawaiian Airlines\np54835\naV#Kau, Hawaii\np54836\naV#Hawaii (island)\np54837\naV#Hawaii Five-0\np54838\naV#Hawaiian language\np54839\naV#Hawaiian Tropic\np54840\naV#Hawaii\np54841\nasVage_max\np54842\nI65\nsVcountries\np54843\n(lp54844\nVUS\np54845\nasVbroad_age\np54846\nI1\nsVage_min\np54847\nI13\nssVbid_info\np54848\n(dp54849\nV1\np54850\nV60\np54851\nssVstart_time\np54852\nNsVad_status\np54853\nI2\nsVcampaign_id\np54854\nI6005274722165\nsVlocations\np54855\n(lp54856\nI3\nasVcreated_time\np54857\nV2012-06-06T17:25:53+0000\np54858\nsVend_time\np54859\nV2012-06-10T03:00:00+0000\np54860\nsVadgroup_status\np54861\nI8\nsVid\np54862\nV6005274723165\np54863\nsVad_id\np54864\nI6005274723165\nsVimpression_control_map\np54865\n(lp54866\n(dp54867\nVcontrol\np54868\n(dp54869\nVuser_impression_limit_period\np54870\nI24\nsVuser_impression_limit\np54871\nI6\nsVuser_impression_limit_period_unit\np54872\nI0\nsVimpression_control_type\np54873\nI2\nssVlocation\np54874\nI3\nsasVcreative_ids\np54875\n(lp54876\nI6005274722765\nasVmax_bid\np54877\nV60\np54878\nsVadgroup_id\np54879\nI6005274723165\nsVaccount_id\np54880\nI40156177\nsa(dp54881\nVconversion_specs\np54882\n(lp54883\nsVupdated_time\np54884\nV2012-09-21T20:06:45+0000\np54885\nsVbid_type\np54886\nI1\nsVname\np54887\nVHow do you say party?\np54888\nsVtracking_pixel_ids\np54889\n(lp54890\nsVtargeting\np54891\n(dp54892\nVkeywords\np54893\n(lp54894\nV#Hawaiian Airlines\np54895\naV#Kau, Hawaii\np54896\naV#Hawaii (island)\np54897\naV#Travelzoo\np54898\naV#Hawaii Five-0\np54899\naV#Hawaiian language\np54900\naV#Delta (album)\np54901\naV#Airline\np54902\naV#Hawaiian Tropic\np54903\naV#Hawaii\np54904\naV#Travel\np54905\nasVage_max\np54906\nI65\nsVcountries\np54907\n(lp54908\nVUS\np54909\nasVbroad_age\np54910\nI1\nsVage_min\np54911\nI13\nssVbid_info\np54912\n(dp54913\nV1\np54914\nV60\np54915\nssVstart_time\np54916\nNsVad_status\np54917\nI2\nsVcampaign_id\np54918\nI6005274722165\nsVlocations\np54919\n(lp54920\nI3\nasVcreated_time\np54921\nV2012-06-08T15:25:07+0000\np54922\nsVend_time\np54923\nNsVadgroup_status\np54924\nI8\nsVid\np54925\nV6005280222765\np54926\nsVad_id\np54927\nI6005280222765\nsVimpression_control_map\np54928\n(lp54929\n(dp54930\nVcontrol\np54931\n(dp54932\nVuser_impression_limit_period\np54933\nI24\nsVuser_impression_limit\np54934\nI6\nsVuser_impression_limit_period_unit\np54935\nI0\nsVimpression_control_type\np54936\nI2\nssVlocation\np54937\nI3\nsasVcreative_ids\np54938\n(lp54939\nI6005280222365\nasVmax_bid\np54940\nV60\np54941\nsVadgroup_id\np54942\nI6005280222765\nsVaccount_id\np54943\nI40156177\nsa(dp5"
p6
sS'hash'
p7
S'3452051f1fd24c4c5d19846db74f9a3229af7a7f'
p8
sS'stack'
p9
S''
s.