(dp1
S'args'
p2
S''
sS'methodname'
p3
S''
sS'packet_num'
p4
I203
sS'returnval'
p5
S"#Steakhouse\np39705\naV#AskMen.com\np39706\naV#Bikes Blues and BBQ\np39707\naV#Steak sauce\np39708\naV#Steak 'n Shake\np39709\naV#Steak frites\np39710\naVcoooking\np39711\naV#Grilling\np39712\naVgrilling\np39713\naV#BBQ Pitmasters\np39714\naV#Graveyard BBQ\np39715\naVdinosaur barbque\np39716\naV#Korilla BBQ\np39717\naV#A1 Steak Sauce\np39718\naV#Meat\np39719\naVmeat\np39720\naV#Cooking\np39721\nasVgenders\np39722\n(lp39723\nI1\nassVbid_info\np39724\n(dp39725\nV1\np39726\nV50\np39727\nssVstart_time\np39728\nNsVad_status\np39729\nI2\nsVcampaign_id\np39730\nI6005015149765\nsVlocations\np39731\n(lp39732\nI3\nasVcreated_time\np39733\nV2012-04-22T20:37:21+0000\np39734\nsVend_time\np39735\nV2012-04-25T06:00:00+0000\np39736\nsVadgroup_status\np39737\nI8\nsVid\np39738\nV6005034128765\np39739\nsVad_id\np39740\nI6005034128765\nsVimpression_control_map\np39741\n(lp39742\n(dp39743\nVcontrol\np39744\n(dp39745\nVuser_impression_limit_period\np39746\nI24\nsVuser_impression_limit\np39747\nI6\nsVuser_impression_limit_period_unit\np39748\nI0\nsVimpression_control_type\np39749\nI2\nssVlocation\np39750\nI3\nsasVcreative_ids\np39751\n(lp39752\nI6005034128365\nasVmax_bid\np39753\nV50\np39754\nsVadgroup_id\np39755\nI6005034128765\nsVaccount_id\np39756\nI40156177\nsa(dp39757\nVconversion_specs\np39758\n(lp39759\nsVupdated_time\np39760\nV2012-04-24T03:14:20+0000\np39761\nsVbid_type\np39762\nI1\nsVname\np39763\nVGet The Meat Sweats!\np39764\nsVtracking_pixel_ids\np39765\n(lp39766\nsVtargeting\np39767\n(dp39768\nVcountries\np39769\n(lp39770\nVUS\np39771\nasVgenders\np39772\n(lp39773\nI1\nasVage_min\np39774\nI18\nsVbroad_age\np39775\nI1\nsVage_max\np39776\nI65\nssVbid_info\np39777\n(dp39778\nV1\np39779\nV70\np39780\nssVstart_time\np39781\nNsVad_status\np39782\nI2\nsVcampaign_id\np39783\nI6005015149765\nsVlocations\np39784\n(lp39785\nI3\nasVcreated_time\np39786\nV2012-04-19T18:06:25+0000\np39787\nsVend_time\np39788\nV2012-04-25T06:00:00+0000\np39789\nsVadgroup_status\np39790\nI9\nsVid\np39791\nV6005015150765\np39792\nsVad_id\np39793\nI6005015150765\nsVimpression_control_map\np39794\n(lp39795\n(dp39796\nVcontrol\np39797\n(dp39798\nVuser_impression_limit_period\np39799\nI24\nsVuser_impression_limit\np39800\nI3\nsVuser_impression_limit_period_unit\np39801\nI0\nsVimpression_control_type\np39802\nI2\nssVlocation\np39803\nI3\nsasVcreative_ids\np39804\n(lp39805\nI6005015150365\nasVmax_bid\np39806\nV70\np39807\nsVadgroup_id\np39808\nI6005015150765\nsVaccount_id\np39809\nI40156177\nsa(dp39810\nVconversion_specs\np39811\n(lp39812\nsVupdated_time\np39813\nV2012-04-24T03:14:20+0000\np39814\nsVbid_type\np39815\nI1\nsVname\np39816\nVGet The Meat Sweats! 1\np39817\nsVtracking_pixel_ids\np39818\n(lp39819\nsVtargeting\np39820\n(dp39821\nVcountries\np39822\n(lp39823\nVUS\np39824\nasVgenders\np39825\n(lp39826\nI1\nasVage_min\np39827\nI18\nsVbroad_age\np39828\nI1\nsVage_max\np39829\nI65\nssVbid_info\np39830\n(dp39831\nV1\np39832\nV70\np39833\nssVstart_time\np39834\nNsVad_status\np39835\nI2\nsVcampaign_id\np39836\nI6005015149765\nsVlocations\np39837\n(lp39838\nI3\nasVcreated_time\np39839\nV2012-04-19T18:07:01+0000\np39840\nsVend_time\np39841\nV2012-04-25T06:00:00+0000\np39842\nsVadgroup_status\np39843\nI9\nsVid\np39844\nV6005015153365\np39845\nsVad_id\np39846\nI6005015153365\nsVimpression_control_map\np39847\n(lp39848\n(dp39849\nVcontrol\np39850\n(dp39851\nVuser_impression_limit_period\np39852\nI24\nsVuser_impression_limit\np39853\nI3\nsVuser_impression_limit_period_unit\np39854\nI0\nsVimpression_control_type\np39855\nI2\nssVlocation\np39856\nI3\nsasVcreative_ids\np39857\n(lp39858\nI6005015152965\nasVmax_bid\np39859\nV70\np39860\nsVadgroup_id\np39861\nI6005015153365\nsVaccount_id\np39862\nI40156177\nsa(dp39863\nVconversion_specs\np39864\n(lp39865\nsVupdated_time\np39866\nV2012-04-24T03:14:20+0000\np39867\nsVbid_type\np39868\nI1\nsVname\np39869\nVGet The Meat Sweats! 2\np39870\nsVtracking_pixel_ids\np39871\n(lp39872\nsVtargeting\np39873\n(dp39874\nVcountries\np39875\n(lp39876\nVUS\np39877\nasVgenders\np39878\n(lp39879\nI1\nasVage_min\np39880\nI18\nsVbroad_age\np39881\nI1\nsVage_max\np39882\nI65\nssVbid_info\np39883\n(dp39884\nV1\np39885\nV65\np39886\nssVstart_time\np39887\nNsVad_status\np39888\nI2\nsVcampaign_id\np39889\nI6005015149765\nsVlocations\np39890\n(lp39891\nI3\nasVcreated_time\np39892\nV2012-04-19T18:07:30+0000\np39893\nsVend_time\np39894\nV2012-04-25T06:00:00+0000\np39895\nsVadgroup_status\np39896\nI9\nsVid\np39897\nV6005015155565\np39898\nsVad_id\np39899\nI60050"
p6
sS'hash'
p7
S'3452051f1fd24c4c5d19846db74f9a3229af7a7f'
p8
sS'stack'
p9
S''
s.