(dp1
S'args'
p2
S''
sS'methodname'
p3
S''
sS'packet_num'
p4
I89
sS'returnval'
p5
S"Funny Or Die's New Show!\np17763\nsVtracking_pixel_ids\np17764\n(lp17765\nsVtargeting\np17766\n(dp17767\nVkeywords\np17768\n(lp17769\nVfusetv tag your tune\np17770\naVstandup comedy\np17771\naV#Comedy\np17772\naV#CollegeHumor\np17773\naV#Stand-up comedy\np17774\naV#Cracked.com\np17775\naVcomedians comedy\np17776\naV#Fuse TV\np17777\naVfunnyordie\np17778\naVfuse\np17779\naV#Funny or Die\np17780\naV#The Comedians of Comedy\np17781\naVyou tube\np17782\naVfunnyordiecom\np17783\naV#Cracked (magazine)\np17784\naV#YouTube\np17785\nasVage_max\np17786\nI65\nsVcountries\np17787\n(lp17788\nVUS\np17789\nasVbroad_age\np17790\nI1\nsVage_min\np17791\nI18\nssVbid_info\np17792\n(dp17793\nV1\np17794\nV80\np17795\nssVstart_time\np17796\nNsVad_status\np17797\nI2\nsVcampaign_id\np17798\nI6004661435965\nsVlocations\np17799\n(lp17800\nI3\nasVcreated_time\np17801\nV2012-01-26T20:40:33+0000\np17802\nsVend_time\np17803\nV2012-01-27T23:30:00+0000\np17804\nsVadgroup_status\np17805\nI9\nsVid\np17806\nV6004661436965\np17807\nsVad_id\np17808\nI6004661436965\nsVimpression_control_map\np17809\n(lp17810\n(dp17811\nVcontrol\np17812\n(dp17813\nVuser_impression_limit_period\np17814\nI24\nsVuser_impression_limit\np17815\nI6\nsVuser_impression_limit_period_unit\np17816\nI0\nsVimpression_control_type\np17817\nI2\nssVlocation\np17818\nI3\nsasVcreative_ids\np17819\n(lp17820\nI6004661447165\nasVmax_bid\np17821\nV80\np17822\nsVadgroup_id\np17823\nI6004661436965\nsVaccount_id\np17824\nI40156177\nsa(dp17825\nVconversion_specs\np17826\n(lp17827\nsVupdated_time\np17828\nV2012-01-27T15:04:49+0000\np17829\nsVbid_type\np17830\nI1\nsVname\np17831\nVWatch Billy Tonight @11!\np17832\nsVtracking_pixel_ids\np17833\n(lp17834\nsVtargeting\np17835\n(dp17836\nVkeywords\np17837\n(lp17838\nVfusetv tag your tune\np17839\naVstandup comedy\np17840\naV#Comedy\np17841\naV#CollegeHumor\np17842\naV#Stand-up comedy\np17843\naV#Cracked.com\np17844\naVcomedians comedy\np17845\naV#Fuse TV\np17846\naVfunnyordie\np17847\naVfuse\np17848\naV#Funny or Die\np17849\naV#The Comedians of Comedy\np17850\naVyou tube\np17851\naVfunnyordiecom\np17852\naV#Cracked (magazine)\np17853\naV#YouTube\np17854\nasVage_max\np17855\nI65\nsVcountries\np17856\n(lp17857\nVUS\np17858\nasVbroad_age\np17859\nI1\nsVage_min\np17860\nI18\nssVbid_info\np17861\n(dp17862\nV1\np17863\nV80\np17864\nssVstart_time\np17865\nNsVad_status\np17866\nI2\nsVcampaign_id\np17867\nI6004661435965\nsVlocations\np17868\n(lp17869\nI3\nasVcreated_time\np17870\nV2012-01-26T20:41:27+0000\np17871\nsVend_time\np17872\nV2012-01-27T23:30:00+0000\np17873\nsVadgroup_status\np17874\nI9\nsVid\np17875\nV6004661439365\np17876\nsVad_id\np17877\nI6004661439365\nsVimpression_control_map\np17878\n(lp17879\n(dp17880\nVcontrol\np17881\n(dp17882\nVuser_impression_limit_period\np17883\nI24\nsVuser_impression_limit\np17884\nI3\nsVuser_impression_limit_period_unit\np17885\nI0\nsVimpression_control_type\np17886\nI2\nssVlocation\np17887\nI3\nsasVcreative_ids\np17888\n(lp17889\nI6004661438965\nasVmax_bid\np17890\nV80\np17891\nsVadgroup_id\np17892\nI6004661439365\nsVaccount_id\np17893\nI40156177\nsa(dp17894\nVconversion_specs\np17895\n(lp17896\nsVupdated_time\np17897\nV2012-09-21T19:59:04+0000\np17898\nsVbid_type\np17899\nI1\nsVname\np17900\nVWatch Billy Tonight @11!\np17901\nsVtracking_pixel_ids\np17902\n(lp17903\nsVtargeting\np17904\n(dp17905\nVkeywords\np17906\n(lp17907\nVfusetv tag your tune\np17908\naVstandup comedy\np17909\naV#Comedy\np17910\naV#CollegeHumor\np17911\naV#Stand-up comedy\np17912\naV#Cracked.com\np17913\naVcomedians comedy\np17914\naV#Fuse TV\np17915\naVfunnyordie\np17916\naVfuse\np17917\naV#Funny or Die\np17918\naV#The Comedians of Comedy\np17919\naVyou tube\np17920\naVfunnyordiecom\np17921\naV#Cracked (magazine)\np17922\naV#YouTube\np17923\nasVage_max\np17924\nI65\nsVcountries\np17925\n(lp17926\nVUS\np17927\nasVbroad_age\np17928\nI1\nsVage_min\np17929\nI18\nssVbid_info\np17930\n(dp17931\nV1\np17932\nV80\np17933\nssVstart_time\np17934\nNsVad_status\np17935\nI2\nsVcampaign_id\np17936\nI6004661441765\nsVlocations\np17937\n(lp17938\nI3\nasVcreated_time\np17939\nV2012-01-26T20:43:09+0000\np17940\nsVend_time\np17941\nV2012-01-27T23:30:00+0000\np17942\nsVadgroup_status\np17943\nI8\nsVid\np17944\nV6004661442765\np17945\nsVad_id\np17946\nI6004661442765\nsVimpression_control_map\np17947\n(lp17948\n(dp17949\nVcontrol\np17950\n(dp17951\nVuser_impression_limit_period\np17952\nI24\nsVuser_impression_limit\np17953\nI3\nsVuser_impression_limit_period_u"
p6
sS'hash'
p7
S'3452051f1fd24c4c5d19846db74f9a3229af7a7f'
p8
sS'stack'
p9
S''
s.