(dp1
S'args'
p2
S''
sS'methodname'
p3
S''
sS'packet_num'
p4
I161
sS'returnval'
p5
S'13\nVcontrol\np31514\n(dp31515\nVuser_impression_limit_period\np31516\nI24\nsVuser_impression_limit\np31517\nI6\nsVuser_impression_limit_period_unit\np31518\nI0\nsVimpression_control_type\np31519\nI2\nssVlocation\np31520\nI3\nsasVcreative_ids\np31521\n(lp31522\nI6005089823565\nasVmax_bid\np31523\nV65\np31524\nsVadgroup_id\np31525\nI6005089823965\nsVaccount_id\np31526\nI40156177\nsa(dp31527\nVconversion_specs\np31528\n(lp31529\nsVupdated_time\np31530\nV2012-04-30T15:31:58+0000\np31531\nsVbid_type\np31532\nI1\nsVname\np31533\nVDelicious Party Recipes\np31534\nsVtracking_pixel_ids\np31535\n(lp31536\nsVtargeting\np31537\n(dp31538\nVage_max\np31539\nI65\nsVcountries\np31540\n(lp31541\nVUS\np31542\nasVuser_adclusters\np31543\n(lp31544\n(dp31545\nVid\np31546\nV6002714886772\np31547\nsVname\np31548\nVFood & Dining\np31549\nsasVbroad_age\np31550\nI1\nsVage_min\np31551\nI20\nssVbid_info\np31552\n(dp31553\nV1\np31554\nV66\np31555\nssVstart_time\np31556\nV2012-04-06T15:50:00+0000\np31557\nsVad_status\np31558\nI2\nsVcampaign_id\np31559\nI6004963134165\nsVlocations\np31560\n(lp31561\nI3\nasVcreated_time\np31562\nV2012-04-04T17:34:58+0000\np31563\nsVend_time\np31564\nV2012-05-01T03:00:00+0000\np31565\nsVadgroup_status\np31566\nI9\nsVid\np31567\nV6004963135965\np31568\nsVad_id\np31569\nI6004963135965\nsVimpression_control_map\np31570\n(lp31571\n(dp31572\nVcontrol\np31573\n(dp31574\nVuser_impression_limit_period\np31575\nI24\nsVuser_impression_limit\np31576\nI3\nsVuser_impression_limit_period_unit\np31577\nI0\nsVimpression_control_type\np31578\nI2\nssVlocation\np31579\nI3\nsasVcreative_ids\np31580\n(lp31581\nI6004963135165\nasVmax_bid\np31582\nV66\np31583\nsVadgroup_id\np31584\nI6004963135965\nsVaccount_id\np31585\nI40156177\nsa(dp31586\nVconversion_specs\np31587\n(lp31588\nsVupdated_time\np31589\nV2012-04-30T15:35:46+0000\np31590\nsVbid_type\np31591\nI1\nsVname\np31592\nVMac & Cheese Bite Recipes\np31593\nsVtracking_pixel_ids\np31594\n(lp31595\nsVtargeting\np31596\n(dp31597\nVage_max\np31598\nI65\nsVcountries\np31599\n(lp31600\nVUS\np31601\nasVuser_adclusters\np31602\n(lp31603\n(dp31604\nVid\np31605\nV6002714886772\np31606\nsVname\np31607\nVFood & Dining\np31608\nsasVbroad_age\np31609\nI1\nsVage_min\np31610\nI20\nssVbid_info\np31611\n(dp31612\nV1\np31613\nV75\np31614\nssVstart_time\np31615\nV2012-04-06T15:50:00+0000\np31616\nsVad_status\np31617\nI2\nsVcampaign_id\np31618\nI6004963134165\nsVlocations\np31619\n(lp31620\nI3\nasVcreated_time\np31621\nV2012-04-04T17:36:25+0000\np31622\nsVend_time\np31623\nV2012-05-01T03:00:00+0000\np31624\nsVadgroup_status\np31625\nI9\nsVid\np31626\nV6004963142765\np31627\nsVad_id\np31628\nI6004963142765\nsVimpression_control_map\np31629\n(lp31630\n(dp31631\nVcontrol\np31632\n(dp31633\nVuser_impression_limit_period\np31634\nI24\nsVuser_impression_limit\np31635\nI3\nsVuser_impression_limit_period_unit\np31636\nI0\nsVimpression_control_type\np31637\nI2\nssVlocation\np31638\nI3\nsasVcreative_ids\np31639\n(lp31640\nI6004963142365\nasVmax_bid\np31641\nV75\np31642\nsVadgroup_id\np31643\nI6004963142765\nsVaccount_id\np31644\nI40156177\nsa(dp31645\nVconversion_specs\np31646\n(lp31647\nsVupdated_time\np31648\nV2012-04-30T15:35:47+0000\np31649\nsVbid_type\np31650\nI1\nsVname\np31651\nVDelicious Party Recipes 1\np31652\nsVtracking_pixel_ids\np31653\n(lp31654\nsVtargeting\np31655\n(dp31656\nVage_max\np31657\nI65\nsVcountries\np31658\n(lp31659\nVUS\np31660\nasVuser_adclusters\np31661\n(lp31662\n(dp31663\nVid\np31664\nV6002714886772\np31665\nsVname\np31666\nVFood & Dining\np31667\nsasVbroad_age\np31668\nI1\nsVage_min\np31669\nI20\nssVbid_info\np31670\n(dp31671\nV1\np31672\nV75\np31673\nssVstart_time\np31674\nV2012-04-06T15:50:00+0000\np31675\nsVad_status\np31676\nI2\nsVcampaign_id\np31677\nI6004963134165\nsVlocations\np31678\n(lp31679\nI3\nasVcreated_time\np31680\nV2012-04-04T17:36:52+0000\np31681\nsVend_time\np31682\nV2012-05-01T03:00:00+0000\np31683\nsVadgroup_status\np31684\nI9\nsVid\np31685\nV6004963152965\np31686\nsVad_id\np31687\nI6004963152965\nsVimpression_control_map\np31688\n(lp31689\n(dp31690\nVcontrol\np31691\n(dp31692\nVuser_impression_limit_period\np31693\nI24\nsVuser_impression_limit\np31694\nI3\nsVuser_impression_limit_period_unit\np31695\nI0\nsVimpression_control_type\np31696\nI2\nssVlocation\np31697\nI3\nsasVcreative_ids\np31698\n(lp31699\nI6004963152565\nasVmax_bid\np31700\nV75\np31701\nsVadgroup_id\np31702\nI6004963152965\nsVaccount_id\np31703\nI40156177\nsa(dp31704\nVconversion_specs\np31705\n(l'
p6
sS'hash'
p7
S'3452051f1fd24c4c5d19846db74f9a3229af7a7f'
p8
sS'stack'
p9
S''
s.