(dp1
S'args'
p2
S''
sS'methodname'
p3
S''
sS'packet_num'
p4
I29
sS'returnval'
p5
S'\nsVbid_type\np5935\nI1\nsVname\np5936\nVWireless Internet Crisis\np5937\nsVtracking_pixel_ids\np5938\n(lp5939\nsVtargeting\np5940\n(dp5941\nVage_max\np5942\nI65\nsVcountries\np5943\n(lp5944\nVUS\np5945\nasVbroad_age\np5946\nI1\nsVage_min\np5947\nI18\nssVbid_info\np5948\n(dp5949\nV1\np5950\nV85\np5951\nssVstart_time\np5952\nNsVad_status\np5953\nI2\nsVcampaign_id\np5954\nI6004094267165\nsVlocations\np5955\n(lp5956\nI3\nasVcreated_time\np5957\nV2011-12-01T20:42:39+0000\np5958\nsVend_time\np5959\nV2011-12-06T23:00:00+0000\np5960\nsVadgroup_status\np5961\nI8\nsVid\np5962\nV6004094268165\np5963\nsVad_id\np5964\nI6004094268165\nsVimpression_control_map\np5965\n(lp5966\n(dp5967\nVcontrol\np5968\n(dp5969\nVuser_impression_limit_period\np5970\nI24\nsVuser_impression_limit\np5971\nI6\nsVuser_impression_limit_period_unit\np5972\nI0\nsVimpression_control_type\np5973\nI2\nssVlocation\np5974\nI3\nsasVcreative_ids\np5975\n(lp5976\nI6004094267765\nasVmax_bid\np5977\nV85\np5978\nsVadgroup_id\np5979\nI6004094268165\nsVaccount_id\np5980\nI40156177\nsa(dp5981\nVconversion_specs\np5982\n(lp5983\nsVupdated_time\np5984\nV2012-09-21T19:56:46+0000\np5985\nsVbid_type\np5986\nI1\nsVname\np5987\nVWireless Internet Crisis 1\np5988\nsVtracking_pixel_ids\np5989\n(lp5990\nsVtargeting\np5991\n(dp5992\nVkeywords\np5993\n(lp5994\nV#Wi-Fi\np5995\nasVage_max\np5996\nI65\nsVcountries\np5997\n(lp5998\nVUS\np5999\nasVbroad_age\np6000\nI1\nsVage_min\np6001\nI18\nssVbid_info\np6002\n(dp6003\nV1\np6004\nV85\np6005\nssVstart_time\np6006\nNsVad_status\np6007\nI2\nsVcampaign_id\np6008\nI6004094267165\nsVlocations\np6009\n(lp6010\nI3\nasVcreated_time\np6011\nV2011-12-05T21:51:33+0000\np6012\nsVend_time\np6013\nV2011-12-06T23:00:00+0000\np6014\nsVadgroup_status\np6015\nI8\nsVid\np6016\nV6004119272165\np6017\nsVad_id\np6018\nI6004119272165\nsVimpression_control_map\np6019\n(lp6020\n(dp6021\nVcontrol\np6022\n(dp6023\nVuser_impression_limit_period\np6024\nI24\nsVuser_impression_limit\np6025\nI6\nsVuser_impression_limit_period_unit\np6026\nI0\nsVimpression_control_type\np6027\nI2\nssVlocation\np6028\nI3\nsasVcreative_ids\np6029\n(lp6030\nI6004094267765\nasVmax_bid\np6031\nV85\np6032\nsVadgroup_id\np6033\nI6004119272165\nsVaccount_id\np6034\nI40156177\nsa(dp6035\nVconversion_specs\np6036\n(lp6037\nsVupdated_time\np6038\nV2012-09-21T19:56:48+0000\np6039\nsVbid_type\np6040\nI1\nsVname\np6041\nV10 Internet Easter Eggs\np6042\nsVtracking_pixel_ids\np6043\n(lp6044\nsVtargeting\np6045\n(dp6046\nVage_max\np6047\nI65\nsVcountries\np6048\n(lp6049\nVUS\np6050\nasVbroad_age\np6051\nI1\nsVage_min\np6052\nI18\nssVbid_info\np6053\n(dp6054\nV1\np6055\nV85\np6056\nssVstart_time\np6057\nNsVad_status\np6058\nI2\nsVcampaign_id\np6059\nI6004094269965\nsVlocations\np6060\n(lp6061\nI3\nasVcreated_time\np6062\nV2011-12-01T20:48:39+0000\np6063\nsVend_time\np6064\nV2011-12-06T23:00:00+0000\np6065\nsVadgroup_status\np6066\nI8\nsVid\np6067\nV6004094270965\np6068\nsVad_id\np6069\nI6004094270965\nsVimpression_control_map\np6070\n(lp6071\n(dp6072\nVcontrol\np6073\n(dp6074\nVuser_impression_limit_period\np6075\nI24\nsVuser_impression_limit\np6076\nI6\nsVuser_impression_limit_period_unit\np6077\nI0\nsVimpression_control_type\np6078\nI2\nssVlocation\np6079\nI3\nsasVcreative_ids\np6080\n(lp6081\nI6004094270565\nasVmax_bid\np6082\nV85\np6083\nsVadgroup_id\np6084\nI6004094270965\nsVaccount_id\np6085\nI40156177\nsa(dp6086\nVconversion_specs\np6087\n(lp6088\nsVupdated_time\np6089\nV2012-09-21T19:56:48+0000\np6090\nsVbid_type\np6091\nI1\nsVname\np6092\nV10 Internet Easter Eggs 1\np6093\nsVtracking_pixel_ids\np6094\n(lp6095\nsVtargeting\np6096\n(dp6097\nVkeywords\np6098\n(lp6099\nV#Wi-Fi\np6100\nasVage_max\np6101\nI65\nsVcountries\np6102\n(lp6103\nVUS\np6104\nasVbroad_age\np6105\nI1\nsVage_min\np6106\nI18\nssVbid_info\np6107\n(dp6108\nV1\np6109\nV85\np6110\nssVstart_time\np6111\nNsVad_status\np6112\nI2\nsVcampaign_id\np6113\nI6004094269965\nsVlocations\np6114\n(lp6115\nI3\nasVcreated_time\np6116\nV2011-12-05T21:52:22+0000\np6117\nsVend_time\np6118\nV2011-12-06T23:00:00+0000\np6119\nsVadgroup_status\np6120\nI8\nsVid\np6121\nV6004119273965\np6122\nsVad_id\np6123\nI6004119273965\nsVimpression_control_map\np6124\n(lp6125\n(dp6126\nVcontrol\np6127\n(dp6128\nVuser_impression_limit_period\np6129\nI24\nsVuser_impression_limit\np6130\nI6\nsVuser_impression_limit_period_unit\np6131\nI0\nsVimpression_control_type\np6132\nI2\nssVlocation\np6133\nI3\nsasVcreative_ids\np6134\n(lp6135\nI6004094270565\nasVmax_bid\np6136\nV85\np6137\nsVadgroup_id\np6'
p6
sS'hash'
p7
S'3452051f1fd24c4c5d19846db74f9a3229af7a7f'
p8
sS'stack'
p9
S''
s.