(dp1
S'args'
p2
S''
sS'methodname'
p3
S''
sS'packet_num'
p4
I21
sS'returnval'
p5
S'314\nssVstart_time\np4315\nNsVad_status\np4316\nI2\nsVcampaign_id\np4317\nI6004073168165\nsVlocations\np4318\n(lp4319\nI3\nasVcreated_time\np4320\nV2011-11-28T17:02:38+0000\np4321\nsVend_time\np4322\nNsVadgroup_status\np4323\nI8\nsVid\np4324\nV6004073169165\np4325\nsVad_id\np4326\nI6004073169165\nsVimpression_control_map\np4327\n(lp4328\n(dp4329\nVcontrol\np4330\n(dp4331\nVuser_impression_limit_period\np4332\nI24\nsVuser_impression_limit\np4333\nI3\nsVuser_impression_limit_period_unit\np4334\nI0\nsVimpression_control_type\np4335\nI2\nssVlocation\np4336\nI3\nsasVcreative_ids\np4337\n(lp4338\nI6004073168765\nasVmax_bid\np4339\nV80\np4340\nsVadgroup_id\np4341\nI6004073169165\nsVaccount_id\np4342\nI40156177\nsa(dp4343\nVconversion_specs\np4344\n(lp4345\nsVupdated_time\np4346\nV2011-11-30T15:33:20+0000\np4347\nsVbid_type\np4348\nI1\nsVname\np4349\nVAlways Travel In Style! (Studebaker)\np4350\nsVtracking_pixel_ids\np4351\n(lp4352\nsVtargeting\np4353\n(dp4354\nVkeywords\np4355\n(lp4356\nV#Classic car\np4357\naVsailor jerry rum\np4358\naV#Studebaker\np4359\naV#Sailor Jerry\np4360\naV#Vintage car\np4361\naV#Muscle car\np4362\nasVage_max\np4363\nI65\nsVcountries\np4364\n(lp4365\nVUS\np4366\nasVbroad_age\np4367\nI1\nsVage_min\np4368\nI21\nssVbid_info\np4369\n(dp4370\nV1\np4371\nV80\np4372\nssVstart_time\np4373\nNsVad_status\np4374\nI2\nsVcampaign_id\np4375\nI6004073168165\nsVlocations\np4376\n(lp4377\nI3\nasVcreated_time\np4378\nV2011-11-28T17:11:53+0000\np4379\nsVend_time\np4380\nNsVadgroup_status\np4381\nI9\nsVid\np4382\nV6004073175765\np4383\nsVad_id\np4384\nI6004073175765\nsVimpression_control_map\np4385\n(lp4386\n(dp4387\nVcontrol\np4388\n(dp4389\nVuser_impression_limit_period\np4390\nI24\nsVuser_impression_limit\np4391\nI6\nsVuser_impression_limit_period_unit\np4392\nI0\nsVimpression_control_type\np4393\nI2\nssVlocation\np4394\nI3\nsasVcreative_ids\np4395\n(lp4396\nI6004073175365\nasVmax_bid\np4397\nV80\np4398\nsVadgroup_id\np4399\nI6004073175765\nsVaccount_id\np4400\nI40156177\nsa(dp4401\nVconversion_specs\np4402\n(lp4403\nsVupdated_time\np4404\nV2011-11-30T15:33:22+0000\np4405\nsVbid_type\np4406\nI1\nsVname\np4407\nVAlways Travel In Style! (Tumbler)\np4408\nsVtracking_pixel_ids\np4409\n(lp4410\nsVtargeting\np4411\n(dp4412\nVkeywords\np4413\n(lp4414\nV#Batman Begins\np4415\naVsailor jerry rum\np4416\naV#The Dark Knight (film)\np4417\naVtumbler batmobile\np4418\naV#Sailor Jerry\np4419\nasVage_max\np4420\nI65\nsVcountries\np4421\n(lp4422\nVUS\np4423\nasVbroad_age\np4424\nI1\nsVage_min\np4425\nI21\nssVbid_info\np4426\n(dp4427\nV1\np4428\nV80\np4429\nssVstart_time\np4430\nNsVad_status\np4431\nI2\nsVcampaign_id\np4432\nI6004073168165\nsVlocations\np4433\n(lp4434\nI3\nasVcreated_time\np4435\nV2011-11-28T17:15:53+0000\np4436\nsVend_time\np4437\nNsVadgroup_status\np4438\nI9\nsVid\np4439\nV6004073178765\np4440\nsVad_id\np4441\nI6004073178765\nsVimpression_control_map\np4442\n(lp4443\n(dp4444\nVcontrol\np4445\n(dp4446\nVuser_impression_limit_period\np4447\nI24\nsVuser_impression_limit\np4448\nI6\nsVuser_impression_limit_period_unit\np4449\nI0\nsVimpression_control_type\np4450\nI2\nssVlocation\np4451\nI3\nsasVcreative_ids\np4452\n(lp4453\nI6004073178365\nasVmax_bid\np4454\nV80\np4455\nsVadgroup_id\np4456\nI6004073178765\nsVaccount_id\np4457\nI40156177\nsa(dp4458\nVconversion_specs\np4459\n(lp4460\nsVupdated_time\np4461\nV2011-11-30T15:33:19+0000\np4462\nsVbid_type\np4463\nI1\nsVname\np4464\nVAlways Travel In Style! (Mayer)\np4465\nsVtracking_pixel_ids\np4466\n(lp4467\nsVtargeting\np4468\n(dp4469\nVkeywords\np4470\n(lp4471\nV#Oscar Mayer\np4472\naVsailor jerry rum\np4473\naV#Sailor Jerry\np4474\nasVage_max\np4475\nI65\nsVcountries\np4476\n(lp4477\nVUS\np4478\nasVbroad_age\np4479\nI1\nsVage_min\np4480\nI21\nssVbid_info\np4481\n(dp4482\nV1\np4483\nV80\np4484\nssVstart_time\np4485\nNsVad_status\np4486\nI2\nsVcampaign_id\np4487\nI6004073168165\nsVlocations\np4488\n(lp4489\nI3\nasVcreated_time\np4490\nV2011-11-28T17:31:29+0000\np4491\nsVend_time\np4492\nNsVadgroup_status\np4493\nI9\nsVid\np4494\nV6004073187765\np4495\nsVad_id\np4496\nI6004073187765\nsVimpression_control_map\np4497\n(lp4498\n(dp4499\nVcontrol\np4500\n(dp4501\nVuser_impression_limit_period\np4502\nI24\nsVuser_impression_limit\np4503\nI6\nsVuser_impression_limit_period_unit\np4504\nI0\nsVimpression_control_type\np4505\nI2\nssVlocation\np4506\nI3\nsasVcreative_ids\np4507\n(lp4508\nI6004073187365\nasVmax_bid\np4509\nV80\np4510\nsVadgroup_id\np4511\nI6004073187765\nsVaccount_id\np4512\nI4015'
p6
sS'hash'
p7
S'3452051f1fd24c4c5d19846db74f9a3229af7a7f'
p8
sS'stack'
p9
S''
s.