(dp1
S'args'
p2
S''
sS'methodname'
p3
S''
sS'packet_num'
p4
I265
sS'returnval'
p5
S'15\nssVbid_info\np51890\n(dp51891\nV1\np51892\nV67\np51893\nssVstart_time\np51894\nNsVad_status\np51895\nI2\nsVcampaign_id\np51896\nI6005229731765\nsVlocations\np51897\n(lp51898\nI3\nasVcreated_time\np51899\nV2012-05-25T15:39:02+0000\np51900\nsVend_time\np51901\nV2012-05-29T04:00:00+0000\np51902\nsVadgroup_status\np51903\nI8\nsVid\np51904\nV6005229732765\np51905\nsVad_id\np51906\nI6005229732765\nsVimpression_control_map\np51907\n(lp51908\n(dp51909\nVcontrol\np51910\n(dp51911\nVuser_impression_limit_period\np51912\nI24\nsVuser_impression_limit\np51913\nI6\nsVuser_impression_limit_period_unit\np51914\nI0\nsVimpression_control_type\np51915\nI2\nssVlocation\np51916\nI3\nsasVcreative_ids\np51917\n(lp51918\nI6005229732365\nasVmax_bid\np51919\nV67\np51920\nsVadgroup_id\np51921\nI6005229732765\nsVaccount_id\np51922\nI40156177\nsa(dp51923\nVconversion_specs\np51924\n(lp51925\nsVupdated_time\np51926\nV2012-09-21T20:05:51+0000\np51927\nsVbid_type\np51928\nI1\nsVname\np51929\nVFood Art or Real Lobster? 1\np51930\nsVtracking_pixel_ids\np51931\n(lp51932\nsVtargeting\np51933\n(dp51934\nVage_max\np51935\nI65\nsVcountries\np51936\n(lp51937\nVUS\np51938\nasVbroad_age\np51939\nI1\nsVage_min\np51940\nI15\nssVbid_info\np51941\n(dp51942\nV1\np51943\nV67\np51944\nssVstart_time\np51945\nNsVad_status\np51946\nI2\nsVcampaign_id\np51947\nI6005229731765\nsVlocations\np51948\n(lp51949\nI3\nasVcreated_time\np51950\nV2012-05-28T16:47:25+0000\np51951\nsVend_time\np51952\nNsVadgroup_status\np51953\nI8\nsVid\np51954\nV6005236679365\np51955\nsVad_id\np51956\nI6005236679365\nsVimpression_control_map\np51957\n(lp51958\n(dp51959\nVcontrol\np51960\n(dp51961\nVuser_impression_limit_period\np51962\nI24\nsVuser_impression_limit\np51963\nI6\nsVuser_impression_limit_period_unit\np51964\nI0\nsVimpression_control_type\np51965\nI2\nssVlocation\np51966\nI3\nsasVcreative_ids\np51967\n(lp51968\nI6005229732365\nasVmax_bid\np51969\nV67\np51970\nsVadgroup_id\np51971\nI6005236679365\nsVaccount_id\np51972\nI40156177\nsa(dp51973\nVconversion_specs\np51974\n(lp51975\nsVupdated_time\np51976\nV2012-09-21T20:05:53+0000\np51977\nsVbid_type\np51978\nI1\nsVname\np51979\nVThe 19 Most Ridiculous Texting Fails\np51980\nsVtracking_pixel_ids\np51981\n(lp51982\nsVtargeting\np51983\n(dp51984\nVaction_spec_friend\np51985\n(lp51986\n(dp51987\nVpost.object\np51988\nVhttp://www.buzzfeed.com/virginmobilelive/the-19-most-ridiculous-texting-fails-5l87\np51989\nsVaction.type\np51990\nVlike\np51991\nsasVcountries\np51992\n(lp51993\nVUS\np51994\nassVbid_info\np51995\n(dp51996\nV1\np51997\nV50\np51998\nssVstart_time\np51999\nNsVad_status\np52000\nI2\nsVcampaign_id\np52001\nI6005230281565\nsVlocations\np52002\n(lp52003\nI3\nasVcreated_time\np52004\nV2012-05-25T18:43:16+0000\np52005\nsVend_time\np52006\nNsVadgroup_status\np52007\nI8\nsVid\np52008\nV6005230283965\np52009\nsVad_id\np52010\nI6005230283965\nsVimpression_control_map\np52011\n(lp52012\n(dp52013\nVcontrol\np52014\n(dp52015\nVuser_impression_limit_period\np52016\nI24\nsVuser_impression_limit\np52017\nI3\nsVuser_impression_limit_period_unit\np52018\nI0\nsVimpression_control_type\np52019\nI2\nssVlocation\np52020\nI3\nsasVcreative_ids\np52021\n(lp52022\nI6005230283365\nasVmax_bid\np52023\nV50\np52024\nsVadgroup_id\np52025\nI6005230283965\nsVaccount_id\np52026\nI40156177\nsa(dp52027\nVconversion_specs\np52028\n(lp52029\nsVupdated_time\np52030\nV2012-09-21T20:05:55+0000\np52031\nsVbid_type\np52032\nI1\nsVname\np52033\nV12 Sad (But True) Social Network Stereotypes\np52034\nsVtracking_pixel_ids\np52035\n(lp52036\nsVtargeting\np52037\n(dp52038\nVaction_spec_friend\np52039\n(lp52040\n(dp52041\nVpost.object\np52042\nVhttp://www.buzzfeed.com/virginmobilelive/12-sad-but-true-social-network-stereotypes-5l87\np52043\nsVaction.type\np52044\nVlike\np52045\nsasVcountries\np52046\n(lp52047\nVUS\np52048\nassVbid_info\np52049\n(dp52050\nV1\np52051\nV50\np52052\nssVstart_time\np52053\nNsVad_status\np52054\nI2\nsVcampaign_id\np52055\nI6005230476165\nsVlocations\np52056\n(lp52057\nI3\nasVcreated_time\np52058\nV2012-05-25T19:24:03+0000\np52059\nsVend_time\np52060\nNsVadgroup_status\np52061\nI8\nsVid\np52062\nV6005230490565\np52063\nsVad_id\np52064\nI6005230490565\nsVimpression_control_map\np52065\n(lp52066\n(dp52067\nVcontrol\np52068\n(dp52069\nVuser_impression_limit_period\np52070\nI24\nsVuser_impression_limit\np52071\nI6\nsVuser_impression_limit_period_unit\np52072\nI0\nsVimpression_control_type\np52073\nI2\nssVlocation\np52074\nI3\nsasVcrea'
p6
sS'hash'
p7
S'3452051f1fd24c4c5d19846db74f9a3229af7a7f'
p8
sS'stack'
p9
S''
s.