(dp1
S'args'
p2
S''
sS'methodname'
p3
S''
sS'packet_num'
p4
I245
sS'returnval'
p5
S"account_id\np48013\nI40156177\nsa(dp48014\nVconversion_specs\np48015\n(lp48016\nsVupdated_time\np48017\nV2012-05-22T04:00:11+0000\np48018\nsVbid_type\np48019\nI1\nsVname\np48020\nVGimmie the Mic!\np48021\nsVtracking_pixel_ids\np48022\n(lp48023\nsVtargeting\np48024\n(dp48025\nVkeywords\np48026\n(lp48027\nV#Snoop Dogg\np48028\naV#Hip hop\np48029\nasVage_max\np48030\nI65\nsVcountries\np48031\n(lp48032\nVUS\np48033\nasVbroad_age\np48034\nI1\nsVage_min\np48035\nI13\nssVbid_info\np48036\n(dp48037\nV1\np48038\nV58\np48039\nssVstart_time\np48040\nNsVad_status\np48041\nI2\nsVcampaign_id\np48042\nI6005173807365\nsVlocations\np48043\n(lp48044\nI3\nasVcreated_time\np48045\nV2012-05-18T17:13:57+0000\np48046\nsVend_time\np48047\nV2012-05-22T04:00:00+0000\np48048\nsVadgroup_status\np48049\nI8\nsVid\np48050\nV6005173808365\np48051\nsVad_id\np48052\nI6005173808365\nsVimpression_control_map\np48053\n(lp48054\n(dp48055\nVcontrol\np48056\n(dp48057\nVuser_impression_limit_period\np48058\nI24\nsVuser_impression_limit\np48059\nI6\nsVuser_impression_limit_period_unit\np48060\nI0\nsVimpression_control_type\np48061\nI2\nssVlocation\np48062\nI3\nsasVcreative_ids\np48063\n(lp48064\nI6005173807965\nasVmax_bid\np48065\nV58\np48066\nsVadgroup_id\np48067\nI6005173808365\nsVaccount_id\np48068\nI40156177\nsa(dp48069\nVconversion_specs\np48070\n(lp48071\nsVupdated_time\np48072\nV2012-09-21T20:04:46+0000\np48073\nsVbid_type\np48074\nI1\nsVname\np48075\nVGood Morning Pee Wee!\np48076\nsVtracking_pixel_ids\np48077\n(lp48078\nsVtargeting\np48079\n(dp48080\nVkeywords\np48081\n(lp48082\nV#Pee-wee's Playhouse\np48083\naV#Big Top Pee-wee\np48084\naV#Pee-wee Herman\np48085\naVpee wee herman\np48086\naV#Beetlejuice\np48087\naV#Pee-wee's Big Adventure\np48088\naV#Ben Stiller\np48089\naVpee wee hermans big adventure\np48090\naV#Pee Wee (entertainer)\np48091\naVpeewee herman\np48092\naV#Adam Sandler\np48093\naVpeewees playhouse\np48094\naVpee wee\np48095\naV#Paul Reubens\np48096\naVpee wee herman fan club\np48097\naV#Edward Scissorhands\np48098\nasVage_max\np48099\nI65\nsVcountries\np48100\n(lp48101\nVUS\np48102\nasVbroad_age\np48103\nI1\nsVage_min\np48104\nI13\nssVbid_info\np48105\n(dp48106\nV1\np48107\nV65\np48108\nssVstart_time\np48109\nNsVad_status\np48110\nI2\nsVcampaign_id\np48111\nI6005181320165\nsVlocations\np48112\n(lp48113\nI3\nasVcreated_time\np48114\nV2012-05-21T14:43:24+0000\np48115\nsVend_time\np48116\nV2012-05-28T03:00:00+0000\np48117\nsVadgroup_status\np48118\nI8\nsVid\np48119\nV6005181321165\np48120\nsVad_id\np48121\nI6005181321165\nsVimpression_control_map\np48122\n(lp48123\n(dp48124\nVcontrol\np48125\n(dp48126\nVuser_impression_limit_period\np48127\nI24\nsVuser_impression_limit\np48128\nI6\nsVuser_impression_limit_period_unit\np48129\nI0\nsVimpression_control_type\np48130\nI2\nssVlocation\np48131\nI3\nsasVcreative_ids\np48132\n(lp48133\nI6005181320765\nasVmax_bid\np48134\nV65\np48135\nsVadgroup_id\np48136\nI6005181321165\nsVaccount_id\np48137\nI40156177\nsa(dp48138\nVconversion_specs\np48139\n(lp48140\nsVupdated_time\np48141\nV2012-09-21T20:04:46+0000\np48142\nsVbid_type\np48143\nI1\nsVname\np48144\nVLove Breakfast & Movies?\np48145\nsVtracking_pixel_ids\np48146\n(lp48147\nsVtargeting\np48148\n(dp48149\nVkeywords\np48150\n(lp48151\nV#Movies\np48152\nasVage_max\np48153\nI65\nsVcountries\np48154\n(lp48155\nVUS\np48156\nasVbroad_age\np48157\nI1\nsVage_min\np48158\nI13\nssVbid_info\np48159\n(dp48160\nV1\np48161\nV65\np48162\nssVstart_time\np48163\nNsVad_status\np48164\nI2\nsVcampaign_id\np48165\nI6005181320165\nsVlocations\np48166\n(lp48167\nI3\nasVcreated_time\np48168\nV2012-05-25T17:01:49+0000\np48169\nsVend_time\np48170\nV2012-05-28T03:00:00+0000\np48171\nsVadgroup_status\np48172\nI8\nsVid\np48173\nV6005229949165\np48174\nsVad_id\np48175\nI6005229949165\nsVimpression_control_map\np48176\n(lp48177\n(dp48178\nVcontrol\np48179\n(dp48180\nVuser_impression_limit_period\np48181\nI24\nsVuser_impression_limit\np48182\nI6\nsVuser_impression_limit_period_unit\np48183\nI0\nsVimpression_control_type\np48184\nI2\nssVlocation\np48185\nI3\nsasVcreative_ids\np48186\n(lp48187\nI6005229948765\nasVmax_bid\np48188\nV65\np48189\nsVadgroup_id\np48190\nI6005229949165\nsVaccount_id\np48191\nI40156177\nsa(dp48192\nVconversion_specs\np48193\n(lp48194\nsVupdated_time\np48195\nV2012-09-21T20:04:48+0000\np48196\nsVbid_type\np48197\nI1\nsVname\np48198\nVDo you love breakfast? 1\np48199\nsVtracking_pixel_ids\np48200\n(lp48201\nsVtargeting\np48202\n(dp48203\nVage_max\np"
p6
sS'hash'
p7
S'3452051f1fd24c4c5d19846db74f9a3229af7a7f'
p8
sS'stack'
p9
S''
s.