(dp1
S'args'
p2
S''
sS'methodname'
p3
S''
sS'packet_num'
p4
I215
sS'returnval'
p5
S'acking_pixel_ids\np42011\n(lp42012\nsVtargeting\np42013\n(dp42014\nVage_max\np42015\nI65\nsVcountries\np42016\n(lp42017\nVUS\np42018\nasVbroad_age\np42019\nI1\nsVage_min\np42020\nI17\nssVbid_info\np42021\n(dp42022\nV1\np42023\nV65\np42024\nssVstart_time\np42025\nNsVad_status\np42026\nI2\nsVcampaign_id\np42027\nI6005058570365\nsVlocations\np42028\n(lp42029\nI3\nasVcreated_time\np42030\nV2012-04-25T18:51:12+0000\np42031\nsVend_time\np42032\nV2012-05-08T03:00:00+0000\np42033\nsVadgroup_status\np42034\nI8\nsVid\np42035\nV6005058571365\np42036\nsVad_id\np42037\nI6005058571365\nsVimpression_control_map\np42038\n(lp42039\n(dp42040\nVcontrol\np42041\n(dp42042\nVuser_impression_limit_period\np42043\nI24\nsVuser_impression_limit\np42044\nI6\nsVuser_impression_limit_period_unit\np42045\nI0\nsVimpression_control_type\np42046\nI2\nssVlocation\np42047\nI3\nsasVcreative_ids\np42048\n(lp42049\nI6005058570965\nasVmax_bid\np42050\nV65\np42051\nsVadgroup_id\np42052\nI6005058571365\nsVaccount_id\np42053\nI40156177\nsa(dp42054\nVconversion_specs\np42055\n(lp42056\nsVupdated_time\np42057\nV2012-09-21T20:03:00+0000\np42058\nsVbid_type\np42059\nI1\nsVname\np42060\nVA Toys R Us Kid! 1\np42061\nsVtracking_pixel_ids\np42062\n(lp42063\nsVtargeting\np42064\n(dp42065\nVage_max\np42066\nI17\nsVcountries\np42067\n(lp42068\nVUS\np42069\nasVbroad_age\np42070\nI1\nsVage_min\np42071\nI13\nssVbid_info\np42072\n(dp42073\nV1\np42074\nV65\np42075\nssVstart_time\np42076\nNsVad_status\np42077\nI2\nsVcampaign_id\np42078\nI6005058570365\nsVlocations\np42079\n(lp42080\nI3\nasVcreated_time\np42081\nV2012-05-07T15:14:30+0000\np42082\nsVend_time\np42083\nNsVadgroup_status\np42084\nI8\nsVid\np42085\nV6005126502565\np42086\nsVad_id\np42087\nI6005126502565\nsVimpression_control_map\np42088\n(lp42089\n(dp42090\nVcontrol\np42091\n(dp42092\nVuser_impression_limit_period\np42093\nI24\nsVuser_impression_limit\np42094\nI6\nsVuser_impression_limit_period_unit\np42095\nI0\nsVimpression_control_type\np42096\nI2\nssVlocation\np42097\nI3\nsasVcreative_ids\np42098\n(lp42099\nI6005058570965\nasVmax_bid\np42100\nV65\np42101\nsVadgroup_id\np42102\nI6005126502565\nsVaccount_id\np42103\nI40156177\nsa(dp42104\nVconversion_specs\np42105\n(lp42106\nsVupdated_time\np42107\nV2012-09-21T20:03:02+0000\np42108\nsVbid_type\np42109\nI1\nsVname\np42110\nVRemember Me?\np42111\nsVtracking_pixel_ids\np42112\n(lp42113\nsVtargeting\np42114\n(dp42115\nVage_max\np42116\nI65\nsVcountries\np42117\n(lp42118\nVUS\np42119\nasVbroad_age\np42120\nI1\nsVage_min\np42121\nI17\nssVbid_info\np42122\n(dp42123\nV1\np42124\nV65\np42125\nssVstart_time\np42126\nV2012-04-27T17:00:00+0000\np42127\nsVad_status\np42128\nI2\nsVcampaign_id\np42129\nI6005058661965\nsVlocations\np42130\n(lp42131\nI3\nasVcreated_time\np42132\nV2012-04-25T19:56:44+0000\np42133\nsVend_time\np42134\nNsVadgroup_status\np42135\nI8\nsVid\np42136\nV6005058662965\np42137\nsVad_id\np42138\nI6005058662965\nsVimpression_control_map\np42139\n(lp42140\n(dp42141\nVcontrol\np42142\n(dp42143\nVuser_impression_limit_period\np42144\nI24\nsVuser_impression_limit\np42145\nI6\nsVuser_impression_limit_period_unit\np42146\nI0\nsVimpression_control_type\np42147\nI2\nssVlocation\np42148\nI3\nsasVcreative_ids\np42149\n(lp42150\nI6005058662565\nasVmax_bid\np42151\nV65\np42152\nsVadgroup_id\np42153\nI6005058662965\nsVaccount_id\np42154\nI40156177\nsa(dp42155\nVconversion_specs\np42156\n(lp42157\nsVupdated_time\np42158\nV2012-09-21T20:03:04+0000\np42159\nsVbid_type\np42160\nI1\nsVname\np42161\nVDucks Fly Together!\np42162\nsVtracking_pixel_ids\np42163\n(lp42164\nsVtargeting\np42165\n(dp42166\nVkeywords\np42167\n(lp42168\nV#Hockey\np42169\naV#The Mighty Ducks\np42170\naV#National Hockey League\np42171\naV#D2: The Mighty Ducks\np42172\naV#Mighty Ducks (TV series)\np42173\naV#The Mighty Ducks (film series)\np42174\naV#D3: The Mighty Ducks\np42175\nasVage_max\np42176\nI65\nsVcountries\np42177\n(lp42178\nVUS\np42179\nasVbroad_age\np42180\nI1\nsVage_min\np42181\nI13\nssVbid_info\np42182\n(dp42183\nV1\np42184\nV55\np42185\nssVstart_time\np42186\nNsVad_status\np42187\nI2\nsVcampaign_id\np42188\nI6005071234565\nsVlocations\np42189\n(lp42190\nI3\nasVcreated_time\np42191\nV2012-04-27T14:53:14+0000\np42192\nsVend_time\np42193\nV2012-05-11T03:30:00+0000\np42194\nsVadgroup_status\np42195\nI8\nsVid\np42196\nV6005072679965\np42197\nsVad_id\np42198\nI6005072679965\nsVimpression_control_map\np42199\n(lp42200\n(dp42201\nVcontrol\np42202\n(dp42203\nVuser_impression_limit_period\np42204\nI24\ns'
p6
sS'hash'
p7
S'3452051f1fd24c4c5d19846db74f9a3229af7a7f'
p8
sS'stack'
p9
S''
s.