(dp1
S'args'
p2
S''
sS'methodname'
p3
S''
sS'packet_num'
p4
I300
sS'returnval'
p5
S'\nsVuser_impression_limit_period_unit\np58584\nI0\nsVimpression_control_type\np58585\nI2\nssVlocation\np58586\nI3\nsasVcreative_ids\np58587\n(lp58588\nI6005298010765\nasVmax_bid\np58589\nV100\np58590\nsVadgroup_id\np58591\nI6005298011365\nsVaccount_id\np58592\nI40156177\nsa(dp58593\nVconversion_specs\np58594\n(lp58595\nsVupdated_time\np58596\nV2012-09-21T20:07:58+0000\np58597\nsVbid_type\np58598\nI1\nsVname\np58599\nV20 Ways MTV Used To Own Summer\np58600\nsVtracking_pixel_ids\np58601\n(lp58602\nsVtargeting\np58603\n(dp58604\nVaction_spec_friend\np58605\n(lp58606\n(dp58607\nVobject\np58608\nVhttp://www.buzzfeed.com/virginmobilelive/10-ways-mtv-used-to-own-summer-5l87\np58609\nsVaction.type\np58610\nVlike\np58611\nsasVcountries\np58612\n(lp58613\nVUS\np58614\nassVbid_info\np58615\n(dp58616\nV1\np58617\nV100\np58618\nssVstart_time\np58619\nNsVad_status\np58620\nI2\nsVcampaign_id\np58621\nI6005298015365\nsVlocations\np58622\n(lp58623\nI3\nasVcreated_time\np58624\nV2012-06-12T20:21:59+0000\np58625\nsVend_time\np58626\nNsVadgroup_status\np58627\nI8\nsVid\np58628\nV6005298016765\np58629\nsVad_id\np58630\nI6005298016765\nsVimpression_control_map\np58631\n(lp58632\n(dp58633\nVcontrol\np58634\n(dp58635\nVuser_impression_limit_period\np58636\nI24\nsVuser_impression_limit\np58637\nI6\nsVuser_impression_limit_period_unit\np58638\nI0\nsVimpression_control_type\np58639\nI2\nssVlocation\np58640\nI3\nsasVcreative_ids\np58641\n(lp58642\nI6005298016165\nasVmax_bid\np58643\nV100\np58644\nsVadgroup_id\np58645\nI6005298016765\nsVaccount_id\np58646\nI40156177\nsa(dp58647\nVconversion_specs\np58648\n(lp58649\nsVupdated_time\np58650\nV2012-09-21T20:08:00+0000\np58651\nsVbid_type\np58652\nI1\nsVname\np58653\nV20 Hot Dating Tips From HBO\np58654\nsVtracking_pixel_ids\np58655\n(lp58656\nsVtargeting\np58657\n(dp58658\nVaction_spec_friend\np58659\n(lp58660\n(dp58661\nVobject\np58662\nVhttp://www.buzzfeed.com/virginmobilelive/20-hot-dating-tips-from-hbo\np58663\nsVaction.type\np58664\nVlike\np58665\nsasVcountries\np58666\n(lp58667\nVUS\np58668\nassVbid_info\np58669\n(dp58670\nV1\np58671\nV100\np58672\nssVstart_time\np58673\nNsVad_status\np58674\nI2\nsVcampaign_id\np58675\nI6005298019765\nsVlocations\np58676\n(lp58677\nI3\nasVcreated_time\np58678\nV2012-06-12T20:22:50+0000\np58679\nsVend_time\np58680\nNsVadgroup_status\np58681\nI8\nsVid\np58682\nV6005298021165\np58683\nsVad_id\np58684\nI6005298021165\nsVimpression_control_map\np58685\n(lp58686\n(dp58687\nVcontrol\np58688\n(dp58689\nVuser_impression_limit_period\np58690\nI24\nsVuser_impression_limit\np58691\nI6\nsVuser_impression_limit_period_unit\np58692\nI0\nsVimpression_control_type\np58693\nI2\nssVlocation\np58694\nI3\nsasVcreative_ids\np58695\n(lp58696\nI6005298020565\nasVmax_bid\np58697\nV100\np58698\nsVadgroup_id\np58699\nI6005298021165\nsVaccount_id\np58700\nI40156177\nsa(dp58701\nVconversion_specs\np58702\n(lp58703\nsVupdated_time\np58704\nV2012-09-21T20:08:02+0000\np58705\nsVbid_type\np58706\nI1\nsVname\np58707\nVDrunk Text Expectations vs. Drunk Text Realities\np58708\nsVtracking_pixel_ids\np58709\n(lp58710\nsVtargeting\np58711\n(dp58712\nVaction_spec_friend\np58713\n(lp58714\n(dp58715\nVobject\np58716\nVhttp://www.buzzfeed.com/virginmobilelive/drunk-text-expectations-vs-drunk-text-realities-5l87\np58717\nsVaction.type\np58718\nVlike\np58719\nsasVcountries\np58720\n(lp58721\nVUS\np58722\nassVbid_info\np58723\n(dp58724\nV1\np58725\nV100\np58726\nssVstart_time\np58727\nNsVad_status\np58728\nI2\nsVcampaign_id\np58729\nI6005298035565\nsVlocations\np58730\n(lp58731\nI3\nasVcreated_time\np58732\nV2012-06-12T20:26:56+0000\np58733\nsVend_time\np58734\nNsVadgroup_status\np58735\nI8\nsVid\np58736\nV6005298036965\np58737\nsVad_id\np58738\nI6005298036965\nsVimpression_control_map\np58739\n(lp58740\n(dp58741\nVcontrol\np58742\n(dp58743\nVuser_impression_limit_period\np58744\nI24\nsVuser_impression_limit\np58745\nI6\nsVuser_impression_limit_period_unit\np58746\nI0\nsVimpression_control_type\np58747\nI2\nssVlocation\np58748\nI3\nsasVcreative_ids\np58749\n(lp58750\nI6005298036365\nasVmax_bid\np58751\nV100\np58752\nsVadgroup_id\np58753\nI6005298036965\nsVaccount_id\np58754\nI40156177\nsa(dp58755\nVconversion_specs\np58756\n(lp58757\nsVupdated_time\np58758\nV2012-09-21T20:08:04+0000\np58759\nsVbid_type\np58760\nI1\nsVname\np58761\nV11 Outrageous And Bizarre Texts From Mom\np58762\nsVtracking_pixel_ids\np58763\n(lp58764\nsVtargeting\np58765\n(dp58766\nVaction_spec_friend\np58'
p6
sS'hash'
p7
S'3452051f1fd24c4c5d19846db74f9a3229af7a7f'
p8
sS'stack'
p9
S''
s.