(dp1
S'args'
p2
S''
sS'methodname'
p3
S''
sS'packet_num'
p4
I308
sS'returnval'
p5
S'ated_time\np60106\nV2012-09-21T20:08:19+0000\np60107\nsVbid_type\np60108\nI1\nsVname\np60109\nVFriends Who Like the Story\np60110\nsVtracking_pixel_ids\np60111\n(lp60112\nsVtargeting\np60113\n(dp60114\nVage_max\np60115\nI65\nsVcountries\np60116\n(lp60117\nVUS\np60118\nasVbroad_age\np60119\nI1\nsVage_min\np60120\nI13\nssVbid_info\np60121\n(dp60122\nV1\np60123\nV100\np60124\nssVstart_time\np60125\nNsVad_status\np60126\nI2\nsVcampaign_id\np60127\nI6005303382565\nsVlocations\np60128\n(lp60129\nI3\nasVcreated_time\np60130\nV2012-06-13T21:13:47+0000\np60131\nsVend_time\np60132\nNsVadgroup_status\np60133\nI8\nsVid\np60134\nV6005303392765\np60135\nsVad_id\np60136\nI6005303392765\nsVimpression_control_map\np60137\n(lp60138\n(dp60139\nVcontrol\np60140\n(dp60141\nVuser_impression_limit_period\np60142\nI24\nsVuser_impression_limit\np60143\nI3\nsVuser_impression_limit_period_unit\np60144\nI0\nsVimpression_control_type\np60145\nI2\nssVlocation\np60146\nI3\nsasVcreative_ids\np60147\n(lp60148\nI6005303398565\nasVmax_bid\np60149\nV100\np60150\nsVadgroup_id\np60151\nI6005303392765\nsVaccount_id\np60152\nI40156177\nsa(dp60153\nVconversion_specs\np60154\n(lp60155\nsVupdated_time\np60156\nV2012-09-21T20:08:21+0000\np60157\nsVbid_type\np60158\nI1\nsVname\np60159\nV26 Completely Unexplainable Dating Site Pictures\np60160\nsVtracking_pixel_ids\np60161\n(lp60162\nsVtargeting\np60163\n(dp60164\nVaction_spec_friend\np60165\n(lp60166\n(dp60167\nVobject\np60168\nVhttp://www.buzzfeed.com/daves4/27-unexplainable-dating-site-screencaps\np60169\nsVaction.type\np60170\nVlike\np60171\nsa(dp60172\nVobject\np60173\nVhttp://www.buzzfeed.com/daves4/27-unexplainable-dating-site-screencaps\np60174\nsVaction.type\np60175\nVpost\np60176\nsasVcountries\np60177\n(lp60178\nVUS\np60179\nassVbid_info\np60180\n(dp60181\nV1\np60182\nV100\np60183\nssVstart_time\np60184\nNsVad_status\np60185\nI2\nsVcampaign_id\np60186\nI6005305119365\nsVlocations\np60187\n(lp60188\nI3\nasVcreated_time\np60189\nV2012-06-13T23:16:27+0000\np60190\nsVend_time\np60191\nNsVadgroup_status\np60192\nI8\nsVid\np60193\nV6005305120565\np60194\nsVad_id\np60195\nI6005305120565\nsVimpression_control_map\np60196\n(lp60197\n(dp60198\nVcontrol\np60199\n(dp60200\nVuser_impression_limit_period\np60201\nI24\nsVuser_impression_limit\np60202\nI6\nsVuser_impression_limit_period_unit\np60203\nI0\nsVimpression_control_type\np60204\nI2\nssVlocation\np60205\nI3\nsasVcreative_ids\np60206\n(lp60207\nI6005305119965\nasVmax_bid\np60208\nV100\np60209\nsVadgroup_id\np60210\nI6005305120565\nsVaccount_id\np60211\nI40156177\nsa(dp60212\nVconversion_specs\np60213\n(lp60214\nsVupdated_time\np60215\nV2012-09-21T20:08:23+0000\np60216\nsVbid_type\np60217\nI1\nsVname\np60218\nV27 Summer Things Everyone Posts To Instagram\np60219\nsVtracking_pixel_ids\np60220\n(lp60221\nsVtargeting\np60222\n(dp60223\nVaction_spec_friend\np60224\n(lp60225\n(dp60226\nVobject\np60227\nVhttp://www.buzzfeed.com/virginmobilelive/27-summer-things-everyone-posts-to-instagram\np60228\nsVaction.type\np60229\nVlike\np60230\nsa(dp60231\nVobject\np60232\nVhttp://www.buzzfeed.com/virginmobilelive/27-summer-things-everyone-posts-to-instagram\np60233\nsVaction.type\np60234\nVpost\np60235\nsasVcountries\np60236\n(lp60237\nVUS\np60238\nassVbid_info\np60239\n(dp60240\nV1\np60241\nV100\np60242\nssVstart_time\np60243\nNsVad_status\np60244\nI2\nsVcampaign_id\np60245\nI6005307899365\nsVlocations\np60246\n(lp60247\nI3\nasVcreated_time\np60248\nV2012-06-14T15:23:32+0000\np60249\nsVend_time\np60250\nNsVadgroup_status\np60251\nI8\nsVid\np60252\nV6005307901365\np60253\nsVad_id\np60254\nI6005307901365\nsVimpression_control_map\np60255\n(lp60256\n(dp60257\nVcontrol\np60258\n(dp60259\nVuser_impression_limit_period\np60260\nI24\nsVuser_impression_limit\np60261\nI6\nsVuser_impression_limit_period_unit\np60262\nI0\nsVimpression_control_type\np60263\nI2\nssVlocation\np60264\nI3\nsasVcreative_ids\np60265\n(lp60266\nI6005307900765\nasVmax_bid\np60267\nV100\np60268\nsVadgroup_id\np60269\nI6005307901365\nsVaccount_id\np60270\nI40156177\nsa(dp60271\nVconversion_specs\np60272\n(lp60273\nsVupdated_time\np60274\nV2012-09-21T20:08:24+0000\np60275\nsVbid_type\np60276\nI1\nsVname\np60277\nVSnoop and Beckham\np60278\nsVtracking_pixel_ids\np60279\n(lp60280\nsVtargeting\np60281\n(dp60282\nVkeywords\np60283\n(lp60284\nV#David Beckham\np60285\naVsnoop doggs father hood\np60286\naV#Snoop Dogg\np60287\naVsnop dogg\np60288\nasVage_max\np60289\nI65\nsVcountries\np60290'
p6
sS'hash'
p7
S'3452051f1fd24c4c5d19846db74f9a3229af7a7f'
p8
sS'stack'
p9
S''
s.