(dp1
S'args'
p2
S''
sS'methodname'
p3
S''
sS'packet_num'
p4
I222
sS'returnval'
p5
S'\nsVadgroup_status\np43587\nI8\nsVid\np43588\nV6005105534965\np43589\nsVad_id\np43590\nI6005105534965\nsVimpression_control_map\np43591\n(lp43592\n(dp43593\nVcontrol\np43594\n(dp43595\nVuser_impression_limit_period\np43596\nI24\nsVuser_impression_limit\np43597\nI6\nsVuser_impression_limit_period_unit\np43598\nI0\nsVimpression_control_type\np43599\nI2\nssVlocation\np43600\nI3\nsasVcreative_ids\np43601\n(lp43602\nI6005105534565\nasVmax_bid\np43603\nV59\np43604\nsVadgroup_id\np43605\nI6005105534965\nsVaccount_id\np43606\nI40156177\nsa(dp43607\nVconversion_specs\np43608\n(lp43609\nsVupdated_time\np43610\nV2012-09-21T20:03:21+0000\np43611\nsVbid_type\np43612\nI1\nsVname\np43613\nVTrident_New Music\np43614\nsVtracking_pixel_ids\np43615\n(lp43616\nsVtargeting\np43617\n(dp43618\nVkeywords\np43619\n(lp43620\nV#Spotify\np43621\naVspotify\np43622\naV#Pandora Radio\np43623\naV#Turntable.fm\np43624\nasVage_max\np43625\nI65\nsVcountries\np43626\n(lp43627\nVUS\np43628\nasVbroad_age\np43629\nI1\nsVage_min\np43630\nI15\nssVbid_info\np43631\n(dp43632\nV1\np43633\nV65\np43634\nssVstart_time\np43635\nNsVad_status\np43636\nI2\nsVcampaign_id\np43637\nI6005105575365\nsVlocations\np43638\n(lp43639\nI3\nasVcreated_time\np43640\nV2012-05-02T18:37:50+0000\np43641\nsVend_time\np43642\nNsVadgroup_status\np43643\nI8\nsVid\np43644\nV6005105576365\np43645\nsVad_id\np43646\nI6005105576365\nsVimpression_control_map\np43647\n(lp43648\n(dp43649\nVcontrol\np43650\n(dp43651\nVuser_impression_limit_period\np43652\nI24\nsVuser_impression_limit\np43653\nI6\nsVuser_impression_limit_period_unit\np43654\nI0\nsVimpression_control_type\np43655\nI2\nssVlocation\np43656\nI3\nsasVcreative_ids\np43657\n(lp43658\nI6005105575965\nasVmax_bid\np43659\nV65\np43660\nsVadgroup_id\np43661\nI6005105576365\nsVaccount_id\np43662\nI40156177\nsa(dp43663\nVconversion_specs\np43664\n(lp43665\nsVupdated_time\np43666\nV2012-09-21T20:03:22+0000\np43667\nsVbid_type\np43668\nI1\nsVname\np43669\nVMissed Coachella?\np43670\nsVtracking_pixel_ids\np43671\n(lp43672\nsVtargeting\np43673\n(dp43674\nVkeywords\np43675\n(lp43676\nV#Concert\np43677\naV#Music\np43678\naVcochella\np43679\nasVage_max\np43680\nI65\nsVcountries\np43681\n(lp43682\nVUS\np43683\nasVbroad_age\np43684\nI1\nsVage_min\np43685\nI15\nssVbid_info\np43686\n(dp43687\nV1\np43688\nV65\np43689\nssVstart_time\np43690\nNsVad_status\np43691\nI2\nsVcampaign_id\np43692\nI6005105689765\nsVlocations\np43693\n(lp43694\nI3\nasVcreated_time\np43695\nV2012-05-02T19:08:13+0000\np43696\nsVend_time\np43697\nNsVadgroup_status\np43698\nI8\nsVid\np43699\nV6005105690765\np43700\nsVad_id\np43701\nI6005105690765\nsVimpression_control_map\np43702\n(lp43703\n(dp43704\nVcontrol\np43705\n(dp43706\nVuser_impression_limit_period\np43707\nI24\nsVuser_impression_limit\np43708\nI6\nsVuser_impression_limit_period_unit\np43709\nI0\nsVimpression_control_type\np43710\nI2\nssVlocation\np43711\nI3\nsasVcreative_ids\np43712\n(lp43713\nI6005105690365\nasVmax_bid\np43714\nV65\np43715\nsVadgroup_id\np43716\nI6005105690765\nsVaccount_id\np43717\nI40156177\nsa(dp43718\nVbid_info\np43719\n(dp43720\nV1\np43721\nV59\np43722\nssVcampaign_id\np43723\nI6005105713965\nsVcreated_time\np43724\nV2012-05-02T19:20:44+0000\np43725\nsVconversion_specs\np43726\n(lp43727\nsVadgroup_id\np43728\nI6005105714965\nsVtargeting\np43729\n(dp43730\nVkeywords\np43731\n(lp43732\nV#Facebook\np43733\naV#Social media marketing\np43734\naVcomputers\np43735\naV#Technology\np43736\naV#Social media\np43737\naVtake this lollipop\np43738\nasVage_max\np43739\nI65\nsVcountries\np43740\n(lp43741\nVUS\np43742\nasVbroad_age\np43743\nI1\nsVage_min\np43744\nI13\nssVid\np43745\nV6005105714965\np43746\nsVmax_bid\np43747\nV59\np43748\nsVdisapprove_reason_descriptions\np43749\n(lp43750\nVThe image included in your ad or Sponsored Story violates Facebook&#039;s Advertising Guidelines. Before resubmitting it, please visit our Help Center (http://www.facebook.com/help/?page=250509391644213) for additional information and examples compliant with our Advertising Guidelines.\np43751\nasVad_id\np43752\nI6005105714965\nsVaccount_id\np43753\nI40156177\nsVstart_time\np43754\nNsVlocations\np43755\n(lp43756\nI3\nasVadgroup_status\np43757\nI5\nsVad_status\np43758\nI5\nsVimpression_control_map\np43759\n(lp43760\n(dp43761\nVcontrol\np43762\n(dp43763\nVuser_impression_limit_period\np43764\nI24\nsVuser_impression_limit\np43765\nI3\nsVuser_impression_limit_period_unit\np43766\nI0\nsVimpression_control_type\np4376'
p6
sS'hash'
p7
S'3452051f1fd24c4c5d19846db74f9a3229af7a7f'
p8
sS'stack'
p9
S''
s.