(dp1
S'args'
p2
S''
sS'methodname'
p3
S''
sS'packet_num'
p4
I191
sS'returnval'
p5
S'_age\np37353\nI1\nsVage_min\np37354\nI16\nssVbid_info\np37355\n(dp37356\nV1\np37357\nV65\np37358\nssVstart_time\np37359\nNsVad_status\np37360\nI2\nsVcampaign_id\np37361\nI6004995951565\nsVlocations\np37362\n(lp37363\nI3\nasVcreated_time\np37364\nV2012-04-24T14:59:56+0000\np37365\nsVend_time\np37366\nNsVadgroup_status\np37367\nI9\nsVid\np37368\nV6005050880365\np37369\nsVad_id\np37370\nI6005050880365\nsVimpression_control_map\np37371\n(lp37372\n(dp37373\nVcontrol\np37374\n(dp37375\nVuser_impression_limit_period\np37376\nI24\nsVuser_impression_limit\np37377\nI3\nsVuser_impression_limit_period_unit\np37378\nI0\nsVimpression_control_type\np37379\nI2\nssVlocation\np37380\nI3\nsasVcreative_ids\np37381\n(lp37382\nI6005050879965\nasVmax_bid\np37383\nV65\np37384\nsVadgroup_id\np37385\nI6005050880365\nsVaccount_id\np37386\nI40156177\nsa(dp37387\nVconversion_specs\np37388\n(lp37389\nsVupdated_time\np37390\nV2012-04-24T22:03:10+0000\np37391\nsVbid_type\np37392\nI1\nsVname\np37393\nVGet Lin-spired! 1\np37394\nsVtracking_pixel_ids\np37395\n(lp37396\nsVtargeting\np37397\n(dp37398\nVage_max\np37399\nI65\nsVcountries\np37400\n(lp37401\nVUS\np37402\nasVuser_adclusters\np37403\n(lp37404\n(dp37405\nVid\np37406\nV6002714886372\np37407\nsVname\np37408\nVPop Culture\np37409\nsa(dp37410\nVid\np37411\nV6002714891572\np37412\nsVname\np37413\nVSports (All)\np37414\nsasVbroad_age\np37415\nI1\nsVage_min\np37416\nI16\nssVbid_info\np37417\n(dp37418\nV1\np37419\nV65\np37420\nssVstart_time\np37421\nNsVad_status\np37422\nI2\nsVcampaign_id\np37423\nI6004995951565\nsVlocations\np37424\n(lp37425\nI3\nasVcreated_time\np37426\nV2012-04-24T20:14:18+0000\np37427\nsVend_time\np37428\nNsVadgroup_status\np37429\nI9\nsVid\np37430\nV6005052587165\np37431\nsVad_id\np37432\nI6005052587165\nsVimpression_control_map\np37433\n(lp37434\n(dp37435\nVcontrol\np37436\n(dp37437\nVuser_impression_limit_period\np37438\nI24\nsVuser_impression_limit\np37439\nI3\nsVuser_impression_limit_period_unit\np37440\nI0\nsVimpression_control_type\np37441\nI2\nssVlocation\np37442\nI3\nsasVcreative_ids\np37443\n(lp37444\nI6005050879965\nasVmax_bid\np37445\nV65\np37446\nsVadgroup_id\np37447\nI6005052587165\nsVaccount_id\np37448\nI40156177\nsa(dp37449\nVconversion_specs\np37450\n(lp37451\nsVupdated_time\np37452\nV2012-09-21T20:02:12+0000\np37453\nsVbid_type\np37454\nI1\nsVname\np37455\nVFist Pumps Time!\np37456\nsVtracking_pixel_ids\np37457\n(lp37458\nsVtargeting\np37459\n(dp37460\nVkeywords\np37461\n(lp37462\nV#Jerseylicious\np37463\naVdj pauly delvecchio\np37464\naV#Jersey Shore\np37465\naVfist pumping like champs\np37466\naV#Jersey Shore (TV series)\np37467\naVjersey fist pump\np37468\naVdj pauly d\np37469\naVjerseyshore\np37470\naVlfmao\np37471\naV#Fist pump\np37472\naVmike situation jersey shore\np37473\naVdj pauly\np37474\naVjersey shore fist pump\np37475\naVvinny from jersey shore\np37476\nasVage_max\np37477\nI65\nsVcountries\np37478\n(lp37479\nVUS\np37480\nasVbroad_age\np37481\nI1\nsVage_min\np37482\nI18\nssVbid_info\np37483\n(dp37484\nV1\np37485\nV75\np37486\nssVstart_time\np37487\nNsVad_status\np37488\nI2\nsVcampaign_id\np37489\nI6004995970365\nsVlocations\np37490\n(lp37491\nI3\nasVcreated_time\np37492\nV2012-04-18T15:27:56+0000\np37493\nsVend_time\np37494\nNsVadgroup_status\np37495\nI8\nsVid\np37496\nV6005013219765\np37497\nsVad_id\np37498\nI6005013219765\nsVimpression_control_map\np37499\n(lp37500\n(dp37501\nVcontrol\np37502\n(dp37503\nVuser_impression_limit_period\np37504\nI24\nsVuser_impression_limit\np37505\nI3\nsVuser_impression_limit_period_unit\np37506\nI0\nsVimpression_control_type\np37507\nI2\nssVlocation\np37508\nI3\nsasVcreative_ids\np37509\n(lp37510\nI6005013222165\nasVmax_bid\np37511\nV75\np37512\nsVadgroup_id\np37513\nI6005013219765\nsVaccount_id\np37514\nI40156177\nsa(dp37515\nVconversion_specs\np37516\n(lp37517\nsVupdated_time\np37518\nV2012-04-18T15:28:06+0000\np37519\nsVbid_type\np37520\nI1\nsVname\np37521\nVFist Pumps a Must!\np37522\nsVtracking_pixel_ids\np37523\n(lp37524\nsVtargeting\np37525\n(dp37526\nVage_max\np37527\nI65\nsVcountries\np37528\n(lp37529\nVUS\np37530\nasVbroad_age\np37531\nI1\nsVage_min\np37532\nI18\nssVbid_info\np37533\n(dp37534\nV1\np37535\nV76\np37536\nssVstart_time\np37537\nNsVad_status\np37538\nI2\nsVcampaign_id\np37539\nI6004995970365\nsVlocations\np37540\n(lp37541\nI3\nasVcreated_time\np37542\nV2012-04-13T16:06:16+0000\np37543\nsVend_time\np37544\nV2012-04-19T06:00:00+0000\np37545\nsVadgroup_status\np37546\nI9\nsVid\np37547\nV6004995971365\np'
p6
sS'hash'
p7
S'3452051f1fd24c4c5d19846db74f9a3229af7a7f'
p8
sS'stack'
p9
S''
s.