(dp1
S'args'
p2
S''
sS'methodname'
p3
S''
sS'packet_num'
p4
I217
sS'returnval'
p5
S'\nsa(dp42392\nVconversion_specs\np42393\n(lp42394\nsVupdated_time\np42395\nV2012-09-21T20:03:08+0000\np42396\nsVbid_type\np42397\nI1\nsVname\np42398\nVWould you climb K2?\np42399\nsVtracking_pixel_ids\np42400\n(lp42401\nsVtargeting\np42402\n(dp42403\nVkeywords\np42404\n(lp42405\nV#Adventure travel\np42406\naV#Outdoors\np42407\naV#Adventure education\np42408\naV#Wilderness\np42409\naV#Adventure\np42410\naV#Tourism\np42411\naVaction adventure\np42412\naV#Travel\np42413\nasVage_max\np42414\nI65\nsVcountries\np42415\n(lp42416\nVUS\np42417\nasVbroad_age\np42418\nI1\nsVage_min\np42419\nI17\nssVbid_info\np42420\n(dp42421\nV1\np42422\nV75\np42423\nssVstart_time\np42424\nNsVad_status\np42425\nI2\nsVcampaign_id\np42426\nI6005097575965\nsVlocations\np42427\n(lp42428\nI3\nasVcreated_time\np42429\nV2012-05-01T17:20:37+0000\np42430\nsVend_time\np42431\nNsVadgroup_status\np42432\nI8\nsVid\np42433\nV6005097576965\np42434\nsVad_id\np42435\nI6005097576965\nsVimpression_control_map\np42436\n(lp42437\n(dp42438\nVcontrol\np42439\n(dp42440\nVuser_impression_limit_period\np42441\nI24\nsVuser_impression_limit\np42442\nI6\nsVuser_impression_limit_period_unit\np42443\nI0\nsVimpression_control_type\np42444\nI2\nssVlocation\np42445\nI3\nsasVcreative_ids\np42446\n(lp42447\nI6005097576565\nasVmax_bid\np42448\nV75\np42449\nsVadgroup_id\np42450\nI6005097576965\nsVaccount_id\np42451\nI40156177\nsa(dp42452\nVconversion_specs\np42453\n(lp42454\nsVupdated_time\np42455\nV2012-09-21T20:03:08+0000\np42456\nsVbid_type\np42457\nI1\nsVname\np42458\nVWould you climb K2? 1\np42459\nsVtracking_pixel_ids\np42460\n(lp42461\nsVtargeting\np42462\n(dp42463\nVage_max\np42464\nI65\nsVcountries\np42465\n(lp42466\nVUS\np42467\nasVbroad_age\np42468\nI1\nsVage_min\np42469\nI17\nssVbid_info\np42470\n(dp42471\nV1\np42472\nV75\np42473\nssVstart_time\np42474\nNsVad_status\np42475\nI2\nsVcampaign_id\np42476\nI6005097575965\nsVlocations\np42477\n(lp42478\nI3\nasVcreated_time\np42479\nV2012-05-02T01:14:31+0000\np42480\nsVend_time\np42481\nNsVadgroup_status\np42482\nI8\nsVid\np42483\nV6005101513765\np42484\nsVad_id\np42485\nI6005101513765\nsVimpression_control_map\np42486\n(lp42487\n(dp42488\nVcontrol\np42489\n(dp42490\nVuser_impression_limit_period\np42491\nI24\nsVuser_impression_limit\np42492\nI6\nsVuser_impression_limit_period_unit\np42493\nI0\nsVimpression_control_type\np42494\nI2\nssVlocation\np42495\nI3\nsasVcreative_ids\np42496\n(lp42497\nI6005097576565\nasVmax_bid\np42498\nV75\np42499\nsVadgroup_id\np42500\nI6005101513765\nsVaccount_id\np42501\nI40156177\nsa(dp42502\nVconversion_specs\np42503\n(lp42504\nsVupdated_time\np42505\nV2012-09-21T20:03:09+0000\np42506\nsVbid_type\np42507\nI1\nsVname\np42508\nV"CSB" - Cool Story Bro\np42509\nsVtracking_pixel_ids\np42510\n(lp42511\nsVtargeting\np42512\n(dp42513\nVage_max\np42514\nI27\nsVcountries\np42515\n(lp42516\nVUS\np42517\nasVbroad_age\np42518\nI1\nsVage_min\np42519\nI13\nssVbid_info\np42520\n(dp42521\nV1\np42522\nV55\np42523\nssVstart_time\np42524\nNsVad_status\np42525\nI2\nsVcampaign_id\np42526\nI6005097586965\nsVlocations\np42527\n(lp42528\nI3\nasVcreated_time\np42529\nV2012-05-01T17:27:11+0000\np42530\nsVend_time\np42531\nNsVadgroup_status\np42532\nI8\nsVid\np42533\nV6005097587965\np42534\nsVad_id\np42535\nI6005097587965\nsVimpression_control_map\np42536\n(lp42537\n(dp42538\nVcontrol\np42539\n(dp42540\nVuser_impression_limit_period\np42541\nI24\nsVuser_impression_limit\np42542\nI6\nsVuser_impression_limit_period_unit\np42543\nI0\nsVimpression_control_type\np42544\nI2\nssVlocation\np42545\nI3\nsasVcreative_ids\np42546\n(lp42547\nI6005097587565\nasVmax_bid\np42548\nV55\np42549\nsVadgroup_id\np42550\nI6005097587965\nsVaccount_id\np42551\nI40156177\nsa(dp42552\nVconversion_specs\np42553\n(lp42554\nsVupdated_time\np42555\nV2012-09-21T20:03:11+0000\np42556\nsVbid_type\np42557\nI1\nsVname\np42558\nVBro Code Fail\np42559\nsVtracking_pixel_ids\np42560\n(lp42561\nsVtargeting\np42562\n(dp42563\nVkeywords\np42564\n(lp42565\nVtwo half men\np42566\naV#How I Met Your Mother\np42567\naV#Scrubs (TV series)\np42568\naV#Two and a Half Men\np42569\naV#The Office (U.S. TV series)\np42570\naV#The Big Bang Theory\np42571\naV#Barney Stinson\np42572\naV#Jason Segel\np42573\naV#I Love You, Man\np42574\naVbro code\np42575\nasVage_max\np42576\nI65\nsVcountries\np42577\n(lp42578\nVUS\np42579\nasVbroad_age\np42580\nI1\nsVage_min\np42581\nI15\nssVbid_info\np42582\n(dp42583\nV1\np42584\nV57\np42585\nssVstart_time\np42586\nNsVad_status\np42587\nI2\nsVcampaign'
p6
sS'hash'
p7
S'3452051f1fd24c4c5d19846db74f9a3229af7a7f'
p8
sS'stack'
p9
S''
s.