(dp1
S'args'
p2
S''
sS'methodname'
p3
S''
sS'packet_num'
p4
I273
sS'returnval'
p5
S'sVad_id\np53404\nI6005250431965\nsVimpression_control_map\np53405\n(lp53406\n(dp53407\nVcontrol\np53408\n(dp53409\nVuser_impression_limit_period\np53410\nI24\nsVuser_impression_limit\np53411\nI6\nsVuser_impression_limit_period_unit\np53412\nI0\nsVimpression_control_type\np53413\nI2\nssVlocation\np53414\nI3\nsasVcreative_ids\np53415\n(lp53416\nI6005250431365\nasVmax_bid\np53417\nV60\np53418\nsVadgroup_id\np53419\nI6005250431965\nsVaccount_id\np53420\nI40156177\nsa(dp53421\nVconversion_specs\np53422\n(lp53423\nsVupdated_time\np53424\nV2012-09-21T20:06:14+0000\np53425\nsVbid_type\np53426\nI1\nsVname\np53427\nV"Just Call Me Maybe"\np53428\nsVtracking_pixel_ids\np53429\n(lp53430\nsVtargeting\np53431\n(dp53432\nVkeywords\np53433\n(lp53434\nV#MTV\np53435\naV#Carly Rae Jepsen\np53436\naV#Selena Gomez\np53437\naV#Demi Lovato\np53438\naV#Katy Perry\np53439\nasVage_max\np53440\nI29\nsVcountries\np53441\n(lp53442\nVUS\np53443\nasVbroad_age\np53444\nI1\nsVage_min\np53445\nI13\nssVbid_info\np53446\n(dp53447\nV1\np53448\nV55\np53449\nssVstart_time\np53450\nNsVad_status\np53451\nI2\nsVcampaign_id\np53452\nI6005250507765\nsVlocations\np53453\n(lp53454\nI3\nasVcreated_time\np53455\nV2012-05-31T19:54:42+0000\np53456\nsVend_time\np53457\nNsVadgroup_status\np53458\nI8\nsVid\np53459\nV6005250508765\np53460\nsVad_id\np53461\nI6005250508765\nsVimpression_control_map\np53462\n(lp53463\n(dp53464\nVcontrol\np53465\n(dp53466\nVuser_impression_limit_period\np53467\nI24\nsVuser_impression_limit\np53468\nI6\nsVuser_impression_limit_period_unit\np53469\nI0\nsVimpression_control_type\np53470\nI2\nssVlocation\np53471\nI3\nsasVcreative_ids\np53472\n(lp53473\nI6005250508365\nasVmax_bid\np53474\nV55\np53475\nsVadgroup_id\np53476\nI6005250508765\nsVaccount_id\np53477\nI40156177\nsa(dp53478\nVconversion_specs\np53479\n(lp53480\nsVupdated_time\np53481\nV2012-09-21T20:06:16+0000\np53482\nsVbid_type\np53483\nI1\nsVname\np53484\nVRap Battle: Forte vs. Ice\np53485\nsVtracking_pixel_ids\np53486\n(lp53487\nsVtargeting\np53488\n(dp53489\nVkeywords\np53490\n(lp53491\nV#MTV\np53492\naV#Movies\np53493\naV#Vanilla Ice\np53494\naV#Saturday Night Live\np53495\naV#MTV Movie Awards\np53496\naV#Will Forte\np53497\nasVage_max\np53498\nI35\nsVcountries\np53499\n(lp53500\nVUS\np53501\nasVbroad_age\np53502\nI1\nsVage_min\np53503\nI13\nssVbid_info\np53504\n(dp53505\nV1\np53506\nV65\np53507\nssVstart_time\np53508\nNsVad_status\np53509\nI2\nsVcampaign_id\np53510\nI6005254508765\nsVlocations\np53511\n(lp53512\nI3\nasVcreated_time\np53513\nV2012-06-01T15:45:56+0000\np53514\nsVend_time\np53515\nNsVadgroup_status\np53516\nI8\nsVid\np53517\nV6005254509765\np53518\nsVad_id\np53519\nI6005254509765\nsVimpression_control_map\np53520\n(lp53521\n(dp53522\nVcontrol\np53523\n(dp53524\nVuser_impression_limit_period\np53525\nI24\nsVuser_impression_limit\np53526\nI6\nsVuser_impression_limit_period_unit\np53527\nI0\nsVimpression_control_type\np53528\nI2\nssVlocation\np53529\nI3\nsasVcreative_ids\np53530\n(lp53531\nI6005254509365\nasVmax_bid\np53532\nV65\np53533\nsVadgroup_id\np53534\nI6005254509765\nsVaccount_id\np53535\nI40156177\nsa(dp53536\nVconversion_specs\np53537\n(lp53538\nsVupdated_time\np53539\nV2012-09-21T20:06:18+0000\np53540\nsVbid_type\np53541\nI1\nsVname\np53542\nVReady for summer?\np53543\nsVtracking_pixel_ids\np53544\n(lp53545\nsVtargeting\np53546\n(dp53547\nVage_max\np53548\nI65\nsVcountries\np53549\n(lp53550\nVUS\np53551\nasVbroad_age\np53552\nI1\nsVage_min\np53553\nI13\nssVbid_info\np53554\n(dp53555\nV1\np53556\nV65\np53557\nssVstart_time\np53558\nNsVad_status\np53559\nI2\nsVcampaign_id\np53560\nI6005256106965\nsVlocations\np53561\n(lp53562\nI3\nasVcreated_time\np53563\nV2012-06-01T21:01:20+0000\np53564\nsVend_time\np53565\nV2012-06-05T03:45:00+0000\np53566\nsVadgroup_status\np53567\nI8\nsVid\np53568\nV6005256107965\np53569\nsVad_id\np53570\nI6005256107965\nsVimpression_control_map\np53571\n(lp53572\n(dp53573\nVcontrol\np53574\n(dp53575\nVuser_impression_limit_period\np53576\nI24\nsVuser_impression_limit\np53577\nI6\nsVuser_impression_limit_period_unit\np53578\nI0\nsVimpression_control_type\np53579\nI2\nssVlocation\np53580\nI3\nsasVcreative_ids\np53581\n(lp53582\nI6005256107565\nasVmax_bid\np53583\nV65\np53584\nsVadgroup_id\np53585\nI6005256107965\nsVaccount_id\np53586\nI40156177\nsa(dp53587\nVconversion_specs\np53588\n(lp53589\nsVupdated_time\np53590\nV2012-09-21T20:06:21+0000\np53591\nsVbid_type\np53592\nI1\nsVname\np53593\nVDrunk Text - Not Again!\np53594\nsVtracking_pixe'
p6
sS'hash'
p7
S'3452051f1fd24c4c5d19846db74f9a3229af7a7f'
p8
sS'stack'
p9
S''
s.