(dp1
S'args'
p2
S''
sS'methodname'
p3
S''
sS'packet_num'
p4
I260
sS'returnval'
p5
S'(lp50909\nsVtargeting\np50910\n(dp50911\nVkeywords\np50912\n(lp50913\nV#MTV\np50914\naV#Will Smith\np50915\naV#Twilight (series)\np50916\naV#Justin Timberlake\np50917\naV#Taylor Lautner\np50918\naV#Twilight\np50919\naV#MTV Movie Awards\np50920\naV#Britney Spears\np50921\naV#Reese Witherspoon\np50922\naV#VH1\np50923\naV#Ryan Gosling\np50924\nasVage_max\np50925\nI35\nsVcountries\np50926\n(lp50927\nVUS\np50928\nasVbroad_age\np50929\nI1\nsVage_min\np50930\nI13\nssVbid_info\np50931\n(dp50932\nV1\np50933\nV65\np50934\nssVstart_time\np50935\nNsVad_status\np50936\nI2\nsVcampaign_id\np50937\nI6005220656165\nsVlocations\np50938\n(lp50939\nI3\nasVcreated_time\np50940\nV2012-05-23T21:54:14+0000\np50941\nsVend_time\np50942\nNsVadgroup_status\np50943\nI8\nsVid\np50944\nV6005220694365\np50945\nsVad_id\np50946\nI6005220694365\nsVimpression_control_map\np50947\n(lp50948\n(dp50949\nVcontrol\np50950\n(dp50951\nVuser_impression_limit_period\np50952\nI24\nsVuser_impression_limit\np50953\nI6\nsVuser_impression_limit_period_unit\np50954\nI0\nsVimpression_control_type\np50955\nI2\nssVlocation\np50956\nI3\nsasVcreative_ids\np50957\n(lp50958\nI6005220693965\nasVmax_bid\np50959\nV65\np50960\nsVadgroup_id\np50961\nI6005220694365\nsVaccount_id\np50962\nI40156177\nsa(dp50963\nVconversion_specs\np50964\n(lp50965\nsVupdated_time\np50966\nV2012-09-21T20:05:33+0000\np50967\nsVbid_type\np50968\nI1\nsVname\np50969\nVRyan Gosling and Female Targeted\np50970\nsVtracking_pixel_ids\np50971\n(lp50972\nsVtargeting\np50973\n(dp50974\nVage_max\np50975\nI24\nsVcountries\np50976\n(lp50977\nVUS\np50978\nasVbroad_age\np50979\nI1\nsVage_min\np50980\nI13\nsVkeywords\np50981\n(lp50982\nV#Ryan Gosling\np50983\nasVgenders\np50984\n(lp50985\nI2\nassVbid_info\np50986\n(dp50987\nV1\np50988\nV65\np50989\nssVstart_time\np50990\nNsVad_status\np50991\nI2\nsVcampaign_id\np50992\nI6005220656165\nsVlocations\np50993\n(lp50994\nI3\nasVcreated_time\np50995\nV2012-05-24T17:17:24+0000\np50996\nsVend_time\np50997\nNsVadgroup_status\np50998\nI8\nsVid\np50999\nV6005227339365\np51000\nsVad_id\np51001\nI6005227339365\nsVimpression_control_map\np51002\n(lp51003\n(dp51004\nVcontrol\np51005\n(dp51006\nVuser_impression_limit_period\np51007\nI24\nsVuser_impression_limit\np51008\nI3\nsVuser_impression_limit_period_unit\np51009\nI0\nsVimpression_control_type\np51010\nI2\nssVlocation\np51011\nI3\nsasVcreative_ids\np51012\n(lp51013\nI6005220693965\nasVmax_bid\np51014\nV65\np51015\nsVadgroup_id\np51016\nI6005227339365\nsVaccount_id\np51017\nI40156177\nsa(dp51018\nVconversion_specs\np51019\n(lp51020\nsVupdated_time\np51021\nV2012-09-21T20:05:33+0000\np51022\nsVbid_type\np51023\nI1\nsVname\np51024\nVJT and Women Targeted\np51025\nsVtracking_pixel_ids\np51026\n(lp51027\nsVtargeting\np51028\n(dp51029\nVage_max\np51030\nI30\nsVcountries\np51031\n(lp51032\nVUS\np51033\nasVbroad_age\np51034\nI1\nsVage_min\np51035\nI13\nsVkeywords\np51036\n(lp51037\nV#Justin Timberlake\np51038\nasVgenders\np51039\n(lp51040\nI2\nassVbid_info\np51041\n(dp51042\nV1\np51043\nV65\np51044\nssVstart_time\np51045\nNsVad_status\np51046\nI2\nsVcampaign_id\np51047\nI6005220656165\nsVlocations\np51048\n(lp51049\nI3\nasVcreated_time\np51050\nV2012-05-24T17:19:10+0000\np51051\nsVend_time\np51052\nNsVadgroup_status\np51053\nI8\nsVid\np51054\nV6005227367765\np51055\nsVad_id\np51056\nI6005227367765\nsVimpression_control_map\np51057\n(lp51058\n(dp51059\nVcontrol\np51060\n(dp51061\nVuser_impression_limit_period\np51062\nI24\nsVuser_impression_limit\np51063\nI6\nsVuser_impression_limit_period_unit\np51064\nI0\nsVimpression_control_type\np51065\nI2\nssVlocation\np51066\nI3\nsasVcreative_ids\np51067\n(lp51068\nI6005220656765\nasVmax_bid\np51069\nV65\np51070\nsVadgroup_id\np51071\nI6005227367765\nsVaccount_id\np51072\nI40156177\nsa(dp51073\nVconversion_specs\np51074\n(lp51075\nsVupdated_time\np51076\nV2012-09-21T20:05:34+0000\np51077\nsVbid_type\np51078\nI1\nsVname\np51079\nVNo Way - Check this out!\np51080\nsVtracking_pixel_ids\np51081\n(lp51082\nsVtargeting\np51083\n(dp51084\nVage_max\np51085\nI26\nsVcountries\np51086\n(lp51087\nVUS\np51088\nasVbroad_age\np51089\nI1\nsVage_min\np51090\nI14\nssVbid_info\np51091\n(dp51092\nV1\np51093\nV56\np51094\nssVstart_time\np51095\nNsVad_status\np51096\nI2\nsVcampaign_id\np51097\nI6005227000765\nsVlocations\np51098\n(lp51099\nI3\nasVcreated_time\np51100\nV2012-05-24T16:56:10+0000\np51101\nsVend_time\np51102\nNsVadgroup_status\np51103\nI8\nsVid\np51104\nV6005227001765\np51105\nsVad_id\np51106\nI6005227001765\nsVimpre'
p6
sS'hash'
p7
S'3452051f1fd24c4c5d19846db74f9a3229af7a7f'
p8
sS'stack'
p9
S''
s.