(dp1
S'args'
p2
S''
sS'methodname'
p3
S''
sS'packet_num'
p4
I106
sS'returnval'
p5
S'87\naV#Kurt Russell\np20988\naV#Matthew Broderick\np20989\naV#Rita Wilson\np20990\naV#David Bowie\np20991\naV#John Travolta\np20992\naV#O: The Oprah Magazine\np20993\naV#Iman (model)\np20994\naV#Tom Hanks\np20995\naV#Ali Hewson\np20996\naV#Bono\np20997\naV#Trudie Styler\np20998\naV#Oprah Winfrey\np20999\naV#Sarah Jessica Parker\np21000\naV#Kevin Bacon\np21001\naV#Kyra Sedgwick\np21002\naV#Ozzy Osbourne\np21003\naV#Sting (musician)\np21004\naV#The Oprah Winfrey Show\np21005\naV#Sharon Osbourne\np21006\nasVage_max\np21007\nI65\nsVcountries\np21008\n(lp21009\nVUS\np21010\nasVbroad_age\np21011\nI1\nsVage_min\np21012\nI18\nssVbid_info\np21013\n(dp21014\nV1\np21015\nV75\np21016\nssVstart_time\np21017\nNsVad_status\np21018\nI2\nsVcampaign_id\np21019\nI6004735498165\nsVlocations\np21020\n(lp21021\nI3\nasVcreated_time\np21022\nV2012-02-10T15:51:30+0000\np21023\nsVend_time\np21024\nNsVadgroup_status\np21025\nI8\nsVid\np21026\nV6004735499165\np21027\nsVad_id\np21028\nI6004735499165\nsVimpression_control_map\np21029\n(lp21030\n(dp21031\nVcontrol\np21032\n(dp21033\nVuser_impression_limit_period\np21034\nI24\nsVuser_impression_limit\np21035\nI6\nsVuser_impression_limit_period_unit\np21036\nI0\nsVimpression_control_type\np21037\nI2\nssVlocation\np21038\nI3\nsasVcreative_ids\np21039\n(lp21040\nI6004735498765\nasVmax_bid\np21041\nV75\np21042\nsVadgroup_id\np21043\nI6004735499165\nsVaccount_id\np21044\nI40156177\nsa(dp21045\nVconversion_specs\np21046\n(lp21047\nsVupdated_time\np21048\nV2012-09-21T19:59:48+0000\np21049\nsVbid_type\np21050\nI1\nsVname\np21051\nVOprah and Stedman\np21052\nsVtracking_pixel_ids\np21053\n(lp21054\nsVtargeting\np21055\n(dp21056\nVkeywords\np21057\n(lp21058\nV#Kelly Preston\np21059\naV#Goldie Hawn\np21060\naV#Kurt Russell\np21061\naV#Matthew Broderick\np21062\naV#Rita Wilson\np21063\naV#David Bowie\np21064\naV#John Travolta\np21065\naV#O: The Oprah Magazine\np21066\naV#Iman (model)\np21067\naV#Tom Hanks\np21068\naV#Ali Hewson\np21069\naV#Bono\np21070\naV#Trudie Styler\np21071\naV#Oprah Winfrey\np21072\naV#Sarah Jessica Parker\np21073\naV#Kevin Bacon\np21074\naV#Kyra Sedgwick\np21075\naV#Ozzy Osbourne\np21076\naV#Sting (musician)\np21077\naV#The Oprah Winfrey Show\np21078\naV#Sharon Osbourne\np21079\nasVage_max\np21080\nI65\nsVcountries\np21081\n(lp21082\nVUS\np21083\nasVbroad_age\np21084\nI1\nsVage_min\np21085\nI18\nssVbid_info\np21086\n(dp21087\nV1\np21088\nV75\np21089\nssVstart_time\np21090\nNsVad_status\np21091\nI2\nsVcampaign_id\np21092\nI6004735498165\nsVlocations\np21093\n(lp21094\nI3\nasVcreated_time\np21095\nV2012-02-10T15:53:09+0000\np21096\nsVend_time\np21097\nNsVadgroup_status\np21098\nI8\nsVid\np21099\nV6004735500965\np21100\nsVad_id\np21101\nI6004735500965\nsVimpression_control_map\np21102\n(lp21103\n(dp21104\nVcontrol\np21105\n(dp21106\nVuser_impression_limit_period\np21107\nI24\nsVuser_impression_limit\np21108\nI3\nsVuser_impression_limit_period_unit\np21109\nI0\nsVimpression_control_type\np21110\nI2\nssVlocation\np21111\nI3\nsasVcreative_ids\np21112\n(lp21113\nI6004735505165\nasVmax_bid\np21114\nV75\np21115\nsVadgroup_id\np21116\nI6004735500965\nsVaccount_id\np21117\nI40156177\nsa(dp21118\nVconversion_specs\np21119\n(lp21120\nsVupdated_time\np21121\nV2012-09-21T19:59:48+0000\np21122\nsVbid_type\np21123\nI1\nsVname\np21124\nVOzzy and Sharon\np21125\nsVtracking_pixel_ids\np21126\n(lp21127\nsVtargeting\np21128\n(dp21129\nVkeywords\np21130\n(lp21131\nV#Kelly Preston\np21132\naV#Goldie Hawn\np21133\naV#Kurt Russell\np21134\naV#Matthew Broderick\np21135\naV#Rita Wilson\np21136\naV#David Bowie\np21137\naV#John Travolta\np21138\naV#O: The Oprah Magazine\np21139\naV#Iman (model)\np21140\naV#Tom Hanks\np21141\naV#Ali Hewson\np21142\naV#Bono\np21143\naV#Trudie Styler\np21144\naV#Oprah Winfrey\np21145\naV#Sarah Jessica Parker\np21146\naV#Kevin Bacon\np21147\naV#Kyra Sedgwick\np21148\naV#Ozzy Osbourne\np21149\naV#Sting (musician)\np21150\naV#The Oprah Winfrey Show\np21151\naV#Sharon Osbourne\np21152\nasVage_max\np21153\nI65\nsVcountries\np21154\n(lp21155\nVUS\np21156\nasVbroad_age\np21157\nI1\nsVage_min\np21158\nI18\nssVbid_info\np21159\n(dp21160\nV1\np21161\nV75\np21162\nssVstart_time\np21163\nNsVad_status\np21164\nI2\nsVcampaign_id\np21165\nI6004735498165\nsVlocations\np21166\n(lp21167\nI3\nasVcreated_time\np21168\nV2012-02-10T15:55:06+0000\np21169\nsVend_time\np21170\nNsVadgroup_status\np21171\nI8\nsVid\np21172\nV6004735503765\np21173\nsVad_id\np21174\nI6004735503765\nsVimpression_control_'
p6
sS'hash'
p7
S'3452051f1fd24c4c5d19846db74f9a3229af7a7f'
p8
sS'stack'
p9
S''
s.