(dp1
S'args'
p2
S''
sS'methodname'
p3
S''
sS'packet_num'
p4
I231
sS'returnval'
p5
S'27\nV6005136641165\np45328\nsVad_id\np45329\nI6005136641165\nsVimpression_control_map\np45330\n(lp45331\n(dp45332\nVcontrol\np45333\n(dp45334\nVuser_impression_limit_period\np45335\nI24\nsVuser_impression_limit\np45336\nI3\nsVuser_impression_limit_period_unit\np45337\nI0\nsVimpression_control_type\np45338\nI2\nssVlocation\np45339\nI3\nsasVcreative_ids\np45340\n(lp45341\nI6005136643165\nasVmax_bid\np45342\nV57\np45343\nsVadgroup_id\np45344\nI6005136641165\nsVaccount_id\np45345\nI40156177\nsa(dp45346\nVconversion_specs\np45347\n(lp45348\nsVupdated_time\np45349\nV2012-09-21T20:03:56+0000\np45350\nsVbid_type\np45351\nI1\nsVname\np45352\nVWhere is Hurley now?\np45353\nsVtracking_pixel_ids\np45354\n(lp45355\nsVtargeting\np45356\n(dp45357\nVkeywords\np45358\n(lp45359\nV#Lost (TV series)\np45360\naV#Lost!\np45361\naV#Prison Break\np45362\naVlost\np45363\nasVage_max\np45364\nI65\nsVcountries\np45365\n(lp45366\nVUS\np45367\nasVbroad_age\np45368\nI1\nsVage_min\np45369\nI13\nssVbid_info\np45370\n(dp45371\nV1\np45372\nV50\np45373\nssVstart_time\np45374\nNsVad_status\np45375\nI2\nsVcampaign_id\np45376\nI6005136666565\nsVlocations\np45377\n(lp45378\nI3\nasVcreated_time\np45379\nV2012-05-09T16:43:04+0000\np45380\nsVend_time\np45381\nNsVadgroup_status\np45382\nI8\nsVid\np45383\nV6005136667565\np45384\nsVad_id\np45385\nI6005136667565\nsVimpression_control_map\np45386\n(lp45387\n(dp45388\nVcontrol\np45389\n(dp45390\nVuser_impression_limit_period\np45391\nI24\nsVuser_impression_limit\np45392\nI6\nsVuser_impression_limit_period_unit\np45393\nI0\nsVimpression_control_type\np45394\nI2\nssVlocation\np45395\nI3\nsasVcreative_ids\np45396\n(lp45397\nI6005136667165\nasVmax_bid\np45398\nV50\np45399\nsVadgroup_id\np45400\nI6005136667565\nsVaccount_id\np45401\nI40156177\nsa(dp45402\nVconversion_specs\np45403\n(lp45404\nsVupdated_time\np45405\nV2012-09-21T20:03:58+0000\np45406\nsVbid_type\np45407\nI1\nsVname\np45408\nVGreat Cop Quotes...\np45409\nsVtracking_pixel_ids\np45410\n(lp45411\nsVtargeting\np45412\n(dp45413\nVkeywords\np45414\n(lp45415\nV#Mel Gibson\np45416\naV#COPS (TV series)\np45417\naV#Lethal Weapon\np45418\naVcops\np45419\naV#Lethal Weapon 4\np45420\naVdie hard 4\np45421\naV#Die Hard with a Vengeance\np45422\naV#Die Hard 2\np45423\naV#Die Hard\np45424\naV#Lethal Weapon 2\np45425\naV#Police officer\np45426\naVleathal weapons\np45427\nasVage_max\np45428\nI65\nsVcountries\np45429\n(lp45430\nVUS\np45431\nasVbroad_age\np45432\nI1\nsVage_min\np45433\nI14\nssVbid_info\np45434\n(dp45435\nV1\np45436\nV55\np45437\nssVstart_time\np45438\nNsVad_status\np45439\nI2\nsVcampaign_id\np45440\nI6005136706165\nsVlocations\np45441\n(lp45442\nI3\nasVcreated_time\np45443\nV2012-05-09T17:01:21+0000\np45444\nsVend_time\np45445\nNsVadgroup_status\np45446\nI8\nsVid\np45447\nV6005136707165\np45448\nsVad_id\np45449\nI6005136707165\nsVimpression_control_map\np45450\n(lp45451\n(dp45452\nVcontrol\np45453\n(dp45454\nVuser_impression_limit_period\np45455\nI24\nsVuser_impression_limit\np45456\nI6\nsVuser_impression_limit_period_unit\np45457\nI0\nsVimpression_control_type\np45458\nI2\nssVlocation\np45459\nI3\nsasVcreative_ids\np45460\n(lp45461\nI6005136706765\nasVmax_bid\np45462\nV55\np45463\nsVadgroup_id\np45464\nI6005136707165\nsVaccount_id\np45465\nI40156177\nsa(dp45466\nVconversion_specs\np45467\n(lp45468\nsVupdated_time\np45469\nV2012-09-21T20:04:00+0000\np45470\nsVbid_type\np45471\nI1\nsVname\np45472\nVThe Great Barrier Reef\np45473\nsVtracking_pixel_ids\np45474\n(lp45475\nsVtargeting\np45476\n(dp45477\nVcountries\np45478\n(lp45479\nVUS\np45480\nasVgenders\np45481\n(lp45482\nI2\nasVage_min\np45483\nI13\nsVbroad_age\np45484\nI1\nsVage_max\np45485\nI65\nssVbid_info\np45486\n(dp45487\nV1\np45488\nV65\np45489\nssVstart_time\np45490\nNsVad_status\np45491\nI2\nsVcampaign_id\np45492\nI6005137668565\nsVlocations\np45493\n(lp45494\nI3\nasVcreated_time\np45495\nV2012-05-10T20:29:34+0000\np45496\nsVend_time\np45497\nNsVadgroup_status\np45498\nI8\nsVid\np45499\nV6005146564765\np45500\nsVad_id\np45501\nI6005146564765\nsVimpression_control_map\np45502\n(lp45503\n(dp45504\nVcontrol\np45505\n(dp45506\nVuser_impression_limit_period\np45507\nI24\nsVuser_impression_limit\np45508\nI6\nsVuser_impression_limit_period_unit\np45509\nI0\nsVimpression_control_type\np45510\nI2\nssVlocation\np45511\nI3\nsasVcreative_ids\np45512\n(lp45513\nI6005146564365\nasVmax_bid\np45514\nV65\np45515\nsVadgroup_id\np45516\nI6005146564765\nsVaccount_id\np45517\nI40156177\nsa(dp45518\nVconversion_specs\np4551'
p6
sS'hash'
p7
S'3452051f1fd24c4c5d19846db74f9a3229af7a7f'
p8
sS'stack'
p9
S''
s.