(dp1
S'args'
p2
S''
sS'methodname'
p3
S''
sS'packet_num'
p4
I139
sS'returnval'
p5
S'p27230\naV#Microsoft\np27231\naV#Dailymotion\np27232\naV#Reddit\np27233\naV#Skype\np27234\naV#Microsoft Word\np27235\naV#Meebo\np27236\naV#BuzzFeed\np27237\naV#Gawker\np27238\naV#Twitter\np27239\naV#AOL\np27240\naV#Gmail\np27241\naV#Microsoft Office\np27242\naV#Pinterest\np27243\naV#YouTube\np27244\nasVage_max\np27245\nI65\nsVcountries\np27246\n(lp27247\nVUS\np27248\nasVbroad_age\np27249\nI1\nsVage_min\np27250\nI18\nssVbid_info\np27251\n(dp27252\nV1\np27253\nV75\np27254\nssVstart_time\np27255\nV2012-03-05T22:15:00+0000\np27256\nsVad_status\np27257\nI2\nsVcampaign_id\np27258\nI6004847452165\nsVlocations\np27259\n(lp27260\nI3\nasVcreated_time\np27261\nV2012-03-02T22:13:42+0000\np27262\nsVend_time\np27263\nV2012-03-12T23:00:00+0000\np27264\nsVadgroup_status\np27265\nI8\nsVid\np27266\nV6004847453165\np27267\nsVad_id\np27268\nI6004847453165\nsVimpression_control_map\np27269\n(lp27270\n(dp27271\nVcontrol\np27272\n(dp27273\nVuser_impression_limit_period\np27274\nI24\nsVuser_impression_limit\np27275\nI6\nsVuser_impression_limit_period_unit\np27276\nI0\nsVimpression_control_type\np27277\nI2\nssVlocation\np27278\nI3\nsasVcreative_ids\np27279\n(lp27280\nI6004852583765\nasVmax_bid\np27281\nV75\np27282\nsVadgroup_id\np27283\nI6004847453165\nsVaccount_id\np27284\nI40156177\nsa(dp27285\nVconversion_specs\np27286\n(lp27287\nsVupdated_time\np27288\nV2012-09-21T20:00:46+0000\np27289\nsVbid_type\np27290\nI1\nsVname\np27291\nVMakeup\np27292\nsVtracking_pixel_ids\np27293\n(lp27294\nsVtargeting\np27295\n(dp27296\nVkeywords\np27297\n(lp27298\nV#Metacafe\np27299\naV#Hotmail\np27300\naV#AOL Instant Messenger\np27301\naV#Microsoft Excel\np27302\naV#Facebook\np27303\naV#StumbleUpon\np27304\naV#Windows Live Messenger\np27305\naV#Microsoft Outlook\np27306\naV#Digg\np27307\naV#Yahoo!\np27308\naV#CollegeHumor\np27309\naV#Microsoft Windows\np27310\naV#Microsoft\np27311\naV#Dailymotion\np27312\naV#Reddit\np27313\naV#Skype\np27314\naV#Microsoft Word\np27315\naV#Meebo\np27316\naV#BuzzFeed\np27317\naV#Gawker\np27318\naV#Twitter\np27319\naV#AOL\np27320\naV#Gmail\np27321\naV#Microsoft Office\np27322\naV#Pinterest\np27323\naV#YouTube\np27324\nasVage_max\np27325\nI65\nsVcountries\np27326\n(lp27327\nVUS\np27328\nasVbroad_age\np27329\nI1\nsVage_min\np27330\nI18\nssVbid_info\np27331\n(dp27332\nV1\np27333\nV75\np27334\nssVstart_time\np27335\nV2012-03-05T22:15:00+0000\np27336\nsVad_status\np27337\nI2\nsVcampaign_id\np27338\nI6004847452165\nsVlocations\np27339\n(lp27340\nI3\nasVcreated_time\np27341\nV2012-03-02T22:15:19+0000\np27342\nsVend_time\np27343\nV2012-03-12T23:00:00+0000\np27344\nsVadgroup_status\np27345\nI8\nsVid\np27346\nV6004847455365\np27347\nsVad_id\np27348\nI6004847455365\nsVimpression_control_map\np27349\n(lp27350\n(dp27351\nVcontrol\np27352\n(dp27353\nVuser_impression_limit_period\np27354\nI24\nsVuser_impression_limit\np27355\nI6\nsVuser_impression_limit_period_unit\np27356\nI0\nsVimpression_control_type\np27357\nI2\nssVlocation\np27358\nI3\nsasVcreative_ids\np27359\n(lp27360\nI6004852559165\nasVmax_bid\np27361\nV75\np27362\nsVadgroup_id\np27363\nI6004847455365\nsVaccount_id\np27364\nI40156177\nsa(dp27365\nVconversion_specs\np27366\n(lp27367\nsVupdated_time\np27368\nV2012-09-21T20:00:48+0000\np27369\nsVbid_type\np27370\nI1\nsVname\np27371\nVWhat\'s a "Turklebaum" ?\np27372\nsVtracking_pixel_ids\np27373\n(lp27374\nsVtargeting\np27375\n(dp27376\nVkeywords\np27377\n(lp27378\nV#Metacafe\np27379\naV#Hotmail\np27380\naV#AOL Instant Messenger\np27381\naV#Microsoft Excel\np27382\naV#Facebook\np27383\naV#StumbleUpon\np27384\naV#Windows Live Messenger\np27385\naV#Microsoft Outlook\np27386\naV#Digg\np27387\naV#Yahoo!\np27388\naV#CollegeHumor\np27389\naV#Microsoft Windows\np27390\naV#Microsoft\np27391\naV#Dailymotion\np27392\naV#Reddit\np27393\naV#Skype\np27394\naV#Microsoft Word\np27395\naV#Meebo\np27396\naV#BuzzFeed\np27397\naV#Gawker\np27398\naV#Twitter\np27399\naV#AOL\np27400\naV#Gmail\np27401\naV#Microsoft Office\np27402\naV#Pinterest\np27403\naV#YouTube\np27404\nasVage_max\np27405\nI65\nsVcountries\np27406\n(lp27407\nVUS\np27408\nasVbroad_age\np27409\nI1\nsVage_min\np27410\nI18\nssVbid_info\np27411\n(dp27412\nV1\np27413\nV75\np27414\nssVstart_time\np27415\nV2012-03-12T13:30:00+0000\np27416\nsVad_status\np27417\nI2\nsVcampaign_id\np27418\nI6004863266765\nsVlocations\np27419\n(lp27420\nI3\nasVcreated_time\np27421\nV2012-03-07T21:45:22+0000\np27422\nsVend_time\np27423\nV2012-03-20T03:30:00+0000\np27424\nsVadgroup_status\np27425\nI8\nsVid\np27426\nV60048632677'
p6
sS'hash'
p7
S'3452051f1fd24c4c5d19846db74f9a3229af7a7f'
p8
sS'stack'
p9
S''
s.