(dp1
S'args'
p2
S''
sS'methodname'
p3
S''
sS'packet_num'
p4
I166
sS'returnval'
p5
S"6\nI1\nsVname\np32507\nVIt Must Be a Montage!\np32508\nsVtracking_pixel_ids\np32509\n(lp32510\nsVtargeting\np32511\n(dp32512\nVage_max\np32513\nI65\nsVcountries\np32514\n(lp32515\nVUS\np32516\nasVuser_adclusters\np32517\n(lp32518\n(dp32519\nVid\np32520\nV6002714886372\np32521\nsVname\np32522\nVPop Culture\np32523\nsasVbroad_age\np32524\nI1\nsVage_min\np32525\nI18\nssVbid_info\np32526\n(dp32527\nV1\np32528\nV75\np32529\nssVstart_time\np32530\nNsVad_status\np32531\nI2\nsVcampaign_id\np32532\nI6004963927365\nsVlocations\np32533\n(lp32534\nI3\nasVcreated_time\np32535\nV2012-04-08T15:52:22+0000\np32536\nsVend_time\np32537\nV2012-04-25T05:00:00+0000\np32538\nsVadgroup_status\np32539\nI8\nsVid\np32540\nV6004979487765\np32541\nsVad_id\np32542\nI6004979487765\nsVimpression_control_map\np32543\n(lp32544\n(dp32545\nVcontrol\np32546\n(dp32547\nVuser_impression_limit_period\np32548\nI24\nsVuser_impression_limit\np32549\nI3\nsVuser_impression_limit_period_unit\np32550\nI0\nsVimpression_control_type\np32551\nI2\nssVlocation\np32552\nI3\nsasVcreative_ids\np32553\n(lp32554\nI6004963938765\nasVmax_bid\np32555\nV75\np32556\nsVadgroup_id\np32557\nI6004979487765\nsVaccount_id\np32558\nI40156177\nsa(dp32559\nVconversion_specs\np32560\n(lp32561\nsVupdated_time\np32562\nV2012-04-24T03:24:47+0000\np32563\nsVbid_type\np32564\nI1\nsVname\np32565\nVWendy's | Karate Kid\np32566\nsVtracking_pixel_ids\np32567\n(lp32568\nsVtargeting\np32569\n(dp32570\nVkeywords\np32571\n(lp32572\nVaction movies\np32573\naVsports\np32574\naV#The Karate Kid (2010 film)\np32575\naV#Montage (filmmaking)\np32576\naV#The Karate Kid (1984 film)\np32577\nasVage_max\np32578\nI65\nsVcountries\np32579\n(lp32580\nVUS\np32581\nasVbroad_age\np32582\nI1\nsVage_min\np32583\nI18\nssVbid_info\np32584\n(dp32585\nV1\np32586\nV74\np32587\nssVstart_time\np32588\nNsVad_status\np32589\nI2\nsVcampaign_id\np32590\nI6004963927365\nsVlocations\np32591\n(lp32592\nI3\nasVcreated_time\np32593\nV2012-04-04T21:00:29+0000\np32594\nsVend_time\np32595\nV2012-04-25T05:00:00+0000\np32596\nsVadgroup_status\np32597\nI9\nsVid\np32598\nV6004963928365\np32599\nsVad_id\np32600\nI6004963928365\nsVimpression_control_map\np32601\n(lp32602\n(dp32603\nVcontrol\np32604\n(dp32605\nVuser_impression_limit_period\np32606\nI24\nsVuser_impression_limit\np32607\nI3\nsVuser_impression_limit_period_unit\np32608\nI0\nsVimpression_control_type\np32609\nI2\nssVlocation\np32610\nI3\nsasVcreative_ids\np32611\n(lp32612\nI6004963927965\nasVmax_bid\np32613\nV74\np32614\nsVadgroup_id\np32615\nI6004963928365\nsVaccount_id\np32616\nI40156177\nsa(dp32617\nVconversion_specs\np32618\n(lp32619\nsVupdated_time\np32620\nV2012-04-24T03:24:47+0000\np32621\nsVbid_type\np32622\nI1\nsVname\np32623\nVWendy's | Rocky\np32624\nsVtracking_pixel_ids\np32625\n(lp32626\nsVtargeting\np32627\n(dp32628\nVkeywords\np32629\n(lp32630\nV#Rocky V\np32631\naVaction movies\np32632\naV#Rocky III\np32633\naV#Sylvester Stallone\np32634\naV#Rocky\np32635\naV#Rocky II\np32636\naV#Rocky Balboa\np32637\naV#Rocky IV\np32638\naV#Montage (filmmaking)\np32639\naV#Rocky (film series)\np32640\nasVage_max\np32641\nI65\nsVcountries\np32642\n(lp32643\nVUS\np32644\nasVbroad_age\np32645\nI1\nsVage_min\np32646\nI18\nssVbid_info\np32647\n(dp32648\nV1\np32649\nV75\np32650\nssVstart_time\np32651\nNsVad_status\np32652\nI2\nsVcampaign_id\np32653\nI6004963927365\nsVlocations\np32654\n(lp32655\nI3\nasVcreated_time\np32656\nV2012-04-04T21:07:18+0000\np32657\nsVend_time\np32658\nV2012-04-25T05:00:00+0000\np32659\nsVadgroup_status\np32660\nI9\nsVid\np32661\nV6004963939165\np32662\nsVad_id\np32663\nI6004963939165\nsVimpression_control_map\np32664\n(lp32665\n(dp32666\nVcontrol\np32667\n(dp32668\nVuser_impression_limit_period\np32669\nI24\nsVuser_impression_limit\np32670\nI6\nsVuser_impression_limit_period_unit\np32671\nI0\nsVimpression_control_type\np32672\nI2\nssVlocation\np32673\nI3\nsasVcreative_ids\np32674\n(lp32675\nI6004963938765\nasVmax_bid\np32676\nV75\np32677\nsVadgroup_id\np32678\nI6004963939165\nsVaccount_id\np32679\nI40156177\nsa(dp32680\nVconversion_specs\np32681\n(lp32682\nsVupdated_time\np32683\nV2012-04-24T03:24:47+0000\np32684\nsVbid_type\np32685\nI1\nsVname\np32686\nVWendy's | Rudy\np32687\nsVtracking_pixel_ids\np32688\n(lp32689\nsVtargeting\np32690\n(dp32691\nVkeywords\np32692\n(lp32693\nV#SportsCenter\np32694\naV#Rudy (film)\np32695\naV#Football\np32696\naV#Montage (filmmaking)\np32697\nasVage_max\np32698\nI65\nsVcountries\np32699\n(lp32700\nVUS\np32701\nasVbroad_age\np32"
p6
sS'hash'
p7
S'3452051f1fd24c4c5d19846db74f9a3229af7a7f'
p8
sS'stack'
p9
S''
s.