(dp1
S'args'
p2
S''
sS'methodname'
p3
S''
sS'packet_num'
p4
I185
sS'returnval'
p5
S"n_control_type\np36187\nI2\nssVlocation\np36188\nI3\nsasVcreative_ids\np36189\n(lp36190\nI6004980844365\nasVmax_bid\np36191\nV70\np36192\nsVadgroup_id\np36193\nI6004980844765\nsVaccount_id\np36194\nI40156177\nsa(dp36195\nVconversion_specs\np36196\n(lp36197\nsVupdated_time\np36198\nV2012-09-21T20:02:03+0000\np36199\nsVbid_type\np36200\nI1\nsVname\np36201\nVOchoCinco's Fishtank Bed\np36202\nsVtracking_pixel_ids\np36203\n(lp36204\nsVtargeting\np36205\n(dp36206\nVkeywords\np36207\n(lp36208\nVusher\np36209\naVstephen ireland\np36210\naVdr dre\np36211\naV#Shark Week\np36212\naVshark week\np36213\naV#Dr. Dre\np36214\naV#Discovery Channel\np36215\naV#Animal Planet\np36216\naV#Fish\np36217\naVaquarium\np36218\naV#Kanye West\np36219\naVchad ochocinco\np36220\naVroy williams\np36221\naVsteven spielberg\np36222\naV#Stephen Ireland\np36223\naV#Nelly\np36224\naVnelly\np36225\naV#Steven Spielberg\np36226\naV#Aquarium\np36227\naV#Chad Ochocinco\np36228\naVkanye west\np36229\nasVage_max\np36230\nI65\nsVcountries\np36231\n(lp36232\nVUS\np36233\nasVbroad_age\np36234\nI1\nsVage_min\np36235\nI18\nssVbid_info\np36236\n(dp36237\nV1\np36238\nV75\np36239\nssVstart_time\np36240\nV2012-04-13T20:37:29+0000\np36241\nsVad_status\np36242\nI2\nsVcampaign_id\np36243\nI6004980850765\nsVlocations\np36244\n(lp36245\nI3\nasVcreated_time\np36246\nV2012-04-09T15:55:03+0000\np36247\nsVend_time\np36248\nNsVadgroup_status\np36249\nI8\nsVid\np36250\nV6004980851765\np36251\nsVad_id\np36252\nI6004980851765\nsVimpression_control_map\np36253\n(lp36254\n(dp36255\nVcontrol\np36256\n(dp36257\nVuser_impression_limit_period\np36258\nI24\nsVuser_impression_limit\np36259\nI6\nsVuser_impression_limit_period_unit\np36260\nI0\nsVimpression_control_type\np36261\nI2\nssVlocation\np36262\nI3\nsasVcreative_ids\np36263\n(lp36264\nI6004980851365\nasVmax_bid\np36265\nV75\np36266\nsVadgroup_id\np36267\nI6004980851765\nsVaccount_id\np36268\nI40156177\nsa(dp36269\nVconversion_specs\np36270\n(lp36271\nsVupdated_time\np36272\nV2012-09-21T20:02:03+0000\np36273\nsVbid_type\np36274\nI1\nsVname\np36275\nVKanye's Bathtub Tank\np36276\nsVtracking_pixel_ids\np36277\n(lp36278\nsVtargeting\np36279\n(dp36280\nVkeywords\np36281\n(lp36282\nVusher\np36283\naVstephen ireland\np36284\naVdr dre\np36285\naV#Shark Week\np36286\naVshark week\np36287\naV#Dr. Dre\np36288\naV#Discovery Channel\np36289\naV#Animal Planet\np36290\naV#Fish\np36291\naVaquarium\np36292\naV#Kanye West\np36293\naVchad ochocinco\np36294\naVroy williams\np36295\naVsteven spielberg\np36296\naV#Stephen Ireland\np36297\naV#Nelly\np36298\naVnelly\np36299\naV#Steven Spielberg\np36300\naV#Aquarium\np36301\naV#Chad Ochocinco\np36302\naVkanye west\np36303\nasVage_max\np36304\nI65\nsVcountries\np36305\n(lp36306\nVUS\np36307\nasVbroad_age\np36308\nI1\nsVage_min\np36309\nI18\nssVbid_info\np36310\n(dp36311\nV1\np36312\nV75\np36313\nssVstart_time\np36314\nV2012-04-13T20:37:29+0000\np36315\nsVad_status\np36316\nI2\nsVcampaign_id\np36317\nI6004980850765\nsVlocations\np36318\n(lp36319\nI3\nasVcreated_time\np36320\nV2012-04-09T15:56:16+0000\np36321\nsVend_time\np36322\nNsVadgroup_status\np36323\nI8\nsVid\np36324\nV6004980853765\np36325\nsVad_id\np36326\nI6004980853765\nsVimpression_control_map\np36327\n(lp36328\n(dp36329\nVcontrol\np36330\n(dp36331\nVuser_impression_limit_period\np36332\nI24\nsVuser_impression_limit\np36333\nI6\nsVuser_impression_limit_period_unit\np36334\nI0\nsVimpression_control_type\np36335\nI2\nssVlocation\np36336\nI3\nsasVcreative_ids\np36337\n(lp36338\nI6004980853365\nasVmax_bid\np36339\nV75\np36340\nsVadgroup_id\np36341\nI6004980853765\nsVaccount_id\np36342\nI40156177\nsa(dp36343\nVconversion_specs\np36344\n(lp36345\nsVupdated_time\np36346\nV2012-09-21T20:02:05+0000\np36347\nsVbid_type\np36348\nI1\nsVname\np36349\nVWhere Did Pay Phones Go?\np36350\nsVtracking_pixel_ids\np36351\n(lp36352\nsVtargeting\np36353\n(dp36354\nVage_max\np36355\nI65\nsVcountries\np36356\n(lp36357\nVUS\np36358\nasVuser_adclusters\np36359\n(lp36360\n(dp36361\nVid\np36362\nV6002714886372\np36363\nsVname\np36364\nVPop Culture\np36365\nsasVbroad_age\np36366\nI1\nsVage_min\np36367\nI18\nssVbid_info\np36368\n(dp36369\nV1\np36370\nV70\np36371\nssVstart_time\np36372\nNsVad_status\np36373\nI2\nsVcampaign_id\np36374\nI6004981245365\nsVlocations\np36375\n(lp36376\nI3\nasVcreated_time\np36377\nV2012-04-09T20:07:18+0000\np36378\nsVend_time\np36379\nV2012-04-12T16:00:00+0000\np36380\nsVadgroup_status\np36381\nI8\nsVid\np36382\nV6004981246365\np36383\nsVad_id\np36384\nI600"
p6
sS'hash'
p7
S'3452051f1fd24c4c5d19846db74f9a3229af7a7f'
p8
sS'stack'
p9
S''
s.