(dp1
S'args'
p2
S''
sS'methodname'
p3
S''
sS'packet_num'
p4
I2
sS'returnval'
p5
S'p387\nI0\nsVunique_impressions\np388\nI0\nsVstart_time\np389\nV2012-11-26T06:00:00+0000\np390\nsVspent\np391\nV82092\np392\nsVactions\np393\nNsVclicks\np394\nV1106\np395\nsVconnections\np396\nI0\nsVsocial_clicks\np397\nV0\np398\nsVevents\np399\n(dp400\nVvideo_play\np401\nI0\nsVtitle_clicks\np402\nI0\nsVinline_like\np403\nI0\nsVinline_comment\np404\nI0\nsVrsvp_maybe\np405\nI0\nsVlink_open\np406\nI0\nsVphoto_view\np407\nI0\nsVrsvp_yes\np408\nI0\nsVfans\np409\nI0\nsVquestion_vote\np410\nI0\nssVsocial_impressions\np411\nV0\np412\nsVadgroup_id\np413\nI6007161095765\nsVsocial_unique_impressions\np414\nI0\nsVsocial_spent\np415\nV0\np416\nsVimpressions\np417\nV3039840\np418\nsVnewsfeed_position\np419\n(dp420\nVnewsfeed_clicks\np421\nV0\np422\nsVnewsfeed_impressions\np423\nV0\np424\nsVnewsfeed_average_position\np425\nI0\nssVid\np426\nV6007161095765/stats/1353909600/1356588000\np427\nsVunique_clicks\np428\nI0\nsVend_time\np429\nV2012-12-27T06:00:00+0000\np430\nsa(dp431\nVcampaign_id\np432\nI6007117761765\nsVsocial_unique_clicks\np433\nI0\nsVunique_impressions\np434\nI0\nsVstart_time\np435\nV2012-11-26T06:00:00+0000\np436\nsVspent\np437\nV8661\np438\nsVactions\np439\nNsVclicks\np440\nV147\np441\nsVconnections\np442\nI0\nsVsocial_clicks\np443\nV0\np444\nsVevents\np445\n(dp446\nVvideo_play\np447\nI0\nsVtitle_clicks\np448\nI0\nsVinline_like\np449\nI0\nsVinline_comment\np450\nI0\nsVrsvp_maybe\np451\nI0\nsVlink_open\np452\nI0\nsVphoto_view\np453\nI0\nsVrsvp_yes\np454\nI0\nsVfans\np455\nI0\nsVquestion_vote\np456\nI0\nssVsocial_impressions\np457\nV0\np458\nsVadgroup_id\np459\nI6007117762765\nsVsocial_unique_impressions\np460\nI0\nsVsocial_spent\np461\nV0\np462\nsVimpressions\np463\nV378282\np464\nsVnewsfeed_position\np465\n(dp466\nVnewsfeed_clicks\np467\nV0\np468\nsVnewsfeed_impressions\np469\nV0\np470\nsVnewsfeed_average_position\np471\nI0\nssVid\np472\nV6007117762765/stats/1353909600/1356588000\np473\nsVunique_clicks\np474\nI0\nsVend_time\np475\nV2012-12-27T06:00:00+0000\np476\nsa(dp477\nVcampaign_id\np478\nI6007117761765\nsVsocial_unique_clicks\np479\nI0\nsVunique_impressions\np480\nI0\nsVstart_time\np481\nV2012-11-26T06:00:00+0000\np482\nsVspent\np483\nV8520\np484\nsVactions\np485\nNsVclicks\np486\nV155\np487\nsVconnections\np488\nI0\nsVsocial_clicks\np489\nV0\np490\nsVevents\np491\n(dp492\nVvideo_play\np493\nI0\nsVtitle_clicks\np494\nI0\nsVinline_like\np495\nI0\nsVinline_comment\np496\nI0\nsVrsvp_maybe\np497\nI0\nsVlink_open\np498\nI0\nsVphoto_view\np499\nI0\nsVrsvp_yes\np500\nI0\nsVfans\np501\nI0\nsVquestion_vote\np502\nI0\nssVsocial_impressions\np503\nV0\np504\nsVadgroup_id\np505\nI6007120721765\nsVsocial_unique_impressions\np506\nI0\nsVsocial_spent\np507\nV0\np508\nsVimpressions\np509\nV370514\np510\nsVnewsfeed_position\np511\n(dp512\nVnewsfeed_clicks\np513\nV0\np514\nsVnewsfeed_impressions\np515\nV0\np516\nsVnewsfeed_average_position\np517\nI0\nssVid\np518\nV6007120721765/stats/1353909600/1356588000\np519\nsVunique_clicks\np520\nI0\nsVend_time\np521\nV2012-12-27T06:00:00+0000\np522\nsa(dp523\nVcampaign_id\np524\nI6007117761765\nsVsocial_unique_clicks\np525\nI0\nsVunique_impressions\np526\nI0\nsVstart_time\np527\nV2012-11-26T06:00:00+0000\np528\nsVspent\np529\nV56816\np530\nsVactions\np531\nNsVclicks\np532\nV958\np533\nsVconnections\np534\nI0\nsVsocial_clicks\np535\nV0\np536\nsVevents\np537\n(dp538\nVvideo_play\np539\nI0\nsVtitle_clicks\np540\nI0\nsVinline_like\np541\nI0\nsVinline_comment\np542\nI0\nsVrsvp_maybe\np543\nI0\nsVlink_open\np544\nI0\nsVphoto_view\np545\nI0\nsVrsvp_yes\np546\nI0\nsVfans\np547\nI0\nsVquestion_vote\np548\nI0\nssVsocial_impressions\np549\nV0\np550\nsVadgroup_id\np551\nI6007141674165\nsVsocial_unique_impressions\np552\nI0\nsVsocial_spent\np553\nV0\np554\nsVimpressions\np555\nV2882745\np556\nsVnewsfeed_position\np557\n(dp558\nVnewsfeed_clicks\np559\nV0\np560\nsVnewsfeed_impressions\np561\nV0\np562\nsVnewsfeed_average_position\np563\nI0\nssVid\np564\nV6007141674165/stats/1353909600/1356588000\np565\nsVunique_clicks\np566\nI0\nsVend_time\np567\nV2012-12-27T06:00:00+0000\np568\nsa(dp569\nVcampaign_id\np570\nI6007117761765\nsVsocial_unique_clicks\np571\nI0\nsVunique_impressions\np572\nI0\nsVstart_time\np573\nV2012-11-26T06:00:00+0000\np574\nsVspent\np575\nV77983\np576\nsVactions\np577\nNsVclicks\np578\nV1314\np579\nsVconnections\np580\nI0\nsVsocial_clicks\np581\nV0\np582\nsVevents\np583\n(dp584\nVvideo_play\np585\nI0\nsVtitle_clicks\np586\nI0\nsVinline_like\np587\nI0\nsVinline_comment\np588\nI0\nsVrsvp_maybe\np589\nI0\nsVlink_open\np590\nI0\nsVphoto_view\np591\nI0\nsVrsvp_yes\np592'
p6
sS'hash'
p7
S'358f42b2bd209d48d9f29322d7f9cd55a439c466'
p8
sS'stack'
p9
S''
s.