(dp1
S'args'
p2
S''
sS'methodname'
p3
S''
sS'packet_num'
p4
I11
sS'returnval'
p5
S'l_spent\np2163\nV0\np2164\nsVimpressions\np2165\nV5047748\np2166\nsVnewsfeed_position\np2167\n(dp2168\nVnewsfeed_clicks\np2169\nV0\np2170\nsVnewsfeed_impressions\np2171\nV0\np2172\nsVnewsfeed_average_position\np2173\nI0\nssVid\np2174\nV6007162491565/stats/1353909600/1356588000\np2175\nsVunique_clicks\np2176\nI0\nsVend_time\np2177\nV2012-12-27T06:00:00+0000\np2178\nsa(dp2179\nVcampaign_id\np2180\nI6007137032965\nsVsocial_unique_clicks\np2181\nI0\nsVunique_impressions\np2182\nI0\nsVstart_time\np2183\nV2012-11-26T06:00:00+0000\np2184\nsVspent\np2185\nV8320\np2186\nsVactions\np2187\nNsVclicks\np2188\nV122\np2189\nsVconnections\np2190\nI0\nsVsocial_clicks\np2191\nV0\np2192\nsVevents\np2193\n(dp2194\nVvideo_play\np2195\nI0\nsVtitle_clicks\np2196\nI0\nsVinline_like\np2197\nI0\nsVinline_comment\np2198\nI0\nsVrsvp_maybe\np2199\nI0\nsVlink_open\np2200\nI0\nsVphoto_view\np2201\nI0\nsVrsvp_yes\np2202\nI0\nsVfans\np2203\nI0\nsVquestion_vote\np2204\nI0\nssVsocial_impressions\np2205\nV0\np2206\nsVadgroup_id\np2207\nI6007162505965\nsVsocial_unique_impressions\np2208\nI0\nsVsocial_spent\np2209\nV0\np2210\nsVimpressions\np2211\nV363766\np2212\nsVnewsfeed_position\np2213\n(dp2214\nVnewsfeed_clicks\np2215\nV0\np2216\nsVnewsfeed_impressions\np2217\nV0\np2218\nsVnewsfeed_average_position\np2219\nI0\nssVid\np2220\nV6007162505965/stats/1353909600/1356588000\np2221\nsVunique_clicks\np2222\nI0\nsVend_time\np2223\nV2012-12-27T06:00:00+0000\np2224\nsa(dp2225\nVcampaign_id\np2226\nI6007139118765\nsVsocial_unique_clicks\np2227\nI0\nsVunique_impressions\np2228\nI0\nsVstart_time\np2229\nV2012-11-26T06:00:00+0000\np2230\nsVspent\np2231\nV191\np2232\nsVactions\np2233\nNsVclicks\np2234\nV5\np2235\nsVconnections\np2236\nI0\nsVsocial_clicks\np2237\nV0\np2238\nsVevents\np2239\n(dp2240\nVvideo_play\np2241\nI0\nsVtitle_clicks\np2242\nI0\nsVinline_like\np2243\nI0\nsVinline_comment\np2244\nI0\nsVrsvp_maybe\np2245\nI0\nsVlink_open\np2246\nI0\nsVphoto_view\np2247\nI0\nsVrsvp_yes\np2248\nI0\nsVfans\np2249\nI0\nsVquestion_vote\np2250\nI0\nssVsocial_impressions\np2251\nV0\np2252\nsVadgroup_id\np2253\nI6007139120165\nsVsocial_unique_impressions\np2254\nI0\nsVsocial_spent\np2255\nV0\np2256\nsVimpressions\np2257\nV13214\np2258\nsVnewsfeed_position\np2259\n(dp2260\nVnewsfeed_clicks\np2261\nV0\np2262\nsVnewsfeed_impressions\np2263\nV0\np2264\nsVnewsfeed_average_position\np2265\nI0\nssVid\np2266\nV6007139120165/stats/1353909600/1356588000\np2267\nsVunique_clicks\np2268\nI0\nsVend_time\np2269\nV2012-12-27T06:00:00+0000\np2270\nsa(dp2271\nVcampaign_id\np2272\nI6007142499365\nsVsocial_unique_clicks\np2273\nI0\nsVunique_impressions\np2274\nI0\nsVstart_time\np2275\nV2012-11-26T06:00:00+0000\np2276\nsVspent\np2277\nV39194\np2278\nsVactions\np2279\nNsVclicks\np2280\nV685\np2281\nsVconnections\np2282\nI0\nsVsocial_clicks\np2283\nV0\np2284\nsVevents\np2285\n(dp2286\nVvideo_play\np2287\nI0\nsVtitle_clicks\np2288\nI0\nsVinline_like\np2289\nI0\nsVinline_comment\np2290\nI0\nsVrsvp_maybe\np2291\nI0\nsVlink_open\np2292\nI0\nsVphoto_view\np2293\nI0\nsVrsvp_yes\np2294\nI0\nsVfans\np2295\nI0\nsVquestion_vote\np2296\nI0\nssVsocial_impressions\np2297\nV0\np2298\nsVadgroup_id\np2299\nI6007142500365\nsVsocial_unique_impressions\np2300\nI0\nsVsocial_spent\np2301\nV0\np2302\nsVimpressions\np2303\nV1332207\np2304\nsVnewsfeed_position\np2305\n(dp2306\nVnewsfeed_clicks\np2307\nV0\np2308\nsVnewsfeed_impressions\np2309\nV0\np2310\nsVnewsfeed_average_position\np2311\nI0\nssVid\np2312\nV6007142500365/stats/1353909600/1356588000\np2313\nsVunique_clicks\np2314\nI0\nsVend_time\np2315\nV2012-12-27T06:00:00+0000\np2316\nsa(dp2317\nVcampaign_id\np2318\nI6007142499365\nsVsocial_unique_clicks\np2319\nI0\nsVunique_impressions\np2320\nI0\nsVstart_time\np2321\nV2012-11-26T06:00:00+0000\np2322\nsVspent\np2323\nV51022\np2324\nsVactions\np2325\nNsVclicks\np2326\nV797\np2327\nsVconnections\np2328\nI0\nsVsocial_clicks\np2329\nV0\np2330\nsVevents\np2331\n(dp2332\nVvideo_play\np2333\nI0\nsVtitle_clicks\np2334\nI0\nsVinline_like\np2335\nI0\nsVinline_comment\np2336\nI0\nsVrsvp_maybe\np2337\nI0\nsVlink_open\np2338\nI0\nsVphoto_view\np2339\nI0\nsVrsvp_yes\np2340\nI0\nsVfans\np2341\nI0\nsVquestion_vote\np2342\nI0\nssVsocial_impressions\np2343\nV0\np2344\nsVadgroup_id\np2345\nI6007142523165\nsVsocial_unique_impressions\np2346\nI0\nsVsocial_spent\np2347\nV0\np2348\nsVimpressions\np2349\nV1697959\np2350\nsVnewsfeed_position\np2351\n(dp2352\nVnewsfeed_clicks\np2353\nV0\np2354\nsVnewsfeed_impressions\np2355\nV0\np2356\nsVnewsfeed_average_position\np2357\nI0\nssVid\np2358\nV'
p6
sS'hash'
p7
S'358f42b2bd209d48d9f29322d7f9cd55a439c466'
p8
sS'stack'
p9
S''
s.