(dp1
S'args'
p2
S''
sS'methodname'
p3
S''
sS'packet_num'
p4
I45
sS'returnval'
p5
S'I1\nsVrun_status\np5808\nI1\nsVtype\np5809\nI1\nsVlink_url\np5810\nVhttp://www.buzzfeed.com/h1/fbad/breakingbad/25-things-you-probably-didnt-know-about-breaking-61z6\np5811\nsVview_tag\np5812\ng22\nsa(dp5813\nValt_view_tags\np5814\n(lp5815\nsVbody\np5816\nVCheck out the "Top 10 Instagram Photos From The Farnborough Air Show" Only on BuzzFeed!\np5817\nsVimage_hash\np5818\nV041a32cb4bce38f3d3ec3ec88bab4fa6\np5819\nsVname\np5820\nVAwesome Instagram Pics!\np5821\nsVtitle\np5822\nVAwesome Instagram Pics!\np5823\nsVcreative_id\np5824\nV6005515039565\np5825\nsVpreview_url\np5826\nVhttp://www.facebook.com/ads/api/creative_preview.php?cid=6005515039565\np5827\nsVid\np5828\nV6005515039565\np5829\nsVimage_url\np5830\nVhttps://fbcdn-creative-a.akamaihd.net/hads-ak-prn1/s110x80/708186_6006844073165_44784_n.jpg\np5831\nsVcount_current_adgroups\np5832\nI2\nsVrun_status\np5833\nI1\nsVtype\np5834\nI1\nsVlink_url\np5835\nVhttp://www.buzzfeed.com/h1/fbad/cfm/top-10-instagram-photos-from-the-farnborough-air-s-6rc8\np5836\nsVview_tag\np5837\ng22\nsa(dp5838\nValt_view_tags\np5839\n(lp5840\nsVbody\np5841\nVShare these "9 Inspirational Quotes From Independent Women Who Kick Butt" on BuzzFeed!\\u000a\np5842\nsVimage_hash\np5843\nV6aa5c3197013e181164249e932016c6b\np5844\nsVname\np5845\nVAdele\'s Best Quote\np5846\nsVtitle\np5847\nVAdele\'s Best Quote\np5848\nsVcreative_id\np5849\nV6005512018165\np5850\nsVpreview_url\np5851\nVhttp://www.facebook.com/ads/api/creative_preview.php?cid=6005512018165\np5852\nsVid\np5853\nV6005512018165\np5854\nsVimage_url\np5855\nVhttps://fbcdn-creative-a.akamaihd.net/hads-ak-prn1/s110x80/708195_6006844694765_47937_n.jpg\np5856\nsVcount_current_adgroups\np5857\nI1\nsVrun_status\np5858\nI1\nsVtype\np5859\nI1\nsVlink_url\np5860\nVhttp://www.buzzfeed.com/h1/fbad/politicalanimals/9-inspirational-quotes-from-independent-women-who\np5861\nsVview_tag\np5862\ng22\nsa(dp5863\nValt_view_tags\np5864\n(lp5865\nsVbody\np5866\nVLou Ferrigno makes our list of best movie security guards. See the rest on BuzzFeed!\np5867\nsVimage_hash\np5868\nVe8ead7fd444347e018969c3dfc590c82\np5869\nsVname\np5870\nVSmallville Fans!-00-00-00-00\np5871\nsVtitle\np5872\nVHulk Smash!\np5873\nsVcreative_id\np5874\nV6005499174565\np5875\nsVpreview_url\np5876\nVhttp://www.facebook.com/ads/api/creative_preview.php?cid=6005499174565\np5877\nsVid\np5878\nV6005499174565\np5879\nsVimage_url\np5880\nVhttps://fbcdn-creative-a.akamaihd.net/hads-ak-ash3/s110x80/708191_6006845455365_8788_n.jpg\np5881\nsVcount_current_adgroups\np5882\nI1\nsVrun_status\np5883\nI1\nsVtype\np5884\nI1\nsVlink_url\np5885\nVhttp://www.buzzfeed.com/h1/fbad/smalltownsecurity/the-10-coolest-fictional-security-guards-6iyz\np5886\nsVview_tag\np5887\ng22\nsa(dp5888\nValt_view_tags\np5889\n(lp5890\nsVbody\np5891\nVGeorge makes our list of best TV security guards. See the rest on BuzzFeed!\np5892\nsVimage_hash\np5893\nVdc7db1d3f651127ecb2dfa0f5d3736d8\np5894\nsVname\np5895\nVSmallville Fans!\np5896\nsVtitle\np5897\nVSmallville Fans!\np5898\nsVcreative_id\np5899\nV6005468996565\np5900\nsVpreview_url\np5901\nVhttp://www.facebook.com/ads/api/creative_preview.php?cid=6005468996565\np5902\nsVid\np5903\nV6005468996565\np5904\nsVimage_url\np5905\nVhttps://fbcdn-creative-a.akamaihd.net/hads-ak-prn1/s110x80/708172_6006845374765_16781_n.jpg\np5906\nsVcount_current_adgroups\np5907\nI1\nsVrun_status\np5908\nI1\nsVtype\np5909\nI1\nsVlink_url\np5910\nVhttp://www.buzzfeed.com/h1/fbad/smalltownsecurity/the-10-coolest-fictional-security-guards-6iyz\np5911\nsVview_tag\np5912\ng22\nsa(dp5913\nValt_view_tags\np5914\n(lp5915\nsVbody\np5916\nVHank Tate makes our list of best TV security guards. See the rest on BuzzFeed!\np5917\nsVimage_hash\np5918\nVdc7db1d3f651127ecb2dfa0f5d3736d8\np5919\nsVname\np5920\nVSmallville Fans!-00\np5921\nsVtitle\np5922\nVOffice Fans!\np5923\nsVcreative_id\np5924\nV6005469002565\np5925\nsVpreview_url\np5926\nVhttp://www.facebook.com/ads/api/creative_preview.php?cid=6005469002565\np5927\nsVid\np5928\nV6005469002565\np5929\nsVimage_url\np5930\nVhttps://fbcdn-creative-a.akamaihd.net/hads-ak-prn1/s110x80/708172_6006845374765_16781_n.jpg\np5931\nsVcount_current_adgroups\np5932\nI1\nsVrun_status\np5933\nI1\nsVtype\np5934\nI1\nsVlink_url\np5935\nVhttp://www.buzzfeed.com/h1/fbad/smalltownsecurity/the-10-coolest-fictional-security-guards-6iyz\np5936\nsVview_tag\np5937\ng22'
p6
sS'hash'
p7
S'3a1a77a5784510883f0cba1804294fc29cead2c8'
p8
sS'stack'
p9
S''
s.