(dp1
S'args'
p2
S''
sS'methodname'
p3
S''
sS'packet_num'
p4
I154
sS'returnval'
p5
S'8\nVBuzzFeed put together "The Definitive List Of Cartman-isms". What\'s yoour favorite?  Remember to "Like" our page for more great stuff!\np19609\nsVimage_hash\np19610\nV3d7be19d8a51196e7cec5361f4ec5dea\np19611\nsVname\np19612\nVBuzzFeed Partner-38\np19613\nsVtitle\np19614\ng22\nsVcreative_id\np19615\nV6003876683165\np19616\nsVpreview_url\np19617\nVhttp://www.facebook.com/ads/api/creative_preview.php?cid=6003876683165\np19618\nsVobject_id\np19619\nI238205562866018\nsVid\np19620\nV6003876683165\np19621\nsVimage_url\np19622\nVhttps://fbcdn-creative-a.akamaihd.net/hads-ak-prn1/s110x80/708161_6006844411965_43594_n.jpg\np19623\nsVcount_current_adgroups\np19624\nI0\nsVrun_status\np19625\nI1\nsVtype\np19626\nI2\nsVlink_url\np19627\nVhttp://www.facebook.com/BuzzFeedPartner\np19628\nsVview_tag\np19629\ng22\nsa(dp19630\nValt_view_tags\np19631\n(lp19632\nsVbody\np19633\nVBuzzFeed put together "The Definitive List Of Cartman-isms". What\'s yoour favorite?  Remember to "Like" our page for more great stuff!\np19634\nsVimage_hash\np19635\nV1596cc0bed7484192273b4aa894d699f\np19636\nsVname\np19637\nVBuzzFeed Partner-39\np19638\nsVtitle\np19639\ng22\nsVcreative_id\np19640\nV6003876732365\np19641\nsVpreview_url\np19642\nVhttp://www.facebook.com/ads/api/creative_preview.php?cid=6003876732365\np19643\nsVobject_id\np19644\nI238205562866018\nsVid\np19645\nV6003876732365\np19646\nsVimage_url\np19647\nVhttps://fbcdn-creative-a.akamaihd.net/hads-ak-prn1/s110x80/708170_6006844185165_52427_n.jpg\np19648\nsVcount_current_adgroups\np19649\nI0\nsVrun_status\np19650\nI1\nsVtype\np19651\nI2\nsVlink_url\np19652\nVhttp://www.facebook.com/BuzzFeedPartner\np19653\nsVview_tag\np19654\ng22\nsa(dp19655\nValt_view_tags\np19656\n(lp19657\nsVbody\np19658\nVWhen \'boyfriends\' come into the picture, any father wants to protect his daughter. Check out these great ideas to show who\'s the BOSS!\np19659\nsVimage_hash\np19660\nV308f8e27fde516d3f1f5f353235417ac\np19661\nsVname\np19662\nVIntimidate THE Boyfriend!\np19663\nsVtitle\np19664\nVIntimidate THE Boyfriend!\np19665\nsVcreative_id\np19666\nV6003879585965\np19667\nsVpreview_url\np19668\nVhttp://www.facebook.com/ads/api/creative_preview.php?cid=6003879585965\np19669\nsVid\np19670\nV6003879585965\np19671\nsVimage_url\np19672\nVhttps://fbcdn-creative-a.akamaihd.net/hads-ak-ash3/s110x80/701901_6006844340165_3513_n.jpg\np19673\nsVcount_current_adgroups\np19674\nI0\nsVrun_status\np19675\nI1\nsVtype\np19676\nI1\nsVlink_url\np19677\nVhttp://www.buzzfeed.com/ht/lastmanstanding/if-men-fixed-everything/HFBA1\np19678\nsVview_tag\np19679\ng22\nsa(dp19680\nValt_view_tags\np19681\n(lp19682\nsVbody\np19683\nVWhen \'boyfriends\' come into the picture, any father wants to protect his daughter. Check out these great ideas to show who\'s the BOSS!\np19684\nsVimage_hash\np19685\nVd67eec494fd9e764c9d54a41ba201f76\np19686\nsVname\np19687\nVIntimidate THE Boyfriend!-00\np19688\nsVtitle\np19689\nVIntimidate THE Boyfriend!\np19690\nsVcreative_id\np19691\nV6003879587965\np19692\nsVpreview_url\np19693\nVhttp://www.facebook.com/ads/api/creative_preview.php?cid=6003879587965\np19694\nsVid\np19695\nV6003879587965\np19696\nsVimage_url\np19697\nVhttps://fbcdn-creative-a.akamaihd.net/hads-ak-prn1/s110x80/708189_6006845332165_44941_n.jpg\np19698\nsVcount_current_adgroups\np19699\nI0\nsVrun_status\np19700\nI1\nsVtype\np19701\nI1\nsVlink_url\np19702\nVhttp://www.buzzfeed.com/ht/lastmanstanding/if-men-fixed-everything/HFBA1\np19703\nsVview_tag\np19704\ng22\nsa(dp19705\nValt_view_tags\np19706\n(lp19707\nsVbody\np19708\nVWhen \'boyfriends\' come into the picture, any father wants to protect his daughter. Check out these great ideas to show who\'s the BOSS!\np19709\nsVimage_hash\np19710\nV308f8e27fde516d3f1f5f353235417ac\np19711\nsVname\np19712\nVIntimidate THE Boyfriend!-01\np19713\nsVtitle\np19714\nVIntimidate THE Boyfriend!\np19715\nsVcreative_id\np19716\nV6003879596765\np19717\nsVpreview_url\np19718\nVhttp://www.facebook.com/ads/api/creative_preview.php?cid=6003879596765\np19719\nsVid\np19720\nV6003879596765\np19721\nsVimage_url\np19722\nVhttps://fbcdn-creative-a.akamaihd.net/hads-ak-ash3/s110x80/701901_6006844340165_3513_n.jpg\np19723\nsVcount_current_adgroups\np19724\nI0\nsVrun_status\np19725\nI1\nsVtype\np19726\nI1\nsVlink_url\np19727\nVhttp://www.buzzfeed.com/ht/lastmanstanding/the-dads-guide-to-intimida'
p6
sS'hash'
p7
S'3a1a77a5784510883f0cba1804294fc29cead2c8'
p8
sS'stack'
p9
S''
s.