(dp1
S'args'
p2
S''
sS'methodname'
p3
S''
sS'packet_num'
p4
I21
sS'returnval'
p5
S'666\nVWould you try it? We might. See some more exotic foods we\'d try if we had Ranch dressing! \np2667\nsVimage_hash\np2668\nVf658f478b17d54834c02b2d2493adb34\np2669\nsVname\np2670\nVFried Scorpions?-00\np2671\nsVtitle\np2672\nVPerhaps Some Tongue?\np2673\nsVcreative_id\np2674\nV6005770741565\np2675\nsVpreview_url\np2676\nVhttp://www.facebook.com/ads/api/creative_preview.php?cid=6005770741565\np2677\nsVid\np2678\nV6005770741565\np2679\nsVimage_url\np2680\nVhttps://fbcdn-creative-a.akamaihd.net/hads-ak-prn1/s110x80/708163_6006845540765_34625_n.jpg\np2681\nsVcount_current_adgroups\np2682\nI2\nsVrun_status\np2683\nI1\nsVtype\np2684\nI1\nsVlink_url\np2685\nVhttp://www.buzzfeed.com/h1/fbad/hiddenvalleyranch/8-exotic-foods-wed-try-if-we-had-some-hidden-vall\np2686\nsVview_tag\np2687\ng22\nsa(dp2688\nValt_view_tags\np2689\n(lp2690\nsVbody\np2691\nVWould you try it? We might. See some more exotic foods we\'d try if we had Ranch dressing! \np2692\nsVimage_hash\np2693\nV077f405cc2d6de6ace48ce95c316b354\np2694\nsVname\np2695\nVFried Scorpions?\np2696\nsVtitle\np2697\nVFried Scorpions?\np2698\nsVcreative_id\np2699\nV6005770724165\np2700\nsVpreview_url\np2701\nVhttp://www.facebook.com/ads/api/creative_preview.php?cid=6005770724165\np2702\nsVid\np2703\nV6005770724165\np2704\nsVimage_url\np2705\nVhttps://fbcdn-creative-a.akamaihd.net/hads-ak-ash3/s110x80/701888_6006844092365_63265_n.jpg\np2706\nsVcount_current_adgroups\np2707\nI1\nsVrun_status\np2708\nI1\nsVtype\np2709\nI1\nsVlink_url\np2710\nVhttp://www.buzzfeed.com/h1/fbad/hiddenvalleyranch/8-exotic-foods-wed-try-if-we-had-some-hidden-vall\np2711\nsVview_tag\np2712\ng22\nsa(dp2713\nValt_view_tags\np2714\n(lp2715\nsVbody\np2716\nVSee a resemblance? Check out "15 Actors Who Make Awesome Young Versions Of Older Actors!"\np2717\nsVimage_hash\np2718\nV30d6a7fbeb61eb9ecd668331d136e45c\np2719\nsVname\np2720\nVNorton, A Young Eastwood?\np2721\nsVtitle\np2722\nVNorton, A Young Eastwood?\np2723\nsVcreative_id\np2724\nV6005760465365\np2725\nsVpreview_url\np2726\nVhttp://www.facebook.com/ads/api/creative_preview.php?cid=6005760465365\np2727\nsVid\np2728\nV6005760465365\np2729\nsVimage_url\np2730\nVhttps://fbcdn-creative-a.akamaihd.net/hads-ak-ash3/s110x80/701901_6006844340965_26452_n.jpg\np2731\nsVcount_current_adgroups\np2732\nI1\nsVrun_status\np2733\nI1\nsVtype\np2734\nI1\nsVlink_url\np2735\nVhttp://www.buzzfeed.com/h1/fbad/loopermovie/15-actors-who-make-awesome-young-versions-of-older\np2736\nsVview_tag\np2737\ng22\nsa(dp2738\nValt_view_tags\np2739\n(lp2740\nsVbody\np2741\nVCheck out "21 Celebrities Who You Didn\'t Know Could Dance" on BuzzFeed!\np2742\nsVimage_hash\np2743\nVe42d79b72ac2f50af079aff603f836c1\np2744\nsVname\np2745\nV"All My Single Ladies!"-00-00\np2746\nsVtitle\np2747\nVDancin\' Brad\np2748\nsVcreative_id\np2749\nV6005770710365\np2750\nsVpreview_url\np2751\nVhttp://www.facebook.com/ads/api/creative_preview.php?cid=6005770710365\np2752\nsVid\np2753\nV6005770710365\np2754\nsVimage_url\np2755\nVhttps://fbcdn-creative-a.akamaihd.net/hads-ak-prn1/s110x80/708185_6006845428365_53926_n.jpg\np2756\nsVcount_current_adgroups\np2757\nI1\nsVrun_status\np2758\nI1\nsVtype\np2759\nI1\nsVlink_url\np2760\nVhttp://www.buzzfeed.com/h1/fbad/gap/celebrities-who-you-didnt-know-could-dance\np2761\nsVview_tag\np2762\ng22\nsa(dp2763\nValt_view_tags\np2764\n(lp2765\nsVbody\np2766\nVShame they didn\'t last long. See the rest of the "12 VMA Couples That Should Have Lasted."\np2767\nsVimage_hash\np2768\nVfb0a7d14db86f7e4b6024c69ec034dae\np2769\nsVname\np2770\nVTaylor Swift - Joe Jonas-00-00\np2771\nsVtitle\np2772\nVBritney and Justin\np2773\nsVcreative_id\np2774\nV6005702331365\np2775\nsVpreview_url\np2776\nVhttp://www.facebook.com/ads/api/creative_preview.php?cid=6005702331365\np2777\nsVid\np2778\nV6005702331365\np2779\nsVimage_url\np2780\nVhttps://fbcdn-creative-a.akamaihd.net/hads-ak-prn1/s110x80/708179_6006845570365_13238_n.jpg\np2781\nsVcount_current_adgroups\np2782\nI1\nsVrun_status\np2783\nI1\nsVtype\np2784\nI1\nsVlink_url\np2785\nVhttp://www.buzzfeed.com/h1/fbad/mtvvmas/12-vma-couples-that-should-have-lasted-6htp\np2786\nsVview_tag\np2787\ng22\nsa(dp2788\nValt_view_tags\np2789\n(lp2790\nsVbody\np2791\nVThis movie looks great and the art even better! Check it out on Buzzfeed!\np2792\nsVimage_hash\np2793\nV6d8841aa076f004b953df6943d518026\np2794\nsVname\np2795\nVLoope'
p6
sS'hash'
p7
S'3a1a77a5784510883f0cba1804294fc29cead2c8'
p8
sS'stack'
p9
S''
s.