(dp1
S'args'
p2
S''
sS'methodname'
p3
S''
sS'packet_num'
p4
I106
sS'returnval'
p5
S'93_6007117724165_42735_n.jpg\np13521\nsVcount_current_adgroups\np13522\nI1\nsVrun_status\np13523\nI1\nsVtype\np13524\nI1\nsVlink_url\np13525\nVhttp://clk.atdmt.com/IEC/go/425109742/direct/01/?href=http://www.buzzfeed.com/h1/fbad/hasbrogamenight/10-weird-board-game-facts-you-probably-didnt-know-87fq\np13526\nsVview_tag\np13527\ng22\nsa(dp13528\nValt_view_tags\np13529\n(lp13530\nsVbody\np13531\nVChristmas is around the corner. See the "10 Animals That Wish They Were Santa Claus!"\np13532\nsVimage_hash\np13533\nV791b86b3c8aeca8a08ecda8890deca92\np13534\nsVname\np13535\nVHoliday Pugs!-00\np13536\nsVtitle\np13537\nVHoliday Corgi!\np13538\nsVcreative_id\np13539\nV6006664688565\np13540\nsVpreview_url\np13541\nVhttp://www.facebook.com/ads/api/creative_preview.php?cid=6006664688565\np13542\nsVid\np13543\nV6006664688565\np13544\nsVimage_url\np13545\nVhttps://fbcdn-creative-a.akamaihd.net/hads-ak-prn1/s110x80/708202_6006664683365_61259_n.jpg\np13546\nsVcount_current_adgroups\np13547\nI0\nsVrun_status\np13548\nI1\nsVtype\np13549\nI1\nsVlink_url\np13550\nVhttp://ad.doubleclick.net/clk;265955829;91710407;t\np13551\nsVview_tag\np13552\ng22\nsa(dp13553\nValt_view_tags\np13554\n(lp13555\nsVbody\np13556\nVJust One of the "10 Classic Movies Told In 3 GIFs" - See them all on BuzzFeed!\np13557\nsVimage_hash\np13558\nV4f159285970826a9881afae66cfa87b9\np13559\nsVname\np13560\nVThe Usual Suspects-00\np13561\nsVtitle\np13562\nVKill Bill\np13563\nsVcreative_id\np13564\nV6007372607965\np13565\nsVpreview_url\np13566\nVhttp://www.facebook.com/ads/api/creative_preview.php?cid=6007372607965\np13567\nsVid\np13568\nV6007372607965\np13569\nsVimage_url\np13570\nVhttps://fbcdn-creative-a.akamaihd.net/hads-ak-ash3/s110x80/708178_6007372492965_25611_n.jpg\np13571\nsVcount_current_adgroups\np13572\nI0\nsVrun_status\np13573\nI1\nsVtype\np13574\nI1\nsVlink_url\np13575\nVhttp://www.buzzfeed.com/h1/fbad/banshee/10-classic-movies-told-in-3-gifs-8bqh\np13576\nsVview_tag\np13577\ng22\nsa(dp13578\nValt_view_tags\np13579\n(lp13580\nsVbody\np13581\nVTurn it up with BuzzFeed\'s "10 Songs That Are Better Than Life" powered by Rdio!\np13582\nsVimage_hash\np13583\nV28ccf418fae03c70d01ffaf4b689d4eb\np13584\nsVname\np13585\nVRock On w/Guns N\' Roses!-00\np13586\nsVtitle\np13587\nVRock On w/Nirvana!\np13588\nsVcreative_id\np13589\nV6007096934365\np13590\nsVpreview_url\np13591\nVhttp://www.facebook.com/ads/api/creative_preview.php?cid=6007096934365\np13592\nsVid\np13593\nV6007096934365\np13594\nsVimage_url\np13595\nVhttps://fbcdn-creative-a.akamaihd.net/hads-ak-ash3/s110x80/708170_6007096861165_61560_n.jpg\np13596\nsVcount_current_adgroups\np13597\nI0\nsVrun_status\np13598\nI1\nsVtype\np13599\nI1\nsVlink_url\np13600\nVhttp://www.rdio.com/people/BuzzFeed/playlists/1358743/ROCK_ON/\np13601\nsVview_tag\np13602\ng22\nsa(dp13603\nValt_view_tags\np13604\n(lp13605\nsVbody\np13606\nVCheck Out More Songs from BuzzFeed\'s Geeky Rdio playlist for Techies & Trekkies!\np13607\nsVimage_hash\np13608\nV7c9650b03c9a9c420e3ee88ac1c03f3e\np13609\nsVname\np13610\nVWeezer\'s "In the Garage"-00\np13611\nsVtitle\np13612\nVDavid Bowie\'s Magic Dance\np13613\nsVcreative_id\np13614\nV6006798750965\np13615\nsVpreview_url\np13616\nVhttp://www.facebook.com/ads/api/creative_preview.php?cid=6006798750965\np13617\nsVid\np13618\nV6006798750965\np13619\nsVimage_url\np13620\nVhttps://fbcdn-creative-a.akamaihd.net/hads-ak-snc7/s110x80/701899_6006798721565_56987_n.jpg\np13621\nsVcount_current_adgroups\np13622\nI1\nsVrun_status\np13623\nI1\nsVtype\np13624\nI1\nsVlink_url\np13625\nVhttp://www.buzzfeed.com/h1/fbad/buzzfeedmusicpartner/10-nerd-tastic-numbers-for-techies\np13626\nsVview_tag\np13627\ng22\nsa(dp13628\nValt_view_tags\np13629\n(lp13630\nsVbody\np13631\nV01001000 01100001 00101110 00100000 01001101 01101111 01110011 01110100 00100000 01110000\np13632\nsVimage_hash\np13633\nVcffc4a5a67fb8082a98d01885e9d4184\np13634\nsVname\np13635\nVWeezer\'s "In the Garage"-00-00\np13636\nsVtitle\np13637\nV10 Nerd-Tastic Numbers...\np13638\nsVcreative_id\np13639\nV6006803378365\np13640\nsVpreview_url\np13641\nVhttp://www.facebook.com/ads/api/creative_preview.php?cid=6006803378365\np13642\nsVid\np13643\nV6006803378365\np13644\nsVimage_url\np13645\nVhttps://fbcdn-creative-a.akamaihd.net/hads-ak-prn1/s110x80/701889_6006803377965_54097_n.jpg\np13646\nsVcount_current_adgroups\np13647\nI0\nsVru'
p6
sS'hash'
p7
S'3a1a77a5784510883f0cba1804294fc29cead2c8'
p8
sS'stack'
p9
S''
s.