(dp1
S'args'
p2
S''
sS'methodname'
p3
S''
sS'packet_num'
p4
I60
sS'returnval'
p5
S'8007365\np7781\nsa(dp7782\nValt_view_tags\np7783\n(lp7784\nsVbody\np7785\nVIt makes our list of the "Most Hazardous Places In The World" Check it out on BuzzFeed!\np7786\nsVimage_hash\np7787\nVe974649944dc77d380d3110c0234324f\np7788\nsVname\np7789\nVDo you know what this is?\np7790\nsVtitle\np7791\nVDo you know what this is?\np7792\nsVcreative_id\np7793\nV6005127076365\np7794\nsVpreview_url\np7795\nVhttp://www.facebook.com/ads/api/creative_preview.php?cid=6005127076365\np7796\nsVid\np7797\nV6005127076365\np7798\nsVimage_url\np7799\nVhttps://fbcdn-creative-a.akamaihd.net/hads-ak-prn1/s110x80/708199_6006845462365_64770_n.jpg\np7800\nsVcount_current_adgroups\np7801\nI1\nsVrun_status\np7802\nI1\nsVtype\np7803\nI1\nsVlink_url\np7804\nVhttp://www.buzzfeed.com/h1/fbad/chernobyldiaries/the-most-hazardous-places-in-the-world\np7805\nsVview_tag\np7806\ng22\nsa(dp7807\nValt_view_tags\np7808\n(lp7809\nsVbody\np7810\nVLike these grilled peaches with mozzarella and prosciutto. See more summer recipes here!\np7811\nsVimage_hash\np7812\nV776bd3416b8daaa20530299faf92c684\np7813\nsVname\np7814\nVRecpies You Must Try!\np7815\nsVtitle\np7816\nVRecpies You Must Try!\np7817\nsVcreative_id\np7818\nV6005265452765\np7819\nsVpreview_url\np7820\nVhttp://www.facebook.com/ads/api/creative_preview.php?cid=6005265452765\np7821\nsVid\np7822\nV6005265452765\np7823\nsVimage_url\np7824\nVhttps://fbcdn-creative-a.akamaihd.net/hads-ak-snc7/s110x80/701899_6006844772165_20026_n.jpg\np7825\nsVcount_current_adgroups\np7826\nI1\nsVrun_status\np7827\nI1\nsVtype\np7828\nI1\nsVlink_url\np7829\nVhttp://www.buzzfeed.com/h1/fbad/tostitos/10-unique-recipes-to-get-you-excited-for-summer-4hwd\np7830\nsVview_tag\np7831\ng22\nsa(dp7832\nValt_view_tags\np7833\n(lp7834\nsVbody\np7835\nVCan\'t get enough texting fails? Check out these outrageous and bizarre text from mom!\np7836\nsVimage_hash\np7837\nV4ee2343e86c639cc5edd713284e61712\np7838\nsVname\np7839\nVMom Text Fails\np7840\nsVtitle\np7841\nVMom Text Fails\np7842\nsVcreative_id\np7843\nV6005245292965\np7844\nsVpreview_url\np7845\nVhttp://www.facebook.com/ads/api/creative_preview.php?cid=6005245292965\np7846\nsVid\np7847\nV6005245292965\np7848\nsVimage_url\np7849\nVhttps://fbcdn-creative-a.akamaihd.net/hads-ak-prn1/s110x80/708171_6006844535365_41523_n.jpg\np7850\nsVcount_current_adgroups\np7851\nI1\nsVrun_status\np7852\nI1\nsVtype\np7853\nI1\nsVlink_url\np7854\nVhttp://www.buzzfeed.com/h1/fbad/virginmobilelive/11-outrageous-and-bizzarre-texts-from-mom-5l87\np7855\nsVview_tag\np7856\ng22\nsa(dp7857\nValt_view_tags\np7858\n(lp7859\nsVbody\np7860\nVCheck her out and more "dream girls" from the big and small screen. Only on BuzzFeed!\np7861\nsVimage_hash\np7862\nVec40df06d4b1ad6ff58cb5b953a12254\np7863\nsVname\np7864\nVLove Mila Kunis?\np7865\nsVtitle\np7866\nVLove Mila Kunis?\np7867\nsVcreative_id\np7868\nV6005240506965\np7869\nsVpreview_url\np7870\nVhttp://www.facebook.com/ads/api/creative_preview.php?cid=6005240506965\np7871\nsVid\np7872\nV6005240506965\np7873\nsVimage_url\np7874\nVhttps://fbcdn-creative-a.akamaihd.net/hads-ak-prn1/s110x80/708195_6006845480365_41132_n.jpg\np7875\nsVcount_current_adgroups\np7876\nI1\nsVrun_status\np7877\nI1\nsVtype\np7878\nI1\nsVlink_url\np7879\nVhttp://www.buzzfeed.com/h1/fbad/mattblakely42/spot-the-dream-girl-in-your-favorite-movies-and\np7880\nsVview_tag\np7881\ng22\nsa(dp7882\nValt_view_tags\np7883\n(lp7884\nsVbody\np7885\nVCheck out "10 films that are sure to be re-leased in 3-D" Come see the Virgin Mobile Live page on Buzzfeed.com\np7886\nsVimage_hash\np7887\nV02bc9918827134443d10e501d15155fb\np7888\nsVname\np7889\nVWaiting for Titanic 3D?\np7890\nsVtitle\np7891\nVWaiting for Titanic 3D?\np7892\nsVcreative_id\np7893\nV6004968073365\np7894\nsVpreview_url\np7895\nVhttp://www.facebook.com/ads/api/creative_preview.php?cid=6004968073365\np7896\nsVid\np7897\nV6004968073365\np7898\nsVimage_url\np7899\nVhttps://fbcdn-creative-a.akamaihd.net/hads-ak-ash3/s110x80/708194_6006844064965_54245_n.jpg\np7900\nsVcount_current_adgroups\np7901\nI1\nsVrun_status\np7902\nI1\nsVtype\np7903\nI1\nsVlink_url\np7904\nVhttp://www.buzzfeed.com/virginmobilelive?utm_source=facebook&utm_medium=seed&utm_campaign=virginmobilelive\np7905\nsVview_tag\np7906\ng22\nsa(dp7907\nValt_view_tags\np7908\n(lp7909\nsVbody\np7910\nVThe Phanatic makes our list of "8 Major League Mascots Who Moo'
p6
sS'hash'
p7
S'3a1a77a5784510883f0cba1804294fc29cead2c8'
p8
sS'stack'
p9
S''
s.