(dp1
S'args'
p2
S''
sS'methodname'
p3
S''
sS'packet_num'
p4
I138
sS'returnval'
p5
S'e 6 Degrees Of Tuesday Night Sitcoms!"\np17638\nsVimage_hash\np17639\nVb35d89642317c0dba29fdf6541b6528a\np17640\nsVname\np17641\nVLove "The New Girl?"-01\np17642\nsVtitle\np17643\nVZooey & Kevin Bacon?\np17644\nsVcreative_id\np17645\nV6005961614165\np17646\nsVpreview_url\np17647\nVhttp://www.facebook.com/ads/api/creative_preview.php?cid=6005961614165\np17648\nsVid\np17649\nV6005961614165\np17650\nsVimage_url\np17651\nVhttps://fbcdn-creative-a.akamaihd.net/hads-ak-prn1/s110x80/708188_6006845131165_36388_n.jpg\np17652\nsVcount_current_adgroups\np17653\nI0\nsVrun_status\np17654\nI1\nsVtype\np17655\nI1\nsVlink_url\np17656\nVhttp://www.buzzfeed.com/h1/fbad/fox/the-best-of-schmidt-isms\np17657\nsVview_tag\np17658\ng22\nsa(dp17659\nValt_view_tags\np17660\n(lp17661\nsVbody\np17662\nVCheck out the "Top 10 Makeup Violations" on BuzzFeed!\np17663\nsVimage_hash\np17664\nV1a5e77fae16b5b47cbd717f7a77e537d\np17665\nsVname\np17666\nVCrazy Eyebrows\np17667\nsVtitle\np17668\nVCrazy Eyebrows\np17669\nsVcreative_id\np17670\nV6005839479365\np17671\nsVpreview_url\np17672\nVhttp://www.facebook.com/ads/api/creative_preview.php?cid=6005839479365\np17673\nsVid\np17674\nV6005839479365\np17675\nsVimage_url\np17676\nVhttps://fbcdn-creative-a.akamaihd.net/hads-ak-ash3/s110x80/701896_6006844219365_19560_n.jpg\np17677\nsVcount_current_adgroups\np17678\nI0\nsVrun_status\np17679\nI1\nsVtype\np17680\nI1\nsVlink_url\np17681\nVhttp://www.buzzfeed.com/h1/fbad/benefitcosmetics/busted-top-10-makeup-violations-7dgb\np17682\nsVview_tag\np17683\ng22\nsa(dp17684\nValt_view_tags\np17685\n(lp17686\nsVbody\np17687\nVCheck out "The Cutest Cats In The Strangest Places" on Buzzfeed!\np17688\nsVimage_hash\np17689\nV05fbac1a261cfee02064b7f79295a1bc\np17690\nsVname\np17691\nVCat In The Corner Pocket!-00\np17692\nsVtitle\np17693\nVKitty Burrito!\np17694\nsVcreative_id\np17695\nV6005918268365\np17696\nsVpreview_url\np17697\nVhttp://www.facebook.com/ads/api/creative_preview.php?cid=6005918268365\np17698\nsVid\np17699\nV6005918268365\np17700\nsVimage_url\np17701\nVhttps://fbcdn-creative-a.akamaihd.net/hads-ak-prn1/s110x80/701892_6006844083765_26026_n.jpg\np17702\nsVcount_current_adgroups\np17703\nI1\nsVrun_status\np17704\nI1\nsVtype\np17705\nI1\nsVlink_url\np17706\nVhttp://www.buzzfeed.com/h1/fbad/uniqlo/the-cutest-cats-in-the-strangest-places\np17707\nsVview_tag\np17708\ng22\nsa(dp17709\nValt_view_tags\np17710\n(lp17711\nsVbody\np17712\nVCheck out "The Cutest Cats In The Strangest Places" on Buzzfeed!\np17713\nsVimage_hash\np17714\nV99b2258852d1da163444369fc171e908\np17715\nsVname\np17716\nVCat In The Corner Pocket!\np17717\nsVtitle\np17718\nVCat In The Corner Pocket!\np17719\nsVcreative_id\np17720\nV6005918258765\np17721\nsVpreview_url\np17722\nVhttp://www.facebook.com/ads/api/creative_preview.php?cid=6005918258765\np17723\nsVid\np17724\nV6005918258765\np17725\nsVimage_url\np17726\nVhttps://fbcdn-creative-a.akamaihd.net/hads-ak-prn1/s110x80/708163_6006844969165_58_n.jpg\np17727\nsVcount_current_adgroups\np17728\nI1\nsVrun_status\np17729\nI1\nsVtype\np17730\nI1\nsVlink_url\np17731\nVhttp://www.buzzfeed.com/h1/fbad/uniqlo/the-cutest-cats-in-the-strangest-places\np17732\nsVview_tag\np17733\ng22\nsa(dp17734\nValt_view_tags\np17735\n(lp17736\nsVbody\np17737\nVIf you love wine and saving money, this is a must read. Check out this very informative article about wine purchasing. Read and Share!\np17738\nsVimage_hash\np17739\nVee282d552d84e519817e204057940cf5\np17740\nsVname\np17741\nVAll Wine Lovers Must Read\np17742\nsVtitle\np17743\nVAll Wine Lovers Must Read\np17744\nsVcreative_id\np17745\nV6003974709965\np17746\nsVpreview_url\np17747\nVhttp://www.facebook.com/ads/api/creative_preview.php?cid=6003974709965\np17748\nsVid\np17749\nV6003974709965\np17750\nsVimage_url\np17751\nVhttps://fbcdn-creative-a.akamaihd.net/hads-ak-prn1/s110x80/708169_6006845492165_31028_n.jpg\np17752\nsVcount_current_adgroups\np17753\nI0\nsVrun_status\np17754\nI1\nsVtype\np17755\nI1\nsVlink_url\np17756\nVhttp://www.slate.com/articles/life/drink/2011/11/why_you_should_be_drinking_cheap_wine.html#bfsrc=HFBA2\np17757\nsVview_tag\np17758\ng22\nsa(dp17759\nValt_view_tags\np17760\n(lp17761\nsVbody\np17762\nVYou don\'t have to spend a lot of cash to get an amazing bottle of wine. Check out "Drink Cheap Wine" on Slate to find out more!\np17763\nsVimage_hash\np17764\nVee282d55'
p6
sS'hash'
p7
S'3a1a77a5784510883f0cba1804294fc29cead2c8'
p8
sS'stack'
p9
S''
s.