(dp1
S'args'
p2
S''
sS'methodname'
p3
S''
sS'packet_num'
p4
I90
sS'returnval'
p5
S'\nVThe Past And The Present\np11567\nsVcreative_id\np11568\nV6004075486165\np11569\nsVpreview_url\np11570\nVhttp://www.facebook.com/ads/api/creative_preview.php?cid=6004075486165\np11571\nsVid\np11572\nV6004075486165\np11573\nsVimage_url\np11574\nVhttps://fbcdn-creative-a.akamaihd.net/hads-ak-prn1/s110x80/708195_6006845483365_20965_n.jpg\np11575\nsVcount_current_adgroups\np11576\nI1\nsVrun_status\np11577\nI1\nsVtype\np11578\nI1\nsVlink_url\np11579\nVhttp://www.buzzfeed.com/h1/fba/microsofthotmail/10-things-that-are-cool-to-love-again\np11580\nsVview_tag\np11581\ng22\nsa(dp11582\nValt_view_tags\np11583\n(lp11584\nsVbody\np11585\nVFrom The Muppets to Hotmail, check out things from the past that came back with vengeance in "10 Things That Are Cool To Love Again"\np11586\nsVimage_hash\np11587\nV0e2ea88ab33046046769807039d107b2\np11588\nsVname\np11589\nVThe Past And The Present-02\np11590\nsVtitle\np11591\nVThe Past And The Present\np11592\nsVcreative_id\np11593\nV6004075500565\np11594\nsVpreview_url\np11595\nVhttp://www.facebook.com/ads/api/creative_preview.php?cid=6004075500565\np11596\nsVid\np11597\nV6004075500565\np11598\nsVimage_url\np11599\nVhttps://fbcdn-creative-a.akamaihd.net/hads-ak-prn1/s110x80/708181_6006844137565_33107_n.jpg\np11600\nsVcount_current_adgroups\np11601\nI1\nsVrun_status\np11602\nI1\nsVtype\np11603\nI1\nsVlink_url\np11604\nVhttp://www.buzzfeed.com/h1/fba/microsofthotmail/10-things-that-are-cool-to-love-again\np11605\nsVview_tag\np11606\ng22\nsa(dp11607\nValt_view_tags\np11608\n(lp11609\nsVbody\np11610\nVFrom Converse All Stars to Hotmail, check out stuff from the past that came back with force in "10 Things That Are Cool To Love Again"\np11611\nsVimage_hash\np11612\nV13fb2295d7d48db5b3f697e96c406a49\np11613\nsVname\np11614\nVThe Past And The Present-01\np11615\nsVtitle\np11616\nVThe Past And The Present\np11617\nsVcreative_id\np11618\nV6004075495165\np11619\nsVpreview_url\np11620\nVhttp://www.facebook.com/ads/api/creative_preview.php?cid=6004075495165\np11621\nsVid\np11622\nV6004075495165\np11623\nsVimage_url\np11624\nVhttps://fbcdn-creative-a.akamaihd.net/hads-ak-ash3/s110x80/708194_6006844173765_49001_n.jpg\np11625\nsVcount_current_adgroups\np11626\nI1\nsVrun_status\np11627\nI1\nsVtype\np11628\nI1\nsVlink_url\np11629\nVhttp://www.buzzfeed.com/h1/fba/microsofthotmail/10-things-that-are-cool-to-love-again\np11630\nsVview_tag\np11631\ng22\nsa(dp11632\nValt_view_tags\np11633\n(lp11634\nsVbody\np11635\nVFrom Beavis and Butt-Head to Hotmail check out stuff from the past that came back with force in "10 Things That Are Cool To Love Again"\np11636\nsVimage_hash\np11637\nVbadd5ecbc38f8dfccd83e65728cc3fcb\np11638\nsVname\np11639\nVThe Past And The Present-00\np11640\nsVtitle\np11641\nVThe Past And The Present\np11642\nsVcreative_id\np11643\nV6004075489565\np11644\nsVpreview_url\np11645\nVhttp://www.facebook.com/ads/api/creative_preview.php?cid=6004075489565\np11646\nsVid\np11647\nV6004075489565\np11648\nsVimage_url\np11649\nVhttps://fbcdn-creative-a.akamaihd.net/hads-ak-prn1/s110x80/701889_6006845168565_50393_n.jpg\np11650\nsVcount_current_adgroups\np11651\nI1\nsVrun_status\np11652\nI1\nsVtype\np11653\nI1\nsVlink_url\np11654\nVhttp://www.buzzfeed.com/h1/fba/microsofthotmail/10-things-that-are-cool-to-love-again\np11655\nsVview_tag\np11656\ng22\nsa(dp11657\nValt_view_tags\np11658\n(lp11659\nsVbody\np11660\nVCheck out these "Amazing Aerial Views Of Huge Industrial Factories" presented by GE and BuzzFeed.\np11661\nsVimage_hash\np11662\nV6e3b581c15c60a732237b27929c9cc86\np11663\nsVname\np11664\nVFactory Flyovers\np11665\nsVtitle\np11666\nVFactory Flyovers\np11667\nsVcreative_id\np11668\nV6004016063965\np11669\nsVpreview_url\np11670\nVhttp://www.facebook.com/ads/api/creative_preview.php?cid=6004016063965\np11671\nsVid\np11672\nV6004016063965\np11673\nsVimage_url\np11674\nVhttps://fbcdn-creative-a.akamaihd.net/hads-ak-snc7/s110x80/701898_6006844718965_20083_n.jpg\np11675\nsVcount_current_adgroups\np11676\nI1\nsVrun_status\np11677\nI1\nsVtype\np11678\nI1\nsVlink_url\np11679\nVhttp://www.buzzfeed.com/h1/fba/thegeshow/amazing-aerial-view-of-huge-industrial-factories\np11680\nsVview_tag\np11681\ng22\nsa(dp11682\nValt_view_tags\np11683\n(lp11684\nsVbody\np11685\nVCheck out BuzzFeed\'s list of "10 Modern Day Renaissance Men". Ryan Gosling is one of them - Let us kn'
p6
sS'hash'
p7
S'3a1a77a5784510883f0cba1804294fc29cead2c8'
p8
sS'stack'
p9
S''
s.