(dp1
S'args'
p2
S''
sS'methodname'
p3
S''
sS'packet_num'
p4
I171
sS'returnval'
p5
S'35063_n.jpg\np21548\nsVcount_current_adgroups\np21549\nI0\nsVrun_status\np21550\nI1\nsVtype\np21551\nI1\nsVlink_url\np21552\nVhttp://t.cpmadvisors.com/click?cr=7495&bl=1000001319&sl=4738&se=1&pu=151255&v=214748360&ci=blank&so=facebook&prc=1.00&verbdir=http://www.buzzfeed.com/ht/lastmanstanding/10-manliest-men-in-entertainment/HFB1512551\np21553\nsVview_tag\np21554\ng22\nsa(dp21555\nValt_view_tags\np21556\n(lp21557\nsVbody\np21558\nVIt takes a lot more to being a man\'s man then awesome chest hair.  Check out "10 Manliest Men In Entertainment" and learn how its done!\np21559\nsVimage_hash\np21560\nV6440517da049eca732c2fadc88f55c2e\np21561\nsVname\np21562\nVThe 10 Manliest Men Ever-02\np21563\nsVtitle\np21564\nVThe 10 Manliest Men Ever\np21565\nsVcreative_id\np21566\nV6003855387765\np21567\nsVpreview_url\np21568\nVhttp://www.facebook.com/ads/api/creative_preview.php?cid=6003855387765\np21569\nsVid\np21570\nV6003855387765\np21571\nsVimage_url\np21572\nVhttps://fbcdn-creative-a.akamaihd.net/hads-ak-ash3/s110x80/708177_6006844660965_1997_n.jpg\np21573\nsVcount_current_adgroups\np21574\nI0\nsVrun_status\np21575\nI1\nsVtype\np21576\nI1\nsVlink_url\np21577\nVhttp://t.cpmadvisors.com/click?cr=7491&bl=1000001319&sl=4738&se=1&pu=151250&v=214748360&ci=blank&so=facebook&prc=1.00&verbdir=http://www.buzzfeed.com/ht/lastmanstanding/10-manliest-men-in-entertainment/HFB1512501\np21578\nsVview_tag\np21579\ng22\nsa(dp21580\nValt_view_tags\np21581\n(lp21582\nsVbody\np21583\nVWant to see how close animal atacks can get? Your in luck, BuzzFeed and Mentos bring you "8 Unbelievable Close Calls With Wild Animals"\np21584\nsVimage_hash\np21585\nVcbd40bc0b3a4fe20c18b08698c0cf844\np21586\nsVname\np21587\nVBeware: Animal Attacks!\np21588\nsVtitle\np21589\nVBeware: Animal Attacks!\np21590\nsVcreative_id\np21591\nV6003854005365\np21592\nsVpreview_url\np21593\nVhttp://www.facebook.com/ads/api/creative_preview.php?cid=6003854005365\np21594\nsVid\np21595\nV6003854005365\np21596\nsVimage_url\np21597\nVhttps://fbcdn-creative-a.akamaihd.net/hads-ak-ash3/s110x80/708171_6006845272565_26023_n.jpg\np21598\nsVcount_current_adgroups\np21599\nI0\nsVrun_status\np21600\nI1\nsVtype\np21601\nI1\nsVlink_url\np21602\nVhttp://t.cpmadvisors.com/click?cr=7478&bl=1000001319&sl=4730&se=1&pu=151161&v=214748360&ci=blank&so=facebook&prc=1.00&verbdir=http://www.buzzfeed.com/ht/mentos/8-unbelievable-close-calls-with-wild-animals/HFB1511611\np21603\nsVview_tag\np21604\ng22\nsa(dp21605\nValt_view_tags\np21606\n(lp21607\nsVbody\np21608\nVWant to see how close animal atacks can get? Your in luck, BuzzFeed and Mentos bring you "8 Unbelievable Close Calls With Wild Animals"\np21609\nsVimage_hash\np21610\nV9579b843fedd488bd96d351eaead8916\np21611\nsVname\np21612\nVClose Calls With Animals!\np21613\nsVtitle\np21614\nVClose Calls With Animals!\np21615\nsVcreative_id\np21616\nV6003854005565\np21617\nsVpreview_url\np21618\nVhttp://www.facebook.com/ads/api/creative_preview.php?cid=6003854005565\np21619\nsVid\np21620\nV6003854005565\np21621\nsVimage_url\np21622\nVhttps://fbcdn-creative-a.akamaihd.net/hads-ak-prn1/s110x80/708196_6006844945165_21923_n.jpg\np21623\nsVcount_current_adgroups\np21624\nI0\nsVrun_status\np21625\nI1\nsVtype\np21626\nI1\nsVlink_url\np21627\nVhttp://t.cpmadvisors.com/click?cr=7479&bl=1000001319&sl=4730&se=1&pu=151168&v=214748360&ci=blank&so=facebook&prc=1.00&verbdir=http://www.buzzfeed.com/ht/mentos/8-unbelievable-close-calls-with-wild-animals/HFB1511681\np21628\nsVview_tag\np21629\ng22\nsa(dp21630\nValt_view_tags\np21631\n(lp21632\nsVbody\np21633\nVWant to see how close animal atacks can get? Your in luck, BuzzFeed and Mentos bring you "8 Unbelievable Close Calls With Wild Animals"\np21634\nsVimage_hash\np21635\nV146b7dc0e7fa92997e6ec8b21a03572d\np21636\nsVname\np21637\nVClose Calls With Animals!-00\np21638\nsVtitle\np21639\nVClose Calls With Animals!\np21640\nsVcreative_id\np21641\nV6003854007365\np21642\nsVpreview_url\np21643\nVhttp://www.facebook.com/ads/api/creative_preview.php?cid=6003854007365\np21644\nsVid\np21645\nV6003854007365\np21646\nsVimage_url\np21647\nVhttps://fbcdn-creative-a.akamaihd.net/hads-ak-prn1/s110x80/708194_6006844175965_8916_n.jpg\np21648\nsVcount_current_adgroups\np21649\nI0\nsVrun_status\np21650\nI1\nsVtype\np21651\nI1\nsVlink_url\np21652\nVhttp://t.cpmadvisor'
p6
sS'hash'
p7
S'3a1a77a5784510883f0cba1804294fc29cead2c8'
p8
sS'stack'
p9
S''
s.