(dp1
S'args'
p2
S''
sS'methodname'
p3
S''
sS'packet_num'
p4
I194
sS'returnval'
p5
S'ff Their Training Wheels" on BuzzFeed!\np24402\nsVimage_hash\np24403\nVf946f309ee0220ff8faff431ee53b92b\np24404\nsVname\np24405\nVThese kids are too cute!-00\np24406\nsVtitle\np24407\nVThese kids are too cute!\np24408\nsVcreative_id\np24409\nV6005185619165\np24410\nsVpreview_url\np24411\nVhttp://www.facebook.com/ads/api/creative_preview.php?cid=6005185619165\np24412\nsVid\np24413\nV6005185619165\np24414\nsVimage_url\np24415\nVhttps://fbcdn-creative-a.akamaihd.net/hads-ak-prn1/s110x80/708189_6006845561165_9262_n.jpg\np24416\nsVcount_current_adgroups\np24417\nI0\nsVrun_status\np24418\nI1\nsVtype\np24419\nI1\nsVlink_url\np24420\nVhttp://www.buzzfeed.com/h1/fbad/schwinn/adorable-videos-of-kids-taking-off-their-training-5vrq\np24421\nsVview_tag\np24422\ng22\nsa(dp24423\nValt_view_tags\np24424\n(lp24425\nsVbody\np24426\nVCheck out these "Adorable Videos Of Kids Taking Off Their Training Wheels" on BuzzFeed!\np24427\nsVimage_hash\np24428\nVf946f309ee0220ff8faff431ee53b92b\np24429\nsVname\np24430\nVMust See Videos...Cute!\np24431\nsVtitle\np24432\nVMust See Videos...Cute!\np24433\nsVcreative_id\np24434\nV6005186790365\np24435\nsVpreview_url\np24436\nVhttp://www.facebook.com/ads/api/creative_preview.php?cid=6005186790365\np24437\nsVid\np24438\nV6005186790365\np24439\nsVimage_url\np24440\nVhttps://fbcdn-creative-a.akamaihd.net/hads-ak-prn1/s110x80/708189_6006845561165_9262_n.jpg\np24441\nsVcount_current_adgroups\np24442\nI1\nsVrun_status\np24443\nI1\nsVtype\np24444\nI1\nsVlink_url\np24445\nVhttp://www.buzzfeed.com/h1/fbad/schwinn/adorable-videos-of-kids-taking-off-their-training-5vrq\np24446\nsVview_tag\np24447\ng22\nsa(dp24448\nValt_view_tags\np24449\n(lp24450\nsVbody\np24451\nVMake our list of "16 Animals Cute Enough To Replace Cats On The Web" Look out LOL Cats!\np24452\nsVimage_hash\np24453\nVcc860c3c2dc0b1e802924429e70b15a6\np24454\nsVname\np24455\nVHedgehogs in Party Hats\np24456\nsVtitle\np24457\nVHedgehogs in Party Hats\np24458\nsVcreative_id\np24459\nV6005181979365\np24460\nsVpreview_url\np24461\nVhttp://www.facebook.com/ads/api/creative_preview.php?cid=6005181979365\np24462\nsVid\np24463\nV6005181979365\np24464\nsVimage_url\np24465\nVhttps://fbcdn-creative-a.akamaihd.net/hads-ak-ash3/s110x80/701894_6006845279765_59269_n.jpg\np24466\nsVcount_current_adgroups\np24467\nI1\nsVrun_status\np24468\nI1\nsVtype\np24469\nI1\nsVlink_url\np24470\nVhttp://www.buzzfeed.com/h1/fbad/virginmobilelive/16-animals-cute-enough-to-replace-cats-on-the-web-5l87\np24471\nsVview_tag\np24472\ng22\nsa(dp24473\nValt_view_tags\np24474\n(lp24475\nsVbody\np24476\nVMake our list of "16 Animals Cute Enough To Replace Cats On The Web" Look out LOL Cats!\np24477\nsVimage_hash\np24478\nVedad94255cef36385118e99f17f356b8\np24479\nsVname\np24480\nVThe Mighty Aplacas\np24481\nsVtitle\np24482\nVThe Mighty Aplacas\np24483\nsVcreative_id\np24484\nV6005181988365\np24485\nsVpreview_url\np24486\nVhttp://www.facebook.com/ads/api/creative_preview.php?cid=6005181988365\np24487\nsVid\np24488\nV6005181988365\np24489\nsVimage_url\np24490\nVhttps://fbcdn-creative-a.akamaihd.net/hads-ak-ash3/s110x80/708169_6006845489765_58699_n.jpg\np24491\nsVcount_current_adgroups\np24492\nI1\nsVrun_status\np24493\nI1\nsVtype\np24494\nI1\nsVlink_url\np24495\nVhttp://www.buzzfeed.com/h1/fbad/virginmobilelive/16-animals-cute-enough-to-replace-cats-on-the-web-5l87\np24496\nsVview_tag\np24497\ng22\nsa(dp24498\nValt_view_tags\np24499\n(lp24500\nsVbody\np24501\nVCheck out "10 Beautiful Places You Have To See On Your Summer Roadtrip" Only on BuzzFeed!\np24502\nsVimage_hash\np24503\nV54e6a578113f1a580dd5f6a9f6e5ef9c\np24504\nsVname\np24505\nVOn the road this summer?\np24506\nsVtitle\np24507\nVOn the road this summer?\np24508\nsVcreative_id\np24509\nV6005181854365\np24510\nsVpreview_url\np24511\nVhttp://www.facebook.com/ads/api/creative_preview.php?cid=6005181854365\np24512\nsVid\np24513\nV6005181854365\np24514\nsVimage_url\np24515\nVhttps://fbcdn-creative-a.akamaihd.net/hads-ak-ash3/s110x80/708175_6006844582965_1662_n.jpg\np24516\nsVcount_current_adgroups\np24517\nI1\nsVrun_status\np24518\nI1\nsVtype\np24519\nI1\nsVlink_url\np24520\nVhttp://www.buzzfeed.com/h1/fbad/trident/10-beautiful-places-you-have-to-see-on-your-summer\np24521\nsVview_tag\np24522\ng22\nsa(dp24523\nValt_view_tags\np24524\n(lp24525\nsVbody\np24526\nVMakes our list of the "13 Greatest '
p6
sS'hash'
p7
S'3a1a77a5784510883f0cba1804294fc29cead2c8'
p8
sS'stack'
p9
S''
s.