(dp1
S'args'
p2
S''
sS'methodname'
p3
S''
sS'packet_num'
p4
I94
sS'returnval'
p5
S'12046\nsVid\np12047\nV6003998697365\np12048\nsVimage_url\np12049\nVhttps://fbcdn-creative-a.akamaihd.net/hads-ak-prn1/s110x80/701895_6006844527565_44974_n.jpg\np12050\nsVcount_current_adgroups\np12051\nI1\nsVrun_status\np12052\nI1\nsVtype\np12053\nI1\nsVlink_url\np12054\nVhttp://www.slate.com/blogs/xx_factor/2011/11/07/rush_limbaugh_implies_sharon_bialek_is_well_a_hooker.html?utm_source=#bfsrc=HSUA2\np12055\nsVview_tag\np12056\ng22\nsa(dp12057\nValt_view_tags\np12058\n(lp12059\nsVbody\np12060\nVCheck out how Harvard students react to occupy wall street in Slate\'s "Harvard Students Stage Walkout in OWS-Like Proteset"\np12061\nsVimage_hash\np12062\nV239aca357ae919ea37a5c667e5b453a5\np12063\nsVname\np12064\nVHarvard Students Act!\np12065\nsVtitle\np12066\nVHarvard Students Act!\np12067\nsVcreative_id\np12068\nV6003997517165\np12069\nsVpreview_url\np12070\nVhttp://www.facebook.com/ads/api/creative_preview.php?cid=6003997517165\np12071\nsVid\np12072\nV6003997517165\np12073\nsVimage_url\np12074\nVhttps://fbcdn-creative-a.akamaihd.net/hads-ak-prn1/s110x80/708167_6006844273165_14232_n.jpg\np12075\nsVcount_current_adgroups\np12076\nI1\nsVrun_status\np12077\nI1\nsVtype\np12078\nI1\nsVlink_url\np12079\nVhttp://slatest.slate.com/posts/2011/11/07/occupy_harvard_students_walk_out_on_greg_mankiw_economics_class_.html#bfsrc=HFBA2\np12080\nsVview_tag\np12081\ng22\nsa(dp12082\nValt_view_tags\np12083\n(lp12084\nsVbody\np12085\nVCheck out BuzzFeed\'s "6 Best Minor Characters From Beavis and Butt-Head" and be sure to look for these guys when watching the show!\np12086\nsVimage_hash\np12087\nV58640fb328e75bc1cf9e19cb69df9200\np12088\nsVname\np12089\nVBeavis and Butthead\np12090\nsVtitle\np12091\nVBeavis and Butthead\np12092\nsVcreative_id\np12093\nV6003993324365\np12094\nsVpreview_url\np12095\nVhttp://www.facebook.com/ads/api/creative_preview.php?cid=6003993324365\np12096\nsVid\np12097\nV6003993324365\np12098\nsVimage_url\np12099\nVhttps://fbcdn-creative-a.akamaihd.net/hads-ak-prn1/s110x80/708167_6006844600365_41103_n.jpg\np12100\nsVcount_current_adgroups\np12101\nI2\nsVrun_status\np12102\nI1\nsVtype\np12103\nI1\nsVlink_url\np12104\nVhttp://www.buzzfeed.com/h1/fba/beavisandbutthead/6-best-minor-characters-from-beavis-and-butt-headhttp://www.buzzfeed.com/h1/fba/beavisandbutthead/6-best-minor-characters-from-beavis-and-butt-head\np12105\nsVview_tag\np12106\ng22\nsa(dp12107\nValt_view_tags\np12108\n(lp12109\nsVbody\np12110\nVCheck out "The Geologist in the Jungle" by Slate and see all of the exciting things this man came across throughout his journey!\np12111\nsVimage_hash\np12112\nV3971b359950baf9c28d9524b72e2f1ec\np12113\nsVname\np12114\nVIsland Of Secrets\np12115\nsVtitle\np12116\nVIsland Of Secrets\np12117\nsVcreative_id\np12118\nV6003993583165\np12119\nsVpreview_url\np12120\nVhttp://www.facebook.com/ads/api/creative_preview.php?cid=6003993583165\np12121\nsVid\np12122\nV6003993583165\np12123\nsVimage_url\np12124\nVhttps://fbcdn-creative-a.akamaihd.net/hads-ak-snc7/s110x80/701904_6006844385565_33556_n.jpg\np12125\nsVcount_current_adgroups\np12126\nI1\nsVrun_status\np12127\nI1\nsVtype\np12128\nI1\nsVlink_url\np12129\nVhttp://www.slate.com/articles/health_and_science/science/2011/11/island_of_secrets_in_search_of_a_tree_kangaroo_on_new_britain.html#bfsrc=HFBA2\np12130\nsVview_tag\np12131\ng22\nsa(dp12132\nValt_view_tags\np12133\n(lp12134\nsVbody\np12135\nVCheck out the amazing artwork by fans in "20 Badass Beavis And Butt-Head Fan Tributes" by BuzzFeed and Beavis and Butthead.  Fans Rock!\np12136\nsVimage_hash\np12137\nV8413094f421ce5f65922af774fcb2384\np12138\nsVname\np12139\nVBeavis and Butthead Art!\np12140\nsVtitle\np12141\nVBeavis and Butthead Art!\np12142\nsVcreative_id\np12143\nV6003983526765\np12144\nsVpreview_url\np12145\nVhttp://www.facebook.com/ads/api/creative_preview.php?cid=6003983526765\np12146\nsVid\np12147\nV6003983526765\np12148\nsVimage_url\np12149\nVhttps://fbcdn-creative-a.akamaihd.net/hads-ak-prn1/s110x80/708180_6006844841165_54713_n.jpg\np12150\nsVcount_current_adgroups\np12151\nI1\nsVrun_status\np12152\nI1\nsVtype\np12153\nI1\nsVlink_url\np12154\nVhttp://www.buzzfeed.com/h1/fba/beavisandbutthead/20-badass-beavis-and-butt-head-fan-tributes\np12155\nsVview_tag\np12156\ng22\nsa(dp12157\nValt_view_tags\np12158\n(lp12159\nsVbody\np12160\nVCan Justin Bieber\'s "F'
p6
sS'hash'
p7
S'3a1a77a5784510883f0cba1804294fc29cead2c8'
p8
sS'stack'
p9
S''
s.