(dp1
S'args'
p2
S''
sS'methodname'
p3
S''
sS'packet_num'
p4
I13
sS'returnval'
p5
S's Have Made It Big" by FreeCreditScore and BuzzFeed!\np1617\nsVimage_hash\np1618\nVa76ef93f24ddb151c0af43058458128c\np1619\nsVname\np1620\nVNew Bands Making It Big!\np1621\nsVtitle\np1622\nVNew Bands Making It Big!\np1623\nsVcreative_id\np1624\nV6004001892565\np1625\nsVpreview_url\np1626\nVhttp://www.facebook.com/ads/api/creative_preview.php?cid=6004001892565\np1627\nsVid\np1628\nV6004001892565\np1629\nsVimage_url\np1630\nVhttps://fbcdn-creative-a.akamaihd.net/hads-ak-ash3/s110x80/708184_6006845058765_48677_n.jpg\np1631\nsVcount_current_adgroups\np1632\nI1\nsVrun_status\np1633\nI1\nsVtype\np1634\nI1\nsVlink_url\np1635\nVhttp://www.buzzfeed.com/h1/fba/freecreditscore/interesting-ways-bands-have-made-it-big\np1636\nsVview_tag\np1637\ng22\nsa(dp1638\nValt_view_tags\np1639\n(lp1640\nsVbody\np1641\nVIf your a fan of coconut water, or want something healthy and new, learn about coconut water in "Gatorade is the Antichrist" by Slate!\np1642\nsVimage_hash\np1643\nV428d1cd4ee4f9357aadf81b6fc9b250a\np1644\nsVname\np1645\nVCoconut Water Revolution!\np1646\nsVtitle\np1647\nVCoconut Water Revolution!\np1648\nsVcreative_id\np1649\nV6004001859765\np1650\nsVpreview_url\np1651\nVhttp://www.facebook.com/ads/api/creative_preview.php?cid=6004001859765\np1652\nsVid\np1653\nV6004001859765\np1654\nsVimage_url\np1655\nVhttps://fbcdn-creative-a.akamaihd.net/hads-ak-ash3/s110x80/708205_6006844452165_32169_n.jpg\np1656\nsVcount_current_adgroups\np1657\nI1\nsVrun_status\np1658\nI1\nsVtype\np1659\nI1\nsVlink_url\np1660\nVhttp://www.slate.com/articles/business/branded/2011/11/coconut_water_why_is_it_suddenly_so_popular_.html#bfsrc=HFBA2\np1661\nsVview_tag\np1662\ng22\nsa(dp1663\nValt_view_tags\np1664\n(lp1665\nsVbody\np1666\nVIf you love cooking and Sailor Jerry, then check out BuzzFeed\'s "10 Delicious Recipes Made With Sailor Jerry Rum" for great new ideas!\np1667\nsVimage_hash\np1668\nVd995a296e122b00584a4acdb68df9d8e\np1669\nsVname\np1670\nVSailor Jerry Recipies!\np1671\nsVtitle\np1672\nVSailor Jerry Recipies!\np1673\nsVcreative_id\np1674\nV6003997528965\np1675\nsVpreview_url\np1676\nVhttp://www.facebook.com/ads/api/creative_preview.php?cid=6003997528965\np1677\nsVid\np1678\nV6003997528965\np1679\nsVimage_url\np1680\nVhttps://fbcdn-creative-a.akamaihd.net/hads-ak-prn1/s110x80/708182_6006845352165_39107_n.jpg\np1681\nsVcount_current_adgroups\np1682\nI2\nsVrun_status\np1683\nI1\nsVtype\np1684\nI1\nsVlink_url\np1685\nVhttp://www.buzzfeed.com/h1/fba/sailorjerryrum/10-delicious-recipes-made-with-sailor-jerry-rum\np1686\nsVview_tag\np1687\ng22\nsa(dp1688\nValt_view_tags\np1689\n(lp1690\nsVbody\np1691\nVThis dog definitely doesn\'t need your help. See more animals that are smarter than you!\np1692\nsVimage_hash\np1693\nVe0fc5954d96928041f8e79f00df90711\np1694\nsVname\np1695\nVSkateboarding Bulldog!\np1696\nsVtitle\np1697\nVSkateboarding Bulldog!\np1698\nsVcreative_id\np1699\nV6005831671965\np1700\nsVpreview_url\np1701\nVhttp://www.facebook.com/ads/api/creative_preview.php?cid=6005831671965\np1702\nsVid\np1703\nV6005831671965\np1704\nsVimage_url\np1705\nVhttps://fbcdn-creative-a.akamaihd.net/hads-ak-ash3/s110x80/701894_6006845402765_2575_n.jpg\np1706\nsVcount_current_adgroups\np1707\nI1\nsVrun_status\np1708\nI1\nsVtype\np1709\nI1\nsVlink_url\np1710\nVhttp://www.buzzfeed.com/h1/fbad/animalpractice/27-animals-that-are-probably-smarter-than-you-7auw\np1711\nsVview_tag\np1712\ng22\nsa(dp1713\nValt_view_tags\np1714\n(lp1715\nsVbody\np1716\nVKnow the type? We all do. Check out "The 9 Worst Types Of Coworkers" on Buzzfeed!\np1717\nsVimage_hash\np1718\nVb2459f865ff1ff6c527e7e14970ed1a5\np1719\nsVname\np1720\nVCoworkers Can Be Animals-00\np1721\nsVtitle\np1722\nVCoworkers Can Be Animals\np1723\nsVcreative_id\np1724\nV6005832389965\np1725\nsVpreview_url\np1726\nVhttp://www.facebook.com/ads/api/creative_preview.php?cid=6005832389965\np1727\nsVid\np1728\nV6005832389965\np1729\nsVimage_url\np1730\nVhttps://fbcdn-creative-a.akamaihd.net/hads-ak-ash3/s110x80/701894_6006845123565_17539_n.jpg\np1731\nsVcount_current_adgroups\np1732\nI4\nsVrun_status\np1733\nI1\nsVtype\np1734\nI1\nsVlink_url\np1735\nVhttp://www.buzzfeed.com/h1/fbad/animalpractice/the-9-worst-types-of-coworkers-7auw\np1736\nsVview_tag\np1737\ng22\nsa(dp1738\nValt_view_tags\np1739\n(lp1740\nsVbody\np1741\nVIf you love this, then check out the rest of the "15 Sweet'
p6
sS'hash'
p7
S'3a1a77a5784510883f0cba1804294fc29cead2c8'
p8
sS'stack'
p9
S''
s.