(dp1
S'args'
p2
S''
sS'methodname'
p3
S''
sS'packet_num'
p4
I119
sS'returnval'
p5
S'Heard Of But Should Totally Visit"\np15180\nsVimage_hash\np15181\nV2d9f2b34f6765d84eaa498afdd4632a3\np15182\nsVname\np15183\nVThis in Norway No Way!\np15184\nsVtitle\np15185\nVThis in Norway No Way!\np15186\nsVcreative_id\np15187\nV6006470253565\np15188\nsVpreview_url\np15189\nVhttp://www.facebook.com/ads/api/creative_preview.php?cid=6006470253565\np15190\nsVid\np15191\nV6006470253565\np15192\nsVimage_url\np15193\nVhttps://fbcdn-creative-a.akamaihd.net/hads-ak-prn1/s110x80/708194_6006844325965_63134_n.png\np15194\nsVcount_current_adgroups\np15195\nI0\nsVrun_status\np15196\nI1\nsVtype\np15197\nI1\nsVlink_url\np15198\nVhttp://www.buzzfeed.com/h1/fbad/samsungcamera/20-places-that-youve-probably-never-heard-of-but-7uaw\np15199\nsVview_tag\np15200\ng22\nsa(dp15201\nValt_view_tags\np15202\n(lp15203\nsVbody\np15204\nVCheck out the rest of the "15 Things All GIRLS Can Relate To" on BuzzFeed!\np15205\nsVimage_hash\np15206\nVf74f790615b4c0bb35707dbe97d1ec4b\np15207\nsVname\np15208\nVKanye Occupying Wall St?-01\np15209\nsVtitle\np15210\nVRunning into the Ex?\np15211\nsVcreative_id\np15212\nV6006572625365\np15213\nsVpreview_url\np15214\nVhttp://www.facebook.com/ads/api/creative_preview.php?cid=6006572625365\np15215\nsVid\np15216\nV6006572625365\np15217\nsVimage_url\np15218\nVhttps://fbcdn-creative-a.akamaihd.net/hads-ak-ash3/s110x80/708182_6006572513965_6886_n.jpg\np15219\nsVcount_current_adgroups\np15220\nI1\nsVrun_status\np15221\nI1\nsVtype\np15222\nI1\nsVlink_url\np15223\nVhttp://ad.doubleclick.net/clk;265750281;91504213;a\np15224\nsVview_tag\np15225\ng22\nsa(dp15226\nValt_view_tags\np15227\n(lp15228\nsVbody\np15229\nVThink he\'s too dreamy to eat? Check out more of the "14 Celebrities As Cookies" here!\np15230\nsVimage_hash\np15231\nVd0e75b6ba82f4af7ea339d5891c1ce40\np15232\nsVname\np15233\nVGosling Cookie?\np15234\nsVtitle\np15235\nVGosling Cookie?\np15236\nsVcreative_id\np15237\nV6006474706365\np15238\nsVpreview_url\np15239\nVhttp://www.facebook.com/ads/api/creative_preview.php?cid=6006474706365\np15240\nsVid\np15241\nV6006474706365\np15242\nsVimage_url\np15243\nVhttps://fbcdn-creative-a.akamaihd.net/hads-ak-ash3/s110x80/701900_6006474669365_63_n.jpg\np15244\nsVcount_current_adgroups\np15245\nI0\nsVrun_status\np15246\nI1\nsVtype\np15247\nI1\nsVlink_url\np15248\nVhttp://ad.doubleclick.net/clk;265349090;91012994;m?http://www.buzzfeed.com/h1/fbad/quiznos/14-celebrities-as-cookies-7ppi\np15249\nsVview_tag\np15250\ng22\nsa(dp15251\nValt_view_tags\np15252\n(lp15253\nsVbody\np15254\nVJust one of the "11 Obscure Holidays You Should Remember To Celebrate!" See them all!\np15255\nsVimage_hash\np15256\nVe4834dd60f1711b5cecb6451c75b2320\np15257\nsVname\np15258\nVPublic Sleeping Day?-00\np15259\nsVtitle\np15260\nVBad Poetry Day?\np15261\nsVcreative_id\np15262\nV6006490959765\np15263\nsVpreview_url\np15264\nVhttp://www.facebook.com/ads/api/creative_preview.php?cid=6006490959765\np15265\nsVid\np15266\nV6006490959765\np15267\nsVimage_url\np15268\nVhttps://fbcdn-creative-a.akamaihd.net/hads-ak-prn1/s110x80/708167_6006490785365_51518_n.jpg\np15269\nsVcount_current_adgroups\np15270\nI2\nsVrun_status\np15271\nI1\nsVtype\np15272\nI1\nsVlink_url\np15273\nVhttp://ad.doubleclick.net/clk;265349090;91012994;m?http://www.buzzfeed.com/h1/fbad/quiznos/11-obscure-holidays-you-should-remember-to-celebra-7ppi\np15274\nsVview_tag\np15275\ng22\nsa(dp15276\nValt_view_tags\np15277\n(lp15278\nsVbody\np15279\nVSee the rest of the "15 Delicious Cookie Reaction GIFs" and get ready for Free Cookie Day!\np15280\nsVimage_hash\np15281\nVdc15f9fe693e079bcad63b859ca60c52\np15282\nsVname\np15283\nVRalph Wiggum\np15284\nsVtitle\np15285\nVRalph Wiggum\np15286\nsVcreative_id\np15287\nV6006436844965\np15288\nsVpreview_url\np15289\nVhttp://www.facebook.com/ads/api/creative_preview.php?cid=6006436844965\np15290\nsVid\np15291\nV6006436844965\np15292\nsVimage_url\np15293\nVhttps://fbcdn-creative-a.akamaihd.net/hads-ak-prn1/s110x80/708191_6006845368365_65170_n.png\np15294\nsVcount_current_adgroups\np15295\nI1\nsVrun_status\np15296\nI1\nsVtype\np15297\nI1\nsVlink_url\np15298\nVhttp://ad.doubleclick.net/clk;265349090;91012994;m?http://www.buzzfeed.com/h1/fbad/quiznos/15-delicious-cookie-reaction-gifs-7ppi\np15299\nsVview_tag\np15300\ng22\nsa(dp15301\nValt_view_tags\np15302\n(lp15303\nsVbody\np15304\nVWe\'ve got "21 Delightful Ways To Make H'
p6
sS'hash'
p7
S'3a1a77a5784510883f0cba1804294fc29cead2c8'
p8
sS'stack'
p9
S''
s.