(dp1
S'args'
p2
S''
sS'methodname'
p3
S''
sS'packet_num'
p4
I62
sS'returnval'
p5
S'\np8039\nVAmy Winehouse - "Rehab"\np8040\nsVtitle\np8041\nVAmy Winehouse - "Rehab"\np8042\nsVcreative_id\np8043\nV6005240231965\np8044\nsVpreview_url\np8045\nVhttp://www.facebook.com/ads/api/creative_preview.php?cid=6005240231965\np8046\nsVid\np8047\nV6005240231965\np8048\nsVimage_url\np8049\nVhttps://fbcdn-creative-a.akamaihd.net/hads-ak-ash3/s110x80/701891_6006844214165_1994_n.jpg\np8050\nsVcount_current_adgroups\np8051\nI1\nsVrun_status\np8052\nI1\nsVtype\np8053\nI1\nsVlink_url\np8054\nVhttp://www.buzzfeed.com/h1/fbad/mtvmovieawards/most-memorable-movie-awards-performances-through-t-69vw\np8055\nsVview_tag\np8056\ng22\nsa(dp8057\nValt_view_tags\np8058\n(lp8059\nsVbody\np8060\nVIt\'s one of the "Most Memorable Movie Awards Performances Through The Years". See the rest\np8061\nsVimage_hash\np8062\nV44cb62a6f48f93cac27cf961ed3c536f\np8063\nsVname\np8064\nVKings of Leon - MTV 2009\np8065\nsVtitle\np8066\nVKings of Leon - MTV 2009\np8067\nsVcreative_id\np8068\nV6005240240565\np8069\nsVpreview_url\np8070\nVhttp://www.facebook.com/ads/api/creative_preview.php?cid=6005240240565\np8071\nsVid\np8072\nV6005240240565\np8073\nsVimage_url\np8074\nVhttps://fbcdn-creative-a.akamaihd.net/hads-ak-prn1/s110x80/708174_6006844467965_17674_n.jpg\np8075\nsVcount_current_adgroups\np8076\nI1\nsVrun_status\np8077\nI1\nsVtype\np8078\nI1\nsVlink_url\np8079\nVhttp://www.buzzfeed.com/h1/fbad/mtvmovieawards/most-memorable-movie-awards-performances-through-t-69vw\np8080\nsVview_tag\np8081\ng22\nsa(dp8082\nValt_view_tags\np8083\n(lp8084\nsVbody\np8085\nVCheck our "Your Favorite Childhood Foods With A Twist" See the rest on BuzzFeed!\np8086\nsVimage_hash\np8087\nV1c9ab498c253c60782beeb8553d04bdc\np8088\nsVname\np8089\nVMac & Cheese with a Twist\np8090\nsVtitle\np8091\nVMac & Cheese with a Twist\np8092\nsVcreative_id\np8093\nV6005247767965\np8094\nsVpreview_url\np8095\nVhttp://www.facebook.com/ads/api/creative_preview.php?cid=6005247767965\np8096\nsVid\np8097\nV6005247767965\np8098\nsVimage_url\np8099\nVhttps://fbcdn-creative-a.akamaihd.net/hads-ak-ash3/s110x80/701889_6006844229565_12339_n.jpg\np8100\nsVcount_current_adgroups\np8101\nI1\nsVrun_status\np8102\nI1\nsVtype\np8103\nI1\nsVlink_url\np8104\nVhttp://www.buzzfeed.com/h1/fbad/pepsinext/your-favorite-childhood-foods-with-a-twist\np8105\nsVview_tag\np8106\ng22\nsa(dp8107\nValt_view_tags\np8108\n(lp8109\nsVbody\np8110\nVSeem more in the "11 Most Cringe-Worthy Makeovers Ever" Check it out now on BuzzFeed.\np8111\nsVimage_hash\np8112\nVaf855128d8d1cbbaf9b936384e723ab2\np8113\nsVname\np8114\nVRemember this makeover?\np8115\nsVtitle\np8116\nVRemember this makeover?\np8117\nsVcreative_id\np8118\nV6005229708565\np8119\nsVpreview_url\np8120\nVhttp://www.facebook.com/ads/api/creative_preview.php?cid=6005229708565\np8121\nsVid\np8122\nV6005229708565\np8123\nsVimage_url\np8124\nVhttps://fbcdn-creative-a.akamaihd.net/hads-ak-ash3/s110x80/708189_6006845106965_9563_n.jpg\np8125\nsVcount_current_adgroups\np8126\nI1\nsVrun_status\np8127\nI1\nsVtype\np8128\nI1\nsVlink_url\np8129\nVhttp://www.buzzfeed.com/h1/fbad/virginmobilelive/the-12-most-cringe-worthy-makeovers-ever-5l87\np8130\nsVview_tag\np8131\ng22\nsa(dp8132\nValt_view_tags\np8133\n(lp8134\nsVbody\np8135\nVCheck out the "15 Best Breakfast Combos To Start Your Morning" Tell us yours on BuzzFeed.\np8136\nsVimage_hash\np8137\nVcbc7b1b6a900430a04e7bfa8229619e7\np8138\nsVname\np8139\nVThe Best Breakfast Combos-00\np8140\nsVtitle\np8141\nVThe Best Breakfast Combos\np8142\nsVcreative_id\np8143\nV6005218038765\np8144\nsVpreview_url\np8145\nVhttp://www.facebook.com/ads/api/creative_preview.php?cid=6005218038765\np8146\nsVid\np8147\nV6005218038765\np8148\nsVimage_url\np8149\nVhttps://fbcdn-creative-a.akamaihd.net/hads-ak-prn1/s110x80/708171_6006845272165_38232_n.jpg\np8150\nsVcount_current_adgroups\np8151\nI1\nsVrun_status\np8152\nI1\nsVtype\np8153\nI1\nsVlink_url\np8154\nVhttp://www.buzzfeed.com/h1/fbad/ihop/the-15-best-breakfast-combos-to-start-your-morning\np8155\nsVview_tag\np8156\ng22\nsa(dp8157\nValt_view_tags\np8158\n(lp8159\nsVbody\np8160\nVCheck out these "20 Awesome Breakfast Creations" only on BuzzFeed!\\u000a\np8161\nsVimage_hash\np8162\nVcbe14040c1f4f6bfa9e6cb36afca3b8c\np8163\nsVname\np8164\nVDo you love breakfast?\np8165\nsVtitle\np8166\nVDo you love breakfast?\np8167\nsVcreative_id\np8168\nV6005181350565\np8169\nsVprevie'
p6
sS'hash'
p7
S'3a1a77a5784510883f0cba1804294fc29cead2c8'
p8
sS'stack'
p9
S''
s.