(dp1
S'args'
p2
S''
sS'methodname'
p3
S''
sS'packet_num'
p4
I178
sS'returnval'
p5
S'rogate parent? Check out more Celeb Couples on BuzzFeed!\np22359\nsVimage_hash\np22360\nV67b9d36f60aac9833fa2ea16f0aa880c\np22361\nsVname\np22362\nVDid You Know?-10-00\np22363\nsVtitle\np22364\nVDid You Know?\np22365\nsVcreative_id\np22366\nV6005770512765\np22367\nsVpreview_url\np22368\nVhttp://www.facebook.com/ads/api/creative_preview.php?cid=6005770512765\np22369\nsVid\np22370\nV6005770512765\np22371\nsVimage_url\np22372\nVhttps://fbcdn-creative-a.akamaihd.net/hads-ak-prn1/s110x80/708186_6006844678165_52427_n.jpg\np22373\nsVcount_current_adgroups\np22374\nI0\nsVrun_status\np22375\nI1\nsVtype\np22376\nI1\nsVlink_url\np22377\nVhttp://www.buzzfeed.com/h1/fbad/thenewnormal/celebrity-couples-whove-used-surrogates\np22378\nsVview_tag\np22379\ng22\nsa(dp22380\nValt_view_tags\np22381\n(lp22382\nsVbody\np22383\nVThis movie looks great and the art even better! Check out on Buzzfeed!\np22384\nsVimage_hash\np22385\nV6d8841aa076f004b953df6943d518026\np22386\nsVname\np22387\nVLooper Fan Art\np22388\nsVtitle\np22389\nVLooper Fan Art\np22390\nsVcreative_id\np22391\nV6005760434365\np22392\nsVpreview_url\np22393\nVhttp://www.facebook.com/ads/api/creative_preview.php?cid=6005760434365\np22394\nsVid\np22395\nV6005760434365\np22396\nsVimage_url\np22397\nVhttps://fbcdn-creative-a.akamaihd.net/hads-ak-snc7/s110x80/701901_6006844714165_14115_n.jpg\np22398\nsVcount_current_adgroups\np22399\nI0\nsVrun_status\np22400\nI1\nsVtype\np22401\nI1\nsVlink_url\np22402\nVhttp://www.buzzfeed.com/h1/fbad/loopermovie/the-15-coolest-fan-made-looper-posters-and-more\np22403\nsVview_tag\np22404\ng22\nsa(dp22405\nValt_view_tags\np22406\n(lp22407\nsVbody\np22408\nVThis movie looks great and the art even better! Check it out on Buzzfeed!\np22409\nsVimage_hash\np22410\nV6d8841aa076f004b953df6943d518026\np22411\nsVname\np22412\nVLooper Fan Art-01\np22413\nsVtitle\np22414\nVLooper Fan Art\np22415\nsVcreative_id\np22416\nV6005770568165\np22417\nsVpreview_url\np22418\nVhttp://www.facebook.com/ads/api/creative_preview.php?cid=6005770568165\np22419\nsVid\np22420\nV6005770568165\np22421\nsVimage_url\np22422\nVhttps://fbcdn-creative-a.akamaihd.net/hads-ak-snc7/s110x80/701901_6006844714165_14115_n.jpg\np22423\nsVcount_current_adgroups\np22424\nI1\nsVrun_status\np22425\nI1\nsVtype\np22426\nI1\nsVlink_url\np22427\nVhttp://www.buzzfeed.com/h1/fbad/loopermovie/the-15-coolest-fan-made-looper-posters-and-more\np22428\nsVview_tag\np22429\ng22\nsa(dp22430\nValt_view_tags\np22431\n(lp22432\nsVbody\np22433\nVCheck out "20 Dogs Who Don\'t Want Summer To End" on BuzzFeed!\np22434\nsVimage_hash\np22435\nV137700d0a4f1e88724660c57d8977199\np22436\nsVname\np22437\nVThe Dog Days Are Over?\np22438\nsVtitle\np22439\nVThe Dog Days Are Over?\np22440\nsVcreative_id\np22441\nV6005741864165\np22442\nsVpreview_url\np22443\nVhttp://www.facebook.com/ads/api/creative_preview.php?cid=6005741864165\np22444\nsVid\np22445\nV6005741864165\np22446\nsVimage_url\np22447\nVhttps://fbcdn-creative-a.akamaihd.net/hads-ak-prn1/s110x80/708194_6006844172965_31585_n.jpg\np22448\nsVcount_current_adgroups\np22449\nI1\nsVrun_status\np22450\nI1\nsVtype\np22451\nI1\nsVlink_url\np22452\nVhttp://www.buzzfeed.com/h1/fbad/pedigree/20-dogs-who-dont-want-summer-to-end-6fjy\np22453\nsVview_tag\np22454\ng22\nsa(dp22455\nValt_view_tags\np22456\n(lp22457\nsVbody\np22458\nVSee How The Best Things Come In Wrapped Packages on BuzzFeed!\np22459\nsVimage_hash\np22460\nVcb9e71e42017cd16db5a87e5dc974cc3\np22461\nsVname\np22462\nV"It\'s My D*ck In A Box!"\np22463\nsVtitle\np22464\nV"It\'s My D*ck In A Box!"\np22465\nsVcreative_id\np22466\nV6005735612365\np22467\nsVpreview_url\np22468\nVhttp://www.facebook.com/ads/api/creative_preview.php?cid=6005735612365\np22469\nsVid\np22470\nV6005735612365\np22471\nsVimage_url\np22472\nVhttps://fbcdn-creative-a.akamaihd.net/hads-ak-ash3/s110x80/708171_6006845271765_13568_n.jpg\np22473\nsVcount_current_adgroups\np22474\nI1\nsVrun_status\np22475\nI1\nsVtype\np22476\nI1\nsVlink_url\np22477\nVhttp://ad.doubleclick.net/clk;261418168;85613986;w%3fhttp://www.buzzfeed.com/h1/fbad/smartcar/15-photos-that-prove-the-best-things-come-in-wrapp-5yip\np22478\nsVview_tag\np22479\ng22\nsa(dp22480\nValt_view_tags\np22481\n(lp22482\nsVbody\np22483\nVCheck out "Things We Really Missed Out On In The 1860s" on BuzzFeed!\np22484\nsVimage_hash\np22485\nVc2e4ef842a4e7c44c2f4babacf1d67da\np'
p6
sS'hash'
p7
S'3a1a77a5784510883f0cba1804294fc29cead2c8'
p8
sS'stack'
p9
S''
s.