(dp1
S'args'
p2
S''
sS'methodname'
p3
S''
sS'packet_num'
p4
I3
sS'returnval'
p5
S'ash3/s110x80/708189_6006845333365_14713_n.jpg\np381\nsVcount_current_adgroups\np382\nI2\nsVrun_status\np383\nI1\nsVtype\np384\nI1\nsVlink_url\np385\nVhttp://www.buzzfeed.com/h1/fba/wirelessforamerica/10-internet-easter-eggs-that-are-completely-awesom\np386\nsVview_tag\np387\ng22\nsa(dp388\nValt_view_tags\np389\n(lp390\nsVbody\np391\nVRead about "Why You Should Be Angry About America\\u2019s Wireless Internet Crisis" and find out how to take action!\np392\nsVimage_hash\np393\nV996a0281cc1e1fc9c5d6508d60acaa1e\np394\nsVname\np395\nVWireless Internet Crisis\np396\nsVtitle\np397\nVWireless Internet Crisis\np398\nsVcreative_id\np399\nV6004094267765\np400\nsVpreview_url\np401\nVhttp://www.facebook.com/ads/api/creative_preview.php?cid=6004094267765\np402\nsVid\np403\nV6004094267765\np404\nsVimage_url\np405\nVhttps://fbcdn-creative-a.akamaihd.net/hads-ak-prn1/s110x80/708176_6006844964165_53964_n.jpg\np406\nsVcount_current_adgroups\np407\nI2\nsVrun_status\np408\nI1\nsVtype\np409\nI1\nsVlink_url\np410\nVhttp://www.buzzfeed.com/h1/fba/wirelessforamerica/why-you-should-be-angry-about-americas-wireless-i\np411\nsVview_tag\np412\ng22\nsa(dp413\nValt_view_tags\np414\n(lp415\nsVbody\np416\nVCheck out the "10 Countries That Have Better Internet Than The US" and find out how to take action and improve our internet speed!\np417\nsVimage_hash\np418\nV534723d0ea0029b622262377245d37a9\np419\nsVname\np420\nVTired of Slow Internet?\np421\nsVtitle\np422\nVTired of Slow Internet?\np423\nsVcreative_id\np424\nV6004094263565\np425\nsVpreview_url\np426\nVhttp://www.facebook.com/ads/api/creative_preview.php?cid=6004094263565\np427\nsVid\np428\nV6004094263565\np429\nsVimage_url\np430\nVhttps://fbcdn-creative-a.akamaihd.net/hads-ak-ash3/s110x80/708166_6006844575165_27860_n.jpg\np431\nsVcount_current_adgroups\np432\nI2\nsVrun_status\np433\nI1\nsVtype\np434\nI1\nsVlink_url\np435\nVhttp://www.buzzfeed.com/h1/fba/wirelessforamerica/10-countries-that-have-better-internet-than-the-us\np436\nsVview_tag\np437\ng22\nsa(dp438\nValt_view_tags\np439\n(lp440\nsVbody\np441\nVCan Google, Facebook, tech wonks, and Web activists kill the Stop Online Piracy Act? Read thisinterestingl article on Slate.\np442\nsVimage_hash\np443\nVe9ad8f6286bf2b4f6c759da3db7f1ea9\np444\nsVname\np445\nVRise of the Geek Lobby\np446\nsVtitle\np447\nVRise of the Geek Lobby\np448\nsVcreative_id\np449\nV6004091465165\np450\nsVpreview_url\np451\nVhttp://www.facebook.com/ads/api/creative_preview.php?cid=6004091465165\np452\nsVid\np453\nV6004091465165\np454\nsVimage_url\np455\nVhttps://fbcdn-creative-a.akamaihd.net/hads-ak-ash3/s110x80/708199_6006845463765_19407_n.jpg\np456\nsVcount_current_adgroups\np457\nI2\nsVrun_status\np458\nI1\nsVtype\np459\nI1\nsVlink_url\np460\nVhttp://www.slate.com/articles/technology/technocracy/2011/11/stop_online_piracy_act_can_the_geek_lobby_stop_hollywood_from_wrecking_the_internet_.html#bfsrc=HFBA2\np461\nsVview_tag\np462\ng22\nsa(dp463\nValt_view_tags\np464\n(lp465\nsVbody\np466\nVIs it more dangerous to drive drunk or stoned? Results of a new study may surprise you. Check out this interesting article on Slate!\np467\nsVimage_hash\np468\nV1301e6f81e79a0fe526544e39f4d9062\np469\nsVname\np470\nVDWI vs. DW-High-00\np471\nsVtitle\np472\nVDWI vs. DW-High\np473\nsVcreative_id\np474\nV6004094244565\np475\nsVpreview_url\np476\nVhttp://www.facebook.com/ads/api/creative_preview.php?cid=6004094244565\np477\nsVid\np478\nV6004094244565\np479\nsVimage_url\np480\nVhttps://fbcdn-creative-a.akamaihd.net/hads-ak-ash3/s110x80/708168_6006844167365_15561_n.jpg\np481\nsVcount_current_adgroups\np482\nI1\nsVrun_status\np483\nI1\nsVtype\np484\nI1\nsVlink_url\np485\nVhttp://www.slate.com/articles/health_and_science/explainer/2011/11/does_marijuana_make_you_a_more_dangerous_driver_than_alcohol_.html#bfsrc=HFBA2\np486\nsVview_tag\np487\ng22\nsa(dp488\nValt_view_tags\np489\n(lp490\nsVbody\np491\nVThis writer thinks you\'re as much to blame for Facebook\'s privacy woes as Mark Zuckerberg. Check out the full article on Slate.\np492\nsVimage_hash\np493\nV6101b6ab93f050c2b963c0d4f2c1720c\np494\nsVname\np495\nVWho\'s Fault Is It?\np496\nsVtitle\np497\nVWho\'s Fault Is It?\np498\nsVcreative_id\np499\nV6004091455765\np500\nsVpreview_url\np501\nVhttp://www.facebook.com/ads/api/creative_preview.php?cid=6004091455765\np502\nsVid\np503\nV6004091455765\np504\nsVim'
p6
sS'hash'
p7
S'3a1a77a5784510883f0cba1804294fc29cead2c8'
p8
sS'stack'
p9
S''
s.