(dp1
S'args'
p2
S''
sS'methodname'
p3
S''
sS'packet_num'
p4
I16
sS'returnval'
p5
S'1\nsVrun_status\np2008\nI1\nsVtype\np2009\nI1\nsVlink_url\np2010\nVhttp://www.buzzfeed.com/h1/fbad/josecuervo/10-radical-margarita-recipes-6863\np2011\nsVview_tag\np2012\ng22\nsa(dp2013\nValt_view_tags\np2014\n(lp2015\nsVbody\np2016\nVPay Day always makes work better. See more reasons why your work day is going to rock!\np2017\nsVimage_hash\np2018\nV61b44e8cdfde36bedd049d6c8ae47851\np2019\nsVname\np2020\nVThink Your Job Is Rough?-00-00\np2021\nsVtitle\np2022\nVGetting Paid\np2023\nsVcreative_id\np2024\nV6005776634765\np2025\nsVpreview_url\np2026\nVhttp://www.facebook.com/ads/api/creative_preview.php?cid=6005776634765\np2027\nsVid\np2028\nV6005776634765\np2029\nsVimage_url\np2030\nVhttps://fbcdn-creative-a.akamaihd.net/hads-ak-ash3/s110x80/708157_6006844649965_29096_n.jpg\np2031\nsVcount_current_adgroups\np2032\nI2\nsVrun_status\np2033\nI1\nsVtype\np2034\nI1\nsVlink_url\np2035\nVhttp://www.buzzfeed.com/h1/fbad/redstripe/19-reasons-why-work-will-rock-today-6phl\np2036\nsVview_tag\np2037\ng22\nsa(dp2038\nValt_view_tags\np2039\n(lp2040\nsVbody\np2041\nVThen you need to check out "19 Reasons Why Work Will Rock Today" to get through it!\np2042\nsVimage_hash\np2043\nV48b1098daceb9b5b7ac9cc7f82832450\np2044\nsVname\np2045\nVThink Your Job Is Rough?-00\np2046\nsVtitle\np2047\nVThink Your Job Is Rough?\np2048\nsVcreative_id\np2049\nV6005776609765\np2050\nsVpreview_url\np2051\nVhttp://www.facebook.com/ads/api/creative_preview.php?cid=6005776609765\np2052\nsVid\np2053\nV6005776609765\np2054\nsVimage_url\np2055\nVhttps://fbcdn-creative-a.akamaihd.net/hads-ak-ash3/s110x80/708181_6006844487965_38345_n.jpg\np2056\nsVcount_current_adgroups\np2057\nI2\nsVrun_status\np2058\nI1\nsVtype\np2059\nI1\nsVlink_url\np2060\nVhttp://www.buzzfeed.com/h1/fbad/redstripe/19-reasons-why-work-will-rock-today-6phl\np2061\nsVview_tag\np2062\ng22\nsa(dp2063\nValt_view_tags\np2064\n(lp2065\nsVbody\np2066\nVCheck out the rest of the "17 Awesome Political Bumper Stickers" on Buzzfeed!\np2067\nsVimage_hash\np2068\nVd86ad70f57146da2b42c25c77c152c85\np2069\nsVname\np2070\nVVoldemort Is Conservative-01\np2071\nsVtitle\np2072\nVZoidberg For President\np2073\nsVcreative_id\np2074\nV6005812248765\np2075\nsVpreview_url\np2076\nVhttp://www.facebook.com/ads/api/creative_preview.php?cid=6005812248765\np2077\nsVid\np2078\nV6005812248765\np2079\nsVimage_url\np2080\nVhttps://fbcdn-creative-a.akamaihd.net/hads-ak-prn1/s110x80/708161_6006845343765_18036_n.jpg\np2081\nsVcount_current_adgroups\np2082\nI1\nsVrun_status\np2083\nI1\nsVtype\np2084\nI1\nsVlink_url\np2085\nVhttp://www.buzzfeed.com/h1/fbad/virginmobilelive/17-awesome-political-bumper-stickers-5l87\np2086\nsVview_tag\np2087\ng22\nsa(dp2088\nValt_view_tags\np2089\n(lp2090\nsVbody\np2091\nVCheck out the rest of the "17 Awesome Political Bumper Stickers" on Buzzfeed!\np2092\nsVimage_hash\np2093\nV2e4ffef3129d570c4f6676bb7b5153ed\np2094\nsVname\np2095\nVVoldemort Is Conservative-00\np2096\nsVtitle\np2097\nVObi Wan Kenobi 2012\np2098\nsVcreative_id\np2099\nV6005812102365\np2100\nsVpreview_url\np2101\nVhttp://www.facebook.com/ads/api/creative_preview.php?cid=6005812102365\np2102\nsVid\np2103\nV6005812102365\np2104\nsVimage_url\np2105\nVhttps://fbcdn-creative-a.akamaihd.net/hads-ak-prn1/s110x80/708176_6006844331765_31288_n.jpg\np2106\nsVcount_current_adgroups\np2107\nI1\nsVrun_status\np2108\nI1\nsVtype\np2109\nI1\nsVlink_url\np2110\nVhttp://www.buzzfeed.com/h1/fbad/virginmobilelive/17-awesome-political-bumper-stickers-5l87\np2111\nsVview_tag\np2112\ng22\nsa(dp2113\nValt_view_tags\np2114\n(lp2115\nsVbody\np2116\nVIt\'s Brad Pitt & his Stunt Double! Check out more on BuzzFeed!\np2117\nsVimage_hash\np2118\nVc379e42790e12e246c7e1003b19293a8\np2119\nsVname\np2120\nVSeeing Double?-00-00\np2121\nsVtitle\np2122\nVSeeing Double?\np2123\nsVcreative_id\np2124\nV6005812260565\np2125\nsVpreview_url\np2126\nVhttp://www.facebook.com/ads/api/creative_preview.php?cid=6005812260565\np2127\nsVid\np2128\nV6005812260565\np2129\nsVimage_url\np2130\nVhttps://fbcdn-creative-a.akamaihd.net/hads-ak-prn1/s110x80/708205_6006845221965_44506_n.jpg\np2131\nsVcount_current_adgroups\np2132\nI1\nsVrun_status\np2133\nI1\nsVtype\np2134\nI1\nsVlink_url\np2135\nVhttp://www.buzzfeed.com/h1/fbad/starbucks/14-sweet-shots-of-celebs-with-their-stunt-doubles-78m6\np2136\nsVview_tag\np2137\ng22\nsa(dp2138\nValt_view_tags\np2139\n(lp2140\nsVbody'
p6
sS'hash'
p7
S'3a1a77a5784510883f0cba1804294fc29cead2c8'
p8
sS'stack'
p9
S''
s.