(dp1
S'args'
p2
S''
sS'methodname'
p3
S''
sS'packet_num'
p4
I68
sS'returnval'
p5
S'preview.php?cid=6005023433365\np8821\nsVid\np8822\nV6005023433365\np8823\nsVimage_url\np8824\nVhttps://fbcdn-creative-a.akamaihd.net/hads-ak-prn1/s110x80/708196_6006844821165_44033_n.jpg\np8825\nsVcount_current_adgroups\np8826\nI1\nsVrun_status\np8827\nI1\nsVtype\np8828\nI1\nsVlink_url\np8829\nVhttp://www.buzzfeed.com/H1/FBAD/wendyschicken/motivational-images-to-help-you-start-your-day-5afm\np8830\nsVview_tag\np8831\ng22\nsa(dp8832\nValt_view_tags\np8833\n(lp8834\nsVbody\np8835\nVOne of "10 Incredible Kickstarter Projects That Could Change The World" See the rest now!\np8836\nsVimage_hash\np8837\nV05f1b28d09e711910e91bae173873d35\np8838\nsVname\np8839\nVMonkey Can Use IPad\np8840\nsVtitle\np8841\nVMonkey Can Use IPad\np8842\nsVcreative_id\np8843\nV6005034135965\np8844\nsVpreview_url\np8845\nVhttp://www.facebook.com/ads/api/creative_preview.php?cid=6005034135965\np8846\nsVid\np8847\nV6005034135965\np8848\nsVimage_url\np8849\nVhttps://fbcdn-creative-a.akamaihd.net/hads-ak-ash3/s110x80/701892_6006844083365_58757_n.jpg\np8850\nsVcount_current_adgroups\np8851\nI1\nsVrun_status\np8852\nI1\nsVtype\np8853\nI1\nsVlink_url\np8854\nVhttp://www.buzzfeed.com/H1/FBAD/gewhatworks/10-incredible-kickstarter-projects-that-could-chan-5tbk\np8855\nsVview_tag\np8856\ng22\nsa(dp8857\nValt_view_tags\np8858\n(lp8859\nsVbody\np8860\nVReady to Get Ignited? Chat with the Wendy\'s Motivational Chicken and prepare to be bold!\np8861\nsVimage_hash\np8862\nVb010b7b59ffdfe28313565a367c353a0\np8863\nsVname\np8864\nVLife a little bland?\np8865\nsVtitle\np8866\nVLife a little bland?\np8867\nsVcreative_id\np8868\nV6004963636765\np8869\nsVpreview_url\np8870\nVhttp://www.facebook.com/ads/api/creative_preview.php?cid=6004963636765\np8871\nsVid\np8872\nV6004963636765\np8873\nsVimage_url\np8874\nVhttps://fbcdn-creative-a.akamaihd.net/hads-ak-ash3/s110x80/701888_6006845111765_24388_n.jpg\np8875\nsVcount_current_adgroups\np8876\nI1\nsVrun_status\np8877\nI1\nsVtype\np8878\nI1\nsVlink_url\np8879\nVhttp://ad.doubleclick.net/clk;255395655;79140662;t;pc=[TPAS_ID]\np8880\nsVview_tag\np8881\ng22\nsa(dp8882\nValt_view_tags\np8883\n(lp8884\nsVbody\np8885\nVReady to Get Ignited? Chat with the Wendy\'s Motivational Chicken and prepare to be bold!\np8886\nsVimage_hash\np8887\nV42766b6ecdbb1ed6f3ece86b139201b8\np8888\nsVname\np8889\nVLife a little bland?-00\np8890\nsVtitle\np8891\nVLife a little bland?\np8892\nsVcreative_id\np8893\nV6004963643365\np8894\nsVpreview_url\np8895\nVhttp://www.facebook.com/ads/api/creative_preview.php?cid=6004963643365\np8896\nsVid\np8897\nV6004963643365\np8898\nsVimage_url\np8899\nVhttps://fbcdn-creative-a.akamaihd.net/hads-ak-prn1/s110x80/708205_6006844451765_21287_n.jpg\np8900\nsVcount_current_adgroups\np8901\nI1\nsVrun_status\np8902\nI1\nsVtype\np8903\nI1\nsVlink_url\np8904\nVhttp://ad.doubleclick.net/clk;255395655;79140662;t;pc=[TPAS_ID]\np8905\nsVview_tag\np8906\ng22\nsa(dp8907\nValt_view_tags\np8908\n(lp8909\nsVbody\np8910\nVReady to Get Ignited? Chat with the Wendy\'s Motivational Chicken and prepare to be bold!\np8911\nsVimage_hash\np8912\nV42766b6ecdbb1ed6f3ece86b139201b8\np8913\nsVname\np8914\nVThe Motivational Chicken\np8915\nsVtitle\np8916\nVThe Motivational Chicken\np8917\nsVcreative_id\np8918\nV6004970086365\np8919\nsVpreview_url\np8920\nVhttp://www.facebook.com/ads/api/creative_preview.php?cid=6004970086365\np8921\nsVid\np8922\nV6004970086365\np8923\nsVimage_url\np8924\nVhttps://fbcdn-creative-a.akamaihd.net/hads-ak-prn1/s110x80/708205_6006844451765_21287_n.jpg\np8925\nsVcount_current_adgroups\np8926\nI1\nsVrun_status\np8927\nI1\nsVtype\np8928\nI1\nsVlink_url\np8929\nVhttp://ad.doubleclick.net/clk;255395655;79140662;t;pc=[TPAS_ID]\np8930\nsVview_tag\np8931\ng22\nsa(dp8932\nValt_view_tags\np8933\n(lp8934\nsVbody\np8935\nVLife a Little Bland? Ready to Get Ignited? Chat with the Wendy\'s Motivational Chicken and \np8936\nsVimage_hash\np8937\nVf441f757f1e3cf1c6fef87d83a3fcd41\np8938\nsVname\np8939\nVA Talking Chicken!-01\np8940\nsVtitle\np8941\nVA Talking Chicken!\np8942\nsVcreative_id\np8943\nV6004996013165\np8944\nsVpreview_url\np8945\nVhttp://www.facebook.com/ads/api/creative_preview.php?cid=6004996013165\np8946\nsVid\np8947\nV6004996013165\np8948\nsVimage_url\np8949\nVhttps://fbcdn-creative-a.akamaihd.net/hads-ak-prn1/s110x80/701891_6006845526365_64315_n.jpg\np8950\nsVcount_current_adgroups\np8951\nI1\ns'
p6
sS'hash'
p7
S'3a1a77a5784510883f0cba1804294fc29cead2c8'
p8
sS'stack'
p9
S''
s.