(dp1
S'args'
p2
S'(t.'
p3
sS'methodname'
p4
S'__json_response'
p5
sS'packet_num'
p6
I0
sS'returnval'
p7
S'(dp0\nVcount\np1\nI5353\nsVlimit\np2\nV1000\np3\nsVpaging\np4\n(dp5\nVprevious\np6\nVhttps://graph.facebook.com/act_40156177/adcreatives?access_token=AAAAACn63CWkBAMqpbBAZCzY9ZAxUwkgZCUeUFd0WWNyXRuxBY2JJahcZBMBO0q2D8Hyp5OZAMKZCFcbZBMWBZClqLQFENvjildZCZCVCSD3vTlfAZDZD&limit=1000&offset=1000\np7\nsVnext\np8\nVhttps://graph.facebook.com/act_40156177/adcreatives?access_token=AAAAACn63CWkBAMqpbBAZCzY9ZAxUwkgZCUeUFd0WWNyXRuxBY2JJahcZBMBO0q2D8Hyp5OZAMKZCFcbZBMWBZClqLQFENvjildZCZCVCSD3vTlfAZDZD&limit=1000&offset=3000\np9\nssVdata\np10\n(lp11\n(dp12\nValt_view_tags\np13\n(lp14\nsVbody\np15\nVCheck out BuzzFeed\'s list of "Things Hipsters Do To Be Ironic But Are Actually Awesome" and "Like" our page for more great stuff!\np16\nsVimage_hash\np17\nVb1159f4c108f04b024997af462c2a2a6\np18\nsVname\np19\nVBuzzFeed Partner-2011-12-05-6b7f2f8e847a6088830a88a638b7ea30\np20\nsVtitle\np21\nV\np22\nsVcreative_id\np23\nV6004115942565\np24\nsVpreview_url\np25\nVhttp://www.facebook.com/ads/api/creative_preview.php?cid=6004115942565\np26\nsVobject_id\np27\nI238205562866018\nsVid\np28\nV6004115942565\np29\nsVimage_url\np30\nVhttps://fbcdn-creative-a.akamaihd.net/hads-ak-snc7/s110x80/701888_6006845114765_64232_n.jpg\np31\nsVcount_current_adgroups\np32\nI2\nsVrun_status\np33\nI1\nsVtype\np34\nI2\nsVlink_url\np35\nVhttp://www.facebook.com/BuzzFeedPartner\np36\nsVview_tag\np37\ng22\nsa(dp38\nValt_view_tags\np39\n(lp40\nsVbody\np41\nVCheck out BuzzFeed\'s list of "Things Hipsters Do To Be Ironic But Are Actually Awesome" and "Like" our page for more great stuff!\np42\nsVimage_hash\np43\nVb267afa1795e805906cfa3bd80eb3907\np44\nsVname\np45\nVBuzzFeed Partner-2011-12-06-a04c6affe5a2c7003114d09ebdb6eb48\np46\nsVtitle\np47\ng22\nsVcreative_id\np48\nV6004121422165\np49\nsVpreview_url\np50\nVhttp://www.facebook.com/ads/api/creative_preview.php?cid=6004121422165\np51\nsVobject_id\np52\nI238205562866018\nsVid\np53\nV6004121422165\np54\nsVimage_url\np55\nVhttps://fbcdn-creative-a.akamaihd.net/hads-ak-ash3/s110x80/701894_6006845123765_53346_n.jpg\np56\nsVcount_current_adgroups\np57\nI1\nsVrun_status\np58\nI1\nsVtype\np59\nI2\nsVlink_url\np60\nVhttp://www.facebook.com/BuzzFeedPartner\np61\nsVview_tag\np62\ng22\nsa(dp63\nValt_view_tags\np64\n(lp65\nsVbody\np66\nVCheck out BuzzFeed\'s list of "Things Hipsters Do To Be Ironic But Are Actually Awesome" and "Like" our page for more great stuff!\np67\nsVimage_hash\np68\nV1585c7ca82edec775b99f95d657c29f4\np69\nsVname\np70\nVBuzzFeed Partner-2011-12-06-c2d9563a647c53fd167af0957946e0c2\np71\nsVtitle\np72\ng22\nsVcreative_id\np73\nV6004121432365\np74\nsVpreview_url\np75\nVhttp://www.facebook.com/ads/api/creative_preview.php?cid=6004121432365\np76\nsVobject_id\np77\nI238205562866018\nsVid\np78\nV6004121432365\np79\nsVimage_url\np80\nVhttps://fbcdn-creative-a.akamaihd.net/hads-ak-prn1/s110x80/708170_6006844184965_63707_n.jpg\np81\nsVcount_current_adgroups\np82\nI1\nsVrun_status\np83\nI1\nsVtype\np84\nI2\nsVlink_url\np85\nVhttp://www.facebook.com/BuzzFeedPartner\np86\nsVview_tag\np87\ng22\nsa(dp88\nValt_view_tags\np89\n(lp90\nsVbody\np91\nVDo you know what LMFAO\'s Stefan Gordy was up to before he was famous?  Check out this article on Slate to get the full story!\np92\nsVimage_hash\np93\nV6eb16bad679f987002d61b12a956b852\np94\nsVname\np95\nVStefan Gordy from LMFAO!\np96\nsVtitle\np97\nVStefan Gordy from LMFAO!\np98\nsVcreative_id\np99\nV6004112797565\np100\nsVpreview_url\np101\nVhttp://www.facebook.com/ads/api/creative_preview.php?cid=6004112797565\np102\nsVid\np103\nV6004112797565\np104\nsVimage_url\np105\nVhttps://fbcdn-creative-a.akamaihd.net/hads-ak-ash3/s110x80/701898_6006844719965_57677_n.jpg\np106\nsVcount_current_adgroups\np107\nI1\nsVrun_status\np108\nI1\nsVtype\np109\nI1\nsVlink_url\np110\nVhttp://www.slate.com/articles/arts/music_box/2011/12/lmfao_satire_manliness_in_party_rock_anthem_and_sexy_and_i_know_it_.html#bfsrc=HFBA2\np111\nsVview_tag\np112\ng22\nsa(dp113\nValt_view_tags\np114\n(lp115\nsVbody\np116\nVYou should definitely check out silly some of the inventions are in "The Baby Cage, Curved Gun, and Other Dumb Inventions" by Slate!\np117\nsVimage_hash\np118\nVf9db5fc3442fd6a1c35eed1b91156795\np119\nsVname\np120\nVVery Stupid Inventions!\np121\nsVtitle\np122\nVVery Stupid Inventions!\np123\nsVcreative_id\np124\nV6004112776365\np125\nsVpreview_url\np126\n'
p8
sS'hash'
p9
S'3a1a77a5784510883f0cba1804294fc29cead2c8'
p10
sS'stack'
p11
S''
s.