(dp1
S'args'
p2
S''
sS'methodname'
p3
S''
sS'packet_num'
p4
I22
sS'returnval'
p5
S'r Fan Art-00-00\np2796\nsVtitle\np2797\nVIncredible Looper Fan Art\np2798\nsVcreative_id\np2799\nV6005770566765\np2800\nsVpreview_url\np2801\nVhttp://www.facebook.com/ads/api/creative_preview.php?cid=6005770566765\np2802\nsVid\np2803\nV6005770566765\np2804\nsVimage_url\np2805\nVhttps://fbcdn-creative-a.akamaihd.net/hads-ak-snc7/s110x80/701901_6006844714165_14115_n.jpg\np2806\nsVcount_current_adgroups\np2807\nI1\nsVrun_status\np2808\nI1\nsVtype\np2809\nI1\nsVlink_url\np2810\nVhttp://www.buzzfeed.com/h1/fbad/loopermovie/the-15-coolest-fan-made-looper-posters-and-more\np2811\nsVview_tag\np2812\ng22\nsa(dp2813\nValt_view_tags\np2814\n(lp2815\nsVbody\np2816\nVHe\'ll be sure to make you laugh as this year\'s VMA host. See more about VMA history here!\np2817\nsVimage_hash\np2818\nV1ec419f46418f8c74b309854b59c9eca\np2819\nsVname\np2820\nVHot Couple At The VMAs-00-00\np2821\nsVtitle\np2822\nVKevin Hart\np2823\nsVcreative_id\np2824\nV6005714077365\np2825\nsVpreview_url\np2826\nVhttp://www.facebook.com/ads/api/creative_preview.php?cid=6005714077365\np2827\nsVid\np2828\nV6005714077365\np2829\nsVimage_url\np2830\nVhttps://fbcdn-creative-a.akamaihd.net/hads-ak-prn1/s110x80/701889_6006844240365_40581_n.jpg\np2831\nsVcount_current_adgroups\np2832\nI1\nsVrun_status\np2833\nI1\nsVtype\np2834\nI1\nsVlink_url\np2835\nVhttp://www.buzzfeed.com/h1/fbad/mtvvmas/mtv-vmas-then-vs-now-6htp\np2836\nsVview_tag\np2837\ng22\nsa(dp2838\nValt_view_tags\np2839\n(lp2840\nsVbody\np2841\nVBassists are the rhythm in every band, but maybe they go too far. See their wildest faces!\np2842\nsVimage_hash\np2843\nV7a21c55780eec1553d8a52d52db8827b\np2844\nsVname\np2845\nVCrazy Bass Faces!-01\np2846\nsVtitle\np2847\nVCrazy Bass Faces!\np2848\nsVcreative_id\np2849\nV6005752089165\np2850\nsVpreview_url\np2851\nVhttp://www.facebook.com/ads/api/creative_preview.php?cid=6005752089165\np2852\nsVid\np2853\nV6005752089165\np2854\nsVimage_url\np2855\nVhttps://fbcdn-creative-a.akamaihd.net/hads-ak-ash3/s110x80/708196_6006844786365_10752_n.jpg\np2856\nsVcount_current_adgroups\np2857\nI1\nsVrun_status\np2858\nI1\nsVtype\np2859\nI1\nsVlink_url\np2860\nVhttp://www.buzzfeed.com/h1/fbad/virginmobilelive/20-orgasmic-bass-faces-5l87\np2861\nsVview_tag\np2862\ng22\nsa(dp2863\nValt_view_tags\np2864\n(lp2865\nsVbody\np2866\nVIf you like this, then you\'ll love the rest of "20 Amazing Photos You Don\'t Want To Miss!"\np2867\nsVimage_hash\np2868\nV37fe1706826d18ef7fd8ca582dd721a4\np2869\nsVname\np2870\nVA Chimp Feeding A Tiger?\np2871\nsVtitle\np2872\nVA Chimp Feeding A Tiger?\np2873\nsVcreative_id\np2874\nV6005758227565\np2875\nsVpreview_url\np2876\nVhttp://www.facebook.com/ads/api/creative_preview.php?cid=6005758227565\np2877\nsVid\np2878\nV6005758227565\np2879\nsVimage_url\np2880\nVhttps://fbcdn-creative-a.akamaihd.net/hads-ak-prn1/s110x80/708193_6006844377965_52328_n.jpg\np2881\nsVcount_current_adgroups\np2882\nI1\nsVrun_status\np2883\nI1\nsVtype\np2884\nI1\nsVlink_url\np2885\nVhttp://www.buzzfeed.com/h1/fbad/microsoftoutlook/20-amazing-photos-you-dont-want-to-miss-76ab\np2886\nsVview_tag\np2887\ng22\nsa(dp2888\nValt_view_tags\np2889\n(lp2890\nsVbody\np2891\nVShe beat Breast Cancer. Check out more celebrities that have inspiring cancer stories!\np2892\nsVimage_hash\np2893\nV4c7ceaeb16caad9767174b8db46a11cf\np2894\nsVname\np2895\nVMichael C. Hall-00\np2896\nsVtitle\np2897\nVCynthia Nixon\np2898\nsVcreative_id\np2899\nV6005750080965\np2900\nsVpreview_url\np2901\nVhttp://www.facebook.com/ads/api/creative_preview.php?cid=6005750080965\np2902\nsVid\np2903\nV6005750080965\np2904\nsVimage_url\np2905\nVhttps://fbcdn-creative-a.akamaihd.net/hads-ak-ash3/s110x80/701895_6006844523765_45929_n.jpg\np2906\nsVcount_current_adgroups\np2907\nI2\nsVrun_status\np2908\nI1\nsVtype\np2909\nI1\nsVlink_url\np2910\nVhttp://www.buzzfeed.com/h1/fbad/standup2cancer/15-celebrity-cancer-survivors-who-will-inspire-you-78f5\np2911\nsVview_tag\np2912\ng22\nsa(dp2913\nValt_view_tags\np2914\n(lp2915\nsVbody\np2916\nVCheck Out More Mind-Blowing Product Customizations on BuzzFeed!\np2917\nsVimage_hash\np2918\nV06aafb82e98072cf3da1ce7c833491fc\np2919\nsVname\np2920\nVBlinged-Out Sneakers-00\np2921\nsVtitle\np2922\nVCreative Bento Boxes\np2923\nsVcreative_id\np2924\nV6005724025565\np2925\nsVpreview_url\np2926\nVhttp://www.facebook.com/ads/api/creative_preview.php?cid=6005724025565\np2927\nsVid\np'
p6
sS'hash'
p7
S'3a1a77a5784510883f0cba1804294fc29cead2c8'
p8
sS'stack'
p9
S''
s.