(dp1
S'args'
p2
S''
sS'methodname'
p3
S''
sS'packet_num'
p4
I59
sS'returnval'
p5
S'sVimage_hash\np7643\nVade4c29e07f3f1dab24665a5316087d8\np7644\nsVname\np7645\nVMcDonald\'s Toy Collection\np7646\nsVtitle\np7647\nVMcDonald\'s Toy Collection\np7648\nsVcreative_id\np7649\nV6005288108565\np7650\nsVpreview_url\np7651\nVhttp://www.facebook.com/ads/api/creative_preview.php?cid=6005288108565\np7652\nsVid\np7653\nV6005288108565\np7654\nsVimage_url\np7655\nVhttps://fbcdn-creative-a.akamaihd.net/hads-ak-prn1/s110x80/708196_6006845096365_21683_n.jpg\np7656\nsVcount_current_adgroups\np7657\nI1\nsVrun_status\np7658\nI1\nsVtype\np7659\nI1\nsVlink_url\np7660\nVhttp://www.buzzfeed.com/h1/fbad/natgeo/the-9-strangest-personal-and-museum-collections-5n1c\np7661\nsVview_tag\np7662\ng22\nsa(dp7663\nValt_view_tags\np7664\n(lp7665\nsVbody\np7666\nVTeam Coco - Check out the "Definitive Collection Of Conan Gifs" on BuzzFeed. \np7667\nsVimage_hash\np7668\nV4f0987b570115aa01aa6155621288ace\np7669\nsVname\np7670\nVConan\'s Jeggings -00\np7671\nsVtitle\np7672\nVConan\'s Jeggings \np7673\nsVcreative_id\np7674\nV6005298244365\np7675\nsVpreview_url\np7676\nVhttp://www.facebook.com/ads/api/creative_preview.php?cid=6005298244365\np7677\nsVid\np7678\nV6005298244365\np7679\nsVimage_url\np7680\nVhttps://fbcdn-creative-a.akamaihd.net/hads-ak-prn1/s110x80/708171_6006844536165_56487_n.jpg\np7681\nsVcount_current_adgroups\np7682\nI1\nsVrun_status\np7683\nI1\nsVtype\np7684\nI1\nsVlink_url\np7685\nVhttp://www.buzzfeed.com/h1/fbad/conan/the-definitive-collection-of-conan-gifs\np7686\nsVview_tag\np7687\ng22\nsa(dp7688\nValt_view_tags\np7689\n(lp7690\nsVbody\np7691\nVCheck out this list of "10 Original Shots To Make This Summer" Only on BuzzFeed!\np7692\nsVimage_hash\np7693\nV31d025ee83baff25a026a6cffab73620\np7694\nsVname\np7695\nVAwesome Birthday Shots!-00\np7696\nsVtitle\np7697\nVAwesome Birthday Shots!\np7698\nsVcreative_id\np7699\nV6005278383165\np7700\nsVpreview_url\np7701\nVhttp://www.facebook.com/ads/api/creative_preview.php?cid=6005278383165\np7702\nsVid\np7703\nV6005278383165\np7704\nsVimage_url\np7705\nVhttps://fbcdn-creative-a.akamaihd.net/hads-ak-ash3/s110x80/701901_6006844344365_13230_n.jpg\np7706\nsVcount_current_adgroups\np7707\nI1\nsVrun_status\np7708\nI1\nsVtype\np7709\nI1\nsVlink_url\np7710\nVhttp://www.buzzfeed.com/h1/fbad/stoli/10-original-shots-to-make-for-yourself-this-summer\np7711\nsVview_tag\np7712\ng22\nsa(dp7713\nValt_view_tags\np7714\n(lp7715\nsVbody\np7716\nVCheck out the top 10 best party games. We\'ve even included some for our feline friends. \np7717\nsVimage_hash\np7718\nV1ed0fa9193b1da497eeb5612707c26bc\np7719\nsVname\np7720\nViPad Games for Cats!\np7721\nsVtitle\np7722\nViPad Games for Cats!\np7723\nsVcreative_id\np7724\nV6005287599165\np7725\nsVpreview_url\np7726\nVhttp://www.facebook.com/ads/api/creative_preview.php?cid=6005287599165\np7727\nsVid\np7728\nV6005287599165\np7729\nsVimage_url\np7730\nVhttps://fbcdn-creative-a.akamaihd.net/hads-ak-ash3/s110x80/701889_6006844240965_484_n.jpg\np7731\nsVcount_current_adgroups\np7732\nI2\nsVrun_status\np7733\nI1\nsVtype\np7734\nI1\nsVlink_url\np7735\nVhttp://www.buzzfeed.com/h1/fbad/trident/the-top-10-best-party-games\np7736\nsVview_tag\np7737\ng22\nsa(dp7738\nVrelated_fan_page\np7739\nI1\nsVname\np7740\nVSponsored story #6005298092365\np7741\nsVurl_tags\np7742\nVfb_ref=HFBSS1\np7743\nsVcreative_id\np7744\nV6005298092365\np7745\nsVpreview_url\np7746\nVhttp://www.facebook.com/ads/api/creative_preview.php?cid=6005298092365\np7747\nsVaction_spec\np7748\n(dp7749\nVobject\np7750\nVhttp://www.buzzfeed.com/virginmobilelive/10-ways-to-lose-your-organ-donor-status-on-faceboo-5l87\np7751\nsVaction.type\np7752\nVlike\np7753\nssVcluster_id\np7754\nI6005298092165\nsVcount_current_adgroups\np7755\nI1\nsVrun_status\np7756\nI1\nsVtype\np7757\nI25\nsVid\np7758\nV6005298092365\np7759\nsa(dp7760\nVrelated_fan_page\np7761\nI1\nsVname\np7762\nVSponsored story #6005298007365\np7763\nsVurl_tags\np7764\nVfb_ref=HFBSS1\np7765\nsVcreative_id\np7766\nV6005298007365\np7767\nsVpreview_url\np7768\nVhttp://www.facebook.com/ads/api/creative_preview.php?cid=6005298007365\np7769\nsVaction_spec\np7770\n(dp7771\nVobject\np7772\nVhttp://www.buzzfeed.com/virginmobilelive/10-ways-texting-makes-you-a-total-douche-5l87\np7773\nsVaction.type\np7774\nVlike\np7775\nssVcluster_id\np7776\nI6005298007165\nsVcount_current_adgroups\np7777\nI1\nsVrun_status\np7778\nI1\nsVtype\np7779\nI25\nsVid\np7780\nV600529'
p6
sS'hash'
p7
S'3a1a77a5784510883f0cba1804294fc29cead2c8'
p8
sS'stack'
p9
S''
s.