(dp1
S'args'
p2
S''
sS'methodname'
p3
S''
sS'packet_num'
p4
I30
sS'returnval'
p5
S'w.buzzfeed.com/h1/fbad/syfy/45-behind-the-scenes-photos-that-youve-probably-n-6wms\np3836\nsVview_tag\np3837\ng22\nsa(dp3838\nValt_view_tags\np3839\n(lp3840\nsVbody\np3841\nVSee more of the "45 Behind The Scenes Photos That You\'ve Probably Never Seen Before!"\np3842\nsVimage_hash\np3843\nV3a290e4f5f245264f91780daa3e85a0a\np3844\nsVname\np3845\nVThe Terminator-00\np3846\nsVtitle\np3847\nVHe Who Must Not Be Named!\np3848\nsVcreative_id\np3849\nV6005659698565\np3850\nsVpreview_url\np3851\nVhttp://www.facebook.com/ads/api/creative_preview.php?cid=6005659698565\np3852\nsVid\np3853\nV6005659698565\np3854\nsVimage_url\np3855\nVhttps://fbcdn-creative-a.akamaihd.net/hads-ak-prn1/s110x80/708206_6006844392165_26870_n.jpg\np3856\nsVcount_current_adgroups\np3857\nI1\nsVrun_status\np3858\nI1\nsVtype\np3859\nI1\nsVlink_url\np3860\nVhttp://www.buzzfeed.com/h1/fbad/syfy/45-behind-the-scenes-photos-that-youve-probably-n-6wms\np3861\nsVview_tag\np3862\ng22\nsa(dp3863\nValt_view_tags\np3864\n(lp3865\nsVbody\np3866\nVSee more of the "45 Behind The Scenes Photos That You\'ve Probably Never Seen Before!"\np3867\nsVimage_hash\np3868\nV2e112bb1a45396ad990747479a5046a6\np3869\nsVname\np3870\nVThe Terminator-01-00-00\np3871\nsVtitle\np3872\nVBert and Ernie\np3873\nsVcreative_id\np3874\nV6005661818365\np3875\nsVpreview_url\np3876\nVhttp://www.facebook.com/ads/api/creative_preview.php?cid=6005661818365\np3877\nsVid\np3878\nV6005661818365\np3879\nsVimage_url\np3880\nVhttps://fbcdn-creative-a.akamaihd.net/hads-ak-prn1/s110x80/708194_6006844327165_32097_n.jpg\np3881\nsVcount_current_adgroups\np3882\nI1\nsVrun_status\np3883\nI1\nsVtype\np3884\nI1\nsVlink_url\np3885\nVhttp://www.buzzfeed.com/h1/fbad/syfy/45-behind-the-scenes-photos-that-youve-probably-n-6wms\np3886\nsVview_tag\np3887\ng22\nsa(dp3888\nValt_view_tags\np3889\n(lp3890\nsVbody\np3891\nVMugshots Were Way Cooler In The 1800s. Check out this app and create your own.\np3892\nsVimage_hash\np3893\nV4457028580cd659d1a0be6f16ed938fe\np3894\nsVname\np3895\nVOld School Mug Shots!\np3896\nsVtitle\np3897\nVOld School Mug Shots!\np3898\nsVcreative_id\np3899\nV6005615519765\np3900\nsVpreview_url\np3901\nVhttp://www.facebook.com/ads/api/creative_preview.php?cid=6005615519765\np3902\nsVid\np3903\nV6005615519765\np3904\nsVimage_url\np3905\nVhttps://fbcdn-creative-a.akamaihd.net/hads-ak-prn1/s110x80/708194_6006844461965_24629_n.jpg\np3906\nsVcount_current_adgroups\np3907\nI1\nsVrun_status\np3908\nI1\nsVtype\np3909\nI1\nsVlink_url\np3910\nVhttp://www.buzzfeed.com/h1/fbad/bbcamerica/examples-of-why-mugshots-were-way-cooler-in-the-18\np3911\nsVview_tag\np3912\ng22\nsa(dp3913\nValt_view_tags\np3914\n(lp3915\nsVbody\np3916\nVCheck out "10 Animals Who Might Dress Better Than You" on BuzzFeed!\np3917\nsVimage_hash\np3918\nVdd433aea790286d96e390c37bb26f4eb\np3919\nsVname\np3920\nVFurry Fashionistas-00\np3921\nsVtitle\np3922\nVFurry Fashionistas\np3923\nsVcreative_id\np3924\nV6005653953165\np3925\nsVpreview_url\np3926\nVhttp://www.facebook.com/ads/api/creative_preview.php?cid=6005653953165\np3927\nsVid\np3928\nV6005653953165\np3929\nsVimage_url\np3930\nVhttps://fbcdn-creative-a.akamaihd.net/hads-ak-prn1/s110x80/708172_6006845377165_41841_n.jpg\np3931\nsVcount_current_adgroups\np3932\nI1\nsVrun_status\np3933\nI1\nsVtype\np3934\nI1\nsVlink_url\np3935\nVhttp://ad.doubleclick.net/click;h=v2|3F93|0|0|%2a|s;260122121;0-0;0;83711970;31-1|1;49332344|49327572|1;;;pc=[TPAS_ID]%3fhttp://www.buzzfeed.com/h1/fbad/randomactsoffusion/animals-who-might-dress-better-than-you\np3936\nsVview_tag\np3937\ng22\nsa(dp3938\nValt_view_tags\np3939\n(lp3940\nsVbody\np3941\nVMakes our list of amazing make-up productions. Check out the rest on BuzzFeed!\np3942\nsVimage_hash\np3943\nV7f9904a626651ea555f1159e28158899\np3944\nsVname\np3945\nVMrs. Doubtfire\np3946\nsVtitle\np3947\nVMrs. Doubtfire\np3948\nsVcreative_id\np3949\nV6005607706165\np3950\nsVpreview_url\np3951\nVhttp://www.facebook.com/ads/api/creative_preview.php?cid=6005607706165\np3952\nsVid\np3953\nV6005607706165\np3954\nsVimage_url\np3955\nVhttps://fbcdn-creative-a.akamaihd.net/hads-ak-prn1/s110x80/708160_6006844814965_22514_n.jpg\np3956\nsVcount_current_adgroups\np3957\nI1\nsVrun_status\np3958\nI1\nsVtype\np3959\nI1\nsVlink_url\np3960\nVhttp://www.buzzfeed.com/h1/fbad/syfy/youll-never-guess-who-these-celebrities-really-ar-6wms\np3961\nsVview_ta'
p6
sS'hash'
p7
S'3a1a77a5784510883f0cba1804294fc29cead2c8'
p8
sS'stack'
p9
S''
s.