(dp1
S'args'
p2
S''
sS'methodname'
p3
S''
sS'packet_num'
p4
I187
sS'returnval'
p5
S'-ak-ash3/s110x80/708186_6006844805565_39078_n.jpg\np23498\nsVcount_current_adgroups\np23499\nI0\nsVrun_status\np23500\nI1\nsVtype\np23501\nI1\nsVlink_url\np23502\nVhttp://www.buzzfeed.com/h1/fbad/americangypsies/slang-words-you-should-probably-be-using\np23503\nsVview_tag\np23504\ng22\nsa(dp23505\nValt_view_tags\np23506\n(lp23507\nsVbody\np23508\nVMakes our list of "10 Awesome TV Adaptations Of Badass Movies" see more on BuzzFeed!\np23509\nsVimage_hash\np23510\nV9c8d09f3d9a9bfd4a3be35ee2412d5da\np23511\nsVname\np23512\nVStar Wars: The Clone Wars\np23513\nsVtitle\np23514\nVStar Wars: The Clone Wars\np23515\nsVcreative_id\np23516\nV6005521622765\np23517\nsVpreview_url\np23518\nVhttp://www.facebook.com/ads/api/creative_preview.php?cid=6005521622765\np23519\nsVid\np23520\nV6005521622765\np23521\nsVimage_url\np23522\nVhttps://fbcdn-creative-a.akamaihd.net/hads-ak-ash3/s110x80/708195_6006844985965_36656_n.jpg\np23523\nsVcount_current_adgroups\np23524\nI1\nsVrun_status\np23525\nI1\nsVtype\np23526\nI1\nsVlink_url\np23527\nVhttp://www.buzzfeed.com/h1/fbad/blackdynamite/10-awesome-tv-adaptations-of-badass-movies-5e97\np23528\nsVview_tag\np23529\ng22\nsa(dp23530\nValt_view_tags\np23531\n(lp23532\nsVbody\np23533\nVIt\'s one of "The Most Inspiring Underdog Stories In Sports." See the rest on BuzzFeed!\np23534\nsVimage_hash\np23535\nVbfca30ce92431cb4426a7e6b39639407\np23536\nsVname\np23537\nVJeremy Lin\'s Streak\np23538\nsVtitle\np23539\nVJeremy Lin\'s Streak\np23540\nsVcreative_id\np23541\nV6005488512965\np23542\nsVpreview_url\np23543\nVhttp://www.facebook.com/ads/api/creative_preview.php?cid=6005488512965\np23544\nsVid\np23545\nV6005488512965\np23546\nsVimage_url\np23547\nVhttps://fbcdn-creative-a.akamaihd.net/hads-ak-ash3/s110x80/708192_6006845202565_20447_n.jpg\np23548\nsVcount_current_adgroups\np23549\nI1\nsVrun_status\np23550\nI1\nsVtype\np23551\nI1\nsVlink_url\np23552\nVhttp://www.buzzfeed.com/h1/fbad/jordanriseabove/10-of-the-most-inspiring-underdog-stories-in-sport-6peo\np23553\nsVview_tag\np23554\ng22\nsa(dp23555\nValt_view_tags\np23556\n(lp23557\nsVbody\np23558\nVCheck out these "10 Awesome Ways To Hide Beer At The Beach" and enjoy the 4th!\np23559\nsVimage_hash\np23560\nVac7f026ac89c15bd80cd8f7e596e1bad\np23561\nsVname\np23562\nVHappy 4th of July!\np23563\nsVtitle\np23564\nVHappy 4th of July!\np23565\nsVcreative_id\np23566\nV6005452073565\np23567\nsVpreview_url\np23568\nVhttp://www.facebook.com/ads/api/creative_preview.php?cid=6005452073565\np23569\nsVid\np23570\nV6005452073565\np23571\nsVimage_url\np23572\nVhttps://fbcdn-creative-a.akamaihd.net/hads-ak-prn1/s110x80/708189_6006845088365_17096_n.jpg\np23573\nsVcount_current_adgroups\np23574\nI1\nsVrun_status\np23575\nI1\nsVtype\np23576\nI1\nsVlink_url\np23577\nVhttp://www.buzzfeed.com/h1/fbad/virginmobilelive/10-awesome-ways-to-hide-beer-at-the-beach-5l87\np23578\nsVview_tag\np23579\ng22\nsa(dp23580\nValt_view_tags\np23581\n(lp23582\nsVbody\np23583\nVHeading to the beach? We\'ve got "10 Awesome Ways To Hide Beer" See them all on BuzzFeed!\np23584\nsVimage_hash\np23585\nVac7f026ac89c15bd80cd8f7e596e1bad\np23586\nsVname\np23587\nVHappy 4th of July!-00\np23588\nsVtitle\np23589\nVBlame it on the dog!\np23590\nsVcreative_id\np23591\nV6005452085965\np23592\nsVpreview_url\np23593\nVhttp://www.facebook.com/ads/api/creative_preview.php?cid=6005452085965\np23594\nsVid\np23595\nV6005452085965\np23596\nsVimage_url\np23597\nVhttps://fbcdn-creative-a.akamaihd.net/hads-ak-prn1/s110x80/708189_6006845088365_17096_n.jpg\np23598\nsVcount_current_adgroups\np23599\nI1\nsVrun_status\np23600\nI1\nsVtype\np23601\nI1\nsVlink_url\np23602\nVhttp://www.buzzfeed.com/h1/fbad/virginmobilelive/10-awesome-ways-to-hide-beer-at-the-beach-5l87\np23603\nsVview_tag\np23604\ng22\nsa(dp23605\nValt_view_tags\np23606\n(lp23607\nsVbody\np23608\nVCheck out the most incredible pool trick and more great shots on BuzzFeed!\np23609\nsVimage_hash\np23610\nVa088e328f32df1fea1752febbca39dd7\np23611\nsVname\np23612\nVThe Best Basketball Shot!-00-00\np23613\nsVtitle\np23614\nVThe Best Pool Shot!\np23615\nsVcreative_id\np23616\nV6005799062565\np23617\nsVpreview_url\np23618\nVhttp://www.facebook.com/ads/api/creative_preview.php?cid=6005799062565\np23619\nsVid\np23620\nV6005799062565\np23621\nsVimage_url\np23622\nVhttps://fbcdn-creative-a.akamaihd.net/hads-ak-ash3/s110x80/701896_60068450'
p6
sS'hash'
p7
S'3a1a77a5784510883f0cba1804294fc29cead2c8'
p8
sS'stack'
p9
S''
s.