(dp1
S'args'
p2
S''
sS'methodname'
p3
S''
sS'packet_num'
p4
I91
sS'returnval'
p5
S'ow who we missed!\np11686\nsVimage_hash\np11687\nVb770ac814e1611ddf1e49fdeef81c8ee\np11688\nsVname\np11689\nVBuzzFeed Partner-2011-11-15-1c49b0bf8dc3d2f0c4294eac94dcd428\np11690\nsVtitle\np11691\ng22\nsVcreative_id\np11692\nV6004017376165\np11693\nsVpreview_url\np11694\nVhttp://www.facebook.com/ads/api/creative_preview.php?cid=6004017376165\np11695\nsVobject_id\np11696\nI238205562866018\nsVid\np11697\nV6004017376165\np11698\nsVimage_url\np11699\nVhttps://fbcdn-creative-a.akamaihd.net/hads-ak-prn1/s110x80/708173_6006845152165_40956_n.jpg\np11700\nsVcount_current_adgroups\np11701\nI2\nsVrun_status\np11702\nI1\nsVtype\np11703\nI2\nsVlink_url\np11704\nVhttp://www.facebook.com/BuzzFeedPartner?sk=wall\np11705\nsVview_tag\np11706\ng22\nsa(dp11707\nValt_view_tags\np11708\n(lp11709\nsVbody\np11710\nVCheck out BuzzFeed\'s list of "10 Modern Day Renaissance Men". Steve Jobs is one of them. Let us know who we missed!\np11711\nsVimage_hash\np11712\nVd7254edd666aff1494c1fe7a70a16891\np11713\nsVname\np11714\nVBuzzFeed Partner-2011-11-15-b10ca6743773218b714872d2eb27a8ee\np11715\nsVtitle\np11716\ng22\nsVcreative_id\np11717\nV6004019022765\np11718\nsVpreview_url\np11719\nVhttp://www.facebook.com/ads/api/creative_preview.php?cid=6004019022765\np11720\nsVobject_id\np11721\nI238205562866018\nsVid\np11722\nV6004019022765\np11723\nsVimage_url\np11724\nVhttps://fbcdn-creative-a.akamaihd.net/hads-ak-ash3/s110x80/708189_6006845334765_19199_n.jpg\np11725\nsVcount_current_adgroups\np11726\nI2\nsVrun_status\np11727\nI1\nsVtype\np11728\nI2\nsVlink_url\np11729\nVhttp://www.facebook.com/BuzzFeedPartner?sk=wall\np11730\nsVview_tag\np11731\ng22\nsa(dp11732\nValt_view_tags\np11733\n(lp11734\nsVbody\np11735\nVBuzzFeed and Mentos want to know: "What\\u2019s One Song That Never Fails To Make You Happy?" Check out what our editors chose.\np11736\nsVimage_hash\np11737\nVec66930f9ae4b29ee5d70f50236dbcb6\np11738\nsVname\np11739\nVBuzzFeed Partner-2011-11-14-6d1b41b6f676e929111361143671144c\np11740\nsVtitle\np11741\ng22\nsVcreative_id\np11742\nV6004015430965\np11743\nsVpreview_url\np11744\nVhttp://www.facebook.com/ads/api/creative_preview.php?cid=6004015430965\np11745\nsVobject_id\np11746\nI238205562866018\nsVid\np11747\nV6004015430965\np11748\nsVimage_url\np11749\nVhttps://fbcdn-creative-a.akamaihd.net/hads-ak-prn1/s110x80/708195_6006845480765_24089_n.jpg\np11750\nsVcount_current_adgroups\np11751\nI1\nsVrun_status\np11752\nI1\nsVtype\np11753\nI2\nsVlink_url\np11754\nVhttp://www.facebook.com/BuzzFeedPartner?sk=wall\np11755\nsVview_tag\np11756\ng22\nsa(dp11757\nValt_view_tags\np11758\n(lp11759\nsVbody\np11760\nVBuzzFeed and Mentos want to know: "What\\u2019s One Song That Never Fails To Make You Happy?" Check out what our editors chose.\np11761\nsVimage_hash\np11762\nV6518b99f475506aa461ec8f79b9bf069\np11763\nsVname\np11764\nVBuzzFeed Partner-2011-11-14-d5f7a03b0606c55afe324495a356a512\np11765\nsVtitle\np11766\ng22\nsVcreative_id\np11767\nV6004015445965\np11768\nsVpreview_url\np11769\nVhttp://www.facebook.com/ads/api/creative_preview.php?cid=6004015445965\np11770\nsVobject_id\np11771\nI238205562866018\nsVid\np11772\nV6004015445965\np11773\nsVimage_url\np11774\nVhttps://fbcdn-creative-a.akamaihd.net/hads-ak-prn1/s110x80/708166_6006844666165_50347_n.jpg\np11775\nsVcount_current_adgroups\np11776\nI1\nsVrun_status\np11777\nI1\nsVtype\np11778\nI2\nsVlink_url\np11779\nVhttp://www.facebook.com/BuzzFeedPartner?sk=wall\np11780\nsVview_tag\np11781\ng22\nsa(dp11782\nValt_view_tags\np11783\n(lp11784\nsVbody\np11785\nVThese guys have a lot of guts! See more "15 Cute and Courageous Animals" on BuzzFeed!\np11786\nsVimage_hash\np11787\nV19a032c8a8bfd7abc7da9dbc0f578a2b\np11788\nsVname\np11789\nVCourageous Animals-00\np11790\nsVtitle\np11791\nVSurfing Dogs!\np11792\nsVcreative_id\np11793\nV6007964593365\np11794\nsVpreview_url\np11795\nVhttp://www.facebook.com/ads/api/creative_preview.php?cid=6007964593365\np11796\nsVid\np11797\nV6007964593365\np11798\nsVimage_url\np11799\nVhttps://fbcdn-creative-a.akamaihd.net/hads-ak-prn1/s110x80/735345_6007964582365_54676_n.png\np11800\nsVcount_current_adgroups\np11801\nI0\nsVrun_status\np11802\nI1\nsVtype\np11803\nI1\nsVlink_url\np11804\nVhttp://www.buzzfeed.com/h1/fbad/scope/15-cute-and-courageous-animals\np11805\nsVview_tag\np11806\ng22\nsa(dp11807\nValt_view_tags\np11808\n(lp11809\nsVbody\np11810\nVWhat the'
p6
sS'hash'
p7
S'3a1a77a5784510883f0cba1804294fc29cead2c8'
p8
sS'stack'
p9
S''
s.