(dp1
S'args'
p2
S''
sS'methodname'
p3
S''
sS'packet_num'
p4
I145
sS'returnval'
p5
S'ition\np18513\nsVtitle\np18514\nVWife Carrying Competition\np18515\nsVcreative_id\np18516\nV6005853833765\np18517\nsVpreview_url\np18518\nVhttp://www.facebook.com/ads/api/creative_preview.php?cid=6005853833765\np18519\nsVid\np18520\nV6005853833765\np18521\nsVimage_url\np18522\nVhttps://fbcdn-creative-a.akamaihd.net/hads-ak-prn1/s110x80/708163_6006845541165_50709_n.jpg\np18523\nsVcount_current_adgroups\np18524\nI0\nsVrun_status\np18525\nI1\nsVtype\np18526\nI1\nsVlink_url\np18527\nVhttp://www.buzzfeed.com/h1/fbad/freal/20-crazy-events-you-wont-believe-are-freal-5k2r\np18528\nsVview_tag\np18529\ng22\nsa(dp18530\nValt_view_tags\np18531\n(lp18532\nsVbody\np18533\nVEveryone always had dysentery. See the rest of "Computer Firsts That\'ll Take You Back!"\np18534\nsVimage_hash\np18535\nV6b73f92b1ccbb6250732407de73e07dc\np18536\nsVname\np18537\nVRemember AOL Discs?-00\np18538\nsVtitle\np18539\nVRemember Oregon Trail?\np18540\nsVcreative_id\np18541\nV6005888939165\np18542\nsVpreview_url\np18543\nVhttp://www.facebook.com/ads/api/creative_preview.php?cid=6005888939165\np18544\nsVid\np18545\nV6005888939165\np18546\nsVimage_url\np18547\nVhttps://fbcdn-creative-a.akamaihd.net/hads-ak-prn1/s110x80/708183_6006844701765_35194_n.jpg\np18548\nsVcount_current_adgroups\np18549\nI1\nsVrun_status\np18550\nI1\nsVtype\np18551\nI1\nsVlink_url\np18552\nVhttp://www.buzzfeed.com/h1/fbad/samsungs9/20-computer-firsts-thatll-take-you-back-6g87\np18553\nsVview_tag\np18554\ng22\nsa(dp18555\nValt_view_tags\np18556\n(lp18557\nsVbody\np18558\nVCheck out these "Hot Chicks With Butt-Head\'s Gums". Tell us your favorite, or add your own. "Like" our page for more great stuff!\np18559\nsVimage_hash\np18560\nV1719966182385971d5207191442812f8\np18561\nsVname\np18562\nVBuzzFeed Partner-2011-10-24-20f293c386fc117cc134da58a6e2f1f1\np18563\nsVtitle\np18564\ng22\nsVcreative_id\np18565\nV6003956947365\np18566\nsVpreview_url\np18567\nVhttp://www.facebook.com/ads/api/creative_preview.php?cid=6003956947365\np18568\nsVobject_id\np18569\nI238205562866018\nsVid\np18570\nV6003956947365\np18571\nsVimage_url\np18572\nVhttps://fbcdn-creative-a.akamaihd.net/hads-ak-prn1/s110x80/708166_6006844192965_55874_n.jpg\np18573\nsVcount_current_adgroups\np18574\nI0\nsVrun_status\np18575\nI1\nsVtype\np18576\nI2\nsVlink_url\np18577\nVhttp://www.facebook.com/BuzzFeedPartner?sk=wall\np18578\nsVview_tag\np18579\ng22\nsa(dp18580\nValt_view_tags\np18581\n(lp18582\nsVbody\np18583\nVCheck out these "Hot Chicks With Butt-Head\'s Gums". Tell us your favorite, or add your own. "Like" our page for more great stuff!\np18584\nsVimage_hash\np18585\nV067bfede346ab2f8abeae79d99c651b3\np18586\nsVname\np18587\nVBuzzFeed Partner-2011-10-24-5a14a3cf071bd776323c5a2405d0d1cf\np18588\nsVtitle\np18589\ng22\nsVcreative_id\np18590\nV6003956951165\np18591\nsVpreview_url\np18592\nVhttp://www.facebook.com/ads/api/creative_preview.php?cid=6003956951165\np18593\nsVobject_id\np18594\nI238205562866018\nsVid\np18595\nV6003956951165\np18596\nsVimage_url\np18597\nVhttps://fbcdn-creative-a.akamaihd.net/hads-ak-prn1/s110x80/701892_6006844085165_2520_n.jpg\np18598\nsVcount_current_adgroups\np18599\nI0\nsVrun_status\np18600\nI1\nsVtype\np18601\nI2\nsVlink_url\np18602\nVhttp://www.facebook.com/BuzzFeedPartner?sk=wall\np18603\nsVview_tag\np18604\ng22\nsa(dp18605\nValt_view_tags\np18606\n(lp18607\nsVbody\np18608\nVCheck out these "Hot Chicks With Butt-Head\'s Gums". Tell us your favorite, or add your own. "Like" our page for more great stuff!\np18609\nsVimage_hash\np18610\nV1dc61cd728f930b1ca0ebcfdd3951cb7\np18611\nsVname\np18612\nVBuzzFeed Partner-2011-10-24-24841fd7ff3a581b5632313fc7cbf77e\np18613\nsVtitle\np18614\ng22\nsVcreative_id\np18615\nV6003957331365\np18616\nsVpreview_url\np18617\nVhttp://www.facebook.com/ads/api/creative_preview.php?cid=6003957331365\np18618\nsVobject_id\np18619\nI238205562866018\nsVid\np18620\nV6003957331365\np18621\nsVimage_url\np18622\nVhttps://fbcdn-creative-a.akamaihd.net/hads-ak-prn1/s110x80/701889_6006844236765_28574_n.jpg\np18623\nsVcount_current_adgroups\np18624\nI0\nsVrun_status\np18625\nI1\nsVtype\np18626\nI2\nsVlink_url\np18627\nVhttp://www.facebook.com/BuzzFeedPartner?sk=wall\np18628\nsVview_tag\np18629\ng22\nsa(dp18630\nValt_view_tags\np18631\n(lp18632\nsVbody\np18633\nVCheck out these "Hot Chicks With Butt-Head\'s Gums". Tell us your favorite, or add y'
p6
sS'hash'
p7
S'3a1a77a5784510883f0cba1804294fc29cead2c8'
p8
sS'stack'
p9
S''
s.