(dp1
S'args'
p2
S''
sS'methodname'
p3
S''
sS'packet_num'
p4
I5
sS'returnval'
p5
S'\nVThe Things Hipsters Do!\np621\nsVtitle\np622\nVThe Things Hipsters Do!\np623\nsVcreative_id\np624\nV6004100188165\np625\nsVpreview_url\np626\nVhttp://www.facebook.com/ads/api/creative_preview.php?cid=6004100188165\np627\nsVid\np628\nV6004100188165\np629\nsVimage_url\np630\nVhttps://fbcdn-creative-a.akamaihd.net/hads-ak-prn1/s110x80/708180_6006844858765_10672_n.jpg\np631\nsVcount_current_adgroups\np632\nI1\nsVrun_status\np633\nI1\nsVtype\np634\nI1\nsVlink_url\np635\nVhttp://www.buzzfeed.com/h1/fba/microsofthotmail/things-hipsters-do-to-be-ironic-but-are-actually-a-4iv0\np636\nsVview_tag\np637\ng22\nsa(dp638\nValt_view_tags\np639\n(lp640\nsVbody\np641\nVAmong Sailor Jerry\'s inked up Airstream, check out these other awesome rides in BuzzFeed\'s "Cool And Unusual Ways To Travel In Style" !\np642\nsVimage_hash\np643\nV912dd7aff98eb3789d158268efa6ff3c\np644\nsVname\np645\nVAlways Travel In Style!\np646\nsVtitle\np647\nVAlways Travel In Style!\np648\nsVcreative_id\np649\nV6004073168765\np650\nsVpreview_url\np651\nVhttp://www.facebook.com/ads/api/creative_preview.php?cid=6004073168765\np652\nsVid\np653\nV6004073168765\np654\nsVimage_url\np655\nVhttps://fbcdn-creative-a.akamaihd.net/hads-ak-ash3/s110x80/708185_6006844915765_62961_n.jpg\np656\nsVcount_current_adgroups\np657\nI1\nsVrun_status\np658\nI1\nsVtype\np659\nI1\nsVlink_url\np660\nVhttp://www.buzzfeed.com/h1/fba/sailorjerryrum/cool-and-unusual-ways-to-travel-in-style\np661\nsVview_tag\np662\ng22\nsa(dp663\nValt_view_tags\np664\n(lp665\nsVbody\np666\nVCheck out what Nicolas Cage and other celebrities did to get out of debt in "Awesome Things Celebrities Have Done To Get Out Of Debt"\np667\nsVimage_hash\np668\nV9767371943e3908f2f1841e6d0be95fb\np669\nsVname\np670\nVDesperate Measures-01\np671\nsVtitle\np672\nVDesperate Measures\np673\nsVcreative_id\np674\nV6004073120365\np675\nsVpreview_url\np676\nVhttp://www.facebook.com/ads/api/creative_preview.php?cid=6004073120365\np677\nsVid\np678\nV6004073120365\np679\nsVimage_url\np680\nVhttps://fbcdn-creative-a.akamaihd.net/hads-ak-prn1/s110x80/708172_6006844953965_19587_n.jpg\np681\nsVcount_current_adgroups\np682\nI1\nsVrun_status\np683\nI1\nsVtype\np684\nI1\nsVlink_url\np685\nVhttp://www.buzzfeed.com/h1/fba/freecreditscore/awesome-things-celebrities-have-done-to-get-out-of-43xs\np686\nsVview_tag\np687\ng22\nsa(dp688\nValt_view_tags\np689\n(lp690\nsVbody\np691\nVCheck out these hilarious pranks by Zac Efron and other actors in Sailor Jerry\'s "10 Famous Pranksters" brought to you by BuzzFeed\np692\nsVimage_hash\np693\nVe112979331ed2ee22ba4c00dbb517fd7\np694\nsVname\np695\nV10 Famous Pranksters-04\np696\nsVtitle\np697\nV10 Famous Pranksters\np698\nsVcreative_id\np699\nV6004059757965\np700\nsVpreview_url\np701\nVhttp://www.facebook.com/ads/api/creative_preview.php?cid=6004059757965\np702\nsVid\np703\nV6004059757965\np704\nsVimage_url\np705\nVhttps://fbcdn-creative-a.akamaihd.net/hads-ak-ash3/s110x80/701894_6006845403365_11954_n.jpg\np706\nsVcount_current_adgroups\np707\nI1\nsVrun_status\np708\nI1\nsVtype\np709\nI1\nsVlink_url\np710\nVhttp://www.buzzfeed.com/h1/fba/sailorjerryrum/cool-and-unusual-ways-to-travel-in-style\np711\nsVview_tag\np712\ng22\nsa(dp713\nValt_view_tags\np714\n(lp715\nsVbody\np716\nVCheck out these hilarious pranks by Russell Brand and other actors in Sailor Jerry\'s "10 Famous Pranksters" brought to you by BuzzFeed\np717\nsVimage_hash\np718\nV87823993d03199a9ca9876011f1f6604\np719\nsVname\np720\nV10 Famous Pranksters-05\np721\nsVtitle\np722\nV10 Famous Pranksters\np723\nsVcreative_id\np724\nV6004059762765\np725\nsVpreview_url\np726\nVhttp://www.facebook.com/ads/api/creative_preview.php?cid=6004059762765\np727\nsVid\np728\nV6004059762765\np729\nsVimage_url\np730\nVhttps://fbcdn-creative-a.akamaihd.net/hads-ak-prn1/s110x80/708180_6006844858965_11535_n.jpg\np731\nsVcount_current_adgroups\np732\nI1\nsVrun_status\np733\nI1\nsVtype\np734\nI1\nsVlink_url\np735\nVhttp://www.buzzfeed.com/h1/fba/sailorjerryrum/cool-and-unusual-ways-to-travel-in-style\np736\nsVview_tag\np737\ng22\nsa(dp738\nValt_view_tags\np739\n(lp740\nsVbody\np741\nVCheck out these hilarious pranks by George Clooney and other actors in Sailor Jerry\'s "10 Famous Pranksters" brought to you by BuzzFeed\np742\nsVimage_hash\np743\nV8ba559ad6edf9f176047cbf8325b79dc\np744\nsVname\np745\nV10 Famous Pranksters-06\np746\nsVt'
p6
sS'hash'
p7
S'3a1a77a5784510883f0cba1804294fc29cead2c8'
p8
sS'stack'
p9
S''
s.