(dp1
S'args'
p2
S''
sS'methodname'
p3
S''
sS'packet_num'
p4
I43
sS'returnval'
p5
S' of Zen-00-00\np5546\nsVtitle\np5547\nVBranson Moment of Zen\np5548\nsVcreative_id\np5549\nV6005530563165\np5550\nsVpreview_url\np5551\nVhttp://www.facebook.com/ads/api/creative_preview.php?cid=6005530563165\np5552\nsVid\np5553\nV6005530563165\np5554\nsVimage_url\np5555\nVhttps://fbcdn-creative-a.akamaihd.net/hads-ak-ash3/s110x80/701898_6006845264365_35179_n.jpg\np5556\nsVcount_current_adgroups\np5557\nI1\nsVrun_status\np5558\nI1\nsVtype\np5559\nI1\nsVlink_url\np5560\nVhttp://www.buzzfeed.com/h1/fbad/virginmobilelive/inspirational-wisdom-from-an-outrageous-billionair-5l87\np5561\nsVview_tag\np5562\ng22\nsa(dp5563\nValt_view_tags\np5564\n(lp5565\nsVbody\np5566\nV"You only live once, and I just don\'t want to waste a minute of my life" - Richard Branson\np5567\nsVimage_hash\np5568\nV4d4d14e64202d70e694a1f12724ccb01\np5569\nsVname\np5570\nVBranson Moment of Zen-00\np5571\nsVtitle\np5572\nVBranson Moment of Zen\np5573\nsVcreative_id\np5574\nV6005530251165\np5575\nsVpreview_url\np5576\nVhttp://www.facebook.com/ads/api/creative_preview.php?cid=6005530251165\np5577\nsVid\np5578\nV6005530251165\np5579\nsVimage_url\np5580\nVhttps://fbcdn-creative-a.akamaihd.net/hads-ak-ash3/s110x80/701895_6006844526365_31924_n.jpg\np5581\nsVcount_current_adgroups\np5582\nI1\nsVrun_status\np5583\nI1\nsVtype\np5584\nI1\nsVlink_url\np5585\nVhttp://www.buzzfeed.com/h1/fbad/virginmobilelive/inspirational-wisdom-from-an-outrageous-billionair-5l87\np5586\nsVview_tag\np5587\ng22\nsa(dp5588\nValt_view_tags\np5589\n(lp5590\nsVbody\np5591\nVCheck out "10 Things We Wish Took Less Than 10 Seconds" Only on BuzzFeed!\np5592\nsVimage_hash\np5593\nVb86dcc1f229ffe4cc36945207a22643e\np5594\nsVname\np5595\nVI Can Haz Interwebz-00\np5596\nsVtitle\np5597\nVInterwebz Kitty!\np5598\nsVcreative_id\np5599\nV6005530141765\np5600\nsVpreview_url\np5601\nVhttp://www.facebook.com/ads/api/creative_preview.php?cid=6005530141765\np5602\nsVid\np5603\nV6005530141765\np5604\nsVimage_url\np5605\nVhttps://fbcdn-creative-a.akamaihd.net/hads-ak-prn1/s110x80/708169_6006845158165_47005_n.jpg\np5606\nsVcount_current_adgroups\np5607\nI2\nsVrun_status\np5608\nI1\nsVtype\np5609\nI1\nsVlink_url\np5610\nVhttp://www.buzzfeed.com/h1/fbad/samsungs9/10-things-we-wish-took-less-than-10-seconds-6g87\np5611\nsVview_tag\np5612\ng22\nsa(dp5613\nValt_view_tags\np5614\n(lp5615\nsVbody\np5616\nVJoin BuzzFeed\'s Ameowican Idol and find out just how cute? \np5617\nsVimage_hash\np5618\nVd763c0789f6ab3c8d21ac352ccd9a3f2\np5619\nsVname\np5620\nVDo you have a cute cat?\np5621\nsVtitle\np5622\nVDo you have a cute cat?\np5623\nsVcreative_id\np5624\nV6005536191765\np5625\nsVpreview_url\np5626\nVhttp://www.facebook.com/ads/api/creative_preview.php?cid=6005536191765\np5627\nsVid\np5628\nV6005536191765\np5629\nsVimage_url\np5630\nVhttps://fbcdn-creative-a.akamaihd.net/hads-ak-prn1/s110x80/708161_6006845339965_44187_n.jpg\np5631\nsVcount_current_adgroups\np5632\nI1\nsVrun_status\np5633\nI1\nsVtype\np5634\nI1\nsVlink_url\np5635\nVhttp://www.buzzfeed.com/ameowicanidol?utm_source=facebook&utm_medium=seed&utm_campaign=temptationscattreats\np5636\nsVview_tag\np5637\ng22\nsa(dp5638\nValt_view_tags\np5639\n(lp5640\nsVbody\np5641\nVCheck out "10 Things We Wish Took Less Than 10 Seconds" Only on BuzzFeed!\np5642\nsVimage_hash\np5643\nVb86dcc1f229ffe4cc36945207a22643e\np5644\nsVname\np5645\nVI Can Haz Interwebz\np5646\nsVtitle\np5647\nVI Can Haz Interwebz\np5648\nsVcreative_id\np5649\nV6005525389765\np5650\nsVpreview_url\np5651\nVhttp://www.facebook.com/ads/api/creative_preview.php?cid=6005525389765\np5652\nsVid\np5653\nV6005525389765\np5654\nsVimage_url\np5655\nVhttps://fbcdn-creative-a.akamaihd.net/hads-ak-prn1/s110x80/708169_6006845158165_47005_n.jpg\np5656\nsVcount_current_adgroups\np5657\nI3\nsVrun_status\np5658\nI1\nsVtype\np5659\nI1\nsVlink_url\np5660\nVhttp://www.buzzfeed.com/h1/fbad/samsungs9/10-things-we-wish-took-less-than-10-seconds-6g87\np5661\nsVview_tag\np5662\ng22\nsa(dp5663\nValt_view_tags\np5664\n(lp5665\nsVbody\np5666\nVCheck out these "9 People Totally Obsessed With Airplanes" only on BuzzFeed!\np5667\nsVimage_hash\np5668\nV55fdba72cf5af7267533ef4dabf3dc88\np5669\nsVname\np5670\nVThink your obessed?-00-00-00-00\np5671\nsVtitle\np5672\nVAwesome Airplane Art!\np5673\nsVcreative_id\np5674\nV6005513987165\np5675\nsVpreview_url\np5676\nVhttp://www.facebook.com/ads/api/creative_previ'
p6
sS'hash'
p7
S'3a1a77a5784510883f0cba1804294fc29cead2c8'
p8
sS'stack'
p9
S''
s.