(dp1
S'args'
p2
S''
sS'methodname'
p3
S''
sS'packet_num'
p4
I46
sS'returnval'
p5
S'\nsa(dp5938\nValt_view_tags\np5939\n(lp5940\nsVbody\np5941\nVHank Tate makes our list of best TV security guards. See the rest on BuzzFeed!\np5942\nsVimage_hash\np5943\nV1e67396d63a5bec03c1d975055ec6f03\np5944\nsVname\np5945\nVSmallville Fans!-00-00\np5946\nsVtitle\np5947\nVOffice Fans!\np5948\nsVcreative_id\np5949\nV6005487413365\np5950\nsVpreview_url\np5951\nVhttp://www.facebook.com/ads/api/creative_preview.php?cid=6005487413365\np5952\nsVid\np5953\nV6005487413365\np5954\nsVimage_url\np5955\nVhttps://fbcdn-creative-a.akamaihd.net/hads-ak-ash3/s110x80/701889_6006844238965_699_n.jpg\np5956\nsVcount_current_adgroups\np5957\nI1\nsVrun_status\np5958\nI1\nsVtype\np5959\nI1\nsVlink_url\np5960\nVhttp://www.buzzfeed.com/h1/fbad/smalltownsecurity/the-10-coolest-fictional-security-guards-6iyz\np5961\nsVview_tag\np5962\ng22\nsa(dp5963\nValt_view_tags\np5964\n(lp5965\nsVbody\np5966\nVMakes our list of best TV security guards. See the rest on BuzzFeed!\np5967\nsVimage_hash\np5968\nV9031dbef37997267b9ed33f17873aabe\np5969\nsVname\np5970\nVSmallville Fans!-00-00-00\np5971\nsVtitle\np5972\nVDavid Dunn - Unbreakable\np5973\nsVcreative_id\np5974\nV6005487436365\np5975\nsVpreview_url\np5976\nVhttp://www.facebook.com/ads/api/creative_preview.php?cid=6005487436365\np5977\nsVid\np5978\nV6005487436365\np5979\nsVimage_url\np5980\nVhttps://fbcdn-creative-a.akamaihd.net/hads-ak-ash3/s110x80/708189_6006844908365_26363_n.jpg\np5981\nsVcount_current_adgroups\np5982\nI1\nsVrun_status\np5983\nI1\nsVtype\np5984\nI1\nsVlink_url\np5985\nVhttp://www.buzzfeed.com/h1/fbad/smalltownsecurity/the-10-coolest-fictional-security-guards-6iyz\np5986\nsVview_tag\np5987\ng22\nsa(dp5988\nValt_view_tags\np5989\n(lp5990\nsVbody\np5991\nVCheck out these "15 Instagram Feeds That You Have To Follow" only on BuzzFeed!\\u000a\np5992\nsVimage_hash\np5993\nV50e496fc90779236e24e26f781ef88cc\np5994\nsVname\np5995\nVLove Instagram?\np5996\nsVtitle\np5997\nVLove Instagram?\np5998\nsVcreative_id\np5999\nV6005500811965\np6000\nsVpreview_url\np6001\nVhttp://www.facebook.com/ads/api/creative_preview.php?cid=6005500811965\np6002\nsVid\np6003\nV6005500811965\np6004\nsVimage_url\np6005\nVhttps://fbcdn-creative-a.akamaihd.net/hads-ak-prn1/s110x80/708195_6006844558165_3804_n.jpg\np6006\nsVcount_current_adgroups\np6007\nI2\nsVrun_status\np6008\nI1\nsVtype\np6009\nI1\nsVlink_url\np6010\nVhttp://www.buzzfeed.com/h1/fbad/cfm/15-instagram-feeds-that-you-have-to-follow-6rc8\np6011\nsVview_tag\np6012\ng22\nsa(dp6013\nValt_view_tags\np6014\n(lp6015\nsVbody\np6016\nVRead this. Serioulsy, it will help! \np6017\nsVimage_hash\np6018\nV59103ab990f756e8246b3e5696a51c0a\np6019\nsVname\np6020\nVCase of the Mondays?\np6021\nsVtitle\np6022\nVCase of the Mondays?\np6023\nsVcreative_id\np6024\nV6005500886165\np6025\nsVpreview_url\np6026\nVhttp://www.facebook.com/ads/api/creative_preview.php?cid=6005500886165\np6027\nsVid\np6028\nV6005500886165\np6029\nsVimage_url\np6030\nVhttps://fbcdn-creative-a.akamaihd.net/hads-ak-prn1/s110x80/708167_6006844601965_19927_n.jpg\np6031\nsVcount_current_adgroups\np6032\nI1\nsVrun_status\np6033\nI1\nsVtype\np6034\nI1\nsVlink_url\np6035\nVhttp://www.buzzfeed.com/h1/fbad/virginmobilelive/25-ways-the-internet-can-save-your-crappy-day-5l87\np6036\nsVview_tag\np6037\ng22\nsa(dp6038\nValt_view_tags\np6039\n(lp6040\nsVbody\np6041\nVwill? A. Hit someone and make you laugh or... B. Hit someone and make you cry laughing!\np6042\nsVimage_hash\np6043\nV6fce9c378093685f293f4d21ae2de416\np6044\nsVname\np6045\nVCase of the Mondays?-00\np6046\nsVtitle\np6047\nVThis giant yoga ball...\np6048\nsVcreative_id\np6049\nV6005500891765\np6050\nsVpreview_url\np6051\nVhttp://www.facebook.com/ads/api/creative_preview.php?cid=6005500891765\np6052\nsVid\np6053\nV6005500891765\np6054\nsVimage_url\np6055\nVhttps://fbcdn-creative-a.akamaihd.net/hads-ak-ash3/s110x80/701899_6006844727165_35364_n.jpg\np6056\nsVcount_current_adgroups\np6057\nI1\nsVrun_status\np6058\nI1\nsVtype\np6059\nI1\nsVlink_url\np6060\nVhttp://www.buzzfeed.com/h1/fbad/virginmobilelive/25-ways-the-internet-can-save-your-crappy-day-5l87\np6061\nsVview_tag\np6062\ng22\nsa(dp6063\nValt_view_tags\np6064\n(lp6065\nsVbody\np6066\nVSaul Goodman stands for "S\'all Good, Man". Get ready for season 5 with  BuzzFeed!\np6067\nsVimage_hash\np6068\nV0a5ccd7b8854fb195768a2a1269c4efc\np6069\nsVname\np6070\nVBetter Call Saul!-00-'
p6
sS'hash'
p7
S'3a1a77a5784510883f0cba1804294fc29cead2c8'
p8
sS'stack'
p9
S''
s.