(dp1
S'args'
p2
S''
sS'methodname'
p3
S''
sS'packet_num'
p4
I97
sS'returnval'
p5
S's-ak-ash3/s110x80/708195_6006844556165_12035_n.jpg\np12400\nsVcount_current_adgroups\np12401\nI1\nsVrun_status\np12402\nI1\nsVtype\np12403\nI2\nsVlink_url\np12404\nVhttp://www.facebook.com/BuzzFeedPartner?sk=wall\np12405\nsVview_tag\np12406\ng22\nsa(dp12407\nValt_view_tags\np12408\n(lp12409\nsVbody\np12410\nV"10 Awesome Vintage Tattoo Parlors From Around The Country" by BuzzFeed and Sailor Jerry give us 10 classic tattoo shops in the USA!\np12411\nsVimage_hash\np12412\nVf4140bf15dfa63675ba76aad236edefd\np12413\nsVname\np12414\nVVintage Tattoo Parlors!\np12415\nsVtitle\np12416\nVVintage Tattoo Parlors!\np12417\nsVcreative_id\np12418\nV6003971028965\np12419\nsVpreview_url\np12420\nVhttp://www.facebook.com/ads/api/creative_preview.php?cid=6003971028965\np12421\nsVid\np12422\nV6003971028965\np12423\nsVimage_url\np12424\nVhttps://fbcdn-creative-a.akamaihd.net/hads-ak-ash3/s110x80/701891_6006845525565_40939_n.jpg\np12425\nsVcount_current_adgroups\np12426\nI1\nsVrun_status\np12427\nI1\nsVtype\np12428\nI1\nsVlink_url\np12429\nVhttp://www.buzzfeed.com/h1/fba/sailorjerryrum/10-awesome-vintage-tattoo-parlors-from-around-the\np12430\nsVview_tag\np12431\ng22\nsa(dp12432\nValt_view_tags\np12433\n(lp12434\nsVbody\np12435\nV"10 Awesome Vintage Tattoo Parlors From Around The Country" by BuzzFeed and Sailor Jerry give us 10 classic tattoo shops in the USA!\np12436\nsVimage_hash\np12437\nVda00716c71a2fc274de4f268fbf5ff2a\np12438\nsVname\np12439\nVVintage Tattoo Parlors!-00\np12440\nsVtitle\np12441\nVVintage Tattoo Parlors!\np12442\nsVcreative_id\np12443\nV6003971033565\np12444\nsVpreview_url\np12445\nVhttp://www.facebook.com/ads/api/creative_preview.php?cid=6003971033565\np12446\nsVid\np12447\nV6003971033565\np12448\nsVimage_url\np12449\nVhttps://fbcdn-creative-a.akamaihd.net/hads-ak-ash3/s110x80/701906_6006845357165_27679_n.jpg\np12450\nsVcount_current_adgroups\np12451\nI1\nsVrun_status\np12452\nI1\nsVtype\np12453\nI1\nsVlink_url\np12454\nVhttp://www.buzzfeed.com/h1/fba/sailorjerryrum/10-awesome-vintage-tattoo-parlors-from-around-the\np12455\nsVview_tag\np12456\ng22\nsa(dp12457\nValt_view_tags\np12458\n(lp12459\nsVbody\np12460\nVHis scene in The Godfather made the list of "12 Iconic Death Scenes From Movies!" \np12461\nsVimage_hash\np12462\nVcd5ae9f678928674357ba3af9f85a358\np12463\nsVname\np12464\nVSamuel Jackson Gets Eaten-00\np12465\nsVtitle\np12466\nVSonny Getting Shot\np12467\nsVcreative_id\np12468\nV6007991645965\np12469\nsVpreview_url\np12470\nVhttp://www.facebook.com/ads/api/creative_preview.php?cid=6007991645965\np12471\nsVid\np12472\nV6007991645965\np12473\nsVimage_url\np12474\nVhttps://fbcdn-creative-a.akamaihd.net/hads-ak-prn1/s110x80/735336_6007991551565_30457_n.png\np12475\nsVcount_current_adgroups\np12476\nI1\nsVrun_status\np12477\nI1\nsVtype\np12478\nI1\nsVlink_url\np12479\nVhttp://clk.atdmt.com/ULA/go/431167357/direct/01/?href=http://www.buzzfeed.com/h1/fbad/sevenpsychopaths/12-iconic-death-scenes-from-movies-8rf6\np12480\nsVview_tag\np12481\ng22\nsa(dp12482\nValt_view_tags\np12483\n(lp12484\nsVbody\np12485\nVJust one of the "16 Creative Ways to Kill Time!" Check out the entire list on BuzzFeed!\np12486\nsVimage_hash\np12487\nV3ac2446126254b0df1975695ed7169ea\np12488\nsVname\np12489\nVHave A Picnic!\np12490\nsVtitle\np12491\nVHave A Picnic!\np12492\nsVcreative_id\np12493\nV6007986817365\np12494\nsVpreview_url\np12495\nVhttp://www.facebook.com/ads/api/creative_preview.php?cid=6007986817365\np12496\nsVid\np12497\nV6007986817365\np12498\nsVimage_url\np12499\nVhttps://fbcdn-creative-a.akamaihd.net/hads-ak-prn1/s110x80/735315_6007986814765_20963_n.jpg\np12500\nsVcount_current_adgroups\np12501\nI1\nsVrun_status\np12502\nI1\nsVtype\np12503\nI1\nsVlink_url\np12504\nVhttp://mm.sitecompass.com/BurstingPipe/adServer.bs?cn=tf&c=20&mc=click&pli=6099528&PluID=0&ord=%n&rtu=http://www.buzzfeed.com/h1/fbad/archetypeme/16-creative-ways-to-kill-time\np12505\nsVview_tag\np12506\ng22\nsa(dp12507\nValt_view_tags\np12508\n(lp12509\nsVbody\np12510\nVCheck out "Classic Literature, Reimagined For The Smartphone Era" on BuzzFeed!\np12511\nsVimage_hash\np12512\nV7675ff3262b5ea38b667c101f0a4e3eb\np12513\nsVname\np12514\nVInstagram Of Dorian Gray\np12515\nsVtitle\np12516\nVInstagram Of Dorian Gray\np12517\nsVcreative_id\np12518\nV6007873237165\np12519\nsVpreview_url\np12520\nVhttp://www.facebook.co'
p6
sS'hash'
p7
S'3a1a77a5784510883f0cba1804294fc29cead2c8'
p8
sS'stack'
p9
S''
s.