(dp1
S'args'
p2
S''
sS'methodname'
p3
S''
sS'packet_num'
p4
I167
sS'returnval'
p5
S't up-and-coming bands who are currently rocking the scene!\np21134\nsVimage_hash\np21135\nVdac056eb9a8192e85b43cd2de1cf18b8\np21136\nsVname\np21137\nVCheck Out 5 New Bands!-02\np21138\nsVtitle\np21139\nVCheck Out 5 New Bands!\np21140\nsVcreative_id\np21141\nV6003856956765\np21142\nsVpreview_url\np21143\nVhttp://www.facebook.com/ads/api/creative_preview.php?cid=6003856956765\np21144\nsVid\np21145\nV6003856956765\np21146\nsVimage_url\np21147\nVhttps://fbcdn-creative-a.akamaihd.net/hads-ak-ash3/s110x80/701906_6006845359965_24734_n.jpg\np21148\nsVcount_current_adgroups\np21149\nI0\nsVrun_status\np21150\nI1\nsVtype\np21151\nI1\nsVlink_url\np21152\nVhttp://t.cpmadvisors.com/click?cr=7518&bl=1000001319&sl=4750&se=1&pu=151559&v=214748360&ci=blank&so=facebook&prc=1.00&verbdir=http://www.buzzfeed.com/ht/sailorjerryrum/5-up-and-coming-bands-you-have-to-hear/HFB1515591\np21153\nsVview_tag\np21154\ng22\nsa(dp21155\nValt_view_tags\np21156\n(lp21157\nsVbody\np21158\nVSupport those who live life for their passion! Check out some of the coolest up-and-coming bands who are currently rocking the scene!\np21159\nsVimage_hash\np21160\nVdac056eb9a8192e85b43cd2de1cf18b8\np21161\nsVname\np21162\nVNew Must Listen To Bands!-02\np21163\nsVtitle\np21164\nVNew Must Listen To Bands!\np21165\nsVcreative_id\np21166\nV6003856960165\np21167\nsVpreview_url\np21168\nVhttp://www.facebook.com/ads/api/creative_preview.php?cid=6003856960165\np21169\nsVid\np21170\nV6003856960165\np21171\nsVimage_url\np21172\nVhttps://fbcdn-creative-a.akamaihd.net/hads-ak-ash3/s110x80/701906_6006845359965_24734_n.jpg\np21173\nsVcount_current_adgroups\np21174\nI0\nsVrun_status\np21175\nI1\nsVtype\np21176\nI1\nsVlink_url\np21177\nVhttp://t.cpmadvisors.com/click?cr=7518&bl=1000001319&sl=4750&se=1&pu=151562&v=214748360&ci=blank&so=facebook&prc=1.00&verbdir=http://www.buzzfeed.com/ht/sailorjerryrum/5-up-and-coming-bands-you-have-to-hear/HFB1515621\np21178\nsVview_tag\np21179\ng22\nsa(dp21180\nValt_view_tags\np21181\n(lp21182\nsVbody\np21183\nVWant to save money on a vacation? Hostels are a great option. Check out the best hostels to stay at when you travel around the world!\np21184\nsVimage_hash\np21185\nV67ab91b1b9b2a1e8a3790da455bd8412\np21186\nsVname\np21187\nVHostels Save You Money!\np21188\nsVtitle\np21189\nVHostels Save You Money!\np21190\nsVcreative_id\np21191\nV6003854299365\np21192\nsVpreview_url\np21193\nVhttp://www.facebook.com/ads/api/creative_preview.php?cid=6003854299365\np21194\nsVid\np21195\nV6003854299365\np21196\nsVimage_url\np21197\nVhttps://fbcdn-creative-a.akamaihd.net/hads-ak-prn1/s110x80/708186_6006844677965_52399_n.jpg\np21198\nsVcount_current_adgroups\np21199\nI0\nsVrun_status\np21200\nI1\nsVtype\np21201\nI1\nsVlink_url\np21202\nVhttp://t.cpmadvisors.com/click?cr=7488&bl=1000001319&sl=4734&se=1&pu=151217&v=214748360&ci=blank&so=facebook&prc=1.00&verbdir=http://www.buzzfeed.com/ht/capitalone/the-best-hostels-to-stay-in-when-you-travel-around/HFB1512171\np21203\nsVview_tag\np21204\ng22\nsa(dp21205\nValt_view_tags\np21206\n(lp21207\nsVbody\np21208\nVWant to save money on a vacation? Hostels are a great option. Check out the best hostels to stay at when you travel around the world!\np21209\nsVimage_hash\np21210\nV9102dbf29cd67e9ff1d5cf92df154778\np21211\nsVname\np21212\nVBest Hostels To Stay At!\np21213\nsVtitle\np21214\nVBest Hostels To Stay At!\np21215\nsVcreative_id\np21216\nV6003854301165\np21217\nsVpreview_url\np21218\nVhttp://www.facebook.com/ads/api/creative_preview.php?cid=6003854301165\np21219\nsVid\np21220\nV6003854301165\np21221\nsVimage_url\np21222\nVhttps://fbcdn-creative-a.akamaihd.net/hads-ak-prn1/s110x80/708185_6006844915365_46500_n.jpg\np21223\nsVcount_current_adgroups\np21224\nI0\nsVrun_status\np21225\nI1\nsVtype\np21226\nI1\nsVlink_url\np21227\nVhttp://t.cpmadvisors.com/click?cr=7489&bl=1000001319&sl=4734&se=1&pu=151219&v=214748360&ci=blank&so=facebook&prc=1.00&verbdir=http://www.buzzfeed.com/ht/capitalone/the-best-hostels-to-stay-in-when-you-travel-around/HFB1512191\np21228\nsVview_tag\np21229\ng22\nsa(dp21230\nValt_view_tags\np21231\n(lp21232\nsVbody\np21233\nVSave money by checking out "The Best Hostels To Stay In When You Travel Around The World" - brought to you by BuzzFeed and Capital One!\np21234\nsVimage_hash\np21235\nV67ab91b1b9b2a1e8a3790da45'
p6
sS'hash'
p7
S'3a1a77a5784510883f0cba1804294fc29cead2c8'
p8
sS'stack'
p9
S''
s.