(dp1
S'args'
p2
S''
sS'methodname'
p3
S''
sS'packet_num'
p4
I32
sS'returnval'
p5
S'p4094\nsVname\np4095\nVTake a deep breath...-01\np4096\nsVtitle\np4097\nVTake a Deep Breath...\np4098\nsVcreative_id\np4099\nV6005624029765\np4100\nsVpreview_url\np4101\nVhttp://www.facebook.com/ads/api/creative_preview.php?cid=6005624029765\np4102\nsVid\np4103\nV6005624029765\np4104\nsVimage_url\np4105\nVhttps://fbcdn-creative-a.akamaihd.net/hads-ak-ash3/s110x80/701896_6006845012565_47894_n.jpg\np4106\nsVcount_current_adgroups\np4107\nI2\nsVrun_status\np4108\nI1\nsVtype\np4109\nI1\nsVlink_url\np4110\nVhttp://www.buzzfeed.com/h1/fbad/redstripe/14-reasons-why-you-should-celebrate-today-6phl\np4111\nsVview_tag\np4112\ng22\nsa(dp4113\nValt_view_tags\np4114\n(lp4115\nsVbody\np4116\nVLearn more about "The DOs And DON\'Ts Of Photosharing." Only on Buzzfeed!\np4117\nsVimage_hash\np4118\nV9ca472d711a7b315874410dda9f8e219\np4119\nsVname\np4120\nVNice Titanic Costume, Bro\np4121\nsVtitle\np4122\nVNice Titanic Costume, Bro\np4123\nsVcreative_id\np4124\nV6005622304165\np4125\nsVpreview_url\np4126\nVhttp://www.facebook.com/ads/api/creative_preview.php?cid=6005622304165\np4127\nsVid\np4128\nV6005622304165\np4129\nsVimage_url\np4130\nVhttps://fbcdn-creative-a.akamaihd.net/hads-ak-ash3/s110x80/708195_6006844986965_5102_n.jpg\np4131\nsVcount_current_adgroups\np4132\nI2\nsVrun_status\np4133\nI1\nsVtype\np4134\nI1\nsVlink_url\np4135\nVhttp://www.buzzfeed.com/h1/fbad/tmobile/the-dos-and-donts-of-photosharing\np4136\nsVview_tag\np4137\ng22\nsa(dp4138\nValt_view_tags\np4139\n(lp4140\nsVbody\np4141\nVAn 11-Year-Old Invented The Popsicle? Check out 15 Fun Food Facts on BuzzFeed!\np4142\nsVimage_hash\np4143\nV22360df8a957405554d828639fa33f48\np4144\nsVname\np4145\nVDid you know?-09-01\np4146\nsVtitle\np4147\nVDid you know?\np4148\nsVcreative_id\np4149\nV6005627492165\np4150\nsVpreview_url\np4151\nVhttp://www.facebook.com/ads/api/creative_preview.php?cid=6005627492165\np4152\nsVid\np4153\nV6005627492165\np4154\nsVimage_url\np4155\nVhttps://fbcdn-creative-a.akamaihd.net/hads-ak-ash3/s110x80/708180_6006844264965_18587_n.jpg\np4156\nsVcount_current_adgroups\np4157\nI1\nsVrun_status\np4158\nI1\nsVtype\np4159\nI1\nsVlink_url\np4160\nVhttp://www.buzzfeed.com/h1/fbad/mcdonalds/15-things-you-didnt-know-about-your-favorite-food\np4161\nsVview_tag\np4162\ng22\nsa(dp4163\nValt_view_tags\np4164\n(lp4165\nsVbody\np4166\nVWhy are they called Hershey\'s "Kisses?" Check out 15 Fun Food Facts on BuzzFeed!\np4167\nsVimage_hash\np4168\nV100b32dd07bc72546312b0eb746ed5e6\np4169\nsVname\np4170\nVDid you know?-09-01-00\np4171\nsVtitle\np4172\nVDid you know?\np4173\nsVcreative_id\np4174\nV6005627500765\np4175\nsVpreview_url\np4176\nVhttp://www.facebook.com/ads/api/creative_preview.php?cid=6005627500765\np4177\nsVid\np4178\nV6005627500765\np4179\nsVimage_url\np4180\nVhttps://fbcdn-creative-a.akamaihd.net/hads-ak-ash3/s110x80/708185_6006844147365_32484_n.jpg\np4181\nsVcount_current_adgroups\np4182\nI1\nsVrun_status\np4183\nI1\nsVtype\np4184\nI1\nsVlink_url\np4185\nVhttp://www.buzzfeed.com/h1/fbad/mcdonalds/15-things-you-didnt-know-about-your-favorite-food\np4186\nsVview_tag\np4187\ng22\nsa(dp4188\nValt_view_tags\np4189\n(lp4190\nsVbody\np4191\nVIt Takes About 250 Licks To Get To The Center Of A Tootsie Pop!\np4192\nsVimage_hash\np4193\nVf054c96a5cb460ca22fe060d1dcefe4d\np4194\nsVname\np4195\nVDid you know?-09\np4196\nsVtitle\np4197\nVDid you know?\np4198\nsVcreative_id\np4199\nV6005615505965\np4200\nsVpreview_url\np4201\nVhttp://www.facebook.com/ads/api/creative_preview.php?cid=6005615505965\np4202\nsVid\np4203\nV6005615505965\np4204\nsVimage_url\np4205\nVhttps://fbcdn-creative-a.akamaihd.net/hads-ak-ash3/s110x80/708178_6006845507365_502_n.jpg\np4206\nsVcount_current_adgroups\np4207\nI1\nsVrun_status\np4208\nI1\nsVtype\np4209\nI1\nsVlink_url\np4210\nVhttp://www.buzzfeed.com/h1/fbad/mcdonalds/15-things-you-didnt-know-about-your-favorite-food\np4211\nsVview_tag\np4212\ng22\nsa(dp4213\nValt_view_tags\np4214\n(lp4215\nsVbody\np4216\nVYou Can Get Addicted To Vanilla! See this an more fun facst on BuzzFeed.\np4217\nsVimage_hash\np4218\nVe94c58c6c107fd3538172591fe5ad11a\np4219\nsVname\np4220\nVDid you know?-09-00\np4221\nsVtitle\np4222\nVDid you know?\np4223\nsVcreative_id\np4224\nV6005622185565\np4225\nsVpreview_url\np4226\nVhttp://www.facebook.com/ads/api/creative_preview.php?cid=6005622185565\np4227\nsVid\np4228\nV6005622185565\np4229\nsVimage_url\np4230'
p6
sS'hash'
p7
S'3a1a77a5784510883f0cba1804294fc29cead2c8'
p8
sS'stack'
p9
S''
s.