(dp1
S'args'
p2
S''
sS'methodname'
p3
S''
sS'packet_num'
p4
I132
sS'returnval'
p5
S't these "20 Adorable Dogs Looking For Love" on BuzzFeed!\np16869\nsVimage_hash\np16870\nV67f41db76835a399449243328bcd66f2\np16871\nsVname\np16872\nVIsn\'t He Precious?-00\np16873\nsVtitle\np16874\nVIsn\'t She Precious?\np16875\nsVcreative_id\np16876\nV6006077818165\np16877\nsVpreview_url\np16878\nVhttp://www.facebook.com/ads/api/creative_preview.php?cid=6006077818165\np16879\nsVid\np16880\nV6006077818165\np16881\nsVimage_url\np16882\nVhttps://fbcdn-creative-a.akamaihd.net/hads-ak-prn1/s110x80/708186_6006844679165_47681_n.jpg\np16883\nsVcount_current_adgroups\np16884\nI0\nsVrun_status\np16885\nI1\nsVtype\np16886\nI1\nsVlink_url\np16887\nVhttp://www.buzzfeed.com/h1/fbad/pedigree/20-adorable-dogs-looking-for-love\np16888\nsVview_tag\np16889\ng22\nsa(dp16890\nValt_view_tags\np16891\n(lp16892\nsVbody\np16893\nVHe made the list of "13 Animals Who Know It\'s Business Time." Check out the rest here!\np16894\nsVimage_hash\np16895\nV2c1f5fd4dbb867eddf8b51285fdc71c1\np16896\nsVname\np16897\nVLawyer Dog\np16898\nsVtitle\np16899\nVLawyer Dog\np16900\nsVcreative_id\np16901\nV6005954940365\np16902\nsVpreview_url\np16903\nVhttp://www.facebook.com/ads/api/creative_preview.php?cid=6005954940365\np16904\nsVid\np16905\nV6005954940365\np16906\nsVimage_url\np16907\nVhttps://fbcdn-creative-a.akamaihd.net/hads-ak-prn1/s110x80/708181_6006844316365_64723_n.jpg\np16908\nsVcount_current_adgroups\np16909\nI1\nsVrun_status\np16910\nI1\nsVtype\np16911\nI1\nsVlink_url\np16912\nVhttp://www.buzzfeed.com/h1/fbad/marriott/13-animals-who-know-its-business-time-7bu6\np16913\nsVview_tag\np16914\ng22\nsa(dp16915\nValt_view_tags\np16916\n(lp16917\nsVbody\np16918\nVCatchy tune in your head? Check out our top chart Rdio playlist on BuzzFeed!\np16919\nsVimage_hash\np16920\nV217cdf32f0d987ce197a81a369557d7b\np16921\nsVname\np16922\nVWant to Listen to a Hit?\np16923\nsVtitle\np16924\nVWant to Listen to a Hit?\np16925\nsVcreative_id\np16926\nV6006078453365\np16927\nsVpreview_url\np16928\nVhttp://www.facebook.com/ads/api/creative_preview.php?cid=6006078453365\np16929\nsVid\np16930\nV6006078453365\np16931\nsVimage_url\np16932\nVhttps://fbcdn-creative-a.akamaihd.net/hads-ak-ash3/s110x80/708180_6006844261965_3035_n.jpg\np16933\nsVcount_current_adgroups\np16934\nI4\nsVrun_status\np16935\nI1\nsVtype\np16936\nI1\nsVlink_url\np16937\nVhttp://www.buzzfeed.com/h1/fbad/buzzfeedmusicpartner/you-wanted-a-hit-7p85\np16938\nsVview_tag\np16939\ng22\nsa(dp16940\nValt_view_tags\np16941\n(lp16942\nsVbody\np16943\nVCheck out "Classic Children\'s Books In 9 Words Or Less" on BuzzFeed!\np16944\nsVimage_hash\np16945\nV15de3b7a8f25db5c546bc4f0a7d0adeb\np16946\nsVname\np16947\nVAl Gore Was Right!\np16948\nsVtitle\np16949\nVAl Gore Was Right!\np16950\nsVcreative_id\np16951\nV6006104390365\np16952\nsVpreview_url\np16953\nVhttp://www.facebook.com/ads/api/creative_preview.php?cid=6006104390365\np16954\nsVid\np16955\nV6006104390365\np16956\nsVimage_url\np16957\nVhttps://fbcdn-creative-a.akamaihd.net/hads-ak-prn1/s110x80/708166_6006844190165_26964_n.png\np16958\nsVcount_current_adgroups\np16959\nI0\nsVrun_status\np16960\nI1\nsVtype\np16961\nI1\nsVlink_url\np16962\nVhttp://www.buzzfeed.com/h1/fbad/nickmom/classic-childrens-books-in-9-words-or-less\np16963\nsVview_tag\np16964\ng22\nsa(dp16965\nValt_view_tags\np16966\n(lp16967\nsVbody\np16968\nVCan only find it by rewinding past album\'s earliest point. See more hidden stuff in music!\np16969\nsVimage_hash\np16970\nVb17cbbb4456d8863be5b83cc8dbbba65\np16971\nsVname\np16972\nVHidden Kanye Track?\np16973\nsVtitle\np16974\nVHidden Kanye Track?\np16975\nsVcreative_id\np16976\nV6006055162565\np16977\nsVpreview_url\np16978\nVhttp://www.facebook.com/ads/api/creative_preview.php?cid=6006055162565\np16979\nsVid\np16980\nV6006055162565\np16981\nsVimage_url\np16982\nVhttps://fbcdn-creative-a.akamaihd.net/hads-ak-ash3/s110x80/701894_6006845120765_8795_n.jpg\np16983\nsVcount_current_adgroups\np16984\nI0\nsVrun_status\np16985\nI1\nsVtype\np16986\nI1\nsVlink_url\np16987\nVhttp://www.buzzfeed.com/h1/fbad/beatsbydre/9-hidden-songs-and-messages-in-music-that-you-prob-7jsw\np16988\nsVview_tag\np16989\ng22\nsa(dp16990\nValt_view_tags\np16991\n(lp16992\nsVbody\np16993\nVIf you like this, then check out more of the "15 Animals Who Are Behaving Like People!"\np16994\nsVimage_hash\np16995\nVdd1d79de70e411e1d3cad34f0b357b46\np16996\nsVname\np'
p6
sS'hash'
p7
S'3a1a77a5784510883f0cba1804294fc29cead2c8'
p8
sS'stack'
p9
S''
s.