(dp1
S'args'
p2
S''
sS'methodname'
p3
S''
sS'packet_num'
p4
I153
sS'returnval'
p5
S'546\np19486\nsVname\np19487\nVBad Drivers Are The Worst-02\np19488\nsVtitle\np19489\nVBad Drivers Are The Worst\np19490\nsVcreative_id\np19491\nV6003899487765\np19492\nsVpreview_url\np19493\nVhttp://www.facebook.com/ads/api/creative_preview.php?cid=6003899487765\np19494\nsVid\np19495\nV6003899487765\np19496\nsVimage_url\np19497\nVhttps://fbcdn-creative-a.akamaihd.net/hads-ak-ash3/s110x80/708199_6006845035565_1901_n.jpg\np19498\nsVcount_current_adgroups\np19499\nI0\nsVrun_status\np19500\nI1\nsVtype\np19501\nI1\nsVlink_url\np19502\nVhttp://www.buzzfeed.com/ht/mentos/8-incredible-traffic-close-calls/HFBA1\np19503\nsVview_tag\np19504\ng22\nsa(dp19505\nValt_view_tags\np19506\n(lp19507\nsVbody\np19508\nVCheck out Tony Plush aka Tony Gumbo aka Tony Tombstone in "The Best Nyjer Morgan Post-Game Interviews" by MLB and BuzzFeed!\np19509\nsVimage_hash\np19510\nVcc78f073c58c5ca6d0b9a6cac79e893b\np19511\nsVname\np19512\nVNyjer Morgan "Tony Plush"\np19513\nsVtitle\np19514\nVNyjer Morgan "Tony Plush"\np19515\nsVcreative_id\np19516\nV6003908645565\np19517\nsVpreview_url\np19518\nVhttp://www.facebook.com/ads/api/creative_preview.php?cid=6003908645565\np19519\nsVid\np19520\nV6003908645565\np19521\nsVimage_url\np19522\nVhttps://fbcdn-creative-a.akamaihd.net/hads-ak-ash3/s110x80/701894_6006845279565_36208_n.jpg\np19523\nsVcount_current_adgroups\np19524\nI0\nsVrun_status\np19525\nI1\nsVtype\np19526\nI1\nsVlink_url\np19527\nVhttp://www.buzzfeed.com/ht/mlb/the-best-nyjer-morgan-aka-tony-plush-post-game-i/HFBA1HFBA2\np19528\nsVview_tag\np19529\ng22\nsa(dp19530\nValt_view_tags\np19531\n(lp19532\nsVbody\np19533\nVCheck out Tony Plush aka Tony Gumbo aka Tony Tombstone in "The Best Nyjer Morgan Post-Game Interviews" by MLB and BuzzFeed!\np19534\nsVimage_hash\np19535\nV09a928f1db677f688c94876fd4cea591\np19536\nsVname\np19537\nVNyjer Morgan "Tony Plush"-00\np19538\nsVtitle\np19539\nVNyjer Morgan "Tony Plush"\np19540\nsVcreative_id\np19541\nV6003908647365\np19542\nsVpreview_url\np19543\nVhttp://www.facebook.com/ads/api/creative_preview.php?cid=6003908647365\np19544\nsVid\np19545\nV6003908647365\np19546\nsVimage_url\np19547\nVhttps://fbcdn-creative-a.akamaihd.net/hads-ak-ash3/s110x80/701897_6006844103365_11450_n.jpg\np19548\nsVcount_current_adgroups\np19549\nI0\nsVrun_status\np19550\nI1\nsVtype\np19551\nI1\nsVlink_url\np19552\nVhttp://www.buzzfeed.com/ht/mlb/the-best-nyjer-morgan-aka-tony-plush-post-game-i/HFBA1HFBA2\np19553\nsVview_tag\np19554\ng22\nsa(dp19555\nValt_view_tags\np19556\n(lp19557\nsVbody\np19558\nVWant to know how an MLB pro spends his post season? Check out "Robinson Cano\'s Postseason Preparation: Stickball" by BuzzFeed and MLB!\np19559\nsVimage_hash\np19560\nVe59095b87ca8f66b307c937ff3f73238\np19561\nsVname\np19562\nVRobinson Cano Post Season\np19563\nsVtitle\np19564\nVRobinson Cano Post Season\np19565\nsVcreative_id\np19566\nV6003873819165\np19567\nsVpreview_url\np19568\nVhttp://www.facebook.com/ads/api/creative_preview.php?cid=6003873819165\np19569\nsVid\np19570\nV6003873819165\np19571\nsVimage_url\np19572\nVhttps://fbcdn-creative-a.akamaihd.net/hads-ak-ash3/s110x80/708206_6006845437965_10466_n.jpg\np19573\nsVcount_current_adgroups\np19574\nI0\nsVrun_status\np19575\nI1\nsVtype\np19576\nI1\nsVlink_url\np19577\nVhttp://www.buzzfeed.com/ht/mlb/robinson-canos-postseason-preparation-stickball/HFBA1\np19578\nsVview_tag\np19579\ng22\nsa(dp19580\nValt_view_tags\np19581\n(lp19582\nsVbody\np19583\nVWant to know how an MLB pro spends his post season? Check out "Robinson Cano\'s Postseason Preparation: Stickball" by BuzzFeed and MLB!\np19584\nsVimage_hash\np19585\nV773f68c7bc980b5a6e577eac991d1f61\np19586\nsVname\np19587\nVRobinson Cano Post Season-00\np19588\nsVtitle\np19589\nVRobinson Cano Post Season\np19590\nsVcreative_id\np19591\nV6003873821765\np19592\nsVpreview_url\np19593\nVhttp://www.facebook.com/ads/api/creative_preview.php?cid=6003873821765\np19594\nsVid\np19595\nV6003873821765\np19596\nsVimage_url\np19597\nVhttps://fbcdn-creative-a.akamaihd.net/hads-ak-ash3/s110x80/701899_6006844771565_63540_n.jpg\np19598\nsVcount_current_adgroups\np19599\nI0\nsVrun_status\np19600\nI1\nsVtype\np19601\nI1\nsVlink_url\np19602\nVhttp://www.buzzfeed.com/ht/mlb/robinson-canos-postseason-preparation-stickball/HFBA1\np19603\nsVview_tag\np19604\ng22\nsa(dp19605\nValt_view_tags\np19606\n(lp19607\nsVbody\np1960'
p6
sS'hash'
p7
S'3a1a77a5784510883f0cba1804294fc29cead2c8'
p8
sS'stack'
p9
S''
s.