(dp1
S'args'
p2
S''
sS'methodname'
p3
S''
sS'packet_num'
p4
I102
sS'returnval'
p5
S'ds-ak-ash3/s110x80/735361_6007484075165_43142_n.jpg\np13007\nsVcount_current_adgroups\np13008\nI2\nsVrun_status\np13009\nI1\nsVtype\np13010\nI1\nsVlink_url\np13011\nVhttp://ad.doubleclick.net/clk;266799255;92776664;l\np13012\nsVview_tag\np13013\ng22\nsa(dp13014\nValt_view_tags\np13015\n(lp13016\nsVbody\np13017\nVFind Out What your Instagram Filter Says About You - Only on BuzzFeed!\\u000a\np13018\nsVimage_hash\np13019\nV09ad02180b82caa25777ba67884da851\np13020\nsVname\np13021\nVInstagram Filter Test?-00-00\np13022\nsVtitle\np13023\nVYour Instagram Type\np13024\nsVcreative_id\np13025\nV6007484098565\np13026\nsVpreview_url\np13027\nVhttp://www.facebook.com/ads/api/creative_preview.php?cid=6007484098565\np13028\nsVid\np13029\nV6007484098565\np13030\nsVimage_url\np13031\nVhttps://fbcdn-creative-a.akamaihd.net/hads-ak-prn1/s110x80/735356_6007484093365_56969_n.jpg\np13032\nsVcount_current_adgroups\np13033\nI1\nsVrun_status\np13034\nI1\nsVtype\np13035\nI1\nsVlink_url\np13036\nVhttp://ad.doubleclick.net/clk;266799255;92776664;l\np13037\nsVview_tag\np13038\ng22\nsa(dp13039\nValt_view_tags\np13040\n(lp13041\nsVbody\np13042\nVWell don\'t! Stay calm and look at the "13 Times When It\'s Okay To Freak Out" on BuzzFeed!\np13043\nsVimage_hash\np13044\nV26945861da22799a139966c23337a1bb\np13045\nsVname\np13046\nVAre You Freaking Out?\np13047\nsVtitle\np13048\nVAre You Freaking Out?\np13049\nsVcreative_id\np13050\nV6007602437165\np13051\nsVpreview_url\np13052\nVhttp://www.facebook.com/ads/api/creative_preview.php?cid=6007602437165\np13053\nsVid\np13054\nV6007602437165\np13055\nsVimage_url\np13056\nVhttps://fbcdn-creative-a.akamaihd.net/hads-ak-prn1/s110x80/735341_6007602355165_3230_n.jpg\np13057\nsVcount_current_adgroups\np13058\nI1\nsVrun_status\np13059\nI1\nsVtype\np13060\nI1\nsVlink_url\np13061\nVhttp://ad.doubleclick.net/clk;266543194;92810455;n?http://www.buzzfeed.com/h1/fbad/syfy/13-times-when-its-okay-to-freak-out-6wms\np13062\nsVview_tag\np13063\ng22\nsa(dp13064\nValt_view_tags\np13065\n(lp13066\nsVbody\np13067\nVWhat do our undies say about our personalities? See What Your Lingerie Says About You!\np13068\nsVimage_hash\np13069\nVdfc6a8309f0aa674ee86995f7c8fc1cd\np13070\nsVname\np13071\nVTake the Lingerie Quiz!-00\np13072\nsVtitle\np13073\nVTake the Lingerie Quiz!\np13074\nsVcreative_id\np13075\nV6007594143965\np13076\nsVpreview_url\np13077\nVhttp://www.facebook.com/ads/api/creative_preview.php?cid=6007594143965\np13078\nsVid\np13079\nV6007594143965\np13080\nsVimage_url\np13081\nVhttps://fbcdn-creative-a.akamaihd.net/hads-ak-ash3/s110x80/735308_6007594141765_63046_n.jpg\np13082\nsVcount_current_adgroups\np13083\nI1\nsVrun_status\np13084\nI1\nsVtype\np13085\nI1\nsVlink_url\np13086\nVhttp://www.buzzfeed.com/h1/fbad/doubledivas/what-does-your-lingerie-say-about-you-8edm\np13087\nsVview_tag\np13088\ng22\nsa(dp13089\nVname\np13090\nVSponsored story #6,007,532,630,965\np13091\nsVcreative_id\np13092\nV6007532630965\np13093\nsVpreview_url\np13094\nVhttp://www.facebook.com/ads/api/creative_preview.php?cid=6007532630965\np13095\nsVobject_id\np13096\nV238205562866018\np13097\nsVaction_spec\np13098\n(lp13099\n(dp13100\nVpost\np13101\nV270600369732082\np13102\nsVaction.type\np13103\nVlike\np13104\nsa(dp13105\nVpost\np13106\nV270600369732082\np13107\nsVaction.type\np13108\nVcomment\np13109\nsa(dp13110\nVpost.object\np13111\nV270600369732082\np13112\nsVaction.type\np13113\nVpost\np13114\nsasVcluster_id\np13115\nI6007532627165\nsVcount_current_adgroups\np13116\nI1\nsVrun_status\np13117\nI1\nsVtype\np13118\nI25\nsVid\np13119\nV6007532630965\np13120\nsa(dp13121\nValt_view_tags\np13122\n(lp13123\nsVbody\np13124\nVJust One of the "10 Small Fictional Cities w/Big Problems" - See them all on BuzzFeed!\np13125\nsVimage_hash\np13126\nV961d08b53f691ede8b7e98c6487ee872\np13127\nsVname\np13128\nVSilent Hill\np13129\nsVtitle\np13130\nVSilent Hill\np13131\nsVcreative_id\np13132\nV6007597181565\np13133\nsVpreview_url\np13134\nVhttp://www.facebook.com/ads/api/creative_preview.php?cid=6007597181565\np13135\nsVid\np13136\nV6007597181565\np13137\nsVimage_url\np13138\nVhttps://fbcdn-creative-a.akamaihd.net/hads-ak-prn1/s110x80/735336_6007597142765_2227_n.jpg\np13139\nsVcount_current_adgroups\np13140\nI0\nsVrun_status\np13141\nI1\nsVtype\np13142\nI1\nsVlink_url\np13143\nVhttp://www.buzzfeed.com/h1/fbad/banshee/10-small-fictional-cities-with-big-fic'
p6
sS'hash'
p7
S'3a1a77a5784510883f0cba1804294fc29cead2c8'
p8
sS'stack'
p9
S''
s.