(dp1
S'args'
p2
S''
sS'methodname'
p3
S''
sS'packet_num'
p4
I15
sS'returnval'
p5
S'\np1876\nVhttp://www.facebook.com/ads/api/creative_preview.php?cid=6005823873765\np1877\nsVid\np1878\nV6005823873765\np1879\nsVimage_url\np1880\nVhttps://fbcdn-creative-a.akamaihd.net/hads-ak-ash3/s110x80/708171_6006845273965_52551_n.jpg\np1881\nsVcount_current_adgroups\np1882\nI1\nsVrun_status\np1883\nI1\nsVtype\np1884\nI1\nsVlink_url\np1885\nVhttp://www.buzzfeed.com/h1/fbad/furby/18-of-your-favorite-toys-from-the-90s\np1886\nsVview_tag\np1887\ng22\nsa(dp1888\nValt_view_tags\np1889\n(lp1890\nsVbody\np1891\nVThink this is crazy? Check out more incredible pictures you won\'t believe!\np1892\nsVimage_hash\np1893\nV4be2efe042ee0f3c28895f3b3b181cf4\np1894\nsVname\np1895\nVMartian Landscape\np1896\nsVtitle\np1897\nVMartian Landscape\np1898\nsVcreative_id\np1899\nV6005823941565\np1900\nsVpreview_url\np1901\nVhttp://www.facebook.com/ads/api/creative_preview.php?cid=6005823941565\np1902\nsVid\np1903\nV6005823941565\np1904\nsVimage_url\np1905\nVhttps://fbcdn-creative-a.akamaihd.net/hads-ak-ash3/s110x80/708166_6006844510965_39901_n.jpg\np1906\nsVcount_current_adgroups\np1907\nI1\nsVrun_status\np1908\nI1\nsVtype\np1909\nI1\nsVlink_url\np1910\nVhttp://www.buzzfeed.com/h1/fbad/freal/20-incredible-pictures-you-wont-believe-are-frea-5k2r\np1911\nsVview_tag\np1912\ng22\nsa(dp1913\nValt_view_tags\np1914\n(lp1915\nsVbody\np1916\nVHe was a former Atari technician. Check out more things you didn\'t know about Atari!\np1917\nsVimage_hash\np1918\nVa90efd1823da428ede851ed14138b80c\np1919\nsVname\np1920\nVYoung Jack Black-00\np1921\nsVtitle\np1922\nVSteve Jobs\np1923\nsVcreative_id\np1924\nV6005824349965\np1925\nsVpreview_url\np1926\nVhttp://www.facebook.com/ads/api/creative_preview.php?cid=6005824349965\np1927\nsVid\np1928\nV6005824349965\np1929\nsVimage_url\np1930\nVhttps://fbcdn-creative-a.akamaihd.net/hads-ak-ash3/s110x80/708187_6006845068765_60029_n.jpg\np1931\nsVcount_current_adgroups\np1932\nI1\nsVrun_status\np1933\nI1\nsVtype\np1934\nI1\nsVlink_url\np1935\nVhttp://www.buzzfeed.com/h1/fbad/internetexplorer9/10-things-you-probably-never-knew-about-atari\np1936\nsVview_tag\np1937\ng22\nsa(dp1938\nValt_view_tags\np1939\n(lp1940\nsVbody\np1941\nVKeiko the Orca Whale made the list of "The Most Iconic Animals In Showbiz." See more!\np1942\nsVimage_hash\np1943\nV04d60d0bb0a937ed2b307c4660b24199\np1944\nsVname\np1945\nVAir Bud -00-00\np1946\nsVtitle\np1947\nVFree Willy\np1948\nsVcreative_id\np1949\nV6005816006765\np1950\nsVpreview_url\np1951\nVhttp://www.facebook.com/ads/api/creative_preview.php?cid=6005816006765\np1952\nsVid\np1953\nV6005816006765\np1954\nsVimage_url\np1955\nVhttps://fbcdn-creative-a.akamaihd.net/hads-ak-prn1/s110x80/708186_6006844075565_24538_n.jpg\np1956\nsVcount_current_adgroups\np1957\nI2\nsVrun_status\np1958\nI1\nsVtype\np1959\nI1\nsVlink_url\np1960\nVhttp://www.buzzfeed.com/h1/fbad/animalpractice/the-most-iconic-animals-in-showbiz\np1961\nsVview_tag\np1962\ng22\nsa(dp1963\nValt_view_tags\np1964\n(lp1965\nsVbody\np1966\nVThis ball playing pooch made the list of "The Most Iconic Animals In Showbiz." See more!\np1967\nsVimage_hash\np1968\nVeb716ebe8352704c70dc7dd965a407e0\np1969\nsVname\np1970\nVAir Bud \np1971\nsVtitle\np1972\nVAir Bud \np1973\nsVcreative_id\np1974\nV6005805958965\np1975\nsVpreview_url\np1976\nVhttp://www.facebook.com/ads/api/creative_preview.php?cid=6005805958965\np1977\nsVid\np1978\nV6005805958965\np1979\nsVimage_url\np1980\nVhttps://fbcdn-creative-a.akamaihd.net/hads-ak-prn1/s110x80/708164_6006845473965_33496_n.jpg\np1981\nsVcount_current_adgroups\np1982\nI1\nsVrun_status\np1983\nI1\nsVtype\np1984\nI1\nsVlink_url\np1985\nVhttp://www.buzzfeed.com/h1/fbad/animalpractice/the-most-iconic-animals-in-showbiz\np1986\nsVview_tag\np1987\ng22\nsa(dp1988\nValt_view_tags\np1989\n(lp1990\nsVbody\np1991\nVSoak up the summer by checking out these "10 Radical Margarita Recipes" only on BuzzFeed!\np1992\nsVimage_hash\np1993\nV91962f2176cb4afcdb3cbcfe2f0afa64\np1994\nsVname\np1995\nVA Chocolate Margarita!\np1996\nsVtitle\np1997\nVA Chocolate Margarita!\np1998\nsVcreative_id\np1999\nV6005584650565\np2000\nsVpreview_url\np2001\nVhttp://www.facebook.com/ads/api/creative_preview.php?cid=6005584650565\np2002\nsVid\np2003\nV6005584650565\np2004\nsVimage_url\np2005\nVhttps://fbcdn-creative-a.akamaihd.net/hads-ak-prn1/s110x80/708185_6006844916965_44142_n.jpg\np2006\nsVcount_current_adgroups\np2007\nI'
p6
sS'hash'
p7
S'3a1a77a5784510883f0cba1804294fc29cead2c8'
p8
sS'stack'
p9
S''
s.