(dp1
S'args'
p2
S''
sS'methodname'
p3
S''
sS'packet_num'
p4
I80
sS'returnval'
p5
S'6165_21306_n.jpg\np10375\nsVcount_current_adgroups\np10376\nI1\nsVrun_status\np10377\nI1\nsVtype\np10378\nI2\nsVlink_url\np10379\nVhttp://www.facebook.com/BuzzFeed?sk=wall\np10380\nsVview_tag\np10381\ng22\nsa(dp10382\nValt_view_tags\np10383\n(lp10384\nsVbody\np10385\nVCheck out BuzzFeed for a sneak peek of tonight\'s episode of Funny or Die\'s "Billy On The Street" !\np10386\nsVimage_hash\np10387\nV0a153509d24dcd1d4654889bd42d8b91\np10388\nsVname\np10389\nVFunny Or Die\'s New Show!-01\np10390\nsVtitle\np10391\nVFunny Or Die\'s New Show!\np10392\nsVcreative_id\np10393\nV6004661447165\np10394\nsVpreview_url\np10395\nVhttp://www.facebook.com/ads/api/creative_preview.php?cid=6004661447165\np10396\nsVid\np10397\nV6004661447165\np10398\nsVimage_url\np10399\nVhttps://fbcdn-creative-a.akamaihd.net/hads-ak-prn1/s110x80/708193_6006844109565_26380_n.jpg\np10400\nsVcount_current_adgroups\np10401\nI1\nsVrun_status\np10402\nI1\nsVtype\np10403\nI1\nsVlink_url\np10404\nVhttp://www.buzzfeed.com/h1/fba/billyonthestreet/billy-on-the-street-the-millionaire-matchmaker-i-4x71\np10405\nsVview_tag\np10406\ng22\nsa(dp10407\nValt_view_tags\np10408\n(lp10409\nsVbody\np10410\nVCheck out BuzzFeed for a sneak peek of tonight\'s episode of Funny or Die\'s "Billy On The Street" !\np10411\nsVimage_hash\np10412\nVbc80f4b16326d7ea435766eefa7e482a\np10413\nsVname\np10414\nVWatch Billy Tonight @11!\np10415\nsVtitle\np10416\nVWatch Billy Tonight @11!\np10417\nsVcreative_id\np10418\nV6004661438965\np10419\nsVpreview_url\np10420\nVhttp://www.facebook.com/ads/api/creative_preview.php?cid=6004661438965\np10421\nsVid\np10422\nV6004661438965\np10423\nsVimage_url\np10424\nVhttps://fbcdn-creative-a.akamaihd.net/hads-ak-prn1/s110x80/708189_6006845183965_52442_n.jpg\np10425\nsVcount_current_adgroups\np10426\nI1\nsVrun_status\np10427\nI1\nsVtype\np10428\nI1\nsVlink_url\np10429\nVhttp://www.buzzfeed.com/h1/fba/billyonthestreet/billy-on-the-street-the-millionaire-matchmaker-i-4x71\np10430\nsVview_tag\np10431\ng22\nsa(dp10432\nValt_view_tags\np10433\n(lp10434\nsVbody\np10435\nVCheck out "The Most Badass Bulls In Bull Riding" by BuzzFeed to see the names of the top 10 bulls in bull riding history!\np10436\nsVimage_hash\np10437\nVbe10af588ba49362d2c4d791948e0d33\np10438\nsVname\np10439\nVMost Badass Bulls of PBR!-00\np10440\nsVtitle\np10441\nVMost Badass Bulls of PBR!\np10442\nsVcreative_id\np10443\nV6004365511765\np10444\nsVpreview_url\np10445\nVhttp://www.facebook.com/ads/api/creative_preview.php?cid=6004365511765\np10446\nsVid\np10447\nV6004365511765\np10448\nsVimage_url\np10449\nVhttps://fbcdn-creative-a.akamaihd.net/hads-ak-ash3/s110x80/708178_6006845192765_23188_n.jpg\np10450\nsVcount_current_adgroups\np10451\nI1\nsVrun_status\np10452\nI1\nsVtype\np10453\nI1\nsVlink_url\np10454\nVhttp://www.buzzfeed.com/h1/fba/professionalbullriders/the-most-badass-bulls-in-bull-riding-4v8n\np10455\nsVview_tag\np10456\ng22\nsa(dp10457\nValt_view_tags\np10458\n(lp10459\nsVbody\np10460\nVCheck out "10 Stories To Make Holiday Time Less Boring" and stay up to date with the best stories to share.  Visit WSJ Social for more!\np10461\nsVimage_hash\np10462\nVf837babdee690ab0892933536bcaa048\np10463\nsVname\np10464\nV10 Stories To Talk About!\np10465\nsVtitle\np10466\nV10 Stories To Talk About!\np10467\nsVcreative_id\np10468\nV6004335472765\np10469\nsVpreview_url\np10470\nVhttp://www.facebook.com/ads/api/creative_preview.php?cid=6004335472765\np10471\nsVid\np10472\nV6004335472765\np10473\nsVimage_url\np10474\nVhttps://fbcdn-creative-a.akamaihd.net/hads-ak-ash3/s110x80/708162_6006845553165_63252_n.jpg\np10475\nsVcount_current_adgroups\np10476\nI1\nsVrun_status\np10477\nI1\nsVtype\np10478\nI1\nsVlink_url\np10479\nVhttp://www.buzzfeed.com/h1/fba/wallstreetjournal/10-stories-to-make-holiday-time-less-boring-354z\np10480\nsVview_tag\np10481\ng22\nsa(dp10482\nValt_view_tags\np10483\n(lp10484\nsVbody\np10485\nVCheck out BuzzFeed\'s List of "10 Companies You Didn\'t Think Were Worth Millions". CraigsList is one of them - see the rest.\np10486\nsVimage_hash\np10487\nVdaca1107ae74980dba1f3c5278bf72bf\np10488\nsVname\np10489\nVMillion Dollar Companies\np10490\nsVtitle\np10491\nVMillion Dollar Companies\np10492\nsVcreative_id\np10493\nV6004326015165\np10494\nsVpreview_url\np10495\nVhttp://www.facebook.com/ads/api/creative_preview.php?cid=6004326015165\np10496\ns'
p6
sS'hash'
p7
S'3a1a77a5784510883f0cba1804294fc29cead2c8'
p8
sS'stack'
p9
S''
s.