(dp1
S'args'
p2
S''
sS'methodname'
p3
S''
sS'packet_num'
p4
I148
sS'returnval'
p5
S'8879\ng22\nsa(dp18880\nValt_view_tags\np18881\n(lp18882\nsVbody\np18883\nVTake a look at "20 Exquisite Pieces Of Fruit Art". They\'re simply amazing. Remember to "Like" our page for more great stuff.\np18884\nsVimage_hash\np18885\nVac65f50b0358eca72b69477b77cc24fd\np18886\nsVname\np18887\nVBuzzFeed Partner-41\np18888\nsVtitle\np18889\ng22\nsVcreative_id\np18890\nV6003879481165\np18891\nsVpreview_url\np18892\nVhttp://www.facebook.com/ads/api/creative_preview.php?cid=6003879481165\np18893\nsVobject_id\np18894\nI238205562866018\nsVid\np18895\nV6003879481165\np18896\nsVimage_url\np18897\nVhttps://fbcdn-creative-a.akamaihd.net/hads-ak-prn1/s110x80/708189_6006845087565_43043_n.jpg\np18898\nsVcount_current_adgroups\np18899\nI0\nsVrun_status\np18900\nI1\nsVtype\np18901\nI2\nsVlink_url\np18902\nVhttp://www.facebook.com/BuzzFeedPartner\np18903\nsVview_tag\np18904\ng22\nsa(dp18905\nValt_view_tags\np18906\n(lp18907\nsVbody\np18908\nVCheck out these "15 Animals With Awesome Haircuts". Which one is your favorite? Remember to "Like" our page for more great stuff!\np18909\nsVimage_hash\np18910\nVeca4caa46fc398754aec1d532bf730ab\np18911\nsVname\np18912\nVBuzzFeed Partner-42\np18913\nsVtitle\np18914\ng22\nsVcreative_id\np18915\nV6003896889165\np18916\nsVpreview_url\np18917\nVhttp://www.facebook.com/ads/api/creative_preview.php?cid=6003896889165\np18918\nsVobject_id\np18919\nI238205562866018\nsVid\np18920\nV6003896889165\np18921\nsVimage_url\np18922\nVhttps://fbcdn-creative-a.akamaihd.net/hads-ak-ash3/s110x80/708195_6006845481565_22086_n.jpg\np18923\nsVcount_current_adgroups\np18924\nI0\nsVrun_status\np18925\nI1\nsVtype\np18926\nI2\nsVlink_url\np18927\nVhttp://www.facebook.com/BuzzFeedPartner?sk=wall\np18928\nsVview_tag\np18929\ng22\nsa(dp18930\nValt_view_tags\np18931\n(lp18932\nsVbody\np18933\nVCheck out these "15 Animals With Awesome Haircuts". Which one is your favorite? Remember to "Like" our page for more great stuff!\np18934\nsVimage_hash\np18935\nVd28cccaf86e5c0b4e8f4c6c9f1a7083f\np18936\nsVname\np18937\nVBuzzFeed Partner-43\np18938\nsVtitle\np18939\ng22\nsVcreative_id\np18940\nV6003896891165\np18941\nsVpreview_url\np18942\nVhttp://www.facebook.com/ads/api/creative_preview.php?cid=6003896891165\np18943\nsVobject_id\np18944\nI238205562866018\nsVid\np18945\nV6003896891165\np18946\nsVimage_url\np18947\nVhttps://fbcdn-creative-a.akamaihd.net/hads-ak-ash3/s110x80/701888_6006845309165_20974_n.jpg\np18948\nsVcount_current_adgroups\np18949\nI0\nsVrun_status\np18950\nI1\nsVtype\np18951\nI2\nsVlink_url\np18952\nVhttp://www.facebook.com/BuzzFeedPartner?sk=wall\np18953\nsVview_tag\np18954\ng22\nsa(dp18955\nValt_view_tags\np18956\n(lp18957\nsVbody\np18958\nVCheck out this hilarious "Moves Like Jabba" parody video. Remember to "Like" our page for more great stuff!\np18959\nsVimage_hash\np18960\nV68da66e331ce8c69cdb9ca2640b6c166\np18961\nsVname\np18962\nVBuzzFeed Partner-44\np18963\nsVtitle\np18964\ng22\nsVcreative_id\np18965\nV6003908652765\np18966\nsVpreview_url\np18967\nVhttp://www.facebook.com/ads/api/creative_preview.php?cid=6003908652765\np18968\nsVobject_id\np18969\nI238205562866018\nsVid\np18970\nV6003908652765\np18971\nsVimage_url\np18972\nVhttps://fbcdn-creative-a.akamaihd.net/hads-ak-ash3/s110x80/708167_6006844686365_14684_n.jpg\np18973\nsVcount_current_adgroups\np18974\nI0\nsVrun_status\np18975\nI1\nsVtype\np18976\nI2\nsVlink_url\np18977\nVhttp://www.facebook.com/BuzzFeedPartner?sk=wall\np18978\nsVview_tag\np18979\ng22\nsa(dp18980\nValt_view_tags\np18981\n(lp18982\nsVbody\np18983\nVCheck out BuzzFeed\'s "The Coolest Jobs You Can Get With These College Degrees" by Capital One and see what majors lead to AWESOME jobs!\np18984\nsVimage_hash\np18985\nV0261537741c33f2cc769af04586796ff\np18986\nsVname\np18987\nVThe Job Of Your Dreams!\np18988\nsVtitle\np18989\nVThe Job Of Your Dreams!\np18990\nsVcreative_id\np18991\nV6003927106765\np18992\nsVpreview_url\np18993\nVhttp://www.facebook.com/ads/api/creative_preview.php?cid=6003927106765\np18994\nsVid\np18995\nV6003927106765\np18996\nsVimage_url\np18997\nVhttps://fbcdn-creative-a.akamaihd.net/hads-ak-prn1/s110x80/708194_6006844063965_23020_n.jpg\np18998\nsVcount_current_adgroups\np18999\nI0\nsVrun_status\np19000\nI1\nsVtype\np19001\nI1\nsVlink_url\np19002\nVhttp://www.buzzfeed.com/h1/fba/capitalone/the-coolest-jobs-you-can-get-with-these-college-de\np19003\nsV'
p6
sS'hash'
p7
S'3a1a77a5784510883f0cba1804294fc29cead2c8'
p8
sS'stack'
p9
S''
s.