(dp1
S'args'
p2
S''
sS'methodname'
p3
S''
sS'packet_num'
p4
I25
sS'returnval'
p5
S'http://www.buzzfeed.com/h1/fbad/samsungs9/10-amazing-tech-innovations-through-the-years-6g87\np3186\nsVview_tag\np3187\ng22\nsa(dp3188\nValt_view_tags\np3189\n(lp3190\nsVbody\np3191\nVWant to be as comfortable? Check out "The Ultimate Guide To Being Awesomely Comfortable!"\np3192\nsVimage_hash\np3193\nV5e0e65d925a70c429fff4f605a0303a3\np3194\nsVname\np3195\nVAre You This Comfortable?-00\np3196\nsVtitle\np3197\nVThese Two Are Comfy\np3198\nsVcreative_id\np3199\nV6005747601965\np3200\nsVpreview_url\np3201\nVhttp://www.facebook.com/ads/api/creative_preview.php?cid=6005747601965\np3202\nsVid\np3203\nV6005747601965\np3204\nsVimage_url\np3205\nVhttps://fbcdn-creative-a.akamaihd.net/hads-ak-prn1/s110x80/708195_6006844629165_39342_n.jpg\np3206\nsVcount_current_adgroups\np3207\nI3\nsVrun_status\np3208\nI1\nsVtype\np3209\nI1\nsVlink_url\np3210\nVhttp://www.buzzfeed.com/h1/fbad/southerncomfort/the-ultimate-guide-to-being-awesomely-comfortable\np3211\nsVview_tag\np3212\ng22\nsa(dp3213\nValt_view_tags\np3214\n(lp3215\nsVbody\np3216\nVCertain clothing and accessories take true self-confidence to pull off. See more here!\np3217\nsVimage_hash\np3218\nVa766e9734c3073f07364ed1ef3dbf08c\np3219\nsVname\np3220\nVA Hat Made Of Hair?-00-00\np3221\nsVtitle\np3222\nVSager\'s Crazy Suits!\np3223\nsVcreative_id\np3224\nV6005745799765\np3225\nsVpreview_url\np3226\nVhttp://www.facebook.com/ads/api/creative_preview.php?cid=6005745799765\np3227\nsVid\np3228\nV6005745799765\np3229\nsVimage_url\np3230\nVhttps://fbcdn-creative-a.akamaihd.net/hads-ak-prn1/s110x80/708184_6006845058365_19677_n.jpg\np3231\nsVcount_current_adgroups\np3232\nI1\nsVrun_status\np3233\nI1\nsVtype\np3234\nI1\nsVlink_url\np3235\nVhttp://www.buzzfeed.com/h1/fbad/southerncomfort/12-outfits-you-gotta-be-comfortable-with-yourself\np3236\nsVview_tag\np3237\ng22\nsa(dp3238\nValt_view_tags\np3239\n(lp3240\nsVbody\np3241\nVCertain clothing and accessories take true self-confidence to pull off. See more here!\np3242\nsVimage_hash\np3243\nV04e8f81aae9ba6fc8f899c1a599699ba\np3244\nsVname\np3245\nVA Hat Made Of Hair?\np3246\nsVtitle\np3247\nVA Hat Made Of Hair?\np3248\nsVcreative_id\np3249\nV6005745758165\np3250\nsVpreview_url\np3251\nVhttp://www.facebook.com/ads/api/creative_preview.php?cid=6005745758165\np3252\nsVid\np3253\nV6005745758165\np3254\nsVimage_url\np3255\nVhttps://fbcdn-creative-a.akamaihd.net/hads-ak-prn1/s110x80/708186_6006844075765_37709_n.jpg\np3256\nsVcount_current_adgroups\np3257\nI1\nsVrun_status\np3258\nI1\nsVtype\np3259\nI1\nsVlink_url\np3260\nVhttp://www.buzzfeed.com/h1/fbad/southerncomfort/12-outfits-you-gotta-be-comfortable-with-yourself\np3261\nsVview_tag\np3262\ng22\nsa(dp3263\nValt_view_tags\np3264\n(lp3265\nsVbody\np3266\nVSee the rest of "The Biggest VMA Red Carpet Fashion Disasters Of All Time" on Buzzfeed!\np3267\nsVimage_hash\np3268\nV68683b680af29f692fb03f49895a1675\np3269\nsVname\np3270\nVTypical Lady Gaga-00\np3271\nsVtitle\np3272\nVTypical Lady Gaga\np3273\nsVcreative_id\np3274\nV6005745395965\np3275\nsVpreview_url\np3276\nVhttp://www.facebook.com/ads/api/creative_preview.php?cid=6005745395965\np3277\nsVid\np3278\nV6005745395965\np3279\nsVimage_url\np3280\nVhttps://fbcdn-creative-a.akamaihd.net/hads-ak-prn1/s110x80/708167_6006844683965_49737_n.jpg\np3281\nsVcount_current_adgroups\np3282\nI1\nsVrun_status\np3283\nI1\nsVtype\np3284\nI1\nsVlink_url\np3285\nVhttp://www.buzzfeed.com/mtvvmas/the-biggest-vma-red-carpet-fashion-disasters-of-al\np3286\nsVview_tag\np3287\ng22\nsa(dp3288\nValt_view_tags\np3289\n(lp3290\nsVbody\np3291\nVSee the rest of "The Biggest VMA Red Carpet Fashion Disasters Of All Time" on Buzzfeed!\np3292\nsVimage_hash\np3293\nVfb83c3dfd5fe01507dcb485cd13f3916\np3294\nsVname\np3295\nVTypical Lady Gaga-00-00\np3296\nsVtitle\np3297\nVCrazy Lil Kim Fashion\np3298\nsVcreative_id\np3299\nV6005745405365\np3300\nsVpreview_url\np3301\nVhttp://www.facebook.com/ads/api/creative_preview.php?cid=6005745405365\np3302\nsVid\np3303\nV6005745405365\np3304\nsVimage_url\np3305\nVhttps://fbcdn-creative-a.akamaihd.net/hads-ak-prn1/s110x80/708202_6006845575365_32666_n.jpg\np3306\nsVcount_current_adgroups\np3307\nI1\nsVrun_status\np3308\nI1\nsVtype\np3309\nI1\nsVlink_url\np3310\nVhttp://www.buzzfeed.com/mtvvmas/the-biggest-vma-red-carpet-fashion-disasters-of-al\np3311\nsVview_tag\np3312\ng22\nsa(dp3313\nValt_view_tags\np3314\n(lp3'
p6
sS'hash'
p7
S'3a1a77a5784510883f0cba1804294fc29cead2c8'
p8
sS'stack'
p9
S''
s.