(dp1
S'args'
p2
S''
sS'methodname'
p3
S''
sS'packet_num'
p4
I186
sS'returnval'
p5
S'375\nI1\nsVtype\np23376\nI1\nsVlink_url\np23377\nVhttp://www.buzzfeed.com/h1/fbad/bigredsoda/science-fair-projects-expectations-vs-reality\np23378\nsVview_tag\np23379\ng22\nsa(dp23380\nValt_view_tags\np23381\n(lp23382\nsVbody\np23383\nVIt\'s one of the "10 Burgers Made Better With One Secret Ingredient."  See the rest!\np23384\nsVimage_hash\np23385\nVd8bf68f4e843f7736ddc27ad7c3d615e\np23386\nsVname\np23387\nVPineapple Bacon Burger!\np23388\nsVtitle\np23389\nVPineapple Bacon Burger!\np23390\nsVcreative_id\np23391\nV6005567307965\np23392\nsVpreview_url\np23393\nVhttp://www.facebook.com/ads/api/creative_preview.php?cid=6005567307965\np23394\nsVid\np23395\nV6005567307965\np23396\nsVimage_url\np23397\nVhttps://fbcdn-creative-a.akamaihd.net/hads-ak-prn1/s110x80/708182_6006845348365_61275_n.jpg\np23398\nsVcount_current_adgroups\np23399\nI0\nsVrun_status\np23400\nI1\nsVtype\np23401\nI1\nsVlink_url\np23402\nVhttp://www.buzzfeed.com/h1/fbad/hiddenvalleyranch/10-burgers-made-better-with-one-secret-ingredient\np23403\nsVview_tag\np23404\ng22\nsa(dp23405\nValt_view_tags\np23406\n(lp23407\nsVbody\np23408\nVThis cat is one of the "Stressed Out Animals Who Really Need A Break." Find out why.\np23409\nsVimage_hash\np23410\nV060dd8b4135115f7eec65d3ed33e5f5c\np23411\nsVname\np23412\nVWhat\'s Going On Here?-01-00\np23413\nsVtitle\np23414\nVWhat\'s Going On Here?\np23415\nsVcreative_id\np23416\nV6005545490765\np23417\nsVpreview_url\np23418\nVhttp://www.facebook.com/ads/api/creative_preview.php?cid=6005545490765\np23419\nsVid\np23420\nV6005545490765\np23421\nsVimage_url\np23422\nVhttps://fbcdn-creative-a.akamaihd.net/hads-ak-ash3/s110x80/701892_6006844083965_54031_n.jpg\np23423\nsVcount_current_adgroups\np23424\nI1\nsVrun_status\np23425\nI1\nsVtype\np23426\nI1\nsVlink_url\np23427\nVhttp://ad.doubleclick.net/click;h=v2|3F93|0|0|%2a|s;260122121;0-0;0;83711970;31-1|1;49332344|49327572|1;;;pc=[TPAS_ID]%3fhttp://www.buzzfeed.com/h1/fbad/randomactsoffusion/stressed-out-animals-who-really-need-a-break\np23428\nsVview_tag\np23429\ng22\nsa(dp23430\nValt_view_tags\np23431\n(lp23432\nsVbody\np23433\nVMTV kept us informed and hip before the internet. See what else made sure we were cool !\np23434\nsVimage_hash\np23435\nV609edf1fe070f19defe9b6b0a1bbdde8\np23436\nsVname\np23437\nVI Want My MTV!-00\np23438\nsVtitle\np23439\nVWhat Made Us Cool?\np23440\nsVcreative_id\np23441\nV6005548506565\np23442\nsVpreview_url\np23443\nVhttp://www.facebook.com/ads/api/creative_preview.php?cid=6005548506565\np23444\nsVid\np23445\nV6005548506565\np23446\nsVimage_url\np23447\nVhttps://fbcdn-creative-a.akamaihd.net/hads-ak-snc7/s110x80/701903_6006844642165_19669_n.jpg\np23448\nsVcount_current_adgroups\np23449\nI1\nsVrun_status\np23450\nI1\nsVtype\np23451\nI1\nsVlink_url\np23452\nVhttp://www.buzzfeed.com/h1/fbad/eonline/a-history-of-how-we-get-pop-culture-6u0r\np23453\nsVview_tag\np23454\ng22\nsa(dp23455\nValt_view_tags\np23456\n(lp23457\nsVbody\np23458\nVIt\'s one of "The Most Creative Ways To Have A Drink This Summer." Check it out on BuzzFeed\np23459\nsVimage_hash\np23460\nV00dff5a81a3f9773413c700da9f68dbe\np23461\nsVname\np23462\nVWatermelon Dispenser\np23463\nsVtitle\np23464\nVWatermelon Dispenser\np23465\nsVcreative_id\np23466\nV6005531595165\np23467\nsVpreview_url\np23468\nVhttp://www.facebook.com/ads/api/creative_preview.php?cid=6005531595165\np23469\nsVid\np23470\nV6005531595165\np23471\nsVimage_url\np23472\nVhttps://fbcdn-creative-a.akamaihd.net/hads-ak-prn1/s110x80/708174_6006844055765_51242_n.jpg\np23473\nsVcount_current_adgroups\np23474\nI0\nsVrun_status\np23475\nI1\nsVtype\np23476\nI1\nsVlink_url\np23477\nVhttp://www.buzzfeed.com/h1/fbad/mikeshardlemonade/the-most-creative-ways-to-have-a-drink-this-summer\np23478\nsVview_tag\np23479\ng22\nsa(dp23480\nValt_view_tags\np23481\n(lp23482\nsVbody\np23483\nVThis and more slang words you should probably be using. See the rest on BuzzFeed!\\u000a\np23484\nsVimage_hash\np23485\nV7e1fbfbb2b61c14b342345ce3c4c237d\np23486\nsVname\np23487\nVEygptian for "hot girl"-00-00-00\np23488\nsVtitle\np23489\nVMeans A Really Hot Girl\np23490\nsVcreative_id\np23491\nV6005542572765\np23492\nsVpreview_url\np23493\nVhttp://www.facebook.com/ads/api/creative_preview.php?cid=6005542572765\np23494\nsVid\np23495\nV6005542572765\np23496\nsVimage_url\np23497\nVhttps://fbcdn-creative-a.akamaihd.net/hads'
p6
sS'hash'
p7
S'3a1a77a5784510883f0cba1804294fc29cead2c8'
p8
sS'stack'
p9
S''
s.