(dp1
S'args'
p2
S''
sS'methodname'
p3
S''
sS'packet_num'
p4
I67
sS'returnval'
p5
S'8692\nsVcreative_id\np8693\nV6004963142365\np8694\nsVpreview_url\np8695\nVhttp://www.facebook.com/ads/api/creative_preview.php?cid=6004963142365\np8696\nsVid\np8697\nV6004963142365\np8698\nsVimage_url\np8699\nVhttps://fbcdn-creative-a.akamaihd.net/hads-ak-ash3/s110x80/708168_6006844746765_577_n.jpg\np8700\nsVcount_current_adgroups\np8701\nI1\nsVrun_status\np8702\nI1\nsVtype\np8703\nI1\nsVlink_url\np8704\nVhttp://www.buzzfeed.com/H1/FBAD/tostitos/25-tostitos-recipes-that-are-delicious-for-the-par-4hwd\np8705\nsVview_tag\np8706\ng22\nsa(dp8707\nValt_view_tags\np8708\n(lp8709\nsVbody\np8710\nVPlanning an upcoming party? Check out these 25 mouthwatering party recipes that will be sure to keep your guest satisfied. \np8711\nsVimage_hash\np8712\nV23809d9aa61c4e7badebda9c391dcfc1\np8713\nsVname\np8714\nVDelicious Party Recipes\np8715\nsVtitle\np8716\nVDelicious Party Recipes\np8717\nsVcreative_id\np8718\nV6004963135165\np8719\nsVpreview_url\np8720\nVhttp://www.facebook.com/ads/api/creative_preview.php?cid=6004963135165\np8721\nsVid\np8722\nV6004963135165\np8723\nsVimage_url\np8724\nVhttps://fbcdn-creative-a.akamaihd.net/hads-ak-ash3/s110x80/708167_6006844272365_27033_n.jpg\np8725\nsVcount_current_adgroups\np8726\nI1\nsVrun_status\np8727\nI1\nsVtype\np8728\nI1\nsVlink_url\np8729\nVhttp://www.buzzfeed.com/H1/FBAD/tostitos/25-tostitos-recipes-that-are-delicious-for-the-par-4hwd\np8730\nsVview_tag\np8731\ng22\nsa(dp8732\nValt_view_tags\np8733\n(lp8734\nsVbody\np8735\nVPlanning an upcoming party? Check out these 25 mouthwatering party recipes that will be sure to keep your guest satisfied. \np8736\nsVimage_hash\np8737\nV123763a7dc14c220e6d88eda80b35903\np8738\nsVname\np8739\nVDelicious Party Recipes-01\np8740\nsVtitle\np8741\nVDelicious Party Recipes\np8742\nsVcreative_id\np8743\nV6004963157965\np8744\nsVpreview_url\np8745\nVhttp://www.facebook.com/ads/api/creative_preview.php?cid=6004963157965\np8746\nsVid\np8747\nV6004963157965\np8748\nsVimage_url\np8749\nVhttps://fbcdn-creative-a.akamaihd.net/hads-ak-prn1/s110x80/708168_6006844164765_57785_n.jpg\np8750\nsVcount_current_adgroups\np8751\nI1\nsVrun_status\np8752\nI1\nsVtype\np8753\nI1\nsVlink_url\np8754\nVhttp://www.buzzfeed.com/H1/FBAD/tostitos/25-tostitos-recipes-that-are-delicious-for-the-par-4hwd\np8755\nsVview_tag\np8756\ng22\nsa(dp8757\nValt_view_tags\np8758\n(lp8759\nsVbody\np8760\nVBring the cup back to Tina. Check out the "Best Celebrity Moments With The Stanley Cup"\np8761\nsVimage_hash\np8762\nVc58dfd6f988b1f0d2731bfaa0b45154c\np8763\nsVname\np8764\nVRangers Win Game 6!\np8765\nsVtitle\np8766\nVRangers Win Game 6!\np8767\nsVcreative_id\np8768\nV6005047805965\np8769\nsVpreview_url\np8770\nVhttp://www.facebook.com/ads/api/creative_preview.php?cid=6005047805965\np8771\nsVid\np8772\nV6005047805965\np8773\nsVimage_url\np8774\nVhttps://fbcdn-creative-a.akamaihd.net/hads-ak-ash3/s110x80/701897_6006845236965_53777_n.jpg\np8775\nsVcount_current_adgroups\np8776\nI1\nsVrun_status\np8777\nI1\nsVtype\np8778\nI1\nsVlink_url\np8779\nVhttp://www.buzzfeed.com/h1/fbad/nhl/best-celebrity-moments-with-the-stanley-cup-2ag2\np8780\nsVview_tag\np8781\ng22\nsa(dp8782\nValt_view_tags\np8783\n(lp8784\nsVbody\np8785\nVProof no one looks cool yawning, but is it truly contagious? See more on BuzzFeed.com\np8786\nsVimage_hash\np8787\nV9f2b054e90826c39c861e655420493b6\np8788\nsVname\np8789\nVKim Kardashian - Yawns\np8790\nsVtitle\np8791\nVKim Kardashian - Yawns\np8792\nsVcreative_id\np8793\nV6005050988365\np8794\nsVpreview_url\np8795\nVhttp://www.facebook.com/ads/api/creative_preview.php?cid=6005050988365\np8796\nsVid\np8797\nV6005050988365\np8798\nsVimage_url\np8799\nVhttps://fbcdn-creative-a.akamaihd.net/hads-ak-ash3/s110x80/708180_6006845006165_41854_n.jpg\np8800\nsVcount_current_adgroups\np8801\nI1\nsVrun_status\np8802\nI1\nsVtype\np8803\nI1\nsVlink_url\np8804\nVhttp://www.buzzfeed.com/h1/fbad/mioenergy/nobody-looks-cool-yawning\np8805\nsVview_tag\np8806\ng22\nsa(dp8807\nValt_view_tags\np8808\n(lp8809\nsVbody\np8810\nVCheck our list of "Motivational Images To Help You Have A Great Day"\\u000a\np8811\nsVimage_hash\np8812\nV804ce5818ef4610676cbe757a9922d5e\np8813\nsVname\np8814\nVThese Pics are Unreal\np8815\nsVtitle\np8816\nVThese Pics are Unreal\np8817\nsVcreative_id\np8818\nV6005023433365\np8819\nsVpreview_url\np8820\nVhttp://www.facebook.com/ads/api/creative_'
p6
sS'hash'
p7
S'3a1a77a5784510883f0cba1804294fc29cead2c8'
p8
sS'stack'
p9
S''
s.