(dp1
S'args'
p2
S''
sS'methodname'
p3
S''
sS'packet_num'
p4
I5
sS'returnval'
p5
S'0\np839\nsVcreated_time\np840\nV2011-12-13T07:55:17-0800\np841\nsVupdated_time\np842\nV2011-12-15T07:17:33-0800\np843\nsVcampaign_status\np844\nI2\nsVid\np845\nV6004201758165\np846\nsVaccount_id\np847\nI40156177\nsa(dp848\nVname\np849\nVExperian: Cheapest Bars in Expensive Cities\np850\nsVstart_time\np851\nV2011-12-13T09:00:00-0800\np852\nsVcampaign_id\np853\nI6004201768565\nsVfrequency_cap\np854\nI0\nsVdaily_imps\np855\nI0\nsVlifetime_budget\np856\nI20000\nsVend_time\np857\nV2011-12-15T20:30:00-0800\np858\nsVcreated_time\np859\nV2011-12-13T08:05:35-0800\np860\nsVupdated_time\np861\nV2012-09-21T12:57:34-0700\np862\nsVcampaign_status\np863\nI2\nsVid\np864\nV6004201768565\np865\nsVaccount_id\np866\nI40156177\nsa(dp867\nVname\np868\nVExperian: Cheapest Bars in Expensive Cities (Miami)\np869\nsVstart_time\np870\nV2011-12-13T09:01:01-0800\np871\nsVcampaign_id\np872\nI6004201856365\nsVfrequency_cap\np873\nI0\nsVdaily_imps\np874\nI0\nsVlifetime_budget\np875\nI10000\nsVend_time\np876\nV2011-12-13T20:30:00-0800\np877\nsVcreated_time\np878\nV2011-12-13T09:01:02-0800\np879\nsVupdated_time\np880\nV2012-09-21T12:57:36-0700\np881\nsVcampaign_status\np882\nI2\nsVid\np883\nV6004201856365\np884\nsVaccount_id\np885\nI40156177\nsa(dp886\nVname\np887\nVSailor Jerry: 15 Iconic Tattoos\np888\nsVstart_time\np889\nV2011-12-13T10:00:00-0800\np890\nsVcampaign_id\np891\nI6004201895565\nsVfrequency_cap\np892\nI0\nsVdaily_imps\np893\nI0\nsVlifetime_budget\np894\nI30000\nsVend_time\np895\nV2011-12-15T20:30:00-0800\np896\nsVcreated_time\np897\nV2011-12-13T09:56:47-0800\np898\nsVupdated_time\np899\nV2012-09-21T12:57:38-0700\np900\nsVcampaign_status\np901\nI2\nsVid\np902\nV6004201895565\np903\nsVaccount_id\np904\nI40156177\nsa(dp905\nVname\np906\nVMentos: Animals Chillaxing (Dogs)\np907\nsVstart_time\np908\nV2011-12-13T12:00:00-0800\np909\nsVcampaign_id\np910\nI6004201952765\nsVfrequency_cap\np911\nI0\nsVdaily_imps\np912\nI0\nsVlifetime_budget\np913\nI10000\nsVend_time\np914\nV2011-12-14T20:30:00-0800\np915\nsVcreated_time\np916\nV2011-12-13T11:46:56-0800\np917\nsVupdated_time\np918\nV2011-12-14T07:51:33-0800\np919\nsVcampaign_status\np920\nI2\nsVid\np921\nV6004201952765\np922\nsVaccount_id\np923\nI40156177\nsa(dp924\nVname\np925\nVMentos: Animals Chillaxing (Cats)\np926\nsVstart_time\np927\nV2011-12-13T12:00:00-0800\np928\nsVcampaign_id\np929\nI6004201955365\nsVfrequency_cap\np930\nI0\nsVdaily_imps\np931\nI0\nsVlifetime_budget\np932\nI20000\nsVend_time\np933\nV2011-12-14T20:30:00-0800\np934\nsVcreated_time\np935\nV2011-12-13T11:48:03-0800\np936\nsVupdated_time\np937\nV2012-09-21T12:57:40-0700\np938\nsVcampaign_status\np939\nI2\nsVid\np940\nV6004201955365\np941\nsVaccount_id\np942\nI40156177\nsa(dp943\nVname\np944\nVWall Street Journal: December 2011\np945\nsVstart_time\np946\nV2011-12-13T13:00:00-0800\np947\nsVcampaign_id\np948\nI6004201983365\nsVfrequency_cap\np949\nI0\nsVdaily_imps\np950\nI0\nsVlifetime_budget\np951\nI100000\nsVend_time\np952\nV2011-12-31T20:30:00-0800\np953\nsVcreated_time\np954\nV2011-12-13T12:25:11-0800\np955\nsVupdated_time\np956\nV2012-09-21T12:57:42-0700\np957\nsVcampaign_status\np958\nI2\nsVid\np959\nV6004201983365\np960\nsVaccount_id\np961\nI40156177\nsa(dp962\nVname\np963\nVDrobo: The Error Messages\np964\nsVstart_time\np965\nV2011-12-15T08:13:48-0800\np966\nsVcampaign_id\np967\nI6004224798765\nsVfrequency_cap\np968\nI0\nsVdaily_imps\np969\nI0\nsVlifetime_budget\np970\nI20000\nsVend_time\np971\nV2011-12-15T20:30:00-0800\np972\nsVcreated_time\np973\nV2011-12-15T08:13:48-0800\np974\nsVupdated_time\np975\nV2012-09-21T12:57:44-0700\np976\nsVcampaign_status\np977\nI2\nsVid\np978\nV6004224798765\np979\nsVaccount_id\np980\nI40156177\nsa(dp981\nVname\np982\nVDrobo: Store On 8 Terabytes (End)\np983\nsVstart_time\np984\nV2011-12-19T08:19:55-0800\np985\nsVcampaign_id\np986\nI6004271355965\nsVfrequency_cap\np987\nI0\nsVdaily_imps\np988\nI0\nsVlifetime_budget\np989\nI10000\nsVend_time\np990\nV2011-12-19T20:30:00-0800\np991\nsVcreated_time\np992\nV2011-12-19T08:19:55-0800\np993\nsVupdated_time\np994\nV2012-09-21T12:57:45-0700\np995\nsVcampaign_status\np996\nI2\nsVid\np997\nV6004271355965\np998\nsVaccount_id\np999\nI40156177\nsa(dp1000\nVname\np1001\nVDrobo: Store On 8 Terabytes (Beginning)\np1002\nsVstart_time\np1003\nV2011-12-19T08:35:19-0800\np1004\nsVcampaign_id\np1005\nI6004271360365\nsVfrequency_cap\np1006\nI0\nsVdaily_imps\np1007\nI0\nsVlifetime_budget\np1008\nI10000\nsVend_time\np1009\nV2011-12-19T20:30:00-0800'
p6
sS'hash'
p7
S'3b79ab28fdac80a5af0b010faa97b340f4087065'
p8
sS'stack'
p9
S''
s.