(dp1
S'args'
p2
S''
sS'methodname'
p3
S''
sS'packet_num'
p4
I6
sS'returnval'
p5
S'\np1010\nsVcreated_time\np1011\nV2011-12-19T08:21:49-0800\np1012\nsVupdated_time\np1013\nV2012-09-21T12:57:47-0700\np1014\nsVcampaign_status\np1015\nI2\nsVid\np1016\nV6004271360365\np1017\nsVaccount_id\np1018\nI40156177\nsa(dp1019\nVname\np1020\nVExperian: Popular Holiday Gifts\np1021\nsVstart_time\np1022\nV2011-12-19T08:41:47-0800\np1023\nsVcampaign_id\np1024\nI6004271370165\nsVfrequency_cap\np1025\nI0\nsVdaily_imps\np1026\nI0\nsVlifetime_budget\np1027\nI20000\nsVend_time\np1028\nV2011-12-20T20:30:00-0800\np1029\nsVcreated_time\np1030\nV2011-12-19T08:41:47-0800\np1031\nsVupdated_time\np1032\nV2012-09-21T12:57:49-0700\np1033\nsVcampaign_status\np1034\nI2\nsVid\np1035\nV6004271370165\np1036\nsVaccount_id\np1037\nI40156177\nsa(dp1038\nVname\np1039\nVMentos: 9 Cute Videos of Babies Laughing (Main Page)\np1040\nsVstart_time\np1041\nV2011-12-19T09:00:00-0800\np1042\nsVcampaign_id\np1043\nI6004271393765\nsVfrequency_cap\np1044\nI0\nsVdaily_imps\np1045\nI0\nsVlifetime_budget\np1046\nI20000\nsVend_time\np1047\nV2011-12-19T15:00:00-0800\np1048\nsVcreated_time\np1049\nV2011-12-19T08:55:14-0800\np1050\nsVupdated_time\np1051\nV2012-09-21T12:57:51-0700\np1052\nsVcampaign_status\np1053\nI2\nsVid\np1054\nV6004271393765\np1055\nsVaccount_id\np1056\nI40156177\nsa(dp1057\nVname\np1058\nVSailor Jerry: 13 Amazing Tattoo Artists (Beginning)\np1059\nsVstart_time\np1060\nV2011-12-20T13:03:08-0800\np1061\nsVcampaign_id\np1062\nI6004283249765\nsVfrequency_cap\np1063\nI0\nsVdaily_imps\np1064\nI0\nsVlifetime_budget\np1065\nI15000\nsVend_time\np1066\nV2011-12-21T20:30:00-0800\np1067\nsVcreated_time\np1068\nV2011-12-20T13:03:08-0800\np1069\nsVupdated_time\np1070\nV2012-09-21T12:57:53-0700\np1071\nsVcampaign_status\np1072\nI2\nsVid\np1073\nV6004283249765\np1074\nsVaccount_id\np1075\nI40156177\nsa(dp1076\nVname\np1077\nVSailor Jerry: 13 Amazing Tattoo Artists (End)\np1078\nsVstart_time\np1079\nV2011-12-20T13:06:44-0800\np1080\nsVcampaign_id\np1081\nI6004283256165\nsVfrequency_cap\np1082\nI0\nsVdaily_imps\np1083\nI0\nsVlifetime_budget\np1084\nI15000\nsVend_time\np1085\nV2011-12-21T20:30:00-0800\np1086\nsVcreated_time\np1087\nV2011-12-20T13:06:20-0800\np1088\nsVupdated_time\np1089\nV2012-09-21T12:57:55-0700\np1090\nsVcampaign_status\np1091\nI2\nsVid\np1092\nV6004283256165\np1093\nsVaccount_id\np1094\nI40156177\nsa(dp1095\nVname\np1096\nVHBO Angry Boys: 10 Best Things From Australia (Main Page)\np1097\nsVstart_time\np1098\nV2011-12-21T12:45:00-0800\np1099\nsVcampaign_id\np1100\nI6004290000765\nsVfrequency_cap\np1101\nI0\nsVdaily_imps\np1102\nI0\nsVlifetime_budget\np1103\nI12500\nsVend_time\np1104\nV2011-12-21T20:30:00-0800\np1105\nsVcreated_time\np1106\nV2011-12-21T12:32:19-0800\np1107\nsVupdated_time\np1108\nV2012-09-21T12:57:57-0700\np1109\nsVcampaign_status\np1110\nI2\nsVid\np1111\nV6004290000765\np1112\nsVaccount_id\np1113\nI40156177\nsa(dp1114\nVname\np1115\nVMentos: 20 Pictures Holiday Cheer\np1116\nsVstart_time\np1117\nV2011-12-22T15:00:00-0800\np1118\nsVcampaign_id\np1119\nI6004295258165\nsVfrequency_cap\np1120\nI0\nsVdaily_imps\np1121\nI0\nsVlifetime_budget\np1122\nI20000\nsVend_time\np1123\nV2011-12-23T20:30:00-0800\np1124\nsVcreated_time\np1125\nV2011-12-22T14:57:27-0800\np1126\nsVupdated_time\np1127\nV2012-09-21T12:57:58-0700\np1128\nsVcampaign_status\np1129\nI2\nsVid\np1130\nV6004295258165\np1131\nsVaccount_id\np1132\nI40156177\nsa(dp1133\nVname\np1134\nVStar Wars: Flash Mob (Main Page)\np1135\nsVstart_time\np1136\nV2011-12-23T09:00:00-0800\np1137\nsVcampaign_id\np1138\nI6004300744165\nsVfrequency_cap\np1139\nI0\nsVdaily_imps\np1140\nI0\nsVlifetime_budget\np1141\nI20000\nsVend_time\np1142\nV2011-12-23T15:00:00-0800\np1143\nsVcreated_time\np1144\nV2011-12-23T08:47:49-0800\np1145\nsVupdated_time\np1146\nV2012-09-21T12:58:00-0700\np1147\nsVcampaign_status\np1148\nI2\nsVid\np1149\nV6004300744165\np1150\nsVaccount_id\np1151\nI40156177\nsa(dp1152\nVname\np1153\nVSailor Jerry: 10 Most Tattooed Cities (Main Page)\np1154\nsVstart_time\np1155\nV2011-12-27T09:15:00-0800\np1156\nsVcampaign_id\np1157\nI6004324556965\nsVfrequency_cap\np1158\nI0\nsVdaily_imps\np1159\nI0\nsVlifetime_budget\np1160\nI30000\nsVend_time\np1161\nV2011-12-27T15:00:00-0800\np1162\nsVcreated_time\np1163\nV2011-12-27T09:07:18-0800\np1164\nsVupdated_time\np1165\nV2012-09-21T12:58:02-0700\np1166\nsVcampaign_status\np1167\nI2\nsVid\np1168\nV6004324556965\np1169\nsVaccount_id\np1170\nI40156177\nsa(dp1171\nVname\np1172\nVWall Street Journal: 10 Co'
p6
sS'hash'
p7
S'3b79ab28fdac80a5af0b010faa97b340f4087065'
p8
sS'stack'
p9
S''
s.