(dp1
S'args'
p2
S''
sS'methodname'
p3
S''
sS'packet_num'
p4
I11
sS'returnval'
p5
S'0-0700\np1696\nsVupdated_time\np1697\nV2012-09-21T13:09:15-0700\np1698\nsVcampaign_status\np1699\nI2\nsVid\np1700\nV6005366424365\np1701\nsVaccount_id\np1702\nI40156177\nsa(dp1703\nVdaily_budget\np1704\nI25000\nsVstart_time\np1705\nV2012-06-25T15:38:00-0700\np1706\nsVcampaign_id\np1707\nI6005371637565\nsVaccount_id\np1708\nI40156177\nsVdaily_imps\np1709\nI0\nsVend_time\np1710\nV2012-06-26T20:00:00-0700\np1711\nsVfrequency_cap\np1712\nI0\nsVcreated_time\np1713\nV2012-06-25T12:50:24-0700\np1714\nsVupdated_time\np1715\nV2012-09-21T13:09:17-0700\np1716\nsVcampaign_status\np1717\nI2\nsVid\np1718\nV6005371637565\np1719\nsVname\np1720\nVTED: June 2012 | Best-Quotes-From-The-Worlds-Naughtiest-Bear-Ted\np1721\nsa(dp1722\nVdaily_budget\np1723\nI35000\nsVstart_time\np1724\nV2012-06-26T14:04:51-0700\np1725\nsVcampaign_id\np1726\nI6005389379765\nsVaccount_id\np1727\nI40156177\nsVdaily_imps\np1728\nI0\nsVend_time\np1729\nV2012-07-13T20:30:00-0700\np1730\nsVfrequency_cap\np1731\nI0\nsVcreated_time\np1732\nV2012-06-26T14:04:51-0700\np1733\nsVupdated_time\np1734\nV2012-09-21T13:09:18-0700\np1735\nsVcampaign_status\np1736\nI2\nsVid\np1737\nV6005389379765\np1738\nsVname\np1739\nVVerizon FiOS: Phase 1 | June_July 2012 | 10-Movie-Plots-That-Would-Completely-Change-If-The\np1740\nsa(dp1741\nVdaily_budget\np1742\nI25000\nsVstart_time\np1743\nV2012-06-26T17:08:00-0700\np1744\nsVcampaign_id\np1745\nI6005389400965\nsVaccount_id\np1746\nI40156177\nsVdaily_imps\np1747\nI0\nsVend_time\np1748\nV2012-06-27T20:08:00-0700\np1749\nsVfrequency_cap\np1750\nI0\nsVcreated_time\np1751\nV2012-06-26T14:18:49-0700\np1752\nsVupdated_time\np1753\nV2012-09-21T13:09:20-0700\np1754\nsVcampaign_status\np1755\nI2\nsVid\np1756\nV6005389400965\np1757\nsVname\np1758\nVTED: June 2012 | The-Official-Mark-Wahlberg-Aging-Timeline-6Gxf\np1759\nsa(dp1760\nVdaily_budget\np1761\nI15000\nsVstart_time\np1762\nV2012-06-26T17:25:00-0700\np1763\nsVcampaign_id\np1764\nI6005389429765\nsVaccount_id\np1765\nI40156177\nsVdaily_imps\np1766\nI0\nsVend_time\np1767\nV2012-06-30T20:00:00-0700\np1768\nsVfrequency_cap\np1769\nI0\nsVcreated_time\np1770\nV2012-06-26T14:37:35-0700\np1771\nsVupdated_time\np1772\nV2012-09-21T13:09:22-0700\np1773\nsVcampaign_status\np1774\nI2\nsVid\np1775\nV6005389429765\np1776\nsVname\np1777\nVTED: June 2012 | 20-Celebrities-And-Their-Favorite-Toys-6Gxf\np1778\nsa(dp1779\nVdaily_budget\np1780\nI20000\nsVstart_time\np1781\nV2012-06-27T13:34:00-0700\np1782\nsVcampaign_id\np1783\nI6005402507165\nsVaccount_id\np1784\nI40156177\nsVdaily_imps\np1785\nI0\nsVend_time\np1786\nV2012-06-28T20:00:00-0700\np1787\nsVfrequency_cap\np1788\nI0\nsVcreated_time\np1789\nV2012-06-27T10:41:41-0700\np1790\nsVupdated_time\np1791\nV2012-09-21T13:09:24-0700\np1792\nsVcampaign_status\np1793\nI2\nsVid\np1794\nV6005402507165\np1795\nsVname\np1796\nVVitamin Water: May_June 2012 | Unexpected-Celebrity-Couples-From-The-80S-60Me\np1797\nsa(dp1798\nVdaily_budget\np1799\nI10000\nsVstart_time\np1800\nV2012-06-28T11:08:37-0700\np1801\nsVcampaign_id\np1802\nI6005409434165\nsVaccount_id\np1803\nI40156177\nsVdaily_imps\np1804\nI0\nsVend_time\np1805\nV2012-06-29T00:00:00-0700\np1806\nsVfrequency_cap\np1807\nI0\nsVcreated_time\np1808\nV2012-06-28T11:08:38-0700\np1809\nsVupdated_time\np1810\nV2012-09-21T13:09:26-0700\np1811\nsVcampaign_status\np1812\nI2\nsVid\np1813\nV6005409434165\np1814\nsVname\np1815\nVTest Story\np1816\nsa(dp1817\nVdaily_budget\np1818\nI50000\nsVstart_time\np1819\nV2012-06-29T11:26:40-0700\np1820\nsVcampaign_id\np1821\nI6005430161765\nsVaccount_id\np1822\nI40156177\nsVdaily_imps\np1823\nI0\nsVend_time\np1824\nV2012-06-30T20:30:00-0700\np1825\nsVfrequency_cap\np1826\nI0\nsVcreated_time\np1827\nV2012-06-29T11:26:41-0700\np1828\nsVupdated_time\np1829\nV2012-09-21T13:09:29-0700\np1830\nsVcampaign_status\np1831\nI2\nsVid\np1832\nV6005430161765\np1833\nsVname\np1834\nVOld Navy: June 2012 | where-are-they-now-the-guys-from-90s-boy-bands\np1835\nsa(dp1836\nVdaily_budget\np1837\nI10000\nsVstart_time\np1838\nV2012-06-29T15:28:00-0700\np1839\nsVcampaign_id\np1840\nI6005432239365\nsVaccount_id\np1841\nI40156177\nsVdaily_imps\np1842\nI0\nsVend_time\np1843\nV2012-07-08T20:00:00-0700\np1844\nsVfrequency_cap\np1845\nI0\nsVcreated_time\np1846\nV2012-06-29T12:37:00-0700\np1847\nsVupdated_time\np1848\nV2012-09-21T13:09:31-0700\np1849\nsVcampaign_status\np1850\nI2\nsVid\np1851\nV6005432239365\np1852\nsVname\np1853\nVCanon PowerShot: Upload Page\np1854\nsa(dp1855'
p6
sS'hash'
p7
S'41a4986cd31593c9899523de7193c8d58f7177fe'
p8
sS'stack'
p9
S''
s.