(dp1
S'args'
p2
S''
sS'methodname'
p3
S''
sS'packet_num'
p4
I5
sS'returnval'
p5
S'777\nI6005297574165\nsVfrequency_cap\np778\nI0\nsVdaily_imps\np779\nI0\nsVlifetime_budget\np780\nI40000\nsVend_time\np781\nV2012-06-13T20:00:00-0700\np782\nsVcreated_time\np783\nV2012-06-12T09:48:06-0700\np784\nsVupdated_time\np785\nV2012-06-13T12:57:04-0700\np786\nsVcampaign_status\np787\nI2\nsVid\np788\nV6005297574165\np789\nsVaccount_id\np790\nI40156177\nsa(dp791\nVdaily_budget\np792\nI100000\nsVstart_time\np793\nV2012-06-12T13:10:26-0700\np794\nsVcampaign_id\np795\nI6005297991165\nsVaccount_id\np796\nI40156177\nsVdaily_imps\np797\nI0\nsVend_time\np798\nV2012-06-19T00:00:00-0700\np799\nsVfrequency_cap\np800\nI0\nsVcreated_time\np801\nV2012-06-12T13:10:26-0700\np802\nsVupdated_time\np803\nV2012-09-21T13:07:54-0700\np804\nsVcampaign_status\np805\nI2\nsVid\np806\nV6005297991165\np807\nsVname\np808\nVVirgin Mobile: Q2 2012 | API SS | virginmobilelive/15-super-fast-things-4g-is-faster-than-5l87\np809\nsa(dp810\nVdaily_budget\np811\nI100000\nsVstart_time\np812\nV2012-06-12T13:19:09-0700\np813\nsVcampaign_id\np814\nI6005298006565\nsVaccount_id\np815\nI40156177\nsVdaily_imps\np816\nI0\nsVend_time\np817\nV2012-06-19T00:00:00-0700\np818\nsVfrequency_cap\np819\nI0\nsVcreated_time\np820\nV2012-06-12T13:19:09-0700\np821\nsVupdated_time\np822\nV2012-09-21T13:07:54-0700\np823\nsVcampaign_status\np824\nI2\nsVid\np825\nV6005298006565\np826\nsVname\np827\nVVirgin Mobile: Q2 2012 | API SS | virginmobilelive/10-ways-texting-makes-you-a-total-douche-5l87\np828\nsa(dp829\nVdaily_budget\np830\nI100000\nsVstart_time\np831\nV2012-06-12T13:20:04-0700\np832\nsVcampaign_id\np833\nI6005298009965\nsVaccount_id\np834\nI40156177\nsVdaily_imps\np835\nI0\nsVend_time\np836\nV2012-06-19T00:00:00-0700\np837\nsVfrequency_cap\np838\nI0\nsVcreated_time\np839\nV2012-06-12T13:20:04-0700\np840\nsVupdated_time\np841\nV2012-09-21T13:07:56-0700\np842\nsVcampaign_status\np843\nI2\nsVid\np844\nV6005298009965\np845\nsVname\np846\nVVirgin Mobile: Q2 2012 | API SS | virginmobilelive/game-of-phones-5l87\np847\nsa(dp848\nVdaily_budget\np849\nI100000\nsVstart_time\np850\nV2012-06-12T13:21:54-0700\np851\nsVcampaign_id\np852\nI6005298015365\nsVaccount_id\np853\nI40156177\nsVdaily_imps\np854\nI0\nsVend_time\np855\nV2012-06-19T00:00:00-0700\np856\nsVfrequency_cap\np857\nI0\nsVcreated_time\np858\nV2012-06-12T13:21:54-0700\np859\nsVupdated_time\np860\nV2012-09-21T13:07:58-0700\np861\nsVcampaign_status\np862\nI2\nsVid\np863\nV6005298015365\np864\nsVname\np865\nVVirgin Mobile: Q2 2012 | API SS | virginmobilelive/10-ways-mtv-used-to-own-summer-5l87\np866\nsa(dp867\nVdaily_budget\np868\nI100000\nsVstart_time\np869\nV2012-06-12T13:22:46-0700\np870\nsVcampaign_id\np871\nI6005298019765\nsVaccount_id\np872\nI40156177\nsVdaily_imps\np873\nI0\nsVend_time\np874\nV2012-06-19T00:00:00-0700\np875\nsVfrequency_cap\np876\nI0\nsVcreated_time\np877\nV2012-06-12T13:22:46-0700\np878\nsVupdated_time\np879\nV2012-09-21T13:08:00-0700\np880\nsVcampaign_status\np881\nI2\nsVid\np882\nV6005298019765\np883\nsVname\np884\nVVirgin Mobile: Q2 2012 | API SS | virginmobilelive/20-hot-dating-tips-from-hbo\np885\nsa(dp886\nVdaily_budget\np887\nI100000\nsVstart_time\np888\nV2012-06-12T13:26:52-0700\np889\nsVcampaign_id\np890\nI6005298035565\nsVaccount_id\np891\nI40156177\nsVdaily_imps\np892\nI0\nsVend_time\np893\nV2012-06-19T00:00:00-0700\np894\nsVfrequency_cap\np895\nI0\nsVcreated_time\np896\nV2012-06-12T13:26:52-0700\np897\nsVupdated_time\np898\nV2012-09-21T13:08:02-0700\np899\nsVcampaign_status\np900\nI2\nsVid\np901\nV6005298035565\np902\nsVname\np903\nVVirgin Mobile: Q2 2012 | API SS | drunk-text-expectations-vs-drunk-text-realities-5l87\np904\nsa(dp905\nVdaily_budget\np906\nI100000\nsVstart_time\np907\nV2012-06-12T13:28:37-0700\np908\nsVcampaign_id\np909\nI6005298040165\nsVaccount_id\np910\nI40156177\nsVdaily_imps\np911\nI0\nsVend_time\np912\nV2012-06-19T00:00:00-0700\np913\nsVfrequency_cap\np914\nI0\nsVcreated_time\np915\nV2012-06-12T13:28:37-0700\np916\nsVupdated_time\np917\nV2012-09-21T13:08:04-0700\np918\nsVcampaign_status\np919\nI2\nsVid\np920\nV6005298040165\np921\nsVname\np922\nVVirgin Mobile: Q2 2012 | API SS | 11-outrageous-and-bizzarre-texts-from-mom-5l87\np923\nsa(dp924\nVdaily_budget\np925\nI100000\nsVstart_time\np926\nV2012-06-12T13:32:53-0700\np927\nsVcampaign_id\np928\nI6005298072565\nsVaccount_id\np929\nI40156177\nsVdaily_imps\np930\nI0\nsVend_time\np931\nV2012-06-19T00:00:00-0700\np932\nsVfrequency_cap\np933\nI0\nsVcreated_time\np934\nV2012-06'
p6
sS'hash'
p7
S'41a4986cd31593c9899523de7193c8d58f7177fe'
p8
sS'stack'
p9
S''
s.