(dp1
S'args'
p2
S''
sS'methodname'
p3
S''
sS'packet_num'
p4
I6
sS'returnval'
p5
S'-12T13:32:53-0700\np935\nsVupdated_time\np936\nV2012-09-21T13:08:06-0700\np937\nsVcampaign_status\np938\nI2\nsVid\np939\nV6005298072565\np940\nsVname\np941\nVVirgin Mobile: Q2 2012 | API SS | the-19-most-ridiculous-texting-fails-5l87\np942\nsa(dp943\nVdaily_budget\np944\nI100000\nsVstart_time\np945\nV2012-06-12T13:33:59-0700\np946\nsVcampaign_id\np947\nI6005298091565\nsVaccount_id\np948\nI40156177\nsVdaily_imps\np949\nI0\nsVend_time\np950\nV2012-06-19T00:00:00-0700\np951\nsVfrequency_cap\np952\nI0\nsVcreated_time\np953\nV2012-06-12T13:33:59-0700\np954\nsVupdated_time\np955\nV2012-09-21T13:08:06-0700\np956\nsVcampaign_status\np957\nI2\nsVid\np958\nV6005298091565\np959\nsVname\np960\nVVirgin Mobile: Q2 2012 | API SS | 10-ways-to-lose-your-organ-donor-status-on-faceboo-5l87\np961\nsa(dp962\nVdaily_budget\np963\nI100000\nsVstart_time\np964\nV2012-06-12T13:34:51-0700\np965\nsVcampaign_id\np966\nI6005298096365\nsVaccount_id\np967\nI40156177\nsVdaily_imps\np968\nI0\nsVend_time\np969\nV2012-06-19T00:00:00-0700\np970\nsVfrequency_cap\np971\nI0\nsVcreated_time\np972\nV2012-06-12T13:34:51-0700\np973\nsVupdated_time\np974\nV2012-09-21T13:08:08-0700\np975\nsVcampaign_status\np976\nI2\nsVid\np977\nV6005298096365\np978\nsVname\np979\nVVirgin Mobile: Q2 2012 | API SS | 19-completely-absurd-cell-phone-accessories-5l87\np980\nsa(dp981\nVdaily_budget\np982\nI15000\nsVstart_time\np983\nV2012-06-12T17:40:00-0700\np984\nsVcampaign_id\np985\nI6005298241165\nsVaccount_id\np986\nI40156177\nsVdaily_imps\np987\nI0\nsVend_time\np988\nV2012-06-13T20:40:00-0700\np989\nsVfrequency_cap\np990\nI0\nsVcreated_time\np991\nV2012-06-12T14:43:59-0700\np992\nsVupdated_time\np993\nV2012-09-21T13:08:10-0700\np994\nsVcampaign_status\np995\nI2\nsVid\np996\nV6005298241165\np997\nsVname\np998\nVConan: June_2012 | The-Definitive-Collection-Of-Conan-Gifs\np999\nsa(dp1000\nVdaily_budget\np1001\nI50000\nsVstart_time\np1002\nV2012-06-13T07:24:59-0700\np1003\nsVcampaign_id\np1004\nI6005300046965\nsVaccount_id\np1005\nI40156177\nsVdaily_imps\np1006\nI0\nsVend_time\np1007\nV2012-06-30T20:30:00-0700\np1008\nsVfrequency_cap\np1009\nI0\nsVcreated_time\np1010\nV2012-06-13T07:24:59-0700\np1011\nsVupdated_time\np1012\nV2012-06-26T13:35:41-0700\np1013\nsVcampaign_status\np1014\nI2\nsVid\np1015\nV6005300046965\np1016\nsVname\np1017\nVWashington Lottery: June 2012 | 10-Crazy-Hobbies-You-Could-Take-Up-If-You-Won-The-68Vg\np1018\nsa(dp1019\nVname\np1020\nVHVR Phase 1 AMJ: June 2012 | 10-Foods-Made-Better-With-Ranch-Dressing\np1021\nsVstart_time\np1022\nV2012-06-13T08:02:13-0700\np1023\nsVcampaign_id\np1024\nI6005300097365\nsVfrequency_cap\np1025\nI0\nsVdaily_imps\np1026\nI0\nsVlifetime_budget\np1027\nI100000\nsVend_time\np1028\nV2012-06-15T20:30:00-0700\np1029\nsVcreated_time\np1030\nV2012-06-13T08:02:13-0700\np1031\nsVupdated_time\np1032\nV2012-09-21T13:08:12-0700\np1033\nsVcampaign_status\np1034\nI2\nsVid\np1035\nV6005300097365\np1036\nsVaccount_id\np1037\nI40156177\nsa(dp1038\nVname\np1039\nVHVR Phase 1 AMJ: June 2012 | Why-Ranch-Is-The-Best-Condiment\np1040\nsVstart_time\np1041\nV2012-06-16T06:30:00-0700\np1042\nsVcampaign_id\np1043\nI6005300214365\nsVfrequency_cap\np1044\nI0\nsVdaily_imps\np1045\nI0\nsVlifetime_budget\np1046\nI100000\nsVend_time\np1047\nV2012-06-19T20:30:00-0700\np1048\nsVcreated_time\np1049\nV2012-06-13T08:19:10-0700\np1050\nsVupdated_time\np1051\nV2012-09-21T13:08:13-0700\np1052\nsVcampaign_status\np1053\nI2\nsVid\np1054\nV6005300214365\np1055\nsVaccount_id\np1056\nI40156177\nsa(dp1057\nVname\np1058\nVConan: June_2012 | 10-Things-You-Probably-Didnt-Know-About-Conan-Ob\np1059\nsVstart_time\np1060\nV2012-06-13T11:27:00-0700\np1061\nsVcampaign_id\np1062\nI6005300247365\nsVfrequency_cap\np1063\nI0\nsVdaily_imps\np1064\nI0\nsVlifetime_budget\np1065\nI50000\nsVend_time\np1066\nV2012-06-14T20:00:00-0700\np1067\nsVcreated_time\np1068\nV2012-06-13T08:33:43-0700\np1069\nsVupdated_time\np1070\nV2012-09-21T13:08:15-0700\np1071\nsVcampaign_status\np1072\nI2\nsVid\np1073\nV6005300247365\np1074\nsVaccount_id\np1075\nI40156177\nsa(dp1076\nVname\np1077\nVABC: Baby Daddy: June 2012 | The-10-Funniest-Dads-On-Tv\np1078\nsVstart_time\np1079\nV2012-06-13T12:29:00-0700\np1080\nsVcampaign_id\np1081\nI6005300356765\nsVfrequency_cap\np1082\nI0\nsVdaily_imps\np1083\nI0\nsVlifetime_budget\np1084\nI85000\nsVend_time\np1085\nV2012-06-15T20:00:00-0700\np1086\nsVcreated_time\np1087\nV2012-06-13T09:45:37-0700\np1088\nsVupdated_time\np'
p6
sS'hash'
p7
S'41a4986cd31593c9899523de7193c8d58f7177fe'
p8
sS'stack'
p9
S''
s.