(dp1
S'args'
p2
S''
sS'methodname'
p3
S''
sS'packet_num'
p4
I37
sS'returnval'
p5
S'2fb53f77b9e7963cb\np4870\nsVname\np4871\nVEddie Murphy-00\np4872\nsVtitle\np4873\nVEddie Murphy!\np4874\nsVcreative_id\np4875\nV6006244085165\np4876\nsVpreview_url\np4877\nVhttp://www.facebook.com/ads/api/creative_preview.php?cid=6006244085165\np4878\nsVid\np4879\nV6006244085165\np4880\nsVimage_url\np4881\nVhttps://fbcdn-creative-a.akamaihd.net/hads-ak-ash3/s110x80/701895_6006844526965_32737_n.png\np4882\nsVcount_current_adgroups\np4883\nI1\nsVrun_status\np4884\nI1\nsVtype\np4885\nI1\nsVlink_url\np4886\nVhttp://www.buzzfeed.com/h1/fbad/spiketv/10-things-you-probably-didnt-know-about-eddie-mur\np4887\nsVview_tag\np4888\ng36\nsa(dp4889\nValt_view_tags\np4890\n(lp4891\nsVbody\np4892\nVCheck out "The Official Eddie Murphy Career Timeline" and get ready for his special!\np4893\nsVimage_hash\np4894\nVef39d53dbc5bacfbb28feb16a404c03f\np4895\nsVname\np4896\nVEddie Murphy\'s Career-00\np4897\nsVtitle\np4898\nVEddie Murphy\'s Career\np4899\nsVcreative_id\np4900\nV6006244093565\np4901\nsVpreview_url\np4902\nVhttp://www.facebook.com/ads/api/creative_preview.php?cid=6006244093565\np4903\nsVid\np4904\nV6006244093565\np4905\nsVimage_url\np4906\nVhttps://fbcdn-creative-a.akamaihd.net/hads-ak-prn1/s110x80/708206_6006845498165_36702_n.png\np4907\nsVcount_current_adgroups\np4908\nI1\nsVrun_status\np4909\nI1\nsVtype\np4910\nI1\nsVlink_url\np4911\nVhttp://www.buzzfeed.com/h1/fbad/spiketv/the-official-eddie-murphy-career-timeline\np4912\nsVview_tag\np4913\ng36\nsa(dp4914\nValt_view_tags\np4915\n(lp4916\nsVbody\np4917\nVThink you know everything about him? See "10 Things You Didn\'t Know About Eddie Murphy!"\np4918\nsVimage_hash\np4919\nVef39d53dbc5bacfbb28feb16a404c03f\np4920\nsVname\np4921\nVEddie Murphy\np4922\nsVtitle\np4923\nVEddie Murphy\np4924\nsVcreative_id\np4925\nV6006237243765\np4926\nsVpreview_url\np4927\nVhttp://www.facebook.com/ads/api/creative_preview.php?cid=6006237243765\np4928\nsVid\np4929\nV6006237243765\np4930\nsVimage_url\np4931\nVhttps://fbcdn-creative-a.akamaihd.net/hads-ak-prn1/s110x80/708206_6006845498165_36702_n.png\np4932\nsVcount_current_adgroups\np4933\nI1\nsVrun_status\np4934\nI1\nsVtype\np4935\nI1\nsVlink_url\np4936\nVhttp://www.buzzfeed.com/h1/fbad/spiketv/10-things-you-probably-didnt-know-about-eddie-mur\np4937\nsVview_tag\np4938\ng36\nsa(dp4939\nValt_view_tags\np4940\n(lp4941\nsVbody\np4942\nVFrom Usher to Queen, listen to our "OMG" Rdio playlist right now on BuzzFeed!\np4943\nsVimage_hash\np4944\nVa928ee4337ba74427691caedccafcdac\np4945\nsVname\np4946\nVWant to Listen to a Hit?-00-00-00-00-00\np4947\nsVtitle\np4948\nVIs Your Mind Blown?\np4949\nsVcreative_id\np4950\nV6006237478365\np4951\nsVpreview_url\np4952\nVhttp://www.facebook.com/ads/api/creative_preview.php?cid=6006237478365\np4953\nsVid\np4954\nV6006237478365\np4955\nsVimage_url\np4956\nVhttps://fbcdn-creative-a.akamaihd.net/hads-ak-ash3/s110x80/708187_6006845069165_27732_n.png\np4957\nsVcount_current_adgroups\np4958\nI3\nsVrun_status\np4959\nI1\nsVtype\np4960\nI1\nsVlink_url\np4961\nVhttp://www.buzzfeed.com/h1/fbad/buzzfeedmusicpartner/10-mind-blowing-tracks-for-the-mind-blown\np4962\nsVview_tag\np4963\ng36\nsa(dp4964\nValt_view_tags\np4965\n(lp4966\nsVbody\np4967\nVJust One of the "12 Little Ways To Win In Life" on BuzzFeed!\np4968\nsVimage_hash\np4969\nVc8f9db802851a977d1673345bb98baa3\np4970\nsVname\np4971\nVBeing Someone\'s Hero-00\np4972\nsVtitle\np4973\nVBeing Someone\'s Hero\np4974\nsVcreative_id\np4975\nV6006236679565\np4976\nsVpreview_url\np4977\nVhttp://www.facebook.com/ads/api/creative_preview.php?cid=6006236679565\np4978\nsVid\np4979\nV6006236679565\np4980\nsVimage_url\np4981\nVhttps://fbcdn-creative-a.akamaihd.net/hads-ak-prn1/s110x80/708172_6006845254565_17618_n.png\np4982\nsVcount_current_adgroups\np4983\nI1\nsVrun_status\np4984\nI1\nsVtype\np4985\nI1\nsVlink_url\np4986\nVhttp://ad.doubleclick.net/clk;265073608;90721754;l\np4987\nsVview_tag\np4988\ng36\nsa(dp4989\nVname\np4990\nVAd from a Page post #6,006,243,818,165\np4991\nsVauto_update\np4992\nI00\nsVstory_id\np4993\nV506684636018108\np4994\nsVcreative_id\np4995\nV6006243818165\np4996\nsVpreview_url\np4997\nVhttp://www.facebook.com/ads/api/creative_preview.php?cid=6006243818165\np4998\nsVaction_t\np4999\nVBgABAPcIAAZQo7mYCgAQAADYpY31SWINABoGCgAAABsBGQABzNO1i1jnAqkAAAAAAPAAfgLcAAAAAAAl/7sCqgAAAAAA8AB+At0AAAAAACX/uwF1AAAAAAABBtsAmwAAAAAAAAAIAGYAANpa5O1xpgC9'
p6
sS'hash'
p7
S'42d00dbe6c3c34789f06c3abb7f46220ef3aaad8'
p8
sS'stack'
p9
S''
s.