(dp1
S'args'
p2
S''
sS'methodname'
p3
S''
sS'packet_num'
p4
I72
sS'returnval'
p5
S'st!\np9434\nsVimage_hash\np9435\nV6487e4f3c31e3d6beb4a1a7bb1111a51\np9436\nsVname\np9437\nVMaking Your Lunch\np9438\nsVtitle\np9439\nVMaking Your Lunch\np9440\nsVcreative_id\np9441\nV6006077587365\np9442\nsVpreview_url\np9443\nVhttp://www.facebook.com/ads/api/creative_preview.php?cid=6006077587365\np9444\nsVid\np9445\nV6006077587365\np9446\nsVimage_url\np9447\nVhttps://fbcdn-creative-a.akamaihd.net/hads-ak-prn1/s110x80/708177_6006844661765_26134_n.jpg\np9448\nsVcount_current_adgroups\np9449\nI1\nsVrun_status\np9450\nI1\nsVtype\np9451\nI1\nsVlink_url\np9452\nVhttp://www.buzzfeed.com/h1/fbad/totinos/15-things-only-your-parents-can-understand\np9453\nsVview_tag\np9454\ng36\nsa(dp9455\nValt_view_tags\np9456\n(lp9457\nsVbody\np9458\nVJust one of the "15 Things Only Your Parents Can Understand." Check out the entire list!\np9459\nsVimage_hash\np9460\nV50c5d577563261fb58c76d2b5c13fe36\np9461\nsVname\np9462\nVMaking Your Lunch-00\np9463\nsVtitle\np9464\nVSleeping With Your Toys\np9465\nsVcreative_id\np9466\nV6006077651565\np9467\nsVpreview_url\np9468\nVhttp://www.facebook.com/ads/api/creative_preview.php?cid=6006077651565\np9469\nsVid\np9470\nV6006077651565\np9471\nsVimage_url\np9472\nVhttps://fbcdn-creative-a.akamaihd.net/hads-ak-ash3/s110x80/708195_6006844557565_24334_n.jpg\np9473\nsVcount_current_adgroups\np9474\nI1\nsVrun_status\np9475\nI1\nsVtype\np9476\nI1\nsVlink_url\np9477\nVhttp://www.buzzfeed.com/h1/fbad/totinos/15-things-only-your-parents-can-understand\np9478\nsVview_tag\np9479\ng36\nsa(dp9480\nValt_view_tags\np9481\n(lp9482\nsVbody\np9483\nVJust one of "Our Favorite Dog Actors" on BuzzFeed!\np9484\nsVimage_hash\np9485\nV9d1215fde1bec2561ef70f04251badb4\np9486\nsVname\np9487\nVUggie from "The Artist"\np9488\nsVtitle\np9489\nVUggie from "The Artist"\np9490\nsVcreative_id\np9491\nV6006077790765\np9492\nsVpreview_url\np9493\nVhttp://www.facebook.com/ads/api/creative_preview.php?cid=6006077790765\np9494\nsVid\np9495\nV6006077790765\np9496\nsVimage_url\np9497\nVhttps://fbcdn-creative-a.akamaihd.net/hads-ak-prn1/s110x80/708195_6006844987965_6929_n.jpg\np9498\nsVcount_current_adgroups\np9499\nI1\nsVrun_status\np9500\nI1\nsVtype\np9501\nI1\nsVlink_url\np9502\nVhttp://www.buzzfeed.com/h1/fbad/pedigree/15-of-our-favorite-dog-actors-6fjy\np9503\nsVview_tag\np9504\ng36\nsa(dp9505\nValt_view_tags\np9506\n(lp9507\nsVbody\np9508\nVFind out where to find it and check out more hidden messages and songs that didn\'t know!\np9509\nsVimage_hash\np9510\nVb17cbbb4456d8863be5b83cc8dbbba65\np9511\nsVname\np9512\nVHidden Kanye Track?-00\np9513\nsVtitle\np9514\nVHidden Kanye Track?\np9515\nsVcreative_id\np9516\nV6006055201965\np9517\nsVpreview_url\np9518\nVhttp://www.facebook.com/ads/api/creative_preview.php?cid=6006055201965\np9519\nsVid\np9520\nV6006055201965\np9521\nsVimage_url\np9522\nVhttps://fbcdn-creative-a.akamaihd.net/hads-ak-ash3/s110x80/701894_6006845120765_8795_n.jpg\np9523\nsVcount_current_adgroups\np9524\nI2\nsVrun_status\np9525\nI1\nsVtype\np9526\nI1\nsVlink_url\np9527\nVhttp://www.buzzfeed.com/h1/fbad/beatsbydre/9-hidden-songs-and-messages-in-music-that-you-prob-7jsw\np9528\nsVview_tag\np9529\ng36\nsa(dp9530\nValt_view_tags\np9531\n(lp9532\nsVbody\np9533\nVUnbelievable right? See the "10 Most Ridiculous Portrayals Of Technology In Film And TV!"\np9534\nsVimage_hash\np9535\nV4e2e8d128117d1db0d7afbcea90c13dc\np9536\nsVname\np9537\nVCSI Computer Scenes\np9538\nsVtitle\np9539\nVCSI Computer Scenes\np9540\nsVcreative_id\np9541\nV6006069210765\np9542\nsVpreview_url\np9543\nVhttp://www.facebook.com/ads/api/creative_preview.php?cid=6006069210765\np9544\nsVid\np9545\nV6006069210765\np9546\nsVimage_url\np9547\nVhttps://fbcdn-creative-a.akamaihd.net/hads-ak-prn1/s110x80/708171_6006844533165_38284_n.jpg\np9548\nsVcount_current_adgroups\np9549\nI1\nsVrun_status\np9550\nI1\nsVtype\np9551\nI1\nsVlink_url\np9552\nVhttp://www.buzzfeed.com/h1/fbad/microsoftoutlook/10-most-ridiculous-portrayals-of-technology-in-fil-76ab\np9553\nsVview_tag\np9554\ng36\nsa(dp9555\nValt_view_tags\np9556\n(lp9557\nsVbody\np9558\nVSecret code in their albums? Check out more hidden songs and messages in music!\np9559\nsVimage_hash\np9560\nVd757975c3b163edf35ca704728c11de1\np9561\nsVname\np9562\nVHidden Kanye Track?-00-00\np9563\nsVtitle\np9564\nVRadiohead Mindfreak\np9565\nsVcreative_id\np9566\nV6006073994965\np9567\nsVpreview_url\np9568\nVhtt'
p6
sS'hash'
p7
S'42d00dbe6c3c34789f06c3abb7f46220ef3aaad8'
p8
sS'stack'
p9
S''
s.