(dp1
S'args'
p2
S''
sS'methodname'
p3
S''
sS'packet_num'
p4
I21
sS'returnval'
p5
S's-ak-ash3/s110x80/701889_6006845168165_51791_n.png\np2802\nsVcount_current_adgroups\np2803\nI1\nsVrun_status\np2804\nI1\nsVtype\np2805\nI1\nsVlink_url\np2806\nVhttp://www.buzzfeed.com/h1/fbad/generalelectric/see-the-east-coast-in-156-seconds\np2807\nsVview_tag\np2808\ng36\nsa(dp2809\nValt_view_tags\np2810\n(lp2811\nsVbody\np2812\nVAll aboard the GE Juice Train & see where your orange juice comes from!\np2813\nsVimage_hash\np2814\nVa3cba226f768254da107eca97143874e\np2815\nsVname\np2816\nVA 3-Min East Coast Tour?-00\np2817\nsVtitle\np2818\nVHow is OJ Made?\np2819\nsVcreative_id\np2820\nV6006196154565\np2821\nsVpreview_url\np2822\nVhttp://www.facebook.com/ads/api/creative_preview.php?cid=6006196154565\np2823\nsVid\np2824\nV6006196154565\np2825\nsVimage_url\np2826\nVhttps://fbcdn-creative-a.akamaihd.net/hads-ak-ash3/s110x80/708199_6006845033965_1864_n.png\np2827\nsVcount_current_adgroups\np2828\nI1\nsVrun_status\np2829\nI1\nsVtype\np2830\nI1\nsVlink_url\np2831\nVhttp://www.buzzfeed.com/h1/fbad/generalelectric/see-the-east-coast-in-156-seconds\np2832\nsVview_tag\np2833\ng36\nsa(dp2834\nValt_view_tags\np2835\n(lp2836\nsVbody\np2837\nVDo you have what it takes to be a geek? Check it out on BuzzFeed!\np2838\nsVimage_hash\np2839\nV40a5b87d70599b11c23bc8dad45aea5b\np2840\nsVname\np2841\nVLightsaber Battle!\np2842\nsVtitle\np2843\nVLightsaber Battle!\np2844\nsVcreative_id\np2845\nV6006195419565\np2846\nsVpreview_url\np2847\nVhttp://www.facebook.com/ads/api/creative_preview.php?cid=6006195419565\np2848\nsVid\np2849\nV6006195419565\np2850\nsVimage_url\np2851\nVhttps://fbcdn-creative-a.akamaihd.net/hads-ak-prn1/s110x80/708192_6006844430765_57539_n.png\np2852\nsVcount_current_adgroups\np2853\nI1\nsVrun_status\np2854\nI1\nsVtype\np2855\nI1\nsVlink_url\np2856\nVhttp://www.buzzfeed.com/h1/fbad/tmobile/14-things-every-geek-should-own-4hce\np2857\nsVview_tag\np2858\ng36\nsa(dp2859\nValt_view_tags\np2860\n(lp2861\nsVbody\np2862\nVCheck out More "Things Every Geek Should Own" on BuzzFeed!\np2863\nsVimage_hash\np2864\nV2c353aca3013744af2aef17585bcc329\np2865\nsVname\np2866\nVLightsaber Battle!-00\np2867\nsVtitle\np2868\nVA Nintendo Coffee Table?\np2869\nsVcreative_id\np2870\nV6006195450765\np2871\nsVpreview_url\np2872\nVhttp://www.facebook.com/ads/api/creative_preview.php?cid=6006195450765\np2873\nsVid\np2874\nV6006195450765\np2875\nsVimage_url\np2876\nVhttps://fbcdn-creative-a.akamaihd.net/hads-ak-prn1/s110x80/708181_6006844316765_32355_n.png\np2877\nsVcount_current_adgroups\np2878\nI1\nsVrun_status\np2879\nI1\nsVtype\np2880\nI1\nsVlink_url\np2881\nVhttp://www.buzzfeed.com/h1/fbad/tmobile/14-things-every-geek-should-own-4hce\np2882\nsVview_tag\np2883\ng36\nsa(dp2884\nValt_view_tags\np2885\n(lp2886\nsVbody\np2887\nVCheck out More "Things Every Geek Should Own" on BuzzFeed!\np2888\nsVimage_hash\np2889\nV8aa8c7207ddbf52d21556b34461cb844\np2890\nsVname\np2891\nVLightsaber Battle!-00-00\np2892\nsVtitle\np2893\nVAn 8-Bit Lamp!\np2894\nsVcreative_id\np2895\nV6006195465965\np2896\nsVpreview_url\np2897\nVhttp://www.facebook.com/ads/api/creative_preview.php?cid=6006195465965\np2898\nsVid\np2899\nV6006195465965\np2900\nsVimage_url\np2901\nVhttps://fbcdn-creative-a.akamaihd.net/hads-ak-prn1/s110x80/708199_6006844880165_48744_n.png\np2902\nsVcount_current_adgroups\np2903\nI1\nsVrun_status\np2904\nI1\nsVtype\np2905\nI1\nsVlink_url\np2906\nVhttp://www.buzzfeed.com/h1/fbad/tmobile/14-things-every-geek-should-own-4hce\np2907\nsVview_tag\np2908\ng36\nsa(dp2909\nVname\np2910\nVAd from a Page post #6,006,320,339,565\np2911\nsVauto_update\np2912\nI00\nsVstory_id\np2913\nV309052162541668\np2914\nsVcreative_id\np2915\nV6006320339565\np2916\nsVpreview_url\np2917\nVhttp://www.facebook.com/ads/api/creative_preview.php?cid=6006320339565\np2918\nsVaction_t\np2919\nVBgABAQcIAAZQq+TMCgAJAAAAAImt0MwKABAAANiljfVJYg0AGgYKAAAACwEKAAAAAAAAAFAAuAABGRTQXYhkALkAAAAAAAAAZAC6AAFZBF8C7x8CIwAAAAAAAAAIAMMAAABPVFI0HgG7AAAAAAAAAGoACgAAAACJrdDMAAEAARkU0F2IZAG2AAAAAFCr5MwB5AABGRTQXYhkDQAbBgsAAAABQAMAAAFBQ2hlY2sgb3V0IHRoZXNlIGluc2FuZSBXb3JsZCBSZWNvcmQgaG9sZGVycy4gaHR0cDovL2J6ZmQuaXQvVWRxakF1IG9vb29vIDggV29ybGQgUmVjb3JkIEZlYXRzIFRoYXQgV2lsbCBCbG93IFlvdXIgTWluZCBvb29vbyBUaGUgYXJlIHNvbWUgaW5jcmVkaWJsZSB3b3JsZCByZWNvcmRzIG91dCB0aGVyZS4gVGFrZSBhIGxvb2sgYXQgc29tZSBhbWF6aW5nIHN0dW50cyBwZW9wbGUgaGF2ZSBjb21wbGV0ZWQgdG8gcHVzaCB0aGUgbGltaXRzIG'
p6
sS'hash'
p7
S'42d00dbe6c3c34789f06c3abb7f46220ef3aaad8'
p8
sS'stack'
p9
S''
s.