(dp1
S'args'
p2
S''
sS'methodname'
p3
S''
sS'packet_num'
p4
I91
sS'returnval'
p5
S'carved into the skin? See more "Things You Never Knew About Tattoos!"\np11882\nsVimage_hash\np11883\nVb077e694ed58ba16543bfb8a6e7237e7\np11884\nsVname\np11885\nVMaori Tattoos \np11886\nsVtitle\np11887\nVMaori Tattoos \np11888\nsVcreative_id\np11889\nV6006001885165\np11890\nsVpreview_url\np11891\nVhttp://www.facebook.com/ads/api/creative_preview.php?cid=6006001885165\np11892\nsVid\np11893\nV6006001885165\np11894\nsVimage_url\np11895\nVhttps://fbcdn-creative-a.akamaihd.net/hads-ak-snc7/s110x80/701888_6006845112965_28949_n.jpg\np11896\nsVcount_current_adgroups\np11897\nI1\nsVrun_status\np11898\nI1\nsVtype\np11899\nI1\nsVlink_url\np11900\nVhttp://www.buzzfeed.com/h1/fbad/inkmaster/15-things-you-probably-never-knew-about-tattoos\np11901\nsVview_tag\np11902\ng36\nsa(dp11903\nValt_view_tags\np11904\n(lp11905\nsVbody\np11906\nVWhat are they thinking? Check out "The 13 Biggest Tattoo Spelling Fails" on BuzzFeed! \np11907\nsVimage_hash\np11908\nV7e8e739f96509a2b66d288a23b4a0b0a\np11909\nsVname\np11910\nVSpell Check Much?\np11911\nsVtitle\np11912\nVSpell Check Much?\np11913\nsVcreative_id\np11914\nV6006001495165\np11915\nsVpreview_url\np11916\nVhttp://www.facebook.com/ads/api/creative_preview.php?cid=6006001495165\np11917\nsVid\np11918\nV6006001495165\np11919\nsVimage_url\np11920\nVhttps://fbcdn-creative-a.akamaihd.net/hads-ak-prn1/s110x80/708186_6006844807165_2927_n.jpg\np11921\nsVcount_current_adgroups\np11922\nI1\nsVrun_status\np11923\nI1\nsVtype\np11924\nI1\nsVlink_url\np11925\nVhttp://www.buzzfeed.com/h1/fbad/inkmaster/the-13-biggest-tattoo-spelling-fails\np11926\nsVview_tag\np11927\ng36\nsa(dp11928\nValt_view_tags\np11929\n(lp11930\nsVbody\np11931\nVIt made our list of the "10 Jaw-Dropping Victories Presented By GIFs!" Check out the rest!\np11932\nsVimage_hash\np11933\nV68bd80e98975aa359dd528043f32a6cc\np11934\nsVname\np11935\nVMcKayla Maroney\'s Vault\np11936\nsVtitle\np11937\nVMcKayla Maroney\'s Vault\np11938\nsVcreative_id\np11939\nV6006002545965\np11940\nsVpreview_url\np11941\nVhttp://www.facebook.com/ads/api/creative_preview.php?cid=6006002545965\np11942\nsVid\np11943\nV6006002545965\np11944\nsVimage_url\np11945\nVhttps://fbcdn-creative-a.akamaihd.net/hads-ak-prn1/s110x80/708167_6006844685565_17502_n.jpg\np11946\nsVcount_current_adgroups\np11947\nI1\nsVrun_status\np11948\nI1\nsVtype\np11949\nI1\nsVlink_url\np11950\nVhttp://www.buzzfeed.com/h1/fbad/microsoftbing/10-jaw-dropping-victories-presented-by-gifs\np11951\nsVview_tag\np11952\ng36\nsa(dp11953\nValt_view_tags\np11954\n(lp11955\nsVbody\np11956\nVJust One of the "10 Not Normal Ideas That Forever Changed The World" - on BuzzFeed!\np11957\nsVimage_hash\np11958\nVe172e9bb603ce6d00682a2fbe8d2eed3\np11959\nsVname\np11960\nVWomen\'s Rights Movement\np11961\nsVtitle\np11962\nVWomen\'s Rights Movement\np11963\nsVcreative_id\np11964\nV6006002207765\np11965\nsVpreview_url\np11966\nVhttp://www.facebook.com/ads/api/creative_preview.php?cid=6006002207765\np11967\nsVid\np11968\nV6006002207765\np11969\nsVimage_url\np11970\nVhttps://fbcdn-creative-a.akamaihd.net/hads-ak-prn1/s110x80/701894_6006845405565_32847_n.jpg\np11971\nsVcount_current_adgroups\np11972\nI1\nsVrun_status\np11973\nI1\nsVtype\np11974\nI1\nsVlink_url\np11975\nVhttp://ad.doubleclick.net/clk;263068122;88398972;x\np11976\nsVview_tag\np11977\ng36\nsa(dp11978\nValt_view_tags\np11979\n(lp11980\nsVbody\np11981\nVCheck out "20 Not Normal Uses For Everyday Things" on BuzzFeed!\np11982\nsVimage_hash\np11983\nV2c4fb1d29a5e27a8c79738ac24eff0a1\np11984\nsVname\np11985\nVA Mac Bottle Opener?-00\np11986\nsVtitle\np11987\nVA Mac Bread Slicer?\np11988\nsVcreative_id\np11989\nV6006002180565\np11990\nsVpreview_url\np11991\nVhttp://www.facebook.com/ads/api/creative_preview.php?cid=6006002180565\np11992\nsVid\np11993\nV6006002180565\np11994\nsVimage_url\np11995\nVhttps://fbcdn-creative-a.akamaihd.net/hads-ak-prn1/s110x80/708181_6006844317965_28038_n.jpg\np11996\nsVcount_current_adgroups\np11997\nI1\nsVrun_status\np11998\nI1\nsVtype\np11999\nI1\nsVlink_url\np12000\nVhttp://ad.doubleclick.net/clk;263065399;88398972;k\np12001\nsVview_tag\np12002\ng36\nsa(dp12003\nValt_view_tags\np12004\n(lp12005\nsVbody\np12006\nVCheck out "20 Not Normal Uses For Everyday Things" on BuzzFeed!\np12007\nsVimage_hash\np12008\nV212e02e27c6b9a120f63b4a00505d917\np12009\nsVname\np12010\nVA Mac Bottle Opener?-00-00\np12011\nsVtitle\n'
p6
sS'hash'
p7
S'42d00dbe6c3c34789f06c3abb7f46220ef3aaad8'
p8
sS'stack'
p9
S''
s.