(dp1
S'args'
p2
S''
sS'methodname'
p3
S''
sS'packet_num'
p4
I79
sS'returnval'
p5
S'e\np10336\nVGirls Night Out!\np10337\nsVcreative_id\np10338\nV6006046947965\np10339\nsVpreview_url\np10340\nVhttp://www.facebook.com/ads/api/creative_preview.php?cid=6006046947965\np10341\nsVid\np10342\nV6006046947965\np10343\nsVimage_url\np10344\nVhttps://fbcdn-creative-a.akamaihd.net/hads-ak-prn1/s110x80/708202_6006845574765_13337_n.jpg\np10345\nsVcount_current_adgroups\np10346\nI2\nsVrun_status\np10347\nI1\nsVtype\np10348\nI1\nsVlink_url\np10349\nVhttp://www.buzzfeed.com/h1/fbad/magicmike/a-handy-guide-doing-girls-night-out-right-5go3\np10350\nsVview_tag\np10351\ng36\nsa(dp10352\nVname\np10353\nVAd from a Page post #6,006,049,516,965\np10354\nsVauto_update\np10355\nI00\nsVstory_id\np10356\nV294137327356830\np10357\nsVcreative_id\np10358\nV6006049516965\np10359\nsVpreview_url\np10360\nVhttp://www.facebook.com/ads/api/creative_preview.php?cid=6006049516965\np10361\nsVaction_t\np10362\nVBgABAQcIAAZQgILYCgAJAAAAAImt0MwKABAAANiljfVJYg0AGgYKAAAADAEKAAAAAAAAAFAAuAABC4Qu6YueALkAAAAAAAAAZAC6AACvCMHkMg8CIwAAAAAAAAAIAMMAAABPVFI0HgG7AAAAAAAAAGoACgAAAACJrdDMAR4AAAAAOJQysgABAAELhC7pi54BtgAAAABQgILYAeQAAQuELumLng0AGwYLAAAAAUADAAAA8kNoZWNrIG91dCB0aGVzZSBtaW5kLWJsb3dpbmcsICJOb3QgTm9ybWFsIiBwbGFjZXMgLSBhbGwgb3ZlciB0aGUgd29ybGQhIG9vb29vIDI1IFBsYWNlcyBUaGF0IExvb2sgTm90IE5vcm1hbCwgQnV0IEFyZSBBY3R1YWxseSBSZWFsIG9vb29vIFByZXBhcmUgdG8gaGF2ZSB5b3VyIG1pbmQgYmxvd24uIFdlIHRpcCBvdXIgaGF0cyB0byB0aG9zZSB3aG8gc2VlIHRoaW5ncyBkaWZmZXJlbnRseS4gTUlOSSAuIE5PVCBOT1JNQUwuCgAcAAELhC7pi54A\np10363\nsVaction_spec\np10364\nNsVobject_id\np10365\nV238205562866018\np10366\nsVcount_current_adgroups\np10367\nI1\nsVrun_status\np10368\nI1\nsVtype\np10369\nI27\nsVid\np10370\nV6006049516965\np10371\nsa(dp10372\nVname\np10373\nVSponsored story #6,006,049,518,765\np10374\nsVcreative_id\np10375\nV6006049518765\np10376\nsVpreview_url\np10377\nVhttp://www.facebook.com/ads/api/creative_preview.php?cid=6006049518765\np10378\nsVobject_id\np10379\nV238205562866018\np10380\nsVaction_spec\np10381\n(lp10382\n(dp10383\nVpost\np10384\nV294137327356830\np10385\nsVaction.type\np10386\nVlike\np10387\nsa(dp10388\nVpost\np10389\nV294137327356830\np10390\nsVaction.type\np10391\nVcomment\np10392\nsa(dp10393\nVpost.object\np10394\nV294137327356830\np10395\nsVaction.type\np10396\nVpost\np10397\nsasVcluster_id\np10398\nI6006049516165\nsVcount_current_adgroups\np10399\nI1\nsVrun_status\np10400\nI1\nsVtype\np10401\nI25\nsVid\np10402\nV6006049518765\np10403\nsa(dp10404\nValt_view_tags\np10405\n(lp10406\nsVbody\np10407\nVThink they\'re just for decoration? Check out the "15 Pumpkins That Know How To Party!" \np10408\nsVimage_hash\np10409\nV08183d4f488b3c1cb1a8d79015ddb856\np10410\nsVname\np10411\nVParty Pumpkins\np10412\nsVtitle\np10413\nVParty Pumpkins\np10414\nsVcreative_id\np10415\nV6006043789765\np10416\nsVpreview_url\np10417\nVhttp://www.facebook.com/ads/api/creative_preview.php?cid=6006043789765\np10418\nsVid\np10419\nV6006043789765\np10420\nsVimage_url\np10421\nVhttps://fbcdn-creative-a.akamaihd.net/hads-ak-ash3/s110x80/701888_6006844093365_25049_n.jpg\np10422\nsVcount_current_adgroups\np10423\nI1\nsVrun_status\np10424\nI1\nsVtype\np10425\nI1\nsVlink_url\np10426\nVhttp://www.buzzfeed.com/h1/fbad/virginmobilelive/15-pumpkins-that-know-how-to-party-5l87\np10427\nsVview_tag\np10428\ng36\nsa(dp10429\nValt_view_tags\np10430\n(lp10431\nsVbody\np10432\nVJust one of the "15 Hashtags That Prove College Is Just Like Kindergarten!" See the rest!\np10433\nsVimage_hash\np10434\nV3afb631272c604d8cd85bbc9ed6f3f5e\np10435\nsVname\np10436\nV#NapTime\np10437\nsVtitle\np10438\nV#NapTime\np10439\nsVcreative_id\np10440\nV6006043780765\np10441\nsVpreview_url\np10442\nVhttp://www.facebook.com/ads/api/creative_preview.php?cid=6006043780765\np10443\nsVid\np10444\nV6006043780765\np10445\nsVimage_url\np10446\nVhttps://fbcdn-creative-a.akamaihd.net/hads-ak-prn1/s110x80/708206_6006844394565_49348_n.jpg\np10447\nsVcount_current_adgroups\np10448\nI1\nsVrun_status\np10449\nI1\nsVtype\np10450\nI1\nsVlink_url\np10451\nVhttp://www.buzzfeed.com/h1/fbad/virginmobilelive/15-hashtags-that-prove-college-is-just-like-kinder-5l87\np10452\nsVview_tag\np10453\ng36\nsa(dp10454\nValt_view_tags\np10455\n(lp10456\nsVbody\np10457\nVBig mistake. Instead, check out "The DOs And DON\'Ts Of Halloween" and learn what to do!\np10458\nsVimage_hash\np10459\nV0a1426fd34c7399a89ac238d3fa14cda\np10460\n'
p6
sS'hash'
p7
S'42d00dbe6c3c34789f06c3abb7f46220ef3aaad8'
p8
sS'stack'
p9
S''
s.