(dp1
S'args'
p2
S''
sS'methodname'
p3
S''
sS'packet_num'
p4
I9
sS'returnval'
p5
S'eel-real-old\np1230\nsVview_tag\np1231\ng36\nsa(dp1232\nValt_view_tags\np1233\n(lp1234\nsVbody\np1235\nVFind more "Incredible Examples Of Video-Game-Inspired Art" on BuzzFeed!\np1236\nsVimage_hash\np1237\nV4a6d20ea8e368e13f3eb6312841cb4cf\np1238\nsVname\np1239\nVThe 8-Bit Lebowski-00\np1240\nsVtitle\np1241\nV8- Bit Lego Luigi\np1242\nsVcreative_id\np1243\nV6006574963565\np1244\nsVpreview_url\np1245\nVhttp://www.facebook.com/ads/api/creative_preview.php?cid=6006574963565\np1246\nsVid\np1247\nV6006574963565\np1248\nsVimage_url\np1249\nVhttps://fbcdn-creative-a.akamaihd.net/hads-ak-ash3/s110x80/708164_6006574926365_2713_n.jpg\np1250\nsVcount_current_adgroups\np1251\nI1\nsVrun_status\np1252\nI1\nsVtype\np1253\nI1\nsVlink_url\np1254\nVhttp://ad.doubleclick.net/clk;265754765;91510613;m\np1255\nsVview_tag\np1256\ng36\nsa(dp1257\nValt_view_tags\np1258\n(lp1259\nsVbody\np1260\nVFind more "Incredible Examples Of Video-Game-Inspired Art" on BuzzFeed!\np1261\nsVimage_hash\np1262\nV7fc801d9e8d06d89a2ed1c735b226935\np1263\nsVname\np1264\nVThe 8-Bit Lebowski\np1265\nsVtitle\np1266\nVThe 8-Bit Lebowski\np1267\nsVcreative_id\np1268\nV6006574921165\np1269\nsVpreview_url\np1270\nVhttp://www.facebook.com/ads/api/creative_preview.php?cid=6006574921165\np1271\nsVid\np1272\nV6006574921165\np1273\nsVimage_url\np1274\nVhttps://fbcdn-creative-a.akamaihd.net/hads-ak-prn1/s110x80/708188_6006574887565_51504_n.jpg\np1275\nsVcount_current_adgroups\np1276\nI1\nsVrun_status\np1277\nI1\nsVtype\np1278\nI1\nsVlink_url\np1279\nVhttp://ad.doubleclick.net/clk;265754765;91510613;m\np1280\nsVview_tag\np1281\ng36\nsa(dp1282\nValt_view_tags\np1283\n(lp1284\nsVbody\np1285\nVFind out more "Awesome Facts You Never Knew About Classic 8-Bit Video Games" on BuzzFeed!\np1286\nsVimage_hash\np1287\nVb617722c841caa30f410ce3a6b191c30\np1288\nsVname\np1289\nVZelda\'s Rupee Limit?\np1290\nsVtitle\np1291\nVZelda\'s Rupee Limit?\np1292\nsVcreative_id\np1293\nV6006574753165\np1294\nsVpreview_url\np1295\nVhttp://www.facebook.com/ads/api/creative_preview.php?cid=6006574753165\np1296\nsVid\np1297\nV6006574753165\np1298\nsVimage_url\np1299\nVhttps://fbcdn-creative-a.akamaihd.net/hads-ak-ash3/s110x80/701887_6006574665765_43942_n.jpg\np1300\nsVcount_current_adgroups\np1301\nI1\nsVrun_status\np1302\nI1\nsVtype\np1303\nI1\nsVlink_url\np1304\nVhttp://ad.doubleclick.net/clk;265754758;91510604;o\np1305\nsVview_tag\np1306\ng36\nsa(dp1307\nValt_view_tags\np1308\n(lp1309\nsVbody\np1310\nVCheck out "The 10 Best Things GIRLS Have Ever Said" on BuzzFeed!\np1311\nsVimage_hash\np1312\nV4329ccaa598e68b7a18ecde743e4dc72\np1313\nsVname\np1314\nVKanye Occupying Wall St?-01-00-00-00\np1315\nsVtitle\np1316\nVYour Fave "Girls" Quotes\np1317\nsVcreative_id\np1318\nV6006576675565\np1319\nsVpreview_url\np1320\nVhttp://www.facebook.com/ads/api/creative_preview.php?cid=6006576675565\np1321\nsVid\np1322\nV6006576675565\np1323\nsVimage_url\np1324\nVhttps://fbcdn-creative-a.akamaihd.net/hads-ak-prn1/s110x80/708168_6006575787765_53842_n.jpg\np1325\nsVcount_current_adgroups\np1326\nI1\nsVrun_status\np1327\nI1\nsVtype\np1328\nI1\nsVlink_url\np1329\nVhttp://ad.doubleclick.net/clk;265750243;91504188;j\np1330\nsVview_tag\np1331\ng36\nsa(dp1332\nValt_view_tags\np1333\n(lp1334\nsVbody\np1335\nVCheck out "The 10 Best Things GIRLS Have Ever Said" on BuzzFeed!\np1336\nsVimage_hash\np1337\nV28eef846b3f197e4339b519ba17e8c2b\np1338\nsVname\np1339\nVKanye Occupying Wall St?-01-00-00-00-00\np1340\nsVtitle\np1341\nVThe Least Virginy Virgin\np1342\nsVcreative_id\np1343\nV6006576691565\np1344\nsVpreview_url\np1345\nVhttp://www.facebook.com/ads/api/creative_preview.php?cid=6006576691565\np1346\nsVid\np1347\nV6006576691565\np1348\nsVimage_url\np1349\nVhttps://fbcdn-creative-a.akamaihd.net/hads-ak-prn1/s110x80/708166_6006576687765_32006_n.jpg\np1350\nsVcount_current_adgroups\np1351\nI1\nsVrun_status\np1352\nI1\nsVtype\np1353\nI1\nsVlink_url\np1354\nVhttp://ad.doubleclick.net/clk;265750243;91504188;j\np1355\nsVview_tag\np1356\ng36\nsa(dp1357\nValt_view_tags\np1358\n(lp1359\nsVbody\np1360\nVFind out "10 Awesome Facts You Never Knew About Classic 8-Bit Video Games" on BuzzFeed!\np1361\nsVimage_hash\np1362\nVaab72436051303eb705919e63a0e1062\np1363\nsVname\np1364\nVZelda\'s Rupee Limit?-00\np1365\nsVtitle\np1366\nVDonkey Kong\'s Roots\np1367\nsVcreative_id\np1368\nV6006574795965\np1369\nsVpreview_url\np1370\nVhttp://www.faceboo'
p6
sS'hash'
p7
S'42d00dbe6c3c34789f06c3abb7f46220ef3aaad8'
p8
sS'stack'
p9
S''
s.