(dp1
S'args'
p2
S''
sS'methodname'
p3
S''
sS'packet_num'
p4
I35
sS'returnval'
p5
S'_source=facebook&utm_medium=seed&utm_campaign=climatereality\np4617\nsVview_tag\np4618\ng36\nsa(dp4619\nValt_view_tags\np4620\n(lp4621\nsVbody\np4622\nVOut of this world? See more of the "15 Things That Look Like They Were Made By Aliens!"\np4623\nsVimage_hash\np4624\nV35d6fa4602c6d2032a61bf656d7543ca\np4625\nsVname\np4626\nVThe Atomium-00-00\np4627\nsVtitle\np4628\nVThe Helix Bridge \np4629\nsVcreative_id\np4630\nV6006236346165\np4631\nsVpreview_url\np4632\nVhttp://www.facebook.com/ads/api/creative_preview.php?cid=6006236346165\np4633\nsVid\np4634\nV6006236346165\np4635\nsVimage_url\np4636\nVhttps://fbcdn-creative-a.akamaihd.net/hads-ak-ash3/s110x80/708191_6006844366365_15661_n.png\np4637\nsVcount_current_adgroups\np4638\nI1\nsVrun_status\np4639\nI1\nsVtype\np4640\nI1\nsVlink_url\np4641\nVhttp://www.buzzfeed.com/h1/fbad/pepsinext/15-things-that-were-definitely-made-by-aliens-5feb\np4642\nsVview_tag\np4643\ng36\nsa(dp4644\nVname\np4645\nVAd from a Page post #6,006,246,569,165\np4646\nsVauto_update\np4647\nI00\nsVstory_id\np4648\nV302768389827035\np4649\nsVcreative_id\np4650\nV6006246569165\np4651\nsVpreview_url\np4652\nVhttp://www.facebook.com/ads/api/creative_preview.php?cid=6006246569165\np4653\nsVobject_id\np4654\nV238205562866018\np4655\nsVaction_spec\np4656\nNsVcount_current_adgroups\np4657\nI1\nsVrun_status\np4658\nI1\nsVtype\np4659\nI27\nsVid\np4660\nV6006246569165\np4661\nsVaction_t\np4662\nVBgABAQcIAAZQpCefCgAJAAAAAImt0MwKABAAANiljfVJYg0AGgYKAAAACwEKAAAAAAAAAFAAuAABE13CUynbALkAAAAAAAAAZAC6AAEPrR4vrh4CIwAAAAAAAAAIAMMAAABPVFI0HgG7AAAAAAAAAGoACgAAAACJrdDMAAEAARNdwlMp2wG2AAAAAFCkJ58B5AABE13CUynbDQAbBgsAAAABQAMAAAFHWU9VJ1JFIElOVklURUQgdG8gY2hhbmdlIHRoZSB3b3JsZC4gV2F0Y2ggIjI0IEhvdXJzIG9mIFJlYWxpdHk6IFRoZSBEaXJ0eSBXZWF0aGVyIFJlcG9ydCIgTGl2ZSBmb3Igc29sdXRpb25zIHRvIHRoZSBDbGltYXRlIENyaXNpcyEKaHR0cDovL2J6ZmQuaXQvUWVycHdPIG9vb29vIENsaW1hdGUgUmVhbGl0eSBQcm9qZWN0IG9vb29vIENsaW1hdGUgUmVhbGl0eSBQcm9qZWN0IChjbGltYXRlcmVhbGl0eSkgb24gQnV6ekZlZWQuIEJ1enpGZWVkIGlzIHRoZSBiZXN0IHBsYWNlIHRvIHBvc3QsIGZpbmQsIGFuZCBzaGFyZSB0aGUgaG90dGVzdCBjb250ZW50IG9uIHRoZSB3ZWIuCgAcAAETXcJTKdsA\np4663\nsa(dp4664\nValt_view_tags\np4665\n(lp4666\nsVbody\np4667\nVJust One of the "12 Little Ways To Win In Life" on BuzzFeed!\np4668\nsVimage_hash\np4669\nV7a0a7dbecd1c142c103d8462fc9e69a4\np4670\nsVname\np4671\nVBeing Someone\'s Hero\np4672\nsVtitle\np4673\nVBeing Someone\'s Hero\np4674\nsVcreative_id\np4675\nV6006236661565\np4676\nsVpreview_url\np4677\nVhttp://www.facebook.com/ads/api/creative_preview.php?cid=6006236661565\np4678\nsVid\np4679\nV6006236661565\np4680\nsVimage_url\np4681\nVhttps://fbcdn-creative-a.akamaihd.net/hads-ak-prn1/s110x80/708196_6006844786165_20141_n.png\np4682\nsVcount_current_adgroups\np4683\nI1\nsVrun_status\np4684\nI1\nsVtype\np4685\nI1\nsVlink_url\np4686\nVhttp://ad.doubleclick.net/clk;265073608;90721754;l\np4687\nsVview_tag\np4688\ng36\nsa(dp4689\nValt_view_tags\np4690\n(lp4691\nsVbody\np4692\nVThese guys are losing it. Check out the rest of the "27 Cats That Just Can\'t Handle It!"\np4693\nsVimage_hash\np4694\nVfeb67126b6b6984938d901a9687954fc\np4695\nsVname\np4696\nVStay Calm And Carry On!-00-00\np4697\nsVtitle\np4698\nVStay Calm And Carry On!\np4699\nsVcreative_id\np4700\nV6006215747165\np4701\nsVpreview_url\np4702\nVhttp://www.facebook.com/ads/api/creative_preview.php?cid=6006215747165\np4703\nsVid\np4704\nV6006215747165\np4705\nsVimage_url\np4706\nVhttps://fbcdn-creative-a.akamaihd.net/hads-ak-prn1/s110x80/708201_6006845592965_33617_n.png\np4707\nsVcount_current_adgroups\np4708\nI1\nsVrun_status\np4709\nI1\nsVtype\np4710\nI1\nsVlink_url\np4711\nVhttp://www.buzzfeed.com/h1/fbad/virginmobilelive/27-cats-that-just-cant-handle-it-5l87\np4712\nsVview_tag\np4713\ng36\nsa(dp4714\nValt_view_tags\np4715\n(lp4716\nsVbody\np4717\nVCheck out "The Official Eddie Murphy Career Timeline" and get ready for his special!\np4718\nsVimage_hash\np4719\nV4d891206ac8486e2fb53f77b9e7963cb\np4720\nsVname\np4721\nVEddie Murphy\'s Career\np4722\nsVtitle\np4723\nVEddie Murphy\'s Career\np4724\nsVcreative_id\np4725\nV6006237282565\np4726\nsVpreview_url\np4727\nVhttp://www.facebook.com/ads/api/creative_preview.php?cid=6006237282565\np4728\nsVid\np4729\nV6006237282565\np4730\nsVimage_url\np4731\nVhttps://fbcdn-creative-a.akamaihd.net/hads-ak-ash3/s110x80/701895_6006844526965_32737_n.png\np4732\n'
p6
sS'hash'
p7
S'42d00dbe6c3c34789f06c3abb7f46220ef3aaad8'
p8
sS'stack'
p9
S''
s.