(dp1
S'args'
p2
S''
sS'methodname'
p3
S''
sS'packet_num'
p4
I11
sS'returnval'
p5
S'n_status\np1502\nI1\nsVtype\np1503\nI1\nsVlink_url\np1504\nVhttp://ad.doubleclick.net/clk;265750265;91504198;o\np1505\nsVview_tag\np1506\ng36\nsa(dp1507\nValt_view_tags\np1508\n(lp1509\nsVbody\np1510\nVJust One of the "18 Things You\'ll Only See In New York" - See them all on BuzzFeed!\np1511\nsVimage_hash\np1512\nV76e15baf32371817547bb87961ff1549\np1513\nsVname\np1514\nVKanye Occupying Wall St?-00-00\np1515\nsVtitle\np1516\nVOdd Subway Encounters\np1517\nsVcreative_id\np1518\nV6006572461565\np1519\nsVpreview_url\np1520\nVhttp://www.facebook.com/ads/api/creative_preview.php?cid=6006572461565\np1521\nsVid\np1522\nV6006572461565\np1523\nsVimage_url\np1524\nVhttps://fbcdn-creative-a.akamaihd.net/hads-ak-prn1/s110x80/708187_6006572458765_61817_n.jpg\np1525\nsVcount_current_adgroups\np1526\nI1\nsVrun_status\np1527\nI1\nsVtype\np1528\nI1\nsVlink_url\np1529\nVhttp://ad.doubleclick.net/clk;265750265;91504198;o\np1530\nsVview_tag\np1531\ng36\nsa(dp1532\nValt_view_tags\np1533\n(lp1534\nsVbody\np1535\nVThink he\'s too dreamy to eat? Check out more of the "14 Celebrities As Cookies" here!\np1536\nsVimage_hash\np1537\nVd0e75b6ba82f4af7ea339d5891c1ce40\np1538\nsVname\np1539\nVGosling Cookie?-01\np1540\nsVtitle\np1541\nVRyan Gosling Cookie?\np1542\nsVcreative_id\np1543\nV6006474755365\np1544\nsVpreview_url\np1545\nVhttp://www.facebook.com/ads/api/creative_preview.php?cid=6006474755365\np1546\nsVid\np1547\nV6006474755365\np1548\nsVimage_url\np1549\nVhttps://fbcdn-creative-a.akamaihd.net/hads-ak-ash3/s110x80/701900_6006474669365_63_n.jpg\np1550\nsVcount_current_adgroups\np1551\nI1\nsVrun_status\np1552\nI1\nsVtype\np1553\nI1\nsVlink_url\np1554\nVhttp://ad.doubleclick.net/clk;265349090;91012994;m?http://www.buzzfeed.com/h1/fbad/quiznos/14-celebrities-as-cookies-7ppi\np1555\nsVview_tag\np1556\ng36\nsa(dp1557\nValt_view_tags\np1558\n(lp1559\nsVbody\np1560\nVLike that? Then check out the rest of the "15 Crazy Things You Can Make Out Of Cookies!"\np1561\nsVimage_hash\np1562\nV9e8498d8e315e0adc54a74b674d728f2\np1563\nsVname\np1564\nVCookie Cheeseburgers?-00\np1565\nsVtitle\np1566\nVA Cookie Robot\np1567\nsVcreative_id\np1568\nV6006490573565\np1569\nsVpreview_url\np1570\nVhttp://www.facebook.com/ads/api/creative_preview.php?cid=6006490573565\np1571\nsVid\np1572\nV6006490573565\np1573\nsVimage_url\np1574\nVhttps://fbcdn-creative-a.akamaihd.net/hads-ak-ash3/s110x80/708171_6006490561565_39208_n.jpg\np1575\nsVcount_current_adgroups\np1576\nI1\nsVrun_status\np1577\nI1\nsVtype\np1578\nI1\nsVlink_url\np1579\nVhttp://ad.doubleclick.net/clk;265349090;91012994;m?http://www.buzzfeed.com/h1/fbad/quiznos/15-crazy-things-you-can-make-out-of-cookies-7ppi\np1580\nsVview_tag\np1581\ng36\nsa(dp1582\nValt_view_tags\np1583\n(lp1584\nsVbody\np1585\nVCheck out this sweet take on a classic Holiday dish!\np1586\nsVimage_hash\np1587\nV81ccc4c30b3b746cf52f86829a3bd4b2\np1588\nsVname\np1589\nVCake w/Coca-Cola?-00-00-01\np1590\nsVtitle\np1591\nVCoca-Cola Ham Recipe\np1592\nsVcreative_id\np1593\nV6006436653965\np1594\nsVpreview_url\np1595\nVhttp://www.facebook.com/ads/api/creative_preview.php?cid=6006436653965\np1596\nsVid\np1597\nV6006436653965\np1598\nsVimage_url\np1599\nVhttps://fbcdn-creative-a.akamaihd.net/hads-ak-ash3/s110x80/708196_6006844825165_7052_n.png\np1600\nsVcount_current_adgroups\np1601\nI2\nsVrun_status\np1602\nI1\nsVtype\np1603\nI1\nsVlink_url\np1604\nVhttp://bzfd.it/WGWUkw\np1605\nsVview_tag\np1606\ng36\nsa(dp1607\nValt_view_tags\np1608\n(lp1609\nsVbody\np1610\nVR2D2 to Eddie Murphy, our Rdio playlist will make you wonder what the heck is going on!\np1611\nsVimage_hash\np1612\nVa928ee4337ba74427691caedccafcdac\np1613\nsVname\np1614\nVWant to Listen to a Hit?-00-00-00-00-00-00-00-00-00\np1615\nsVtitle\np1616\nVWhat the Funk?\np1617\nsVcreative_id\np1618\nV6006506752365\np1619\nsVpreview_url\np1620\nVhttp://www.facebook.com/ads/api/creative_preview.php?cid=6006506752365\np1621\nsVid\np1622\nV6006506752365\np1623\nsVimage_url\np1624\nVhttps://fbcdn-creative-a.akamaihd.net/hads-ak-ash3/s110x80/708187_6006845069165_27732_n.png\np1625\nsVcount_current_adgroups\np1626\nI3\nsVrun_status\np1627\nI1\nsVtype\np1628\nI1\nsVlink_url\np1629\nVhttp://www.buzzfeed.com/h1/fbad/buzzfeedmusicpartner/10-songs-thatll-make-you-lose-your-faith-in-human\np1630\nsVview_tag\np1631\ng36\nsa(dp1632\nValt_view_tags\np1633\n(lp1634\nsVbody\np1635\nVLooks weird'
p6
sS'hash'
p7
S'42d00dbe6c3c34789f06c3abb7f46220ef3aaad8'
p8
sS'stack'
p9
S''
s.