(dp1
S'args'
p2
S''
sS'methodname'
p3
S''
sS'packet_num'
p4
I39
sS'returnval'
p5
S'ttps://fbcdn-creative-a.akamaihd.net/hads-ak-ash3/s110x80/708196_6006844822165_56667_n.png\np5127\nsVcount_current_adgroups\np5128\nI1\nsVrun_status\np5129\nI1\nsVtype\np5130\nI1\nsVlink_url\np5131\nVhttp://www.buzzfeed.com/h1/fbad/climatereality/the-best-of-news-and-weather-gone-bad-7w4z\np5132\nsVview_tag\np5133\ng36\nsa(dp5134\nValt_view_tags\np5135\n(lp5136\nsVbody\np5137\nVJust One of the 18 Life Lessons We Learned From Watching "New Girl" on BuzzFeed!\np5138\nsVimage_hash\np5139\nV1853f0f003175bfa9c51df1f85213eeb\np5140\nsVname\np5141\nVNo Hanging Out w/Exes!\np5142\nsVtitle\np5143\nVNo Hanging Out w/Exes!\np5144\nsVcreative_id\np5145\nV6006220927365\np5146\nsVpreview_url\np5147\nVhttp://www.facebook.com/ads/api/creative_preview.php?cid=6006220927365\np5148\nsVid\np5149\nV6006220927365\np5150\nsVimage_url\np5151\nVhttps://fbcdn-creative-a.akamaihd.net/hads-ak-ash3/s110x80/708175_6006844202165_47903_n.png\np5152\nsVcount_current_adgroups\np5153\nI1\nsVrun_status\np5154\nI1\nsVtype\np5155\nI1\nsVlink_url\np5156\nVhttp://www.buzzfeed.com/h1/fbad/fox/18-life-lessons-we-learned-from-watching-new-girl-7juf\np5157\nsVview_tag\np5158\ng36\nsa(dp5159\nValt_view_tags\np5160\n(lp5161\nsVbody\np5162\nVJust One of the 18 Life Lessons We Learned From Watching "New Girl" on BuzzFeed!\np5163\nsVimage_hash\np5164\nV211e960fcc1561fd755df6e8374a55a9\np5165\nsVname\np5166\nVNo Hanging Out w/Exes!-00\np5167\nsVtitle\np5168\nVModeling Isn\'t Easy\np5169\nsVcreative_id\np5170\nV6006220931765\np5171\nsVpreview_url\np5172\nVhttp://www.facebook.com/ads/api/creative_preview.php?cid=6006220931765\np5173\nsVid\np5174\nV6006220931765\np5175\nsVimage_url\np5176\nVhttps://fbcdn-creative-a.akamaihd.net/hads-ak-ash3/s110x80/708159_6006844256365_5468_n.png\np5177\nsVcount_current_adgroups\np5178\nI1\nsVrun_status\np5179\nI1\nsVtype\np5180\nI1\nsVlink_url\np5181\nVhttp://www.buzzfeed.com/h1/fbad/fox/18-life-lessons-we-learned-from-watching-new-girl-7juf\np5182\nsVview_tag\np5183\ng36\nsa(dp5184\nValt_view_tags\np5185\n(lp5186\nsVbody\np5187\nVCheck out the 18 Life Lessons We Learned From Watching "New Girl" - Only on BuzzFeed!\np5188\nsVimage_hash\np5189\nV6595a0750e53ec526e7e8f58210e3803\np5190\nsVname\np5191\nVNo Hanging Out w/Exes!-00-00\np5192\nsVtitle\np5193\nVJess Knows Best!\np5194\nsVcreative_id\np5195\nV6006220936165\np5196\nsVpreview_url\np5197\nVhttp://www.facebook.com/ads/api/creative_preview.php?cid=6006220936165\np5198\nsVid\np5199\nV6006220936165\np5200\nsVimage_url\np5201\nVhttps://fbcdn-creative-a.akamaihd.net/hads-ak-ash3/s110x80/708166_6006844667965_65120_n.png\np5202\nsVcount_current_adgroups\np5203\nI1\nsVrun_status\np5204\nI1\nsVtype\np5205\nI1\nsVlink_url\np5206\nVhttp://www.buzzfeed.com/h1/fbad/fox/18-life-lessons-we-learned-from-watching-new-girl-7juf\np5207\nsVview_tag\np5208\ng36\nsa(dp5209\nValt_view_tags\np5210\n(lp5211\nsVbody\np5212\nVWatch "The Best Of News And Weather Gone Bad" on BuzzFeed!\np5213\nsVimage_hash\np5214\nV8a7df4ab2594f32947e0e89bc995b339\np5215\nsVname\np5216\nVHurricane Sandy-01-01-00\np5217\nsVtitle\np5218\nV"Pretty Much Everywhere"\np5219\nsVcreative_id\np5220\nV6006214312165\np5221\nsVpreview_url\np5222\nVhttp://www.facebook.com/ads/api/creative_preview.php?cid=6006214312165\np5223\nsVid\np5224\nV6006214312165\np5225\nsVimage_url\np5226\nVhttps://fbcdn-creative-a.akamaihd.net/hads-ak-prn1/s110x80/708199_6006844875965_44487_n.png\np5227\nsVcount_current_adgroups\np5228\nI1\nsVrun_status\np5229\nI1\nsVtype\np5230\nI1\nsVlink_url\np5231\nVhttp://www.buzzfeed.com/h1/fbad/climatereality/the-best-of-news-and-weather-gone-bad-7w4z\np5232\nsVview_tag\np5233\ng36\nsa(dp5234\nValt_view_tags\np5235\n(lp5236\nsVbody\np5237\nVWatch "The Best Of News And Weather Gone Bad" on BuzzFeed!\np5238\nsVimage_hash\np5239\nV69faa288ef031d1240c3878864d27d23\np5240\nsVname\np5241\nVHurricane Sandy-01-01-00-00\np5242\nsVtitle\np5243\nV"Why is this Happening?"\np5244\nsVcreative_id\np5245\nV6006214321765\np5246\nsVpreview_url\np5247\nVhttp://www.facebook.com/ads/api/creative_preview.php?cid=6006214321765\np5248\nsVid\np5249\nV6006214321765\np5250\nsVimage_url\np5251\nVhttps://fbcdn-creative-a.akamaihd.net/hads-ak-prn1/s110x80/708195_6006844692365_27972_n.png\np5252\nsVcount_current_adgroups\np5253\nI1\nsVrun_status\np5254\nI1\nsVtype\np5255\nI1\nsVlink_url\np5256\nVhttp://www.buzzfeed.com/h1/fba'
p6
sS'hash'
p7
S'42d00dbe6c3c34789f06c3abb7f46220ef3aaad8'
p8
sS'stack'
p9
S''
s.