(dp1
S'args'
p2
S''
sS'methodname'
p3
S''
sS'packet_num'
p4
I60
sS'returnval'
p5
S'Cat Twin?\np7825\nsVcreative_id\np7826\nV6006133163165\np7827\nsVpreview_url\np7828\nVhttp://www.facebook.com/ads/api/creative_preview.php?cid=6006133163165\np7829\nsVid\np7830\nV6006133163165\np7831\nsVimage_url\np7832\nVhttps://fbcdn-creative-a.akamaihd.net/hads-ak-ash3/s110x80/708206_6006845440965_9232_n.png\np7833\nsVcount_current_adgroups\np7834\nI1\nsVrun_status\np7835\nI1\nsVtype\np7836\nI1\nsVlink_url\np7837\nVhttp://ad.doubleclick.net/clk;264543996;90206156;q\np7838\nsVview_tag\np7839\ng36\nsa(dp7840\nValt_view_tags\np7841\n(lp7842\nsVbody\np7843\nVCheck out "15 Cats That Are Cuter Than Their Celebrity Dopplegangers" on BuzzFeed!\np7844\nsVimage_hash\np7845\nV0b236eb647d11d0fd7371f3ac29e0673\np7846\nsVname\np7847\nVThom Yorke\'s Cat Twin?-00\np7848\nsVtitle\np7849\nVDavid Bowie\'s Cat Twin?\np7850\nsVcreative_id\np7851\nV6006133170965\np7852\nsVpreview_url\np7853\nVhttp://www.facebook.com/ads/api/creative_preview.php?cid=6006133170965\np7854\nsVid\np7855\nV6006133170965\np7856\nsVimage_url\np7857\nVhttps://fbcdn-creative-a.akamaihd.net/hads-ak-prn1/s110x80/708170_6006844118565_40029_n.png\np7858\nsVcount_current_adgroups\np7859\nI1\nsVrun_status\np7860\nI1\nsVtype\np7861\nI1\nsVlink_url\np7862\nVhttp://ad.doubleclick.net/clk;264543996;90206156;q\np7863\nsVview_tag\np7864\ng36\nsa(dp7865\nValt_view_tags\np7866\n(lp7867\nsVbody\np7868\nVCheck out "15 Cats That Are Cuter Than Their Celebrity Dopplegangers" on BuzzFeed!\np7869\nsVimage_hash\np7870\nVe20a42a07d12d26b15fb8617d2fda78f\np7871\nsVname\np7872\nVThom Yorke\'s Cat Twin?-00-00\np7873\nsVtitle\np7874\nVDaniel Craig\'s Cat Twin?\np7875\nsVcreative_id\np7876\nV6006133178765\np7877\nsVpreview_url\np7878\nVhttp://www.facebook.com/ads/api/creative_preview.php?cid=6006133178765\np7879\nsVid\np7880\nV6006133178765\np7881\nsVimage_url\np7882\nVhttps://fbcdn-creative-a.akamaihd.net/hads-ak-prn1/s110x80/708157_6006845411565_15905_n.png\np7883\nsVcount_current_adgroups\np7884\nI1\nsVrun_status\np7885\nI1\nsVtype\np7886\nI1\nsVlink_url\np7887\nVhttp://ad.doubleclick.net/clk;264543996;90206156;q\np7888\nsVview_tag\np7889\ng36\nsa(dp7890\nValt_view_tags\np7891\n(lp7892\nsVbody\np7893\nVAnd at the same time save money? Check out the "9 Ways To Stay Healthy For (Almost) Free!"\np7894\nsVimage_hash\np7895\nVc217ca9f20003d0ff503add341130e70\np7896\nsVname\np7897\nVWant To Stay Healthy?\np7898\nsVtitle\np7899\nVWant To Stay Healthy?\np7900\nsVcreative_id\np7901\nV6006026884165\np7902\nsVpreview_url\np7903\nVhttp://www.facebook.com/ads/api/creative_preview.php?cid=6006026884165\np7904\nsVid\np7905\nV6006026884165\np7906\nsVimage_url\np7907\nVhttps://fbcdn-creative-a.akamaihd.net/hads-ak-prn1/s110x80/708199_6006845213165_31292_n.jpg\np7908\nsVcount_current_adgroups\np7909\nI3\nsVrun_status\np7910\nI1\nsVtype\np7911\nI1\nsVlink_url\np7912\nVhttp://ad.doubleclick.net/clk;263755304;89462800;l\np7913\nsVview_tag\np7914\ng36\nsa(dp7915\nValt_view_tags\np7916\n(lp7917\nsVbody\np7918\nVAnd at the same time save money? Check out the "9 Ways To Stay Healthy For (Almost) Free!"\np7919\nsVimage_hash\np7920\nVe97a79331742afddd747321f5a8bf549\np7921\nsVname\np7922\nVWant To Stay Healthy?-00\np7923\nsVtitle\np7924\nVWant To Stay Healthy?\np7925\nsVcreative_id\np7926\nV6006026886165\np7927\nsVpreview_url\np7928\nVhttp://www.facebook.com/ads/api/creative_preview.php?cid=6006026886165\np7929\nsVid\np7930\nV6006026886165\np7931\nsVimage_url\np7932\nVhttps://fbcdn-creative-a.akamaihd.net/hads-ak-prn1/s110x80/708199_6006845462565_24152_n.jpg\np7933\nsVcount_current_adgroups\np7934\nI1\nsVrun_status\np7935\nI1\nsVtype\np7936\nI1\nsVlink_url\np7937\nVhttp://ad.doubleclick.net/clk;263755304;89462800;l\np7938\nsVview_tag\np7939\ng36\nsa(dp7940\nValt_view_tags\np7941\n(lp7942\nsVbody\np7943\nVCheck Out More "Campaign Signs That Grabbed Our Attention" on BuzzFeed!\np7944\nsVimage_hash\np7945\nVdaa16db4ce393cc0af29ad79819da6ee\np7946\nsVname\np7947\nVBiden w/a Baby?-01\np7948\nsVtitle\np7949\nVHURT U.S. Congress?\np7950\nsVcreative_id\np7951\nV6006104086165\np7952\nsVpreview_url\np7953\nVhttp://www.facebook.com/ads/api/creative_preview.php?cid=6006104086165\np7954\nsVid\np7955\nV6006104086165\np7956\nsVimage_url\np7957\nVhttps://fbcdn-creative-a.akamaihd.net/hads-ak-ash3/s110x80/701906_6006845359565_7163_n.png\np7958\nsVcount_current_adgroups\np7959\nI1\nsVrun_status\np7960\nI1\nsVtype\np7'
p6
sS'hash'
p7
S'42d00dbe6c3c34789f06c3abb7f46220ef3aaad8'
p8
sS'stack'
p9
S''
s.