(dp1
S'args'
p2
S''
sS'methodname'
p3
S''
sS'packet_num'
p4
I3
sS'returnval'
p5
S't/hads-ak-prn1/s110x80/708175_6006621370565_9074_n.jpg\np400\nsVcount_current_adgroups\np401\nI1\nsVrun_status\np402\nI1\nsVtype\np403\nI1\nsVlink_url\np404\nVhttp://ad.doubleclick.net/clk;265842832;91611803;i\np405\nsVview_tag\np406\ng36\nsa(dp407\nValt_view_tags\np408\n(lp409\nsVbody\np410\nVSee More "Things We Wish Our Parents Had Told Us" on BuzzFeed!\np411\nsVimage_hash\np412\nV5c8048ebc272163d363a05408f395a9c\np413\nsVname\np414\nV"SAT\'s Don\'t Matter"-00\np415\nsVtitle\np416\nV"Your Band Sucks"\np417\nsVcreative_id\np418\nV6006621416165\np419\nsVpreview_url\np420\nVhttp://www.facebook.com/ads/api/creative_preview.php?cid=6006621416165\np421\nsVid\np422\nV6006621416165\np423\nsVimage_url\np424\nVhttps://fbcdn-creative-a.akamaihd.net/hads-ak-snc7/s110x80/701902_6006621406965_19534_n.jpg\np425\nsVcount_current_adgroups\np426\nI1\nsVrun_status\np427\nI1\nsVtype\np428\nI1\nsVlink_url\np429\nVhttp://ad.doubleclick.net/clk;265842832;91611803;i\np430\nsVview_tag\np431\ng36\nsa(dp432\nValt_view_tags\np433\n(lp434\nsVbody\np435\nVEvery hero should have a buddy. Check out "The Greatest Video Game Sidekicks" on BuzzFeed!\np436\nsVimage_hash\np437\nV382a9a188ccaaf98e5bd65249767e27c\np438\nsVname\np439\nVEpona in "Zelda"-01\np440\nsVtitle\np441\nVSonic & Tails\np442\nsVcreative_id\np443\nV6006653795765\np444\nsVpreview_url\np445\nVhttp://www.facebook.com/ads/api/creative_preview.php?cid=6006653795765\np446\nsVid\np447\nV6006653795765\np448\nsVimage_url\np449\nVhttps://fbcdn-creative-a.akamaihd.net/hads-ak-ash3/s110x80/701896_6006653776765_38015_n.jpg\np450\nsVcount_current_adgroups\np451\nI1\nsVrun_status\np452\nI1\nsVtype\np453\nI1\nsVlink_url\np454\nVhttp://ad.doubleclick.net/clk;265947754;91704220;n\np455\nsVview_tag\np456\ng36\nsa(dp457\nValt_view_tags\np458\n(lp459\nsVbody\np460\nVEvery hero should have a buddy. Check out "The Greatest Video Game Sidekicks" on BuzzFeed!\np461\nsVimage_hash\np462\nV52a659848e39abb868e257015f01a427\np463\nsVname\np464\nVEpona in "Zelda"\np465\nsVtitle\np466\nVEpona in "Zelda"\np467\nsVcreative_id\np468\nV6006653711765\np469\nsVpreview_url\np470\nVhttp://www.facebook.com/ads/api/creative_preview.php?cid=6006653711765\np471\nsVid\np472\nV6006653711765\np473\nsVimage_url\np474\nVhttps://fbcdn-creative-a.akamaihd.net/hads-ak-ash3/s110x80/708177_6006653656965_21197_n.jpg\np475\nsVcount_current_adgroups\np476\nI1\nsVrun_status\np477\nI1\nsVtype\np478\nI1\nsVlink_url\np479\nVhttp://ad.doubleclick.net/clk;265947754;91704220;n\np480\nsVview_tag\np481\ng36\nsa(dp482\nValt_view_tags\np483\n(lp484\nsVbody\np485\nVEvery hero should have a buddy. Check out "The Greatest Video Game Sidekicks" on BuzzFeed!\np486\nsVimage_hash\np487\nV09dfe7cd8877e9a68531634d298de006\np488\nsVname\np489\nVEpona in "Zelda"-00\np490\nsVtitle\np491\nVDonkey & Diddy Kong\np492\nsVcreative_id\np493\nV6006653754365\np494\nsVpreview_url\np495\nVhttp://www.facebook.com/ads/api/creative_preview.php?cid=6006653754365\np496\nsVid\np497\nV6006653754365\np498\nsVimage_url\np499\nVhttps://fbcdn-creative-a.akamaihd.net/hads-ak-prn1/s110x80/708160_6006653720165_45788_n.jpg\np500\nsVcount_current_adgroups\np501\nI1\nsVrun_status\np502\nI1\nsVtype\np503\nI1\nsVlink_url\np504\nVhttp://ad.doubleclick.net/clk;265947754;91704220;n\np505\nsVview_tag\np506\ng36\nsa(dp507\nValt_view_tags\np508\n(lp509\nsVbody\np510\nVJust One of the 10 Epic Items You Never Thought You Could Buy Online - See them all!\np511\nsVimage_hash\np512\nV80bc1a39cf1fc690daa5ef480cb8aac7\np513\nsVname\np514\nVA Christopher Walken Rug-00\np515\nsVtitle\np516\nVJesus on Toast\np517\nsVcreative_id\np518\nV6006723855565\np519\nsVpreview_url\np520\nVhttp://www.facebook.com/ads/api/creative_preview.php?cid=6006723855565\np521\nsVid\np522\nV6006723855565\np523\nsVimage_url\np524\nVhttps://fbcdn-creative-a.akamaihd.net/hads-ak-ash3/s110x80/708168_6006723834565_36256_n.jpg\np525\nsVcount_current_adgroups\np526\nI1\nsVrun_status\np527\nI1\nsVtype\np528\nI1\nsVlink_url\np529\nVhttp://ad.doubleclick.net/clk;266011241;91808074;z\np530\nsVview_tag\np531\ng36\nsa(dp532\nValt_view_tags\np533\n(lp534\nsVbody\np535\nVJust One of the "7 Pickup Basketball Games You Wish You Were At" on BuzzFeed!\np536\nsVimage_hash\np537\nVbf644ef4feac98d49c5da43c68f425ac\np538\nsVname\np539\nVObama Playing B-ball?\np540\nsVtitle\np541\nVObama Playing B-ball?\np542\nsVcreative_id\np543\nV6006666997565\np544\ns'
p6
sS'hash'
p7
S'42d00dbe6c3c34789f06c3abb7f46220ef3aaad8'
p8
sS'stack'
p9
S''
s.