(dp1
S'args'
p2
S''
sS'methodname'
p3
S''
sS'packet_num'
p4
I80
sS'returnval'
p5
S'sVname\np10461\nVPedo-Bear O\'Lantern ?-00\np10462\nsVtitle\np10463\nVPedobear O\'Lantern?\np10464\nsVcreative_id\np10465\nV6006043769565\np10466\nsVpreview_url\np10467\nVhttp://www.facebook.com/ads/api/creative_preview.php?cid=6006043769565\np10468\nsVid\np10469\nV6006043769565\np10470\nsVimage_url\np10471\nVhttps://fbcdn-creative-a.akamaihd.net/hads-ak-prn1/s110x80/708193_6006844109365_13690_n.jpg\np10472\nsVcount_current_adgroups\np10473\nI1\nsVrun_status\np10474\nI1\nsVtype\np10475\nI1\nsVlink_url\np10476\nVhttp://www.buzzfeed.com/h1/fbad/virginmobilelive/the-dos-and-donts-of-halloween-5l87\np10477\nsVview_tag\np10478\ng36\nsa(dp10479\nValt_view_tags\np10480\n(lp10481\nsVbody\np10482\nVIt almost happened. See the "15 Original Casting Choices That Would\'ve Ruined Everything!"\np10483\nsVimage_hash\np10484\nV9937cf59dea8fad5771293dc02b187d5\np10485\nsVname\np10486\nVCusack As Mr. White?\np10487\nsVtitle\np10488\nVCusack As Mr. White?\np10489\nsVcreative_id\np10490\nV6006043741565\np10491\nsVpreview_url\np10492\nVhttp://www.facebook.com/ads/api/creative_preview.php?cid=6006043741565\np10493\nsVid\np10494\nV6006043741565\np10495\nsVimage_url\np10496\nVhttps://fbcdn-creative-a.akamaihd.net/hads-ak-ash3/s110x80/708176_6006844963165_32254_n.jpg\np10497\nsVcount_current_adgroups\np10498\nI1\nsVrun_status\np10499\nI1\nsVtype\np10500\nI1\nsVlink_url\np10501\nVhttp://www.buzzfeed.com/h1/fbad/virginmobilelive/15-original-casting-choices-that-wouldve-ruined-e-5l87\np10502\nsVview_tag\np10503\ng36\nsa(dp10504\nValt_view_tags\np10505\n(lp10506\nsVbody\np10507\nVSee "The First 5 Minutes Of American Horror Story: Asylum" and get ready for tonight!\np10508\nsVimage_hash\np10509\nVa3d560d6e7ab1aa83493c1514a40f403\np10510\nsVname\np10511\nVThe Horror Is Back\np10512\nsVtitle\np10513\nVThe Horror Is Back\np10514\nsVcreative_id\np10515\nV6006042884565\np10516\nsVpreview_url\np10517\nVhttp://www.facebook.com/ads/api/creative_preview.php?cid=6006042884565\np10518\nsVid\np10519\nV6006042884565\np10520\nsVimage_url\np10521\nVhttps://fbcdn-creative-a.akamaihd.net/hads-ak-prn1/s110x80/708199_6006845034365_3725_n.jpg\np10522\nsVcount_current_adgroups\np10523\nI1\nsVrun_status\np10524\nI1\nsVtype\np10525\nI1\nsVlink_url\np10526\nVhttp://www.buzzfeed.com/h1/fbad/americanhorrorstory/the-first-5-minutes-of-american-horror-story-asyl\np10527\nsVview_tag\np10528\ng36\nsa(dp10529\nValt_view_tags\np10530\n(lp10531\nsVbody\np10532\nVCheck out the rest of the "14 Groundbreaking Pizza Inventions That Will Make You Hungry!"\np10533\nsVimage_hash\np10534\nV0e8cf6bcff65db6e65cbae28f3c743a7\np10535\nsVname\np10536\nVPizza Cones!\np10537\nsVtitle\np10538\nVPizza Cones!\np10539\nsVcreative_id\np10540\nV6006032267165\np10541\nsVpreview_url\np10542\nVhttp://www.facebook.com/ads/api/creative_preview.php?cid=6006032267165\np10543\nsVid\np10544\nV6006032267165\np10545\nsVimage_url\np10546\nVhttps://fbcdn-creative-a.akamaihd.net/hads-ak-ash3/s110x80/708181_6006844138565_27486_n.jpg\np10547\nsVcount_current_adgroups\np10548\nI1\nsVrun_status\np10549\nI1\nsVtype\np10550\nI1\nsVlink_url\np10551\nVhttp://www.buzzfeed.com/h1/fbad/totinos/14-groundbreaking-pizza-inventions-that-will-make-2wvj\np10552\nsVview_tag\np10553\ng36\nsa(dp10554\nValt_view_tags\np10555\n(lp10556\nsVbody\np10557\nVQuite a Vivid Imagination- Check out "22 Reasons Why Being Unique Is Better" on BuzzFeed!\np10558\nsVimage_hash\np10559\nVa197b6d2ecd5080450fc2146e5f512aa\np10560\nsVname\np10561\nVA Shortcut to Narnia?\np10562\nsVtitle\np10563\nVA Shortcut to Narnia?\np10564\nsVcreative_id\np10565\nV6006032306165\np10566\nsVpreview_url\np10567\nVhttp://www.facebook.com/ads/api/creative_preview.php?cid=6006032306165\np10568\nsVid\np10569\nV6006032306165\np10570\nsVimage_url\np10571\nVhttps://fbcdn-creative-a.akamaihd.net/hads-ak-ash3/s110x80/701898_6006845021765_7385_n.jpg\np10572\nsVcount_current_adgroups\np10573\nI1\nsVrun_status\np10574\nI1\nsVtype\np10575\nI1\nsVlink_url\np10576\nVhttp://ad.doubleclick.net/clk;263995075;88398972;n\np10577\nsVview_tag\np10578\ng36\nsa(dp10579\nValt_view_tags\np10580\n(lp10581\nsVbody\np10582\nVJust One of the "22 Reasons Why Being Unique Is Better" on BuzzFeed!\np10583\nsVimage_hash\np10584\nV3db141fc191fb84574721739ff9c2b28\np10585\nsVname\np10586\nVA Shortcut to Narnia?-00\np10587\nsVtitle\np10588\nVHaving the Coolest Nails\np10589\n'
p6
sS'hash'
p7
S'42d00dbe6c3c34789f06c3abb7f46220ef3aaad8'
p8
sS'stack'
p9
S''
s.