(dp1
S'args'
p2
S''
sS'methodname'
p3
S''
sS'packet_num'
p4
I17
sS'returnval'
p5
S'd.net/hads-ak-ash3/s110x80/708169_6006845156965_37186_n.png\np2277\nsVcount_current_adgroups\np2278\nI1\nsVrun_status\np2279\nI1\nsVtype\np2280\nI1\nsVlink_url\np2281\nVhttp://bzfd.it/TkLtf7\np2282\nsVview_tag\np2283\ng36\nsa(dp2284\nValt_view_tags\np2285\n(lp2286\nsVbody\np2287\nVIf you like this, then check out the rest of "The 20 Friendliest Animals On The Internet!"\np2288\nsVimage_hash\np2289\nVff5de16dd84dd7d9850967a7483fa609\np2290\nsVname\np2291\nVTiger Hugs\np2292\nsVtitle\np2293\nVTiger Hugs\np2294\nsVcreative_id\np2295\nV6006454307365\np2296\nsVpreview_url\np2297\nVhttp://www.facebook.com/ads/api/creative_preview.php?cid=6006454307365\np2298\nsVid\np2299\nV6006454307365\np2300\nsVimage_url\np2301\nVhttps://fbcdn-creative-a.akamaihd.net/hads-ak-prn1/s110x80/708201_6006845594965_7459_n.png\np2302\nsVcount_current_adgroups\np2303\nI1\nsVrun_status\np2304\nI1\nsVtype\np2305\nI1\nsVlink_url\np2306\nVhttp://www.buzzfeed.com/h1/fbad/virginmobilelive/the-20-friendliest-animals-on-the-internet-5l87\np2307\nsVview_tag\np2308\ng36\nsa(dp2309\nValt_view_tags\np2310\n(lp2311\nsVbody\np2312\nVHe\'s perched on their pop charts this week. No surprise. See more Then & Now #1 Pop Hits!\np2313\nsVimage_hash\np2314\nVfaab39503af613f37493b6974f68e4a0\np2315\nsVname\np2316\nVNickelback-00\np2317\nsVtitle\np2318\nVPSY Rules In Germany\np2319\nsVcreative_id\np2320\nV6006452615965\np2321\nsVpreview_url\np2322\nVhttp://www.facebook.com/ads/api/creative_preview.php?cid=6006452615965\np2323\nsVid\np2324\nV6006452615965\np2325\nsVimage_url\np2326\nVhttps://fbcdn-creative-a.akamaihd.net/hads-ak-ash3/s110x80/708179_6006845569365_42674_n.png\np2327\nsVcount_current_adgroups\np2328\nI1\nsVrun_status\np2329\nI1\nsVtype\np2330\nI1\nsVlink_url\np2331\nVhttp://www.buzzfeed.com/h1/fbad/beatsbydre/now-and-then-1-pop-hits-around-the-globe-7jsw\np2332\nsVview_tag\np2333\ng36\nsa(dp2334\nValt_view_tags\np2335\n(lp2336\nsVbody\np2337\nVHard to believe 10 years ago they had the most played song. See more Then & Now!\np2338\nsVimage_hash\np2339\nV55f7a1d9336170f52d4c1b6b9b9f61e6\np2340\nsVname\np2341\nVNickelback\np2342\nsVtitle\np2343\nVNickelback\np2344\nsVcreative_id\np2345\nV6006433969165\np2346\nsVpreview_url\np2347\nVhttp://www.facebook.com/ads/api/creative_preview.php?cid=6006433969165\np2348\nsVid\np2349\nV6006433969165\np2350\nsVimage_url\np2351\nVhttps://fbcdn-creative-a.akamaihd.net/hads-ak-ash3/s110x80/708175_6006844585565_23783_n.png\np2352\nsVcount_current_adgroups\np2353\nI1\nsVrun_status\np2354\nI1\nsVtype\np2355\nI1\nsVlink_url\np2356\nVhttp://www.buzzfeed.com/h1/fbad/beatsbydre/now-and-then-1-pop-hits-around-the-globe-7jsw\np2357\nsVview_tag\np2358\ng36\nsa(dp2359\nValt_view_tags\np2360\n(lp2361\nsVbody\np2362\nVThink you\'re man enough make it through the "13 Easy Ways To Tell If You\'re A Badass?" \np2363\nsVimage_hash\np2364\nVbc9307ec0ca633418e3e476f5c2658c1\np2365\nsVname\np2366\nVThe Overly Manly Man\np2367\nsVtitle\np2368\nVThe Overly Manly Man\np2369\nsVcreative_id\np2370\nV6006452091765\np2371\nsVpreview_url\np2372\nVhttp://www.facebook.com/ads/api/creative_preview.php?cid=6006452091765\np2373\nsVid\np2374\nV6006452091765\np2375\nsVimage_url\np2376\nVhttps://fbcdn-creative-a.akamaihd.net/hads-ak-prn1/s110x80/708189_6006845184965_52364_n.png\np2377\nsVcount_current_adgroups\np2378\nI1\nsVrun_status\np2379\nI1\nsVtype\np2380\nI1\nsVlink_url\np2381\nVhttp://ad.doubleclick.net/clk;265243355;90891596;v?http://www.buzzfeed.com/h1/fbad/borderlands2/13-easy-ways-to-tell-if-youre-a-badass-82da\np2382\nsVview_tag\np2383\ng36\nsa(dp2384\nValt_view_tags\np2385\n(lp2386\nsVbody\np2387\nVCheck out the "10 Futuristic Weapons You Won\'t Believe Are Actually Real" on BuzzFeed!\np2388\nsVimage_hash\np2389\nV6ee8faf8ea823e59c25188d54e663002\np2390\nsVname\np2391\nVA PHASR?\np2392\nsVtitle\np2393\nVA PHASR?\np2394\nsVcreative_id\np2395\nV6006452012365\np2396\nsVpreview_url\np2397\nVhttp://www.facebook.com/ads/api/creative_preview.php?cid=6006452012365\np2398\nsVid\np2399\nV6006452012365\np2400\nsVimage_url\np2401\nVhttps://fbcdn-creative-a.akamaihd.net/hads-ak-ash3/s110x80/701898_6006844720565_40594_n.png\np2402\nsVcount_current_adgroups\np2403\nI1\nsVrun_status\np2404\nI1\nsVtype\np2405\nI1\nsVlink_url\np2406\nVhttp://ad.doubleclick.net/clk;265243355;90891596;v?http://www.buzzfeed.com/h1/fbad/borderlands2/10-futuristi'
p6
sS'hash'
p7
S'42d00dbe6c3c34789f06c3abb7f46220ef3aaad8'
p8
sS'stack'
p9
S''
s.