(dp1
S'args'
p2
S''
sS'methodname'
p3
S''
sS'packet_num'
p4
I84
sS'returnval'
p5
S'74\nI1\nsVtype\np10975\nI1\nsVlink_url\np10976\nVhttp://www.buzzfeed.com/h1/fbad/marriott/20-gifs-that-will-make-you-want-to-travel-for-busi-7bu6\np10977\nsVview_tag\np10978\ng36\nsa(dp10979\nValt_view_tags\np10980\n(lp10981\nsVbody\np10982\nVJust One of the "11 Reasons Tuesdays Are The Best Day Of The Week" on BuzzFeed!\np10983\nsVimage_hash\np10984\nVa688e017bca54c1af0703f00843a6c3e\np10985\nsVname\np10986\nVIt\'s Not Monday!-00-00-00\np10987\nsVtitle\np10988\nVTaco Tuesdays!\np10989\nsVcreative_id\np10990\nV6006012735965\np10991\nsVpreview_url\np10992\nVhttp://www.facebook.com/ads/api/creative_preview.php?cid=6006012735965\np10993\nsVid\np10994\nV6006012735965\np10995\nsVimage_url\np10996\nVhttps://fbcdn-creative-a.akamaihd.net/hads-ak-prn1/s110x80/708189_6006845050765_57905_n.jpg\np10997\nsVcount_current_adgroups\np10998\nI1\nsVrun_status\np10999\nI1\nsVtype\np11000\nI1\nsVlink_url\np11001\nVhttp://www.buzzfeed.com/h1/fbad/fox/11-reasons-tuesdays-are-the-best-day-of-the-week-7juf\np11002\nsVview_tag\np11003\ng36\nsa(dp11004\nValt_view_tags\np11005\n(lp11006\nsVbody\np11007\nVCheck out "11 Reasons Tuesdays Are The Best Day Of The Week" on BuzzFeed!\np11008\nsVimage_hash\np11009\nV7e1aff72f2fc5017b551700f43dc1c4d\np11010\nsVname\np11011\nVIt\'s Not Monday!-00-00\np11012\nsVtitle\np11013\nVJustin\'s a Tuesday Baby?\np11014\nsVcreative_id\np11015\nV6006012714565\np11016\nsVpreview_url\np11017\nVhttp://www.facebook.com/ads/api/creative_preview.php?cid=6006012714565\np11018\nsVid\np11019\nV6006012714565\np11020\nsVimage_url\np11021\nVhttps://fbcdn-creative-a.akamaihd.net/hads-ak-ash3/s110x80/708186_6006844805365_29287_n.jpg\np11022\nsVcount_current_adgroups\np11023\nI1\nsVrun_status\np11024\nI1\nsVtype\np11025\nI1\nsVlink_url\np11026\nVhttp://www.buzzfeed.com/h1/fbad/fox/11-reasons-tuesdays-are-the-best-day-of-the-week-7juf\np11027\nsVview_tag\np11028\ng36\nsa(dp11029\nValt_view_tags\np11030\n(lp11031\nsVbody\np11032\nVCheck out "11 Reasons Tuesdays Are The Best Day Of The Week" on BuzzFeed!\np11033\nsVimage_hash\np11034\nV0d48125f39b992fd8003f7427e5e8ace\np11035\nsVname\np11036\nVIt\'s Not Monday!-00\np11037\nsVtitle\np11038\nVGarfield Hates Mondays!\np11039\nsVcreative_id\np11040\nV6006012703165\np11041\nsVpreview_url\np11042\nVhttp://www.facebook.com/ads/api/creative_preview.php?cid=6006012703165\np11043\nsVid\np11044\nV6006012703165\np11045\nsVimage_url\np11046\nVhttps://fbcdn-creative-a.akamaihd.net/hads-ak-prn1/s110x80/708173_6006844130965_20621_n.jpg\np11047\nsVcount_current_adgroups\np11048\nI1\nsVrun_status\np11049\nI1\nsVtype\np11050\nI1\nsVlink_url\np11051\nVhttp://www.buzzfeed.com/h1/fbad/fox/11-reasons-tuesdays-are-the-best-day-of-the-week-7juf\np11052\nsVview_tag\np11053\ng36\nsa(dp11054\nValt_view_tags\np11055\n(lp11056\nsVbody\np11057\nVMake your flight feel shorter and check out the "In-Flight Coast-To-Coast Cocktail Hacks!"\np11058\nsVimage_hash\np11059\nV0232c9646f1a060e077dabe221d78f98\np11060\nsVname\np11061\nVMile High Mixology\np11062\nsVtitle\np11063\nVMile High Mixology\np11064\nsVcreative_id\np11065\nV6005958193565\np11066\nsVpreview_url\np11067\nVhttp://www.facebook.com/ads/api/creative_preview.php?cid=6005958193565\np11068\nsVid\np11069\nV6005958193565\np11070\nsVimage_url\np11071\nVhttps://fbcdn-creative-a.akamaihd.net/hads-ak-prn1/s110x80/708194_6006844063365_49648_n.jpg\np11072\nsVcount_current_adgroups\np11073\nI3\nsVrun_status\np11074\nI1\nsVtype\np11075\nI1\nsVlink_url\np11076\nVhttp://www.buzzfeed.com/h1/fbad/virginamerica/9-in-flight-coast-to-coast-cocktail-hacks\np11077\nsVview_tag\np11078\ng36\nsa(dp11079\nValt_view_tags\np11080\n(lp11081\nsVbody\np11082\nVIt isn\'t just for hunting anymore. Can you tell a difference between hunting and fashion?\np11083\nsVimage_hash\np11084\nV32d545fe1029d57b48c0dd0f068aabb2\np11085\nsVname\np11086\nVRedneck Fashion-00\np11087\nsVtitle\np11088\nVCamouflage Fashion\np11089\nsVcreative_id\np11090\nV6006019316165\np11091\nsVpreview_url\np11092\nVhttp://www.facebook.com/ads/api/creative_preview.php?cid=6006019316165\np11093\nsVid\np11094\nV6006019316165\np11095\nsVimage_url\np11096\nVhttps://fbcdn-creative-a.akamaihd.net/hads-ak-ash3/s110x80/708164_6006844351165_40396_n.jpg\np11097\nsVcount_current_adgroups\np11098\nI1\nsVrun_status\np11099\nI1\nsVtype\np11100\nI1\nsVlink_url\np11101\nVhttp://www.buzzfeed.com/h1/fbad/duck'
p6
sS'hash'
p7
S'42d00dbe6c3c34789f06c3abb7f46220ef3aaad8'
p8
sS'stack'
p9
S''
s.