(dp1
S'args'
p2
S''
sS'methodname'
p3
S''
sS'packet_num'
p4
I49
sS'returnval'
p5
S' Murals\np6368\nsVtitle\np6369\nVDavid Choe\'s FB Murals\np6370\nsVcreative_id\np6371\nV6006191676165\np6372\nsVpreview_url\np6373\nVhttp://www.facebook.com/ads/api/creative_preview.php?cid=6006191676165\np6374\nsVid\np6375\nV6006191676165\np6376\nsVimage_url\np6377\nVhttps://fbcdn-creative-a.akamaihd.net/hads-ak-prn1/s110x80/708170_6006844121165_57360_n.png\np6378\nsVcount_current_adgroups\np6379\nI1\nsVrun_status\np6380\nI1\nsVtype\np6381\nI1\nsVlink_url\np6382\nVhttp://ad.doubleclick.net/clk;264844157;90520036;f\np6383\nsVview_tag\np6384\ng36\nsa(dp6385\nValt_view_tags\np6386\n(lp6387\nsVbody\np6388\nVCheck out "18 GIFs That Are Lazier Than You" on BuzzFeed!\np6389\nsVimage_hash\np6390\nV7420ffb6017d1b8cc76aceaaf6936939\np6391\nsVname\np6392\nVTroy & Abed Feelin\' Lazy-00-00\np6393\nsVtitle\np6394\nVJohnny Depp Feelin\' Lazy?\np6395\nsVcreative_id\np6396\nV6006191739965\np6397\nsVpreview_url\np6398\nVhttp://www.facebook.com/ads/api/creative_preview.php?cid=6006191739965\np6399\nsVid\np6400\nV6006191739965\np6401\nsVimage_url\np6402\nVhttps://fbcdn-creative-a.akamaihd.net/hads-ak-prn1/s110x80/708168_6006844747965_23092_n.png\np6403\nsVcount_current_adgroups\np6404\nI1\nsVrun_status\np6405\nI1\nsVtype\np6406\nI1\nsVlink_url\np6407\nVhttp://ad.doubleclick.net/clk;264844159;90520037;i\np6408\nsVview_tag\np6409\ng36\nsa(dp6410\nValt_view_tags\np6411\n(lp6412\nsVbody\np6413\nVCheck out "18 GIFs That Are Lazier Than You" on BuzzFeed!\np6414\nsVimage_hash\np6415\nVf930a193c335f816b8dd88a551d44001\np6416\nsVname\np6417\nVTroy & Abed Feelin\' Lazy-00\np6418\nsVtitle\np6419\nVBruno Mars Feelin\' Lazy?\np6420\nsVcreative_id\np6421\nV6006191727365\np6422\nsVpreview_url\np6423\nVhttp://www.facebook.com/ads/api/creative_preview.php?cid=6006191727365\np6424\nsVid\np6425\nV6006191727365\np6426\nsVimage_url\np6427\nVhttps://fbcdn-creative-a.akamaihd.net/hads-ak-prn1/s110x80/708189_6006845560965_16043_n.png\np6428\nsVcount_current_adgroups\np6429\nI1\nsVrun_status\np6430\nI1\nsVtype\np6431\nI1\nsVlink_url\np6432\nVhttp://ad.doubleclick.net/clk;264844159;90520037;i\np6433\nsVview_tag\np6434\ng36\nsa(dp6435\nValt_view_tags\np6436\n(lp6437\nsVbody\np6438\nVCheck out "18 GIFs That Are Lazier Than You" on BuzzFeed!\np6439\nsVimage_hash\np6440\nV319b23a529963932bc674d904c61a69c\np6441\nsVname\np6442\nVTroy & Abed Feelin\' Lazy\np6443\nsVtitle\np6444\nVTroy & Abed Feelin\' Lazy\np6445\nsVcreative_id\np6446\nV6006191721765\np6447\nsVpreview_url\np6448\nVhttp://www.facebook.com/ads/api/creative_preview.php?cid=6006191721765\np6449\nsVid\np6450\nV6006191721765\np6451\nsVimage_url\np6452\nVhttps://fbcdn-creative-a.akamaihd.net/hads-ak-ash3/s110x80/701901_6006844343565_20037_n.png\np6453\nsVcount_current_adgroups\np6454\nI1\nsVrun_status\np6455\nI1\nsVtype\np6456\nI1\nsVlink_url\np6457\nVhttp://ad.doubleclick.net/clk;264844159;90520037;i\np6458\nsVview_tag\np6459\ng36\nsa(dp6460\nValt_view_tags\np6461\n(lp6462\nsVbody\np6463\nVWhoever has one played their cards right. See more "Huge Returns From Small Investments!"\np6464\nsVimage_hash\np6465\nV531e043d3af43b8bb60cb730d465048d\np6466\nsVname\np6467\nVDavid Choe\'s FB Murals-00\np6468\nsVtitle\np6469\nVPrincess Di Beanie Baby\np6470\nsVcreative_id\np6471\nV6006191702565\np6472\nsVpreview_url\np6473\nVhttp://www.facebook.com/ads/api/creative_preview.php?cid=6006191702565\np6474\nsVid\np6475\nV6006191702565\np6476\nsVimage_url\np6477\nVhttps://fbcdn-creative-a.akamaihd.net/hads-ak-ash3/s110x80/708166_6006844574165_41118_n.png\np6478\nsVcount_current_adgroups\np6479\nI1\nsVrun_status\np6480\nI1\nsVtype\np6481\nI1\nsVlink_url\np6482\nVhttp://ad.doubleclick.net/clk;264844157;90520036;f\np6483\nsVview_tag\np6484\ng36\nsa(dp6485\nValt_view_tags\np6486\n(lp6487\nsVbody\np6488\nVIf you remember this, then you\'ll love the "15 Ways To Tell You Grew Up In The \\u201890s!"\np6489\nsVimage_hash\np6490\nV398b7bd3b58e0441d508ddb26e6c38d2\np6491\nsVname\np6492\nVThe Ol\' AOL Dial-Up\np6493\nsVtitle\np6494\nVThe Ol\' AOL Dial-Up\np6495\nsVcreative_id\np6496\nV6006191658365\np6497\nsVpreview_url\np6498\nVhttp://www.facebook.com/ads/api/creative_preview.php?cid=6006191658365\np6499\nsVid\np6500\nV6006191658365\np6501\nsVimage_url\np6502\nVhttps://fbcdn-creative-a.akamaihd.net/hads-ak-snc7/s110x80/701904_6006844386165_61962_n.png\np6503\nsVcount_current_adgroups\np6504\nI1\nsVrun_status\np6505\nI1\nsVtype\np6506\nI'
p6
sS'hash'
p7
S'42d00dbe6c3c34789f06c3abb7f46220ef3aaad8'
p8
sS'stack'
p9
S''
s.