(dp1
S'args'
p2
S''
sS'methodname'
p3
S''
sS'packet_num'
p4
I94
sS'returnval'
p5
S'2273\nI1\nsVtype\np12274\nI1\nsVlink_url\np12275\nVhttp://www.buzzfeed.com/h1/fbad/totinos/first-world-kid-problems-2wvj\np12276\nsVview_tag\np12277\ng36\nsa(dp12278\nValt_view_tags\np12279\n(lp12280\nsVbody\np12281\nVJust One of "The Worst Examples Of Verbal Diarrhea" on BuzzFeed!\np12282\nsVimage_hash\np12283\nVfaa246b8352c008fdc4d38d0680b5187\np12284\nsVname\np12285\nVPaula\'s Crazy Interview\np12286\nsVtitle\np12287\nVPaula\'s Crazy Interview\np12288\nsVcreative_id\np12289\nV6005930922565\np12290\nsVpreview_url\np12291\nVhttp://www.facebook.com/ads/api/creative_preview.php?cid=6005930922565\np12292\nsVid\np12293\nV6005930922565\np12294\nsVimage_url\np12295\nVhttps://fbcdn-creative-a.akamaihd.net/hads-ak-prn1/s110x80/708179_6006845568965_9469_n.jpg\np12296\nsVcount_current_adgroups\np12297\nI1\nsVrun_status\np12298\nI1\nsVtype\np12299\nI1\nsVlink_url\np12300\nVhttp://www.buzzfeed.com/h1/fbad/emilyowensmd/9-of-the-worst-examples-of-verbal-diarrhea\np12301\nsVview_tag\np12302\ng36\nsa(dp12303\nValt_view_tags\np12304\n(lp12305\nsVbody\np12306\nVJust One of "The Worst Examples Of Verbal Diarrhea" on BuzzFeed!\np12307\nsVimage_hash\np12308\nV2e43d56738e588a320620380a3e52f35\np12309\nsVname\np12310\nVPaula\'s Crazy Interview-00\np12311\nsVtitle\np12312\nVCharlie Sheen\'s Interview\np12313\nsVcreative_id\np12314\nV6005930927965\np12315\nsVpreview_url\np12316\nVhttp://www.facebook.com/ads/api/creative_preview.php?cid=6005930927965\np12317\nsVid\np12318\nV6005930927965\np12319\nsVimage_url\np12320\nVhttps://fbcdn-creative-a.akamaihd.net/hads-ak-prn1/s110x80/708194_6006844327565_49942_n.jpg\np12321\nsVcount_current_adgroups\np12322\nI1\nsVrun_status\np12323\nI1\nsVtype\np12324\nI1\nsVlink_url\np12325\nVhttp://www.buzzfeed.com/h1/fbad/emilyowensmd/9-of-the-worst-examples-of-verbal-diarrhea\np12326\nsVview_tag\np12327\ng36\nsa(dp12328\nValt_view_tags\np12329\n(lp12330\nsVbody\np12331\nVBeing a kid today sure is tough. Check out the top "First World Kid Problems" on BuzzFeed!\np12332\nsVimage_hash\np12333\nVf8e28b8dd4da1c5c5a849d79c0299fb9\np12334\nsVname\np12335\nVFirst World Problems\np12336\nsVtitle\np12337\nVFirst World Problems\np12338\nsVcreative_id\np12339\nV6005985613165\np12340\nsVpreview_url\np12341\nVhttp://www.facebook.com/ads/api/creative_preview.php?cid=6005985613165\np12342\nsVid\np12343\nV6005985613165\np12344\nsVimage_url\np12345\nVhttps://fbcdn-creative-a.akamaihd.net/hads-ak-prn1/s110x80/708189_6006845559365_19490_n.jpg\np12346\nsVcount_current_adgroups\np12347\nI1\nsVrun_status\np12348\nI1\nsVtype\np12349\nI1\nsVlink_url\np12350\nVhttp://www.buzzfeed.com/h1/fbad/totinos/first-world-kid-problems-2wvj?b=1\np12351\nsVview_tag\np12352\ng36\nsa(dp12353\nValt_view_tags\np12354\n(lp12355\nsVbody\np12356\nVCheck out how "Beauty & the Beast" has changed throughout the years- Only on BuzzFeed!\np12357\nsVimage_hash\np12358\nV52a39a5da3ead6502dc622e34a3b1da2\np12359\nsVname\np12360\nVBelle to Kristin Kreuk?-00\np12361\nsVtitle\np12362\nV"A Tale As Old As Time"\np12363\nsVcreative_id\np12364\nV6005983093965\np12365\nsVpreview_url\np12366\nVhttp://www.facebook.com/ads/api/creative_preview.php?cid=6005983093965\np12367\nsVid\np12368\nV6005983093965\np12369\nsVimage_url\np12370\nVhttps://fbcdn-creative-a.akamaihd.net/hads-ak-ash3/s110x80/701899_6006844568965_28543_n.jpg\np12371\nsVcount_current_adgroups\np12372\nI1\nsVrun_status\np12373\nI1\nsVtype\np12374\nI1\nsVlink_url\np12375\nVhttp://www.buzzfeed.com/h1/fbad/beautyandthebeast/then-vs-now-beauty-and-the-beast-793j\np12376\nsVview_tag\np12377\ng36\nsa(dp12378\nValt_view_tags\np12379\n(lp12380\nsVbody\np12381\nVCheck out More "Photos Of Athletes Enjoying Their Victories" on BuzzFeed!\np12382\nsVimage_hash\np12383\nV9d32c05b5a77ff2e80e34dceae33626e\np12384\nsVname\np12385\nVLebron & Durant Win Gold-00-00\np12386\nsVtitle\np12387\nVNadal Wins Wimbledon\np12388\nsVcreative_id\np12389\nV6005998518765\np12390\nsVpreview_url\np12391\nVhttp://www.facebook.com/ads/api/creative_preview.php?cid=6005998518765\np12392\nsVid\np12393\nV6005998518765\np12394\nsVimage_url\np12395\nVhttps://fbcdn-creative-a.akamaihd.net/hads-ak-ash3/s110x80/708195_6006844988365_37733_n.jpg\np12396\nsVcount_current_adgroups\np12397\nI1\nsVrun_status\np12398\nI1\nsVtype\np12399\nI1\nsVlink_url\np12400\nVhttp://ad.doubleclick.net/clk;263672838;89375862;g\np12401\nsVview_tag\np12'
p6
sS'hash'
p7
S'42d00dbe6c3c34789f06c3abb7f46220ef3aaad8'
p8
sS'stack'
p9
S''
s.