(dp1
S'args'
p2
S"(S'106929496119713'\np0\ntp1\n."
p3
sS'methodname'
p4
S'find_by_adaccount_id'
p5
sS'packet_num'
p6
I0
sS'returnval'
p7
S"((lp0\nccopy_reg\n_reconstructor\np1\n(cpyfacebook.models.adcampaign\nAdCampaign\np2\nc__builtin__\nobject\np3\nNtp4\nRp5\n(dp6\nS'daily_budget'\np7\nI50000\nsS'start_time'\np8\nV2012-09-06T10:30:23-0700\np9\nsS'account_id'\np10\nI106929496119713\nsS'lifetime_budget'\np11\nNsS'end_time'\np12\nV2012-09-30T23:59:00-0700\np13\nsS'campaign_status'\np14\nI2\nsS'id'\np15\nV6006011670551\np16\nsS'name'\np17\nVTest\np18\nsba(lp19\ntp20\n."
p8
sS'hash'
p9
S'604adb48ca837f507ef3e602b4cbd2fafe9db30c'
p10
sS'stack'
p11
S'find_by_adaccount_id /home/orozco/development/django/buzzfeed/local/lib/python2.7/site-packages/caliendo/facade.py __cache /home/orozco/development/django/buzzfeed/local/lib/python2.7/site-packages/caliendo/facade.py <lambda> /home/orozco/development/django/buzzfeed/pyfacebook/test/adcampaign_test.py test_find_by_adaccount_id /home/orozco/development/django/buzzfeed/local/lib/python2.7/site-packages/nose/case.py runTest /usr/lib/python2.7/unittest/case.py run /usr/lib/python2.7/unittest/case.py __call__ /home/orozco/development/django/buzzfeed/local/lib/python2.7/site-packages/nose/case.py runTest /home/orozco/development/django/buzzfeed/local/lib/python2.7/site-packages/nose/case.py run /home/orozco/development/django/buzzfeed/local/lib/python2.7/site-packages/nose/case.py __call__ /home/orozco/development/django/buzzfeed/local/lib/python2.7/site-packages/nose/suite.py run /home/orozco/development/django/buzzfeed/local/lib/python2.7/site-packages/nose/suite.py __call__ /home/orozco/development/django/buzzfeed/local/lib/python2.7/site-packages/nose/suite.py run /home/orozco/development/django/buzzfeed/local/lib/python2.7/site-packages/nose/suite.py __call__ /home/orozco/development/django/buzzfeed/local/lib/python2.7/site-packages/nose/suite.py run /home/orozco/development/django/buzzfeed/local/lib/python2.7/site-packages/nose/suite.py __call__ /home/orozco/development/django/buzzfeed/local/lib/python2.7/site-packages/nose/suite.py run /home/orozco/development/django/buzzfeed/local/lib/python2.7/site-packages/nose/suite.py __call__ /home/orozco/development/django/buzzfeed/local/lib/python2.7/site-packages/nose/suite.py run /home/orozco/development/django/buzzfeed/local/lib/python2.7/site-packages/nose/suite.py __call__ /home/orozco/development/django/buzzfeed/local/lib/python2.7/site-packages/nose/suite.py run /home/orozco/development/django/buzzfeed/local/lib/python2.7/site-packages/nose/suite.py __call__ /home/orozco/development/django/buzzfeed/local/lib/python2.7/site-packages/nose/core.py run /home/orozco/development/django/buzzfeed/local/lib/python2.7/site-packages/nose/core.py runTests /usr/lib/python2.7/unittest/main.py __init__ /home/orozco/development/django/buzzfeed/local/lib/python2.7/site-packages/nose/core.py __init__ /home/orozco/development/django/buzzfeed/bin/nosetests <module> '
p12
s.