(dp1
S'args'
p2
S'(t.'
p3
sS'methodname'
p4
S'__json_response'
p5
sS'packet_num'
p6
I0
sS'returnval'
p7
S'(dp0\nV6006011741351\np1\n(dp2\nValt_view_tags\np3\n(lp4\nsVbody\np5\nVjdklsfdsfds\np6\nsVimage_hash\np7\nV06bc91982fa92f391c8a68351f528b11\np8\nsVname\np9\nVtest test 2-00\np10\nsVtitle\np11\nVtest test 2\np12\nsVcreative_id\np13\nV6006011741351\np14\nsVpreview_url\np15\nVhttp://www.facebook.com/ads/api/creative_preview.php?cid=6006011741351\np16\nsVid\np17\nV6006011741351\np18\nsVimage_url\np19\nVhttps://fbcdn-creative-a.akamaihd.net/hads-ak-ash3/s110x80/701905_6006616685351_33177_n.jpg\np20\nsVcount_current_adgroups\np21\nI1\nsVrun_status\np22\nI1\nsVtype\np23\nI1\nsVlink_url\np24\nVhttp://track.grapheffect.com/redirect/5957dc1f-5f94-4a84-ac94-2e85361c1ab1\np25\nsVview_tag\np26\nV\np27\nssV6006011767951\np28\n(dp29\nValt_view_tags\np30\n(lp31\nsVbody\np32\nVjdklsfdsfds\np33\nsVimage_hash\np34\nV06bc91982fa92f391c8a68351f528b11\np35\nsVname\np36\nVtest test-04\np37\nsVtitle\np38\nVtest test\np39\nsVcreative_id\np40\nV6006011767951\np41\nsVpreview_url\np42\nVhttp://www.facebook.com/ads/api/creative_preview.php?cid=6006011767951\np43\nsVid\np44\nV6006011767951\np45\nsVimage_url\np46\nVhttps://fbcdn-creative-a.akamaihd.net/hads-ak-ash3/s110x80/701905_6006616685351_33177_n.jpg\np47\nsVcount_current_adgroups\np48\nI1\nsVrun_status\np49\nI1\nsVtype\np50\nI1\nsVlink_url\np51\nVhttp://track.grapheffect.com/redirect/d742e6be-ceb8-448f-9868-aad59a76b387\np52\nsVview_tag\np53\ng27\nssV6006011740951\np54\n(dp55\nValt_view_tags\np56\n(lp57\nsVbody\np58\nVfdhjksfdhsk\np59\nsVimage_hash\np60\nV06bc91982fa92f391c8a68351f528b11\np61\nsVname\np62\nVtest test 2\np63\nsVtitle\np64\nVtest test 2\np65\nsVcreative_id\np66\nV6006011740951\np67\nsVpreview_url\np68\nVhttp://www.facebook.com/ads/api/creative_preview.php?cid=6006011740951\np69\nsVid\np70\nV6006011740951\np71\nsVimage_url\np72\nVhttps://fbcdn-creative-a.akamaihd.net/hads-ak-ash3/s110x80/701905_6006616685351_33177_n.jpg\np73\nsVcount_current_adgroups\np74\nI1\nsVrun_status\np75\nI1\nsVtype\np76\nI1\nsVlink_url\np77\nVhttp://track.grapheffect.com/redirect/0e02b6e3-9161-496f-b3a9-6382c6071796\np78\nsVview_tag\np79\ng27\nssV6006011766751\np80\n(dp81\nValt_view_tags\np82\n(lp83\nsVbody\np84\nVjdklsfdsfds\np85\nsVimage_hash\np86\nV1c19d4adaa3d02df9c43fa3636974310\np87\nsVname\np88\nVtest test-03\np89\nsVtitle\np90\nVtest test\np91\nsVcreative_id\np92\nV6006011766751\np93\nsVpreview_url\np94\nVhttp://www.facebook.com/ads/api/creative_preview.php?cid=6006011766751\np95\nsVid\np96\nV6006011766751\np97\nsVimage_url\np98\nVhttps://fbcdn-creative-a.akamaihd.net/hads-ak-snc7/s110x80/701905_6006616685551_48002_n.jpg\np99\nsVcount_current_adgroups\np100\nI1\nsVrun_status\np101\nI1\nsVtype\np102\nI1\nsVlink_url\np103\nVhttp://track.grapheffect.com/redirect/bd4eae6d-3550-4da1-930b-434f48e4c3b5\np104\nsVview_tag\np105\ng27\nssV6006011768151\np106\n(dp107\nValt_view_tags\np108\n(lp109\nsVbody\np110\nVjdklsfdsfds\np111\nsVimage_hash\np112\nV1c19d4adaa3d02df9c43fa3636974310\np113\nsVname\np114\nVtest test 2-06\np115\nsVtitle\np116\nVtest test 2\np117\nsVcreative_id\np118\nV6006011768151\np119\nsVpreview_url\np120\nVhttp://www.facebook.com/ads/api/creative_preview.php?cid=6006011768151\np121\nsVid\np122\nV6006011768151\np123\nsVimage_url\np124\nVhttps://fbcdn-creative-a.akamaihd.net/hads-ak-snc7/s110x80/701905_6006616685551_48002_n.jpg\np125\nsVcount_current_adgroups\np126\nI1\nsVrun_status\np127\nI1\nsVtype\np128\nI1\nsVlink_url\np129\nVhttp://track.grapheffect.com/redirect/ac45d66e-0fcc-47fd-af8d-a8971b732c8f\np130\nsVview_tag\np131\ng27\nssV6006011748151\np132\n(dp133\nValt_view_tags\np134\n(lp135\nsVbody\np136\nVjdklsfdsfds\np137\nsVimage_hash\np138\nV43d3e4de45f056cbcfd32da819623b21\np139\nsVname\np140\nVtest test 2-01\np141\nsVtitle\np142\nVtest test 2\np143\nsVcreative_id\np144\nV6006011748151\np145\nsVpreview_url\np146\nVhttp://www.facebook.com/ads/api/creative_preview.php?cid=6006011748151\np147\nsVid\np148\nV6006011748151\np149\nsVimage_url\np150\nVhttps://fbcdn-creative-a.akamaihd.net/hads-ak-ash3/s110x80/701905_6006616685751_43589_n.jpg\np151\nsVcount_current_adgroups\np152\nI1\nsVrun_status\np153\nI1\nsVtype\np154\nI1\nsVlink_url\np155\nVhttp://track.grapheffect.com/redirect/22f3179c-6803-4c24-bed8-defa46604d62\np156\nsVview_tag\np157\ng27\nssV6006011741151\np158\n(dp159\nValt_view_tags\np160\n(lp161\nsVbody\np162\nVfdhjksfdhsk\np163\nsVimage_hash\np164\nV43d3e4de45f056cbcfd32da819623b21\np165\nsVname\np16'
p8
sS'hash'
p9
S'6171d25f15545f4acea3070f342cbd72f5abb1d3'
p10
sS'stack'
p11
S''
s.