(dp1
S'args'
p2
S''
sS'methodname'
p3
S''
sS'packet_num'
p4
I37
sS'returnval'
p5
S'ge_url\np3741\nVhttps://fbcdn-creative-a.akamaihd.net/hads-ak-prn1/s110x80/708189_6006845105165_65433_n.jpg\np3742\nsVcount_current_adgroups\np3743\nI0\nsVrun_status\np3744\nI1\nsVtype\np3745\nI1\nsVlink_url\np3746\nVhttp://www.buzzfeed.com/ht/ianschrager/holy-flaming-food-on-a-sword/HFBD1\np3747\nsVview_tag\np3748\ng1825\nsa(dp3749\nValt_view_tags\np3750\n(lp3751\nsVbody\np3752\nVDid you know Wrigley Field was once called Weeghman Park?  See some of the best name changes in history, all in under 60 seconds.\np3753\nsVimage_hash\np3754\nVf7003ec7c00288d76525ce57725f4bf8\np3755\nsVname\np3756\nVGreat Name Changes-01\np3757\nsVtitle\np3758\nVGreat Name Changes\np3759\nsVcreative_id\np3760\nV6003377941365\np3761\nsVpreview_url\np3762\nVhttp://www.facebook.com/ads/api/creative_preview.php?cid=6003377941365\np3763\nsVid\np3764\nV6003377941365\np3765\nsVimage_url\np3766\nVhttps://fbcdn-creative-a.akamaihd.net/hads-ak-prn1/s110x80/708163_6006845544765_614_n.jpg\np3767\nsVcount_current_adgroups\np3768\nI0\nsVrun_status\np3769\nI1\nsVtype\np3770\nI1\nsVlink_url\np3771\nVhttp://www.buzzfeed.com/ht/ianschrager/great-name-changes-throughout-history-in-60-second/HFBC1\np3772\nsVview_tag\np3773\ng1825\nsa(dp3774\nValt_view_tags\np3775\n(lp3776\nsVbody\np3777\nVWord on the street is the historical Pump Room is going to reopen soon. Here are ten interesting facts about this amazing place.\np3778\nsVimage_hash\np3779\nV55fab71d8ebfe827942f83fdd94225e9\np3780\nsVname\np3781\nVThe Pump Room - 10 Facts-01\np3782\nsVtitle\np3783\nVThe Pump Room - 10 Facts\np3784\nsVcreative_id\np3785\nV6003377949965\np3786\nsVpreview_url\np3787\nVhttp://www.facebook.com/ads/api/creative_preview.php?cid=6003377949965\np3788\nsVid\np3789\nV6003377949965\np3790\nsVimage_url\np3791\nVhttps://fbcdn-creative-a.akamaihd.net/hads-ak-prn1/s110x80/708175_6006844585765_12820_n.jpg\np3792\nsVcount_current_adgroups\np3793\nI0\nsVrun_status\np3794\nI1\nsVtype\np3795\nI1\nsVlink_url\np3796\nVhttp://www.buzzfeed.com/ht/ianschrager/10-interesting-historic-facts-about-the-famous-pum/HFBC1\np3797\nsVview_tag\np3798\ng1825\nsa(dp3799\nValt_view_tags\np3800\n(lp3801\nsVbody\np3802\nVWord on the street is the historical Pump Room is going to reopen soon. Here are ten interesting facts about this amazing place.\np3803\nsVimage_hash\np3804\nV7fff4eaf136e9ee5928b5868cf68c99d\np3805\nsVname\np3806\nVThe Pump Room - 10 Facts-02\np3807\nsVtitle\np3808\nVThe Pump Room - 10 Facts\np3809\nsVcreative_id\np3810\nV6003377951965\np3811\nsVpreview_url\np3812\nVhttp://www.facebook.com/ads/api/creative_preview.php?cid=6003377951965\np3813\nsVid\np3814\nV6003377951965\np3815\nsVimage_url\np3816\nVhttps://fbcdn-creative-a.akamaihd.net/hads-ak-prn1/s110x80/708160_6006844816565_26952_n.jpg\np3817\nsVcount_current_adgroups\np3818\nI0\nsVrun_status\np3819\nI1\nsVtype\np3820\nI1\nsVlink_url\np3821\nVhttp://www.buzzfeed.com/ht/ianschrager/10-interesting-historic-facts-about-the-famous-pum/HFBD1\np3822\nsVview_tag\np3823\ng1825\nsa(dp3824\nValt_view_tags\np3825\n(lp3826\nsVbody\np3827\nVThe British Academy of Film and Television Arts (BAFTA) will throw a "Brits to Watch" party on July 9th. See who made the guest list.\np3828\nsVimage_hash\np3829\nVde6f2d4664e8d6c9dbfc4cfcd7b34e06\np3830\nsVname\np3831\nVBAFTA "Brits To Watch"\np3832\nsVtitle\np3833\nVBAFTA "Brits To Watch"\np3834\nsVcreative_id\np3835\nV6003517977365\np3836\nsVpreview_url\np3837\nVhttp://www.facebook.com/ads/api/creative_preview.php?cid=6003517977365\np3838\nsVid\np3839\nV6003517977365\np3840\nsVimage_url\np3841\nVhttps://fbcdn-creative-a.akamaihd.net/hads-ak-prn1/s110x80/708179_6006845385965_23207_n.jpg\np3842\nsVcount_current_adgroups\np3843\nI0\nsVrun_status\np3844\nI1\nsVtype\np3845\nI1\nsVlink_url\np3846\nVhttp://www.huffingtonpost.com/2011/07/05/william-kate-bafta-brits-to-watch_n_890192.html?utm_campaign=buzzfeedIO&ncid=buzzfeedIO%20#bfsrc=HLFB2\np3847\nsVview_tag\np3848\ng1825\nsa(dp3849\nValt_view_tags\np3850\n(lp3851\nsVbody\np3852\nVAnthony has been found not guilty of killing her 2-year-old daughter, and also found not guilty of aggravated child abuse. Read more.\np3853\nsVimage_hash\np3854\nV2c3b3c79d4d65c20001365cd0242c3b7\np3855\nsVname\np3856\nVCasey Anthony Verdict\np3857\nsVtitle\np3858\nVCasey Anthony Verdict\np3859\nsVcreative_id\np3860\nV6003518016365\np3861\nsVpr'
p6
sS'hash'
p7
S'6588af62295028c39f7b581390f0d8294223275e'
p8
sS'stack'
p9
S''
s.