(dp1
S'args'
p2
S''
sS'methodname'
p3
S''
sS'packet_num'
p4
I7
sS'returnval'
p5
S'11bSBvb29vbyAKABwAAO4o2gX3oAA=\np577\nsVcount_current_adgroups\np578\nI0\nsVrun_status\np579\nI1\nsVtype\np580\nI27\nsVid\np581\nV6005538881365\np582\nsa(dp583\nVname\np584\nVAd from a Page post #6005538982965\np585\nsVauto_update\np586\nI1\nsVstory_id\np587\nV10151123355860329\np588\nsVcreative_id\np589\nV6005538982965\np590\nsVpreview_url\np591\nVhttp://www.facebook.com/ads/api/creative_preview.php?cid=6005538982965\np592\nsVobject_id\np593\nV21898300328\np594\nsVaction_t\np595\nVBgABAPcIAAZQCtZvCgAQAAAABRk9i6gNABoGCgAAAA4BGQAkEGSVslZZAXUAAAAAAAG1igCbAAAAAAAAAAgAZgAAABUHwjFIAL0AJBBklbFE6QD8AAAAAADGG+kBwAAAAAAAAAABAcoAJBBklbJ9aQEeAAAAACd2m84ADgAAAABQCtZvAYYAAAAAAAAAAAABACQQZJWyfWkBtgAAAABQCtZvAeQAJBBklbJ9aQ0AGwYLAAAAAUADAAAAEiBvb29vbyBXYWxsIFBob3RvcwoAHAAkEGSVsUTpAA==\np596\nsVcount_current_adgroups\np597\nI0\nsVrun_status\np598\nI1\nsVtype\np599\nI27\nsVid\np600\nV6005538982965\np601\nsa(dp602\nVname\np603\nVAd from a Page post #6005539174765\np604\nsVauto_update\np605\nI1\nsVstory_id\np606\nI205248549603175\nsVcreative_id\np607\nV6005539174765\np608\nsVpreview_url\np609\nVhttp://www.facebook.com/ads/api/creative_preview.php?cid=6005539174765\np610\nsVobject_id\np611\nV21898300328\np612\nsVaction_t\np613\nVBgABAQcIAAZQCwyZCgAQAAAABRk9i6gNABoGCgAAAAwBCgAAAAAAAABQALgAALqsJuPHZwC5AAAAAAAAAGQAugAkEETsQfLBAiMAAAAAAAAAAADDAAAAT1RSNB4BuwAAAAAAAABqAcoAALqsJuPHZwEeAAAAADeYQDIAAQAAuqwm48dnAbYAAAAAUAsMmQHkAAC6rCbjx2cNABsGCwAAAAFAAwAAAJtIYSEgb29vb28gNTAgU2hhZGVzIE9mIEFuZ2VsYSBNZXJrZWwgb29vb28gVGhlIEdlcm1hbiBDaGFuY2VsbG9yIGhhcyB3b3JuIGV2ZXJ5IGNvbG9yIGluIHRoZSByYWluYm93IGR1cmluZyBoZXIgdGVybS4gU2hlIGlzIGEgUGFudG9uZSBjaGFydC4gQ2hlY2sgaXQgb3V0LgoAHAAAuqwm48dnAA==\np614\nsVcount_current_adgroups\np615\nI0\nsVrun_status\np616\nI1\nsVtype\np617\nI27\nsVid\np618\nV6005539174765\np619\nsa(dp620\nVname\np621\nVAd from a Page post #6005539412965\np622\nsVauto_update\np623\nI1\nsVstory_id\np624\nV10151124292550329\np625\nsVcreative_id\np626\nV6005539412965\np627\nsVpreview_url\np628\nVhttp://www.facebook.com/ads/api/creative_preview.php?cid=6005539412965\np629\nsVobject_id\np630\nV21898300328\np631\nsVaction_t\np632\nVBgABAPcIAAZQC11sCgAQAAAABRk9i6gNABoGCgAAAA4BGQAkEGTNhysxAXUAAAAAAAG1igCbAAAAAAAAAAgAZgAAABUHwjFIAL0AJBBkzYcEIQD8AAAAAADGKy0BwAAAAAAAAAABAcoAJBBkzYc+uQEeAAAAAOxPLD4ADgAAAABQC11sAYYAAAAAAAAAAAABACQQZM2HPrkBtgAAAABQC11sAeQAJBBkzYc+uQ0AGwYLAAAAAUADAAAAhU5ldyBNZW1lIEFsZXJ0OiBSZWxhdGFibGUgUm9tbmV5DQoNCmh0dHA6Ly93d3cuYnV6emZlZWQuY29tL3NhbWlyL3JlbGF0YWJsZS1yb21uZXktYS1tZW1lLWZvci1yaWNoLXBlb3BsZS10by1yZWxhdGUgb29vb28gV2FsbCBQaG90b3MKABwAJBBkzYcEIQA=\np633\nsVcount_current_adgroups\np634\nI0\nsVrun_status\np635\nI1\nsVtype\np636\nI27\nsVid\np637\nV6005539412965\np638\nsa(dp639\nVname\np640\nVAd from a Page post #6005540128565\np641\nsVauto_update\np642\nI1\nsVstory_id\np643\nI385825151483290\nsVcreative_id\np644\nV6005540128565\np645\nsVpreview_url\np646\nVhttp://www.facebook.com/ads/api/creative_preview.php?cid=6005540128565\np647\nsVobject_id\np648\nV21898300328\np649\nsVaction_t\np650\nVBgABAQcIAAZQDBNZCgAJAAAAAImt0MwKABAAAAAFGT2LqA0AGgYKAAAADQEKAAAAAAAAAFAAuAABXufrGX2aALkAAAAAAAAAZAC6ACQPlzltJPACIwAAAAAAAAAIAMMAAABQIpXpSQG7AAAAAAAAAGcACgAAAACJrdDMAcoAAV7n6xl9mgEeAAAAAPcaUTgAAQABXufrGX2aAbYAAAAAUAwTWQHkAAFe5+sZfZoNABsGCwAAAAFAAwAAAKRHb29kIG1vcm5pbmchIEhlcmUgaXMgYSBiYWJ5IHBvcmN1cGluZSBlYXRpbmcgYSB3YXRlcm1lbG9uLiBvb29vbyBCYWJ5IHBvcmN1cGluZSBlYXRzIHdhdGVybWVsb24gb29vb28gU3Bpa2UsIGEgYmFieSBwb3JjdXBpbmUsIGVhdHMgd2F0ZXJtZWxvbiBvbiBhIGhvdCBzdW1tZXIgZGF5LgoAHAABXufrGX2aAA==\np651\nsVcount_current_adgroups\np652\nI0\nsVrun_status\np653\nI1\nsVtype\np654\nI27\nsVid\np655\nV6005540128565\np656\nsa(dp657\nVname\np658\nVAd from a Page post #6005541080365\np659\nsVauto_update\np660\nI1\nsVstory_id\np661\nI421988327853348\nsVcreative_id\np662\nV6005541080365\np663\nsVpreview_url\np664\nVhttp://www.facebook.com/ads/api/creative_preview.php?cid=6005541080365\np665\nsVobject_id\np666\nV21898300328\np667\nsVaction_t\np668\nVBgABAQcIAAZQDKD8CgAJAAAAAImt0MwKABAAAAAFGT2LqA0AGgYKAAAADQEKAAAAAAAAAFAAuAABf8vQYY0kALkAAAAAAAAAZAC6ACQQPedUWa0CIwAAAAAAAAAIAMMAAABPVFI0HgG7AAAAAAAAAGoACgAAAACJrdDMAcoAAX/L0GGNJAEeAAAAAG1iL1gAAQABf8vQYY0kAbYAAAAAUAyg/AHkAAF/y9BhjSQNABsGCwAAAAFAAwAAAHdHdWlsdHkgYXMgY2hhcmdlZC4gb29vb28gMjAgRXZlcnlkYXkgVGhpbmdzIFdlJ3JlIEFsbCBHdWlsdHkgT2Y'
p6
sS'hash'
p7
S'6588af62295028c39f7b581390f0d8294223275e'
p8
sS'stack'
p9
S''
s.