(dp1
S'args'
p2
S''
sS'methodname'
p3
S''
sS'packet_num'
p4
I44
sS'returnval'
p5
S'51\nsVbody\np4652\nVWhile enterprise and B2B cloud computing is going strong, B2C doesn\'t have the same momentum. See what this expert has to say.\np4653\nsVimage_hash\np4654\nV2f8b7a2e5f57ab0e56bb052f14a4d5a3\np4655\nsVname\np4656\nVA House in the Cloud\np4657\nsVtitle\np4658\nVA House in the Cloud\np4659\nsVcreative_id\np4660\nV6003502194565\np4661\nsVpreview_url\np4662\nVhttp://www.facebook.com/ads/api/creative_preview.php?cid=6003502194565\np4663\nsVid\np4664\nV6003502194565\np4665\nsVimage_url\np4666\nVhttps://fbcdn-creative-a.akamaihd.net/hads-ak-ash3/s110x80/708176_6006844334765_40867_n.jpg\np4667\nsVcount_current_adgroups\np4668\nI0\nsVrun_status\np4669\nI1\nsVtype\np4670\nI1\nsVlink_url\np4671\nVhttp://blogs.forbes.com/microsoft/2011/06/14/a-house-in-the-cloud/?nowelcome\np4672\nsVview_tag\np4673\ng1825\nsa(dp4674\nValt_view_tags\np4675\n(lp4676\nsVbody\np4677\nVAre you motivated to work because of money or social needs such as status, certainty and autonomy? See what this expert has to say. \np4678\nsVimage_hash\np4679\nV33400ef44e173c78ff5f544f4c4b0f97\np4680\nsVname\np4681\nVYour Brain at Work\np4682\nsVtitle\np4683\nVYour Brain at Work\np4684\nsVcreative_id\np4685\nV6003502202965\np4686\nsVpreview_url\np4687\nVhttp://www.facebook.com/ads/api/creative_preview.php?cid=6003502202965\np4688\nsVid\np4689\nV6003502202965\np4690\nsVimage_url\np4691\nVhttps://fbcdn-creative-a.akamaihd.net/hads-ak-prn1/s110x80/708164_6006844352565_7389_n.jpg\np4692\nsVcount_current_adgroups\np4693\nI0\nsVrun_status\np4694\nI1\nsVtype\np4695\nI1\nsVlink_url\np4696\nVhttp://blogs.forbes.com/sap/2011/06/20/your-brain-at-work/?nowelcome\np4697\nsVview_tag\np4698\ng1825\nsa(dp4699\nValt_view_tags\np4700\n(lp4701\nsVbody\np4702\nVAre they the next "Bubble" or economic salvation? See what this expert has to say.\np4703\nsVimage_hash\np4704\nV889d325bf3bf5993acda83eb4b556fc8\np4705\nsVname\np4706\nVSocial Media IPOs\np4707\nsVtitle\np4708\nVSocial Media IPOs\np4709\nsVcreative_id\np4710\nV6003502210365\np4711\nsVpreview_url\np4712\nVhttp://www.facebook.com/ads/api/creative_preview.php?cid=6003502210365\np4713\nsVid\np4714\nV6003502210365\np4715\nsVimage_url\np4716\nVhttps://fbcdn-creative-a.akamaihd.net/hads-ak-prn1/s110x80/708205_6006844867765_41981_n.jpg\np4717\nsVcount_current_adgroups\np4718\nI0\nsVrun_status\np4719\nI1\nsVtype\np4720\nI1\nsVlink_url\np4721\nVhttp://blogs.forbes.com/sap/2011/06/13/social-media-the-next-bubble-or-economic-salvation/?nowelcome\np4722\nsVview_tag\np4723\ng1825\nsa(dp4724\nValt_view_tags\np4725\n(lp4726\nsVbody\np4727\nVFacebook is a social utility that connects people with friends and others who work\np4728\nsVimage_hash\np4729\nV8207d6a8c754752cc54ea63a77d8a2ad\np4730\nsVname\np4731\nVWelcome To Facebook - Log\np4732\nsVtitle\np4733\nVWelcome To Facebook - Log\np4734\nsVcreative_id\np4735\nV6005542978965\np4736\nsVpreview_url\np4737\nVhttp://www.facebook.com/ads/api/creative_preview.php?cid=6005542978965\np4738\nsVid\np4739\nV6005542978965\np4740\nsVimage_url\np4741\nVhttps://fbcdn-creative-a.akamaihd.net/hads-ak-prn1/s110x80/701894_6006844830165_48114_n.jpg\np4742\nsVcount_current_adgroups\np4743\nI0\nsVrun_status\np4744\nI1\nsVtype\np4745\nI1\nsVlink_url\np4746\nVhttp://www.facebook.com/\np4747\nsVview_tag\np4748\ng1825\nsa(dp4749\nValt_view_tags\np4750\n(lp4751\nsVbody\np4752\nVA place for our partners\' best content.\np4753\nsVimage_hash\np4754\nV07a7936e52c0331b64f7708cffd2c2fc\np4755\nsVname\np4756\nVBuzzFeed Partner-2012-07-23-7df8a9f92c6a985ff83fbc931c354104\np4757\nsVtitle\np4758\ng1825\nsVcreative_id\np4759\nV6005543344165\np4760\nsVpreview_url\np4761\nVhttp://www.facebook.com/ads/api/creative_preview.php?cid=6005543344165\np4762\nsVobject_id\np4763\nI238205562866018\nsVid\np4764\nV6005543344165\np4765\nsVimage_url\np4766\nVhttps://fbcdn-creative-a.akamaihd.net/hads-ak-ash3/s110x80/701888_6006844092765_56218_n.jpg\np4767\nsVcount_current_adgroups\np4768\nI0\nsVrun_status\np4769\nI1\nsVtype\np4770\nI2\nsVlink_url\np4771\nVhttps://www.yhuang.dev4033.facebook.com/BuzzFeedPartner?sk=timeline\np4772\nsVview_tag\np4773\ng1825\nsa(dp4774\nValt_view_tags\np4775\n(lp4776\nsVbody\np4777\nVWhy spend $30 on an oil change when you can do it yourself? Stop wasting your money and learn how to change it right here!\np4778\nsVimage_hash\np4779\nV3c112fc7e8982ce93d006b54d8a8d325'
p6
sS'hash'
p7
S'6588af62295028c39f7b581390f0d8294223275e'
p8
sS'stack'
p9
S''
s.