(dp1
S'args'
p2
S''
sS'methodname'
p3
S''
sS'packet_num'
p4
I32
sS'returnval'
p5
S'rcangel\'s exhibit in NYC.\np3103\nsVimage_hash\np3104\nV0aa16c8b98c35f01f851c9547a4ce88d\np3105\nsVname\np3106\nVAwesome Supercut!\np3107\nsVtitle\np3108\nVAwesome Supercut!\np3109\nsVcreative_id\np3110\nV6003619187765\np3111\nsVpreview_url\np3112\nVhttp://www.facebook.com/ads/api/creative_preview.php?cid=6003619187765\np3113\nsVid\np3114\nV6003619187765\np3115\nsVimage_url\np3116\nVhttps://fbcdn-creative-a.akamaihd.net/hads-ak-prn1/s110x80/708170_6006844116165_25312_n.jpg\np3117\nsVcount_current_adgroups\np3118\nI0\nsVrun_status\np3119\nI1\nsVtype\np3120\nI1\nsVlink_url\np3121\nVhttp://bzfd.it/qQG2aH\np3122\nsVview_tag\np3123\ng1825\nsa(dp3124\nValt_view_tags\np3125\n(lp3126\nsVbody\np3127\nVHis real name is Thomas DeCarlo Callaway. Think you know everything about him? Check out these other fun facts you may not have known.\np3128\nsVimage_hash\np3129\nV9b293c06637ff00233de28ad11c43027\np3130\nsVname\np3131\nVFacts About Cee Lo Green\np3132\nsVtitle\np3133\nVFacts About Cee Lo Green\np3134\nsVcreative_id\np3135\nV6003487815365\np3136\nsVpreview_url\np3137\nVhttp://www.facebook.com/ads/api/creative_preview.php?cid=6003487815365\np3138\nsVid\np3139\nV6003487815365\np3140\nsVimage_url\np3141\nVhttps://fbcdn-creative-a.akamaihd.net/hads-ak-ash3/s110x80/701900_6006844977165_52815_n.jpg\np3142\nsVcount_current_adgroups\np3143\nI0\nsVrun_status\np3144\nI1\nsVtype\np3145\nI1\nsVlink_url\np3146\nVhttp://bit.ly/inmE4o\np3147\nsVview_tag\np3148\ng1825\nsa(dp3149\nValt_view_tags\np3150\n(lp3151\nsVbody\np3152\nVYou never can tell what Cee Lo Green will do next. From his funny lyrics to his creative outfits, here\'s some of his best moments.\np3153\nsVimage_hash\np3154\nV299cf8dbfdbcf68c9faeaf0722804e53\np3155\nsVname\np3156\nVThe Best Of Cee Lo Green\np3157\nsVtitle\np3158\nVThe Best Of Cee Lo Green\np3159\nsVcreative_id\np3160\nV6003509856765\np3161\nsVpreview_url\np3162\nVhttp://www.facebook.com/ads/api/creative_preview.php?cid=6003509856765\np3163\nsVid\np3164\nV6003509856765\np3165\nsVimage_url\np3166\nVhttps://fbcdn-creative-a.akamaihd.net/hads-ak-prn1/s110x80/708172_6006844305965_25007_n.jpg\np3167\nsVcount_current_adgroups\np3168\nI0\nsVrun_status\np3169\nI1\nsVtype\np3170\nI1\nsVlink_url\np3171\nVhttp://bit.ly/j8uSO9\np3172\nsVview_tag\np3173\ng1825\nsa(dp3174\nValt_view_tags\np3175\n(lp3176\nsVbody\np3177\nVCee Lo Green takes you into his world with an exclusive documentary. Watch the trailer here, and find out how to see it in full.\np3178\nsVimage_hash\np3179\nVe28a35652a7cb190c0bb5121aa93b566\np3180\nsVname\np3181\nVCee Lo Green Documentary\np3182\nsVtitle\np3183\nVCee Lo Green Documentary\np3184\nsVcreative_id\np3185\nV6003587452165\np3186\nsVpreview_url\np3187\nVhttp://www.facebook.com/ads/api/creative_preview.php?cid=6003587452165\np3188\nsVid\np3189\nV6003587452165\np3190\nsVimage_url\np3191\nVhttps://fbcdn-creative-a.akamaihd.net/hads-ak-prn1/s110x80/708157_6006845414165_2992_n.jpg\np3192\nsVcount_current_adgroups\np3193\nI0\nsVrun_status\np3194\nI1\nsVtype\np3195\nI1\nsVlink_url\np3196\nVhttp://bzfd.it/pvxdBy\np3197\nsVview_tag\np3198\ng1825\nsa(dp3199\nValt_view_tags\np3200\n(lp3201\nsVbody\np3202\nVCheck out the rest of the"18 of The Most Refreshing Things in the World" -All on Buzzfeed!\np3203\nsVimage_hash\np3204\nV14023f1fba03a7497af9ba64c3a28941\np3205\nsVname\np3206\nVCelebrities Settling Down\np3207\nsVtitle\np3208\nVCelebrities Settling Down\np3209\nsVcreative_id\np3210\nV6005542543365\np3211\nsVpreview_url\np3212\nVhttp://www.facebook.com/ads/api/creative_preview.php?cid=6005542543365\np3213\nsVid\np3214\nV6005542543365\np3215\nsVimage_url\np3216\nVhttps://fbcdn-creative-a.akamaihd.net/hads-ak-prn1/s110x80/708194_6006844174165_60248_n.jpg\np3217\nsVcount_current_adgroups\np3218\nI0\nsVrun_status\np3219\nI1\nsVtype\np3220\nI1\nsVlink_url\np3221\nVhttp://www.buzzfeed.com/h1/fbad/mikeshardlemonade/18-of-the-most-refreshing-things-in-the-world-6j5c\np3222\nsVview_tag\np3223\ng1825\nsa(dp3224\nValt_view_tags\np3225\n(lp3226\nsVbody\np3227\nVThese major players helped influence entire movements of art, film, music, clothing, and stories. Find out who they are.\np3228\nsVimage_hash\np3229\nV44994d279d57b6a4a30883e30a56b00c\np3230\nsVname\np3231\nVPioneers of Pop Culture\np3232\nsVtitle\np3233\nVPioneers of Pop Culture\np3234\nsVcreative_id\np3235\nV6003425520365\np3236\nsVpreview_url\n'
p6
sS'hash'
p7
S'6588af62295028c39f7b581390f0d8294223275e'
p8
sS'stack'
p9
S''
s.