(dp1
S'args'
p2
S''
sS'methodname'
p3
S''
sS'packet_num'
p4
I90
sS'returnval'
p5
S'ecf1bab0aaec4e77ee7899dd7\np10537\nsVname\np10538\nVThe Baltimore Cannibals\np10539\nsVtitle\np10540\nVThe Baltimore Cannibals\np10541\nsVcreative_id\np10542\nV6005269311565\np10543\nsVpreview_url\np10544\nVhttp://www.facebook.com/ads/api/creative_preview.php?cid=6005269311565\np10545\nsVid\np10546\nV6005269311565\np10547\nsVimage_url\np10548\nVhttps://fbcdn-creative-a.akamaihd.net/hads-ak-prn1/s110x80/701894_6006845283765_7687_n.jpg\np10549\nsVcount_current_adgroups\np10550\nI0\nsVrun_status\np10551\nI1\nsVtype\np10552\nI1\nsVlink_url\np10553\nVhttp://buzzfeed.com/ht/mjs538/the-maryland-cannibals-creepy-facebook-poll/HFAA1\np10554\nsVview_tag\np10555\ng1825\nsa(dp10556\nValt_view_tags\np10557\n(lp10558\nsVbody\np10559\nVCheck out these "15 Go-To Drinks For Summer" and get ready for summer!\np10560\nsVimage_hash\np10561\nV1e044df1f09d39ab658358f6ab534314\np10562\nsVname\np10563\nVBest Cocktails for Summer\np10564\nsVtitle\np10565\nVBest Cocktails for Summer\np10566\nsVcreative_id\np10567\nV6005186365165\np10568\nsVpreview_url\np10569\nVhttp://www.facebook.com/ads/api/creative_preview.php?cid=6005186365165\np10570\nsVid\np10571\nV6005186365165\np10572\nsVimage_url\np10573\nVhttps://fbcdn-creative-a.akamaihd.net/hads-ak-ash3/s110x80/701889_6006844237965_42630_n.jpg\np10574\nsVcount_current_adgroups\np10575\nI0\nsVrun_status\np10576\nI1\nsVtype\np10577\nI1\nsVlink_url\np10578\nVhttp://www.buzzfeed.com/h1/fbad/jeremiahweed/the-15-go-to-drinks-for-summer-2j8r\np10579\nsVview_tag\np10580\ng1825\nsa(dp10581\nValt_view_tags\np10582\n(lp10583\nsVbody\np10584\nVCheck out the "15 Go-To Drinks For Summer" only on BuzzFeed!\np10585\nsVimage_hash\np10586\nV1e044df1f09d39ab658358f6ab534314\np10587\nsVname\np10588\nVBest Drinks for Summer!\np10589\nsVtitle\np10590\nVBest Drinks for Summer!\np10591\nsVcreative_id\np10592\nV6005234111765\np10593\nsVpreview_url\np10594\nVhttp://www.facebook.com/ads/api/creative_preview.php?cid=6005234111765\np10595\nsVid\np10596\nV6005234111765\np10597\nsVimage_url\np10598\nVhttps://fbcdn-creative-a.akamaihd.net/hads-ak-ash3/s110x80/701889_6006844237965_42630_n.jpg\np10599\nsVcount_current_adgroups\np10600\nI3\nsVrun_status\np10601\nI1\nsVtype\np10602\nI1\nsVlink_url\np10603\nVhttp://www.buzzfeed.com/h1/fbad/jeremiahweed/the-15-go-to-drinks-for-summer-2j8r\np10604\nsVview_tag\np10605\ng1825\nsa(dp10606\nValt_view_tags\np10607\n(lp10608\nsVbody\np10609\nVIt\'s a bad economy.  Which is why when you\'re searching for a job you absolutely must put your best foot forward. Right?\np10610\nsVimage_hash\np10611\nV743ff4c04f82c59ceb3a0f4b6f19891a\np10612\nsVname\np10613\nVResume Fail or Win?\np10614\nsVtitle\np10615\nVResume Fail or Win?\np10616\nsVcreative_id\np10617\nV6003175490165\np10618\nsVpreview_url\np10619\nVhttp://www.facebook.com/ads/api/creative_preview.php?cid=6003175490165\np10620\nsVid\np10621\nV6003175490165\np10622\nsVimage_url\np10623\nVhttps://fbcdn-creative-a.akamaihd.net/hads-ak-ash3/s110x80/701898_6006844752165_63511_n.jpg\np10624\nsVcount_current_adgroups\np10625\nI0\nsVrun_status\np10626\nI1\nsVtype\np10627\nI1\nsVlink_url\np10628\nVhttp://www.huffingtonpost.com/2011/04/18/resume-fail-or-win_n_850353.html?utm_campaign=buzzfeedIO&ncid=buzzfeedIO\np10629\nsVview_tag\np10630\ng1825\nsa(dp10631\nValt_view_tags\np10632\n(lp10633\nsVbody\np10634\nVCelebrity auditions are always a treat. Check out the cast from ABC\'s new comedy "Happy Endings" along with other hilarious actors!\np10635\nsVimage_hash\np10636\nV93431bbff6a7398bf4c9eb21f8046d51\np10637\nsVname\np10638\nV5 Celeb Audition Tapes\np10639\nsVtitle\np10640\nV5 Celeb Audition Tapes\np10641\nsVcreative_id\np10642\nV6003140043165\np10643\nsVpreview_url\np10644\nVhttp://www.facebook.com/ads/api/creative_preview.php?cid=6003140043165\np10645\nsVid\np10646\nV6003140043165\np10647\nsVimage_url\np10648\nVhttps://fbcdn-creative-a.akamaihd.net/hads-ak-prn1/s110x80/708176_6006844928365_49769_n.jpg\np10649\nsVcount_current_adgroups\np10650\nI0\nsVrun_status\np10651\nI1\nsVtype\np10652\nI1\nsVlink_url\np10653\nVhttp://www.buzzfeed.com/ht/happyendings/5-amazing-leaked-celebrity-audition-tapes/HFAA1\np10654\nsVview_tag\np10655\ng1825\nsa(dp10656\nValt_view_tags\np10657\n(lp10658\nsVbody\np10659\nVCan\xe2t wait for Drew Carey\'s new show, Improv-A-Ganza? Drew\'s past moments still have us in stitches! Take a look b'
p6
sS'hash'
p7
S'6588af62295028c39f7b581390f0d8294223275e'
p8
sS'stack'
p9
S''
s.