(dp1
S'args'
p2
S''
sS'methodname'
p3
S''
sS'packet_num'
p4
I43
sS'returnval'
p5
S'umb by digital noise, what can any business or brand do to make itself relevant again? Read on and see how.\np4528\nsVimage_hash\np4529\nVe71738b9fcb5e2e8565deaf02ac72243\np4530\nsVname\np4531\nVBrand Relevance\np4532\nsVtitle\np4533\nVBrand Relevance\np4534\nsVcreative_id\np4535\nV6003493358965\np4536\nsVpreview_url\np4537\nVhttp://www.facebook.com/ads/api/creative_preview.php?cid=6003493358965\np4538\nsVid\np4539\nV6003493358965\np4540\nsVimage_url\np4541\nVhttps://fbcdn-creative-a.akamaihd.net/hads-ak-prn1/s110x80/708171_6006845445765_13810_n.jpg\np4542\nsVcount_current_adgroups\np4543\nI0\nsVrun_status\np4544\nI1\nsVtype\np4545\nI1\nsVlink_url\np4546\nVhttp://blogs.forbes.com/gyro/2011/06/15/brand-relevance-in-a-tech-numbed-world/?nowelcome\np4547\nsVview_tag\np4548\ng1825\nsa(dp4549\nValt_view_tags\np4550\n(lp4551\nsVbody\np4552\nVThe concept of being "at work" is now more a state of mind rather than a physical location or a time of day. See what this expert says.\np4553\nsVimage_hash\np4554\nVb798af40dc132c7055c571807fd49e33\np4555\nsVname\np4556\nVB2B Takes Their Seat\np4557\nsVtitle\np4558\nVB2B Takes Their Seat\np4559\nsVcreative_id\np4560\nV6003493649765\np4561\nsVpreview_url\np4562\nVhttp://www.facebook.com/ads/api/creative_preview.php?cid=6003493649765\np4563\nsVid\np4564\nV6003493649765\np4565\nsVimage_url\np4566\nVhttps://fbcdn-creative-a.akamaihd.net/hads-ak-prn1/s110x80/708169_6006845156165_44811_n.jpg\np4567\nsVcount_current_adgroups\np4568\nI0\nsVrun_status\np4569\nI1\nsVtype\np4570\nI1\nsVlink_url\np4571\nVhttp://blogs.forbes.com/gyro/2011/06/17/b2b-marketers-take-their-seat-at-the-table/?nowelcome\np4572\nsVview_tag\np4573\ng1825\nsa(dp4574\nValt_view_tags\np4575\n(lp4576\nsVbody\np4577\nVNo one buys an ad. You invest in better business results and advertising is a means to that end. See what this expert thinks.\np4578\nsVimage_hash\np4579\nVe5524de0b3d24667276ecffbc2203d38\np4580\nsVname\np4581\nVCreativity Gets Results\np4582\nsVtitle\np4583\nVCreativity Gets Results\np4584\nsVcreative_id\np4585\nV6003493967165\np4586\nsVpreview_url\np4587\nVhttp://www.facebook.com/ads/api/creative_preview.php?cid=6003493967165\np4588\nsVid\np4589\nV6003493967165\np4590\nsVimage_url\np4591\nVhttps://fbcdn-creative-a.akamaihd.net/hads-ak-prn1/s110x80/708206_6006845437365_3739_n.jpg\np4592\nsVcount_current_adgroups\np4593\nI0\nsVrun_status\np4594\nI1\nsVtype\np4595\nI1\nsVlink_url\np4596\nVhttp://blogs.forbes.com/gyro/2011/06/23/nobody-buys-an-ad-how-creativity-gets-results/?nowelcome\np4597\nsVview_tag\np4598\ng1825\nsa(dp4599\nValt_view_tags\np4600\n(lp4601\nsVbody\np4602\nVSocial media can be a useful tool beneath the thumbs of a C-level executive. Read this exec\'s experience from his first 200 days.\np4603\nsVimage_hash\np4604\nVe99efa0be0b38d27e5bb25d300b2fa47\np4605\nsVname\np4606\nVC-Suiter Tweeter\np4607\nsVtitle\np4608\nVC-Suiter Tweeter\np4609\nsVcreative_id\np4610\nV6003494459565\np4611\nsVpreview_url\np4612\nVhttp://www.facebook.com/ads/api/creative_preview.php?cid=6003494459565\np4613\nsVid\np4614\nV6003494459565\np4615\nsVimage_url\np4616\nVhttps://fbcdn-creative-a.akamaihd.net/hads-ak-prn1/s110x80/708199_6006845463565_38974_n.jpg\np4617\nsVcount_current_adgroups\np4618\nI0\nsVrun_status\np4619\nI1\nsVtype\np4620\nI1\nsVlink_url\np4621\nVhttp://blogs.forbes.com/gyro/2011/06/22/the-first-200-days-of-a-c-suiter-tweeter/?nowelcome\np4622\nsVview_tag\np4623\ng1825\nsa(dp4624\nValt_view_tags\np4625\n(lp4626\nsVbody\np4627\nVReputation and reciprocity are the keys to small business advocacy. See what this expert has to say.\np4628\nsVimage_hash\np4629\nV358f8511a0233a37b160ca596d799a7e\np4630\nsVname\np4631\nVSmall Business Advocacy\np4632\nsVtitle\np4633\nVSmall Business Advocacy\np4634\nsVcreative_id\np4635\nV6003494708965\np4636\nsVpreview_url\np4637\nVhttp://www.facebook.com/ads/api/creative_preview.php?cid=6003494708965\np4638\nsVid\np4639\nV6003494708965\np4640\nsVimage_url\np4641\nVhttps://fbcdn-creative-a.akamaihd.net/hads-ak-ash3/s110x80/708161_6006844362565_50695_n.jpg\np4642\nsVcount_current_adgroups\np4643\nI0\nsVrun_status\np4644\nI1\nsVtype\np4645\nI1\nsVlink_url\np4646\nVhttp://blogs.forbes.com/gyro/2011/06/20/reputation-reciprocity-keys-to-small-business-advocacy/?nowelcome\np4647\nsVview_tag\np4648\ng1825\nsa(dp4649\nValt_view_tags\np4650\n(lp46'
p6
sS'hash'
p7
S'6588af62295028c39f7b581390f0d8294223275e'
p8
sS'stack'
p9
S''
s.