(dp1
S'args'
p2
S''
sS'methodname'
p3
S''
sS'packet_num'
p4
I29
sS'returnval'
p5
S'ads/api/creative_preview.php?cid=6003572845565\np2712\nsVobject_id\np2713\nI238205562866018\nsVid\np2714\nV6003572845565\np2715\nsVimage_url\np2716\nVhttps://fbcdn-creative-a.akamaihd.net/hads-ak-ash3/s110x80/701898_6006845078165_15748_n.jpg\np2717\nsVcount_current_adgroups\np2718\nI0\nsVrun_status\np2719\nI1\nsVtype\np2720\nI2\nsVlink_url\np2721\nVhttp://www.facebook.com/pages/BuzzFeed-Partner/238205562866018?sk=wall\np2722\nsVview_tag\np2723\ng1825\nsa(dp2724\nValt_view_tags\np2725\n(lp2726\nsVbody\np2727\nVCheck out this list of "Famous People Giving The Bird". Who does it best? Remember to "Like" our page to follow more of our best stuff.\np2728\nsVimage_hash\np2729\nV8aac1a5c6e4c893ae3fec50064e0bc5d\np2730\nsVname\np2731\nVBuzzFeed Partner-06\np2732\nsVtitle\np2733\ng1825\nsVcreative_id\np2734\nV6003574688165\np2735\nsVpreview_url\np2736\nVhttp://www.facebook.com/ads/api/creative_preview.php?cid=6003574688165\np2737\nsVobject_id\np2738\nI238205562866018\nsVid\np2739\nV6003574688165\np2740\nsVimage_url\np2741\nVhttps://fbcdn-creative-a.akamaihd.net/hads-ak-ash3/s110x80/708199_6006844880365_10860_n.jpg\np2742\nsVcount_current_adgroups\np2743\nI0\nsVrun_status\np2744\nI1\nsVtype\np2745\nI2\nsVlink_url\np2746\nVhttp://www.facebook.com/pages/BuzzFeed-Partner/238205562866018?sk=wall\np2747\nsVview_tag\np2748\ng1825\nsa(dp2749\nValt_view_tags\np2750\n(lp2751\nsVbody\np2752\nVSee our list of "The 10 Hottest Women On Crime Shows". Who\'d we miss? Remember to "Like" our page to follow more of our best stuff.\np2753\nsVimage_hash\np2754\nVabc6b50cf5696845e240df79d0abf4c1\np2755\nsVname\np2756\nVBuzzFeed Partner-07\np2757\nsVtitle\np2758\ng1825\nsVcreative_id\np2759\nV6003596269365\np2760\nsVpreview_url\np2761\nVhttp://www.facebook.com/ads/api/creative_preview.php?cid=6003596269365\np2762\nsVobject_id\np2763\nI238205562866018\nsVid\np2764\nV6003596269365\np2765\nsVimage_url\np2766\nVhttps://fbcdn-creative-a.akamaihd.net/hads-ak-ash3/s110x80/708189_6006845085365_5293_n.jpg\np2767\nsVcount_current_adgroups\np2768\nI0\nsVrun_status\np2769\nI1\nsVtype\np2770\nI2\nsVlink_url\np2771\nVhttp://www.facebook.com/pages/BuzzFeed-Partner/238205562866018?sk=wall\np2772\nsVview_tag\np2773\ng1825\nsa(dp2774\nValt_view_tags\np2775\n(lp2776\nsVbody\np2777\nVCheck out the "Top 12 Most Beautiful Pictures Of Ryan GODling & His Dog". Remember to "Like" our page to follow more of our best stuff.\np2778\nsVimage_hash\np2779\nVc17cba5d734758f18b815f497c135565\np2780\nsVname\np2781\nVBuzzFeed Partner-08\np2782\nsVtitle\np2783\ng1825\nsVcreative_id\np2784\nV6003596960965\np2785\nsVpreview_url\np2786\nVhttp://www.facebook.com/ads/api/creative_preview.php?cid=6003596960965\np2787\nsVobject_id\np2788\nI238205562866018\nsVid\np2789\nV6003596960965\np2790\nsVimage_url\np2791\nVhttps://fbcdn-creative-a.akamaihd.net/hads-ak-prn1/s110x80/708199_6006845212165_18239_n.jpg\np2792\nsVcount_current_adgroups\np2793\nI0\nsVrun_status\np2794\nI1\nsVtype\np2795\nI2\nsVlink_url\np2796\nVhttp://www.facebook.com/pages/BuzzFeed-Partner/238205562866018?sk=wall\np2797\nsVview_tag\np2798\ng1825\nsa(dp2799\nValt_view_tags\np2800\n(lp2801\nsVbody\np2802\nVCheck out our list of "The Most Badass Agents On TV". Who\'d we miss? Remember to "Like" our page to follow more of our best stuff.\np2803\nsVimage_hash\np2804\nV12c209cda497498a53ab506b76e9faca\np2805\nsVname\np2806\nVBuzzFeed Partner-09\np2807\nsVtitle\np2808\ng1825\nsVcreative_id\np2809\nV6003609077565\np2810\nsVpreview_url\np2811\nVhttp://www.facebook.com/ads/api/creative_preview.php?cid=6003609077565\np2812\nsVobject_id\np2813\nI238205562866018\nsVid\np2814\nV6003609077565\np2815\nsVimage_url\np2816\nVhttps://fbcdn-creative-a.akamaihd.net/hads-ak-prn1/s110x80/708168_6006844166565_64447_n.jpg\np2817\nsVcount_current_adgroups\np2818\nI0\nsVrun_status\np2819\nI1\nsVtype\np2820\nI2\nsVlink_url\np2821\nVhttp://www.facebook.com/pages/BuzzFeed-Partner/238205562866018?sk=wall\np2822\nsVview_tag\np2823\ng1825\nsa(dp2824\nValt_view_tags\np2825\n(lp2826\nsVbody\np2827\nVCheck out our list of "10 Ridiculous Office Dance Parties" and "Like" our page to follow more of our best stuff.\np2828\nsVimage_hash\np2829\nVc601225ee319dfac2d836e66f32a919d\np2830\nsVname\np2831\nVBuzzFeed Partner-10\np2832\nsVtitle\np2833\ng1825\nsVcreative_id\np2834\nV6003612853565\np2835\nsVpreview_url\np2836\nVhttp://www.faceboo'
p6
sS'hash'
p7
S'6588af62295028c39f7b581390f0d8294223275e'
p8
sS'stack'
p9
S''
s.