(dp1
S'args'
p2
S''
sS'methodname'
p3
S''
sS'packet_num'
p4
I78
sS'returnval'
p5
S'Songs That\'ll Make Your Summer Great" See more now!\np9035\nsVimage_hash\np9036\nV4abbbe181f4d7d0df6c9543bf0aa7e72\np9037\nsVname\np9038\nVWhere Have You Been?-00\np9039\nsVtitle\np9040\nVWhere Have You Been?\np9041\nsVcreative_id\np9042\nV6005130676365\np9043\nsVpreview_url\np9044\nVhttp://www.facebook.com/ads/api/creative_preview.php?cid=6005130676365\np9045\nsVid\np9046\nV6005130676365\np9047\nsVimage_url\np9048\nVhttps://fbcdn-creative-a.akamaihd.net/hads-ak-prn1/s110x80/708167_6006844501965_25601_n.jpg\np9049\nsVcount_current_adgroups\np9050\nI0\nsVrun_status\np9051\nI1\nsVtype\np9052\nI1\nsVlink_url\np9053\nVhttp://www.buzzfeed.com/h1/fbad/trident/top-10-songs-thatll-make-your-summer-great\np9054\nsVview_tag\np9055\ng1825\nsa(dp9056\nValt_view_tags\np9057\n(lp9058\nsVbody\np9059\nVCheck this list of "10 Original Shots To Make For Yourself This Summer" Only on BuzzFeed!\np9060\nsVimage_hash\np9061\nV31d025ee83baff25a026a6cffab73620\np9062\nsVname\np9063\nVAwesome Birthday Shots!\np9064\nsVtitle\np9065\nVAwesome Birthday Shots!\np9066\nsVcreative_id\np9067\nV6005277876565\np9068\nsVpreview_url\np9069\nVhttp://www.facebook.com/ads/api/creative_preview.php?cid=6005277876565\np9070\nsVid\np9071\nV6005277876565\np9072\nsVimage_url\np9073\nVhttps://fbcdn-creative-a.akamaihd.net/hads-ak-ash3/s110x80/701901_6006844344365_13230_n.jpg\np9074\nsVcount_current_adgroups\np9075\nI0\nsVrun_status\np9076\nI1\nsVtype\np9077\nI1\nsVlink_url\np9078\nVhttp://www.buzzfeed.com/h1/fbad/stoli/10-original-shots-to-make-for-yourself-this-summer\np9079\nsVview_tag\np9080\ng1825\nsa(dp9081\nValt_view_tags\np9082\n(lp9083\nsVbody\np9084\nVWords can\'t describe the frightening experience this video captures, made all the more horrifying by a lack of clear visual footage.\np9085\nsVimage_hash\np9086\nVacde9b3247b6065210ef2fd195e1372b\np9087\nsVname\np9088\nVJoplin, MO Tornado Video\np9089\nsVtitle\np9090\nVJoplin, MO Tornado Video\np9091\nsVcreative_id\np9092\nV6003326854365\np9093\nsVpreview_url\np9094\nVhttp://www.facebook.com/ads/api/creative_preview.php?cid=6003326854365\np9095\nsVid\np9096\nV6003326854365\np9097\nsVimage_url\np9098\nVhttps://fbcdn-creative-a.akamaihd.net/hads-ak-prn1/s110x80/708189_6006845089365_2165_n.jpg\np9099\nsVcount_current_adgroups\np9100\nI0\nsVrun_status\np9101\nI1\nsVtype\np9102\nI1\nsVlink_url\np9103\nVhttp://www.huffingtonpost.com/2011/05/23/joplin-mo-tornado-video_n_865438.html?utm_campaign=buzzfeedIO&ncid=buzzfeedIO\np9104\nsVview_tag\np9105\ng1825\nsa(dp9106\nValt_view_tags\np9107\n(lp9108\nsVbody\np9109\nV32 pictures everyone should see before the world ends tomorrow! This is one of them, see the rest.\np9110\nsVimage_hash\np9111\nVd454f304e8c5a2836c3a4c6446a2f3fc\np9112\nsVname\np9113\nVBefore You Die Tomorrow\np9114\nsVtitle\np9115\nVBefore You Die Tomorrow\np9116\nsVcreative_id\np9117\nV6003315725965\np9118\nsVpreview_url\np9119\nVhttp://www.facebook.com/ads/api/creative_preview.php?cid=6003315725965\np9120\nsVid\np9121\nV6003315725965\np9122\nsVimage_url\np9123\nVhttps://fbcdn-creative-a.akamaihd.net/hads-ak-prn1/s110x80/708164_6006845322765_52984_n.jpg\np9124\nsVcount_current_adgroups\np9125\nI0\nsVrun_status\np9126\nI1\nsVtype\np9127\nI1\nsVlink_url\np9128\nVhttp://www.buzzfeed.com/ht/mjs538/pictures-you-need-to-see-before-the-world-ends/HFBA1\np9129\nsVview_tag\np9130\ng1825\nsa(dp9131\nValt_view_tags\np9132\n(lp9133\nsVbody\np9134\nV32 pictures everyone should see before the world ends tomorrow! This is one of them, see the rest.\np9135\nsVimage_hash\np9136\nV37e6ac9433d8cb8267cde64134a3722d\np9137\nsVname\np9138\nVBefore You Die Tomorrow-00\np9139\nsVtitle\np9140\nVBefore You Die Tomorrow\np9141\nsVcreative_id\np9142\nV6003315728165\np9143\nsVpreview_url\np9144\nVhttp://www.facebook.com/ads/api/creative_preview.php?cid=6003315728165\np9145\nsVid\np9146\nV6003315728165\np9147\nsVimage_url\np9148\nVhttps://fbcdn-creative-a.akamaihd.net/hads-ak-ash3/s110x80/708193_6006844377365_42993_n.jpg\np9149\nsVcount_current_adgroups\np9150\nI0\nsVrun_status\np9151\nI1\nsVtype\np9152\nI1\nsVlink_url\np9153\nVhttp://www.buzzfeed.com/ht/mjs538/pictures-you-need-to-see-before-the-world-ends/HFBB1\np9154\nsVview_tag\np9155\ng1825\nsa(dp9156\nValt_view_tags\np9157\n(lp9158\nsVbody\np9159\nV32 pictures everyone should see before the world ends tomorrow! This is one of them, se'
p6
sS'hash'
p7
S'6588af62295028c39f7b581390f0d8294223275e'
p8
sS'stack'
p9
S''
s.