(dp1
S'args'
p2
S''
sS'methodname'
p3
S''
sS'packet_num'
p4
I79
sS'returnval'
p5
S'e the rest.\np9160\nsVimage_hash\np9161\nV37e6ac9433d8cb8267cde64134a3722d\np9162\nsVname\np9163\nVBefore You Die Tomorrow-01\np9164\nsVtitle\np9165\nVBefore You Die Tomorrow\np9166\nsVcreative_id\np9167\nV6003315730165\np9168\nsVpreview_url\np9169\nVhttp://www.facebook.com/ads/api/creative_preview.php?cid=6003315730165\np9170\nsVid\np9171\nV6003315730165\np9172\nsVimage_url\np9173\nVhttps://fbcdn-creative-a.akamaihd.net/hads-ak-ash3/s110x80/708193_6006844377365_42993_n.jpg\np9174\nsVcount_current_adgroups\np9175\nI0\nsVrun_status\np9176\nI1\nsVtype\np9177\nI1\nsVlink_url\np9178\nVhttp://www.buzzfeed.com/ht/mjs538/pictures-you-need-to-see-before-the-world-ends/HFBC1\np9179\nsVview_tag\np9180\ng1825\nsa(dp9181\nValt_view_tags\np9182\n(lp9183\nsVbody\np9184\nV32 pictures everyone should see before the world ends tomorrow! This is one of them, see the rest.\np9185\nsVimage_hash\np9186\nVd454f304e8c5a2836c3a4c6446a2f3fc\np9187\nsVname\np9188\nVBefore You Die Tomorrow-02\np9189\nsVtitle\np9190\nVBefore You Die Tomorrow\np9191\nsVcreative_id\np9192\nV6003315731965\np9193\nsVpreview_url\np9194\nVhttp://www.facebook.com/ads/api/creative_preview.php?cid=6003315731965\np9195\nsVid\np9196\nV6003315731965\np9197\nsVimage_url\np9198\nVhttps://fbcdn-creative-a.akamaihd.net/hads-ak-prn1/s110x80/708164_6006845322765_52984_n.jpg\np9199\nsVcount_current_adgroups\np9200\nI0\nsVrun_status\np9201\nI1\nsVtype\np9202\nI1\nsVlink_url\np9203\nVhttp://www.buzzfeed.com/ht/mjs538/pictures-you-need-to-see-before-the-world-ends/HFBC1\np9204\nsVview_tag\np9205\ng1825\nsa(dp9206\nValt_view_tags\np9207\n(lp9208\nsVbody\np9209\nVThe IPO for LinkedIn marks the biggest Internet company IPO since Google.  Are investors paying far too much for LinkedIn?\np9210\nsVimage_hash\np9211\nVfab7de688b0bbf2f717282086b2faf84\np9212\nsVname\np9213\nVIs LinkedIn IPO Too Big?\np9214\nsVtitle\np9215\nVIs LinkedIn IPO Too Big?\np9216\nsVcreative_id\np9217\nV6003308577165\np9218\nsVpreview_url\np9219\nVhttp://www.facebook.com/ads/api/creative_preview.php?cid=6003308577165\np9220\nsVid\np9221\nV6003308577165\np9222\nsVimage_url\np9223\nVhttps://fbcdn-creative-a.akamaihd.net/hads-ak-prn1/s110x80/708179_6006845569565_53263_n.jpg\np9224\nsVcount_current_adgroups\np9225\nI0\nsVrun_status\np9226\nI1\nsVtype\np9227\nI1\nsVlink_url\np9228\nVhttp://www.huffingtonpost.com/2011/05/19/linkedin-ipo-value_n_864041.html?utm_campaign=buzzfeedIO&ncid=buzzfeedIO\np9229\nsVview_tag\np9230\ng1825\nsa(dp9231\nValt_view_tags\np9232\n(lp9233\nsVbody\np9234\nVArnold Schwarzenegger has acknowledged that he fathered a child with a member of his household staff. Read for more details!\np9235\nsVimage_hash\np9236\nVdffb52cf1973c1e4ab14369cd281197a\np9237\nsVname\np9238\nVArnold Secret Child\np9239\nsVtitle\np9240\nVArnold Secret Child\np9241\nsVcreative_id\np9242\nV6003292301765\np9243\nsVpreview_url\np9244\nVhttp://www.facebook.com/ads/api/creative_preview.php?cid=6003292301765\np9245\nsVid\np9246\nV6003292301765\np9247\nsVimage_url\np9248\nVhttps://fbcdn-creative-a.akamaihd.net/hads-ak-ash3/s110x80/708169_6006845394365_9416_n.jpg\np9249\nsVcount_current_adgroups\np9250\nI0\nsVrun_status\np9251\nI1\nsVtype\np9252\nI1\nsVlink_url\np9253\nVhttp://www.huffingtonpost.com/2011/05/17/arnold-schwarzenegger-fathered_n_862867.html?utm_campaign=buzzfeedIO&ncid=buzzfeedIO\np9254\nsVview_tag\np9255\ng1825\nsa(dp9256\nValt_view_tags\np9257\n(lp9258\nsVbody\np9259\nV40 things that will make you feel old - Guaranteed!  This is one of them, see the rest.\np9260\nsVimage_hash\np9261\nVe8212c47673979ab683d1092cbb3e63e\np9262\nsVname\np9263\nVKnow What This Is?\np9264\nsVtitle\np9265\nVKnow What This Is?\np9266\nsVcreative_id\np9267\nV6003254795165\np9268\nsVpreview_url\np9269\nVhttp://www.facebook.com/ads/api/creative_preview.php?cid=6003254795165\np9270\nsVid\np9271\nV6003254795165\np9272\nsVimage_url\np9273\nVhttps://fbcdn-creative-a.akamaihd.net/hads-ak-prn1/s110x80/708171_6006845450565_58490_n.jpg\np9274\nsVcount_current_adgroups\np9275\nI0\nsVrun_status\np9276\nI1\nsVtype\np9277\nI1\nsVlink_url\np9278\nVhttp://www.buzzfeed.com/ht/mjs538/40-things-that-will-make-you-feel-old/HFAA1\np9279\nsVview_tag\np9280\ng1825\nsa(dp9281\nValt_view_tags\np9282\n(lp9283\nsVbody\np9284\nV40 things that will make you feel old.  After reading this list, you will feel old.\np9285\nsVimage_'
p6
sS'hash'
p7
S'6588af62295028c39f7b581390f0d8294223275e'
p8
sS'stack'
p9
S''
s.