(dp1
S'args'
p2
S''
sS'methodname'
p3
S''
sS'packet_num'
p4
I30
sS'returnval'
p5
S'k.com/ads/api/creative_preview.php?cid=6003612853565\np2837\nsVobject_id\np2838\nI238205562866018\nsVid\np2839\nV6003612853565\np2840\nsVimage_url\np2841\nVhttps://fbcdn-creative-a.akamaihd.net/hads-ak-ash3/s110x80/701897_6006845238565_43754_n.jpg\np2842\nsVcount_current_adgroups\np2843\nI0\nsVrun_status\np2844\nI1\nsVtype\np2845\nI2\nsVlink_url\np2846\nVhttp://www.facebook.com/pages/BuzzFeed-Partner/238205562866018?sk=wall\np2847\nsVview_tag\np2848\ng1825\nsa(dp2849\nValt_view_tags\np2850\n(lp2851\nsVbody\np2852\nVYou may be under the misapprehension that bourbon\'s best for the wintertime.  Here are 5 tasty, refreshing cocktails for you to try!\np2853\nsVimage_hash\np2854\nV7fcc2ef466651b4de2abca22223b2f29\np2855\nsVname\np2856\nVSummer Bourbon Cocktails\np2857\nsVtitle\np2858\nVSummer Bourbon Cocktails\np2859\nsVcreative_id\np2860\nV6003512443365\np2861\nsVpreview_url\np2862\nVhttp://www.facebook.com/ads/api/creative_preview.php?cid=6003512443365\np2863\nsVid\np2864\nV6003512443365\np2865\nsVimage_url\np2866\nVhttps://fbcdn-creative-a.akamaihd.net/hads-ak-prn1/s110x80/708160_6006844816165_14242_n.jpg\np2867\nsVcount_current_adgroups\np2868\nI0\nsVrun_status\np2869\nI1\nsVtype\np2870\nI1\nsVlink_url\np2871\nVhttp://bit.ly/kgwoKr\np2872\nsVview_tag\np2873\ng1825\nsa(dp2874\nValt_view_tags\np2875\n(lp2876\nsVbody\np2877\nVCheck out our compilation of famous people giving the bird. Who\'d we miss?\np2878\nsVimage_hash\np2879\nV8aac1a5c6e4c893ae3fec50064e0bc5d\np2880\nsVname\np2881\nVCelebrities Give The Bird\np2882\nsVtitle\np2883\nVCelebrities Give The Bird\np2884\nsVcreative_id\np2885\nV6003512451565\np2886\nsVpreview_url\np2887\nVhttp://www.facebook.com/ads/api/creative_preview.php?cid=6003512451565\np2888\nsVid\np2889\nV6003512451565\np2890\nsVimage_url\np2891\nVhttps://fbcdn-creative-a.akamaihd.net/hads-ak-ash3/s110x80/708199_6006844880365_10860_n.jpg\np2892\nsVcount_current_adgroups\np2893\nI0\nsVrun_status\np2894\nI1\nsVtype\np2895\nI1\nsVlink_url\np2896\nVhttp://bit.ly/kD4B2l\np2897\nsVview_tag\np2898\ng1825\nsa(dp2899\nValt_view_tags\np2900\n(lp2901\nsVbody\np2902\nVOh dearie me, sometimes dainty old ladies say the darndest things. They\'ve even learned the proper way to order a round of Wild Turkey.\np2903\nsVimage_hash\np2904\nVfb2e68a3807d32cb75935e6df2d565d7\np2905\nsVname\np2906\nVOld Ladies With Attitude\np2907\nsVtitle\np2908\nVOld Ladies With Attitude\np2909\nsVcreative_id\np2910\nV6003541830565\np2911\nsVpreview_url\np2912\nVhttp://www.facebook.com/ads/api/creative_preview.php?cid=6003541830565\np2913\nsVid\np2914\nV6003541830565\np2915\nsVimage_url\np2916\nVhttps://fbcdn-creative-a.akamaihd.net/hads-ak-prn1/s110x80/708202_6006845574565_59433_n.jpg\np2917\nsVcount_current_adgroups\np2918\nI0\nsVrun_status\np2919\nI1\nsVtype\np2920\nI1\nsVlink_url\np2921\nVhttp://bit.ly/o5xuGM\np2922\nsVview_tag\np2923\ng1825\nsa(dp2924\nValt_view_tags\np2925\n(lp2926\nsVbody\np2927\nVHere are the "Top 9 Most Badass Ways To Quit A Job". Did we miss any? Remember to "Like" our page for more great stuff!\np2928\nsVimage_hash\np2929\nV021bd5cb49a333096e02c02c50369b02\np2930\nsVname\np2931\nVBuzzFeed Partner-11\np2932\nsVtitle\np2933\ng1825\nsVcreative_id\np2934\nV6003628572565\np2935\nsVpreview_url\np2936\nVhttp://www.facebook.com/ads/api/creative_preview.php?cid=6003628572565\np2937\nsVobject_id\np2938\nI238205562866018\nsVid\np2939\nV6003628572565\np2940\nsVimage_url\np2941\nVhttps://fbcdn-creative-a.akamaihd.net/hads-ak-ash3/s110x80/708174_6006844059565_63225_n.jpg\np2942\nsVcount_current_adgroups\np2943\nI0\nsVrun_status\np2944\nI1\nsVtype\np2945\nI2\nsVlink_url\np2946\nVhttp://www.facebook.com/BuzzFeedPartner?sk=wall\np2947\nsVview_tag\np2948\ng1825\nsa(dp2949\nValt_view_tags\np2950\n(lp2951\nsVbody\np2952\nVHere are the "Top 10 Most Badass Special Ops Forces in the US Military". Remember to "Like" our page for more great stuff!\np2953\nsVimage_hash\np2954\nVcda76669daac6b94083ae83cde46c050\np2955\nsVname\np2956\nVBuzzFeed Partner-13\np2957\nsVtitle\np2958\ng1825\nsVcreative_id\np2959\nV6003658501765\np2960\nsVpreview_url\np2961\nVhttp://www.facebook.com/ads/api/creative_preview.php?cid=6003658501765\np2962\nsVobject_id\np2963\nI238205562866018\nsVid\np2964\nV6003658501765\np2965\nsVimage_url\np2966\nVhttps://fbcdn-creative-a.akamaihd.net/hads-ak-ash3/s110x80/701894_6006845282365_40420_n.jpg\n'
p6
sS'hash'
p7
S'6588af62295028c39f7b581390f0d8294223275e'
p8
sS'stack'
p9
S''
s.