(dp1
S'args'
p2
S''
sS'methodname'
p3
S''
sS'packet_num'
p4
I64
sS'returnval'
p5
S'p7158\nsVview_tag\np7159\ng1825\nsa(dp7160\nValt_view_tags\np7161\n(lp7162\nsVbody\np7163\nVThe good, the bad and the ugly of managing mobile devices (Mostly Good).  See what industry experts are saying.\np7164\nsVimage_hash\np7165\nVc8aae033dd59663f052185c994f5e8e0\np7166\nsVname\np7167\nVManaging Mobile Devices-01\np7168\nsVtitle\np7169\nVManaging Mobile Devices\np7170\nsVcreative_id\np7171\nV6003346253365\np7172\nsVpreview_url\np7173\nVhttp://www.facebook.com/ads/api/creative_preview.php?cid=6003346253365\np7174\nsVid\np7175\nV6003346253365\np7176\nsVimage_url\np7177\nVhttps://fbcdn-creative-a.akamaihd.net/hads-ak-prn1/s110x80/708172_6006845253165_18266_n.jpg\np7178\nsVcount_current_adgroups\np7179\nI0\nsVrun_status\np7180\nI1\nsVtype\np7181\nI1\nsVlink_url\np7182\nVhttp://blogs.forbes.com/sap/2011/05/18/the-good-bad-and-ugly-of-managing-mobile-devices-mostly-good/?nowelcome\np7183\nsVview_tag\np7184\ng1825\nsa(dp7185\nValt_view_tags\np7186\n(lp7187\nsVbody\np7188\nVHow do you migrate an entire enterprise to the Cloud?  Get tips on how to prepare for such a massive undertaking. \np7189\nsVimage_hash\np7190\nV79287f21c9f631337110eea5d196d9fe\np7191\nsVname\np7192\nVGreat Migrations-00\np7193\nsVtitle\np7194\nVGreat Migrations\np7195\nsVcreative_id\np7196\nV6003346299365\np7197\nsVpreview_url\np7198\nVhttp://www.facebook.com/ads/api/creative_preview.php?cid=6003346299365\np7199\nsVid\np7200\nV6003346299365\np7201\nsVimage_url\np7202\nVhttps://fbcdn-creative-a.akamaihd.net/hads-ak-ash3/s110x80/708170_6006844781165_39070_n.jpg\np7203\nsVcount_current_adgroups\np7204\nI0\nsVrun_status\np7205\nI1\nsVtype\np7206\nI1\nsVlink_url\np7207\nVhttp://blogs.forbes.com/microsoft/2011/05/02/the-great-enterprise-migration-to-the-cloud-begins/?nowelcome\np7208\nsVview_tag\np7209\ng1825\nsa(dp7210\nValt_view_tags\np7211\n(lp7212\nsVbody\np7213\nVSome of the most successful business leaders are also great story tellers. Find out why.\np7214\nsVimage_hash\np7215\nVc9fb0c728806f1a0f7b2f1b92b5f6945\np7216\nsVname\np7217\nVLeadership & Storytelling\np7218\nsVtitle\np7219\nVLeadership & Storytelling\np7220\nsVcreative_id\np7221\nV6003339406165\np7222\nsVpreview_url\np7223\nVhttp://www.facebook.com/ads/api/creative_preview.php?cid=6003339406165\np7224\nsVid\np7225\nV6003339406165\np7226\nsVimage_url\np7227\nVhttps://fbcdn-creative-a.akamaihd.net/hads-ak-snc7/s110x80/701898_6006845261765_42971_n.jpg\np7228\nsVcount_current_adgroups\np7229\nI0\nsVrun_status\np7230\nI1\nsVtype\np7231\nI1\nsVlink_url\np7232\nVhttp://blogs.forbes.com/sap/2011/05/19/leadership-is-all-about-telling-a-great-story\np7233\nsVview_tag\np7234\ng1825\nsa(dp7235\nValt_view_tags\np7236\n(lp7237\nsVbody\np7238\nVSome of the most successful business leaders are also great story tellers. Find out why.\np7239\nsVimage_hash\np7240\nVc9fb0c728806f1a0f7b2f1b92b5f6945\np7241\nsVname\np7242\nVLeadership & Storytelling-00\np7243\nsVtitle\np7244\nVLeadership & Storytelling\np7245\nsVcreative_id\np7246\nV6003339445565\np7247\nsVpreview_url\np7248\nVhttp://www.facebook.com/ads/api/creative_preview.php?cid=6003339445565\np7249\nsVid\np7250\nV6003339445565\np7251\nsVimage_url\np7252\nVhttps://fbcdn-creative-a.akamaihd.net/hads-ak-snc7/s110x80/701898_6006845261765_42971_n.jpg\np7253\nsVcount_current_adgroups\np7254\nI0\nsVrun_status\np7255\nI1\nsVtype\np7256\nI1\nsVlink_url\np7257\nVhttp://blogs.forbes.com/sap/2011/05/19/leadership-is-all-about-telling-a-great-story/?nowelcome\np7258\nsVview_tag\np7259\ng1825\nsa(dp7260\nValt_view_tags\np7261\n(lp7262\nsVbody\np7263\nVSome of the most successful business leaders are also great story tellers. Find out why.\np7264\nsVimage_hash\np7265\nV05a9dea9bb00d2ba9c4c83d37d56ffee\np7266\nsVname\np7267\nVLeadership & Storytelling-01\np7268\nsVtitle\np7269\nVLeadership & Storytelling\np7270\nsVcreative_id\np7271\nV6003346304165\np7272\nsVpreview_url\np7273\nVhttp://www.facebook.com/ads/api/creative_preview.php?cid=6003346304165\np7274\nsVid\np7275\nV6003346304165\np7276\nsVimage_url\np7277\nVhttps://fbcdn-creative-a.akamaihd.net/hads-ak-ash3/s110x80/701892_6006844082565_19018_n.jpg\np7278\nsVcount_current_adgroups\np7279\nI0\nsVrun_status\np7280\nI1\nsVtype\np7281\nI1\nsVlink_url\np7282\nVhttp://blogs.forbes.com/sap/2011/05/19/leadership-is-all-about-telling-a-great-story/?nowelcome\np7283\nsVview_tag\np7284\ng182'
p6
sS'hash'
p7
S'6588af62295028c39f7b581390f0d8294223275e'
p8
sS'stack'
p9
S''
s.