(dp1
S'args'
p2
S''
sS'methodname'
p3
S''
sS'packet_num'
p4
I76
sS'returnval'
p5
S'pired By Dragon Fruit" by SKYY Vodka!\np8785\nsVimage_hash\np8786\nV56447234630bfba4c99bd9165cac8e98\np8787\nsVname\np8788\nVDragon Fruit Inspiration!\np8789\nsVtitle\np8790\nVDragon Fruit Inspiration!\np8791\nsVcreative_id\np8792\nV6003927119565\np8793\nsVpreview_url\np8794\nVhttp://www.facebook.com/ads/api/creative_preview.php?cid=6003927119565\np8795\nsVid\np8796\nV6003927119565\np8797\nsVimage_url\np8798\nVhttps://fbcdn-creative-a.akamaihd.net/hads-ak-prn1/s110x80/708176_6006844590165_27529_n.jpg\np8799\nsVcount_current_adgroups\np8800\nI0\nsVrun_status\np8801\nI1\nsVtype\np8802\nI1\nsVlink_url\np8803\nVhttp://www.buzzfeed.com/h1/fba/skyydragonfruit/10-things-inspired-by-dragon-fruit\np8804\nsVview_tag\np8805\ng1825\nsa(dp8806\nValt_view_tags\np8807\n(lp8808\nsVbody\np8809\nVArtists of all types should check out "Fun Facts About 11 Iconic Images" by Slate to learn some interesting things about these pics!\np8810\nsVimage_hash\np8811\nV46b3ae8c0980ce972555de99b0e33f03\np8812\nsVname\np8813\nVFacts About Famous Images\np8814\nsVtitle\np8815\nVFacts About Famous Images\np8816\nsVcreative_id\np8817\nV6004005436765\np8818\nsVpreview_url\np8819\nVhttp://www.facebook.com/ads/api/creative_preview.php?cid=6004005436765\np8820\nsVid\np8821\nV6004005436765\np8822\nsVimage_url\np8823\nVhttps://fbcdn-creative-a.akamaihd.net/hads-ak-prn1/s110x80/701889_6006844477765_61564_n.jpg\np8824\nsVcount_current_adgroups\np8825\nI0\nsVrun_status\np8826\nI1\nsVtype\np8827\nI1\nsVlink_url\np8828\nVhttp://www.slate.com/slideshows/arts/fun-facts-about-11-iconic-images.html#bfsrc=HFBA2\np8829\nsVview_tag\np8830\ng1825\nsa(dp8831\nValt_view_tags\np8832\n(lp8833\nsVbody\np8834\nVArtists of all types should check out "Fun Facts About 11 Iconic Images" by Slate to learn some interesting things about these pics! \np8835\nsVimage_hash\np8836\nV46b3ae8c0980ce972555de99b0e33f03\np8837\nsVname\np8838\nVFacts About Famous Images-00\np8839\nsVtitle\np8840\nVFacts About Famous Images\np8841\nsVcreative_id\np8842\nV6004005975965\np8843\nsVpreview_url\np8844\nVhttp://www.facebook.com/ads/api/creative_preview.php?cid=6004005975965\np8845\nsVid\np8846\nV6004005975965\np8847\nsVimage_url\np8848\nVhttps://fbcdn-creative-a.akamaihd.net/hads-ak-prn1/s110x80/701889_6006844477765_61564_n.jpg\np8849\nsVcount_current_adgroups\np8850\nI0\nsVrun_status\np8851\nI1\nsVtype\np8852\nI1\nsVlink_url\np8853\nVhttp://www.slate.com/slideshows/arts/fun-facts-about-11-iconic-images.html#bfsrc=HFBA2\np8854\nsVview_tag\np8855\ng1825\nsa(dp8856\nValt_view_tags\np8857\n(lp8858\nsVbody\np8859\nVA 200 pound 8 year old was removed from his parents. Should parents of obese kids loose custody? Read more on Slate!\np8860\nsVimage_hash\np8861\nVad8090cabf3e304444e37929beb791c5\np8862\nsVname\np8863\nVCustody Loss From Obesity\np8864\nsVtitle\np8865\nVCustody Loss From Obesity\np8866\nsVcreative_id\np8867\nV6004079196165\np8868\nsVpreview_url\np8869\nVhttp://www.facebook.com/ads/api/creative_preview.php?cid=6004079196165\np8870\nsVid\np8871\nV6004079196165\np8872\nsVimage_url\np8873\nVhttps://fbcdn-creative-a.akamaihd.net/hads-ak-prn1/s110x80/708196_6006845094765_1859_n.jpg\np8874\nsVcount_current_adgroups\np8875\nI0\nsVrun_status\np8876\nI1\nsVtype\np8877\nI1\nsVlink_url\np8878\nVhttp://slatest.slate.com/posts/2011/11/29/ohio_officials_remove_200_pound_eight_year_old_from_mother.html#bfsrc=HFBA2\np8879\nsVview_tag\np8880\ng1825\nsa(dp8881\nValt_view_tags\np8882\n(lp8883\nsVbody\np8884\nVA 200 pound 8 year old was removed from his parents. Should parents of obese kids loose custody? Read more on Slate!\np8885\nsVimage_hash\np8886\nV821127f4e5b5f3b1ba62f91c72dda466\np8887\nsVname\np8888\nVCustody Loss From Obesity-00\np8889\nsVtitle\np8890\nVCustody Loss From Obesity\np8891\nsVcreative_id\np8892\nV6004079218365\np8893\nsVpreview_url\np8894\nVhttp://www.facebook.com/ads/api/creative_preview.php?cid=6004079218365\np8895\nsVid\np8896\nV6004079218365\np8897\nsVimage_url\np8898\nVhttps://fbcdn-creative-a.akamaihd.net/hads-ak-ash3/s110x80/701894_6006844830365_60656_n.jpg\np8899\nsVcount_current_adgroups\np8900\nI0\nsVrun_status\np8901\nI1\nsVtype\np8902\nI1\nsVlink_url\np8903\nVhttp://slatest.slate.com/posts/2011/11/29/ohio_officials_remove_200_pound_eight_year_old_from_mother.html#bfsrc=HFBA2\np8904\nsVview_tag\np8905\ng1825\nsa(dp8906\nValt_view_tag'
p6
sS'hash'
p7
S'6588af62295028c39f7b581390f0d8294223275e'
p8
sS'stack'
p9
S''
s.