(dp1
S'args'
p2
S''
sS'methodname'
p3
S''
sS'packet_num'
p4
I92
sS'returnval'
p5
S"view_tag\np10780\ng1825\nsa(dp10781\nValt_view_tags\np10782\n(lp10783\nsVbody\np10784\nVDavid Beckham will be there with his pop star wife Victoria. Elton John is attending with partner David Furnish. Check out more here!\np10785\nsVimage_hash\np10786\nVcf7e084b356c4bfc37ffd85376c22a65\np10787\nsVname\np10788\nVRoyal Wedding Guest List\np10789\nsVtitle\np10790\nVRoyal Wedding Guest List\np10791\nsVcreative_id\np10792\nV6003145887365\np10793\nsVpreview_url\np10794\nVhttp://www.facebook.com/ads/api/creative_preview.php?cid=6003145887365\np10795\nsVid\np10796\nV6003145887365\np10797\nsVimage_url\np10798\nVhttps://fbcdn-creative-a.akamaihd.net/hads-ak-prn1/s110x80/708196_6006845292565_29511_n.jpg\np10799\nsVcount_current_adgroups\np10800\nI0\nsVrun_status\np10801\nI1\nsVtype\np10802\nI1\nsVlink_url\np10803\nVhttp://www.huffingtonpost.com/2011/04/10/royal-wedding-guest-list-_n_847242.html?utm_campaign=buzzfeedIO&ncid=buzzfeedIO\np10804\nsVview_tag\np10805\ng1825\nsa(dp10806\nValt_view_tags\np10807\n(lp10808\nsVbody\np10809\nVLike any good dysfunctional family the Griffins have had some epic fights. Here are some favorites from over the years!\np10810\nsVimage_hash\np10811\nVc71e4686409102093fb6807fea0364d3\np10812\nsVname\np10813\nVTop 5 Family Guy Fights\np10814\nsVtitle\np10815\nVTop 5 Family Guy Fights\np10816\nsVcreative_id\np10817\nV6003098848965\np10818\nsVpreview_url\np10819\nVhttp://www.facebook.com/ads/api/creative_preview.php?cid=6003098848965\np10820\nsVid\np10821\nV6003098848965\np10822\nsVimage_url\np10823\nVhttps://fbcdn-creative-a.akamaihd.net/hads-ak-ash3/s110x80/708172_6006845244965_56908_n.jpg\np10824\nsVcount_current_adgroups\np10825\nI0\nsVrun_status\np10826\nI1\nsVtype\np10827\nI1\nsVlink_url\np10828\nVhttp://www.buzzfeed.com/ht/myspace/the-top-5-family-guy-fight-scenes/HFAA1\np10829\nsVview_tag\np10830\ng1825\nsa(dp10831\nValt_view_tags\np10832\n(lp10833\nsVbody\np10834\nVGlenn Quagmire has some pretty memorable quotes! You don't want to miss this epic list.\np10835\nsVimage_hash\np10836\nV2c47d29b8046dbdcef987c5b9f0d12b7\np10837\nsVname\np10838\nVQuagmires Inferno\np10839\nsVtitle\np10840\nVQuagmires Inferno\np10841\nsVcreative_id\np10842\nV6003098861765\np10843\nsVpreview_url\np10844\nVhttp://www.facebook.com/ads/api/creative_preview.php?cid=6003098861765\np10845\nsVid\np10846\nV6003098861765\np10847\nsVimage_url\np10848\nVhttps://fbcdn-creative-a.akamaihd.net/hads-ak-prn1/s110x80/708181_6006844317765_28188_n.jpg\np10849\nsVcount_current_adgroups\np10850\nI0\nsVrun_status\np10851\nI1\nsVtype\np10852\nI1\nsVlink_url\np10853\nVhttp://www.buzzfeed.com/ht/myspace/quagmires-inferno-the-best-quagmire-quotes/HFAA1\np10854\nsVview_tag\np10855\ng1825\nsa(dp10856\nValt_view_tags\np10857\n(lp10858\nsVbody\np10859\nVThe premise here is pretty simple. Take Kanye West lyrics and make them applicable to toddlers.\np10860\nsVimage_hash\np10861\nV63e84f1ff0daefebd2842fdabb9fe440\np10862\nsVname\np10863\nVBaby Kanye The Meme\np10864\nsVtitle\np10865\nVBaby Kanye The Meme\np10866\nsVcreative_id\np10867\nV6002986916965\np10868\nsVpreview_url\np10869\nVhttp://www.facebook.com/ads/api/creative_preview.php?cid=6002986916965\np10870\nsVid\np10871\nV6002986916965\np10872\nsVimage_url\np10873\nVhttps://fbcdn-creative-a.akamaihd.net/hads-ak-prn1/s110x80/708177_6006844659965_23568_n.jpg\np10874\nsVcount_current_adgroups\np10875\nI0\nsVrun_status\np10876\nI1\nsVtype\np10877\nI1\nsVlink_url\np10878\nVhttp://www.buzzfeed.com/ht/awesomer/baby-kanye-the-meme/HFAA1\np10879\nsVview_tag\np10880\ng1825\nsa(dp10881\nValt_view_tags\np10882\n(lp10883\nsVbody\np10884\nVHe really should be better than this, don't you think?\np10885\nsVimage_hash\np10886\nV7fc7da17731ad9c793a68d9dfb0fd54e\np10887\nsVname\np10888\nVReggie The Worst Hacker\np10889\nsVtitle\np10890\nVReggie The Worst Hacker\np10891\nsVcreative_id\np10892\nV6002986923565\np10893\nsVpreview_url\np10894\nVhttp://www.facebook.com/ads/api/creative_preview.php?cid=6002986923565\np10895\nsVid\np10896\nV6002986923565\np10897\nsVimage_url\np10898\nVhttps://fbcdn-creative-a.akamaihd.net/hads-ak-ash3/s110x80/708160_6006844815765_8371_n.jpg\np10899\nsVcount_current_adgroups\np10900\nI0\nsVrun_status\np10901\nI1\nsVtype\np10902\nI1\nsVlink_url\np10903\nVhttp://www.buzzfeed.com/awesomer/reggie-is-the-worst-hacker-ever\np10904\nsVview_tag\np10905\ng182"
p6
sS'hash'
p7
S'6588af62295028c39f7b581390f0d8294223275e'
p8
sS'stack'
p9
S''
s.