(dp1
S'args'
p2
S''
sS'methodname'
p3
S''
sS'packet_num'
p4
I58
sS'returnval'
p5
S'404\nI0\nsVrun_status\np6405\nI1\nsVtype\np6406\nI1\nsVlink_url\np6407\nVhttp://www.buzzfeed.com/h1/fbad/breakingbad/25-things-you-probably-didnt-know-about-breaking-61z6\np6408\nsVview_tag\np6409\ng1825\nsa(dp6410\nValt_view_tags\np6411\n(lp6412\nsVbody\np6413\nVAccording to Shia LeBeouf, Megan Fox \'Couldn\'t Handle\' Michael Bay\'s sexy Transformers demands. Find out the details.\np6414\nsVimage_hash\np6415\nVcbe30e50a393f9b5695cf17d3c9ce03b\np6416\nsVname\np6417\nVMegan Fox: Transformers 3\np6418\nsVtitle\np6419\nVMegan Fox: Transformers 3\np6420\nsVcreative_id\np6421\nV6003363579965\np6422\nsVpreview_url\np6423\nVhttp://www.facebook.com/ads/api/creative_preview.php?cid=6003363579965\np6424\nsVid\np6425\nV6003363579965\np6426\nsVimage_url\np6427\nVhttps://fbcdn-creative-a.akamaihd.net/hads-ak-prn1/s110x80/708171_6006845273165_54256_n.jpg\np6428\nsVcount_current_adgroups\np6429\nI0\nsVrun_status\np6430\nI1\nsVtype\np6431\nI1\nsVlink_url\np6432\nVhttp://www.huffingtonpost.com/2011/06/03/shia-lebeouf-megan-fox-michael-bay-sexy_n_870741.html?utm_campaign=buzzfeedIO&ncid=buzzfeedIO\np6433\nsVview_tag\np6434\ng1825\nsa(dp6435\nValt_view_tags\np6436\n(lp6437\nsVbody\np6438\nVSarah Palin\'s supporters apparently attempted to update a Wikipedia entry on Paul Revere. Find out why.\np6439\nsVimage_hash\np6440\nVac4e68c339c14e8cd0f627ae5a4f2eb5\np6441\nsVname\np6442\nVAttempted Wiki Edit\np6443\nsVtitle\np6444\nVAttempted Wiki Edit\np6445\nsVcreative_id\np6446\nV6003371430965\np6447\nsVpreview_url\np6448\nVhttp://www.facebook.com/ads/api/creative_preview.php?cid=6003371430965\np6449\nsVid\np6450\nV6003371430965\np6451\nsVimage_url\np6452\nVhttps://fbcdn-creative-a.akamaihd.net/hads-ak-prn1/s110x80/708189_6006845086765_45656_n.jpg\np6453\nsVcount_current_adgroups\np6454\nI0\nsVrun_status\np6455\nI1\nsVtype\np6456\nI1\nsVlink_url\np6457\nVhttp://www.huffingtonpost.com/2011/06/06/sarah-palin-paul-revere-wikipedia_n_871795.html?utm_campaign=buzzfeedIO&ncid=buzzfeedIO\np6458\nsVview_tag\np6459\ng1825\nsa(dp6460\nValt_view_tags\np6461\n(lp6462\nsVbody\np6463\nVLady Gaga, Marc Jacobs & Proenza Schouler take top honors. Find out other winners, and take a look at pictures from the event.\np6464\nsVimage_hash\np6465\nVa6d7b1ee9f85621f0f1fb42bb15fd299\np6466\nsVname\np6467\nVCFDA Awards 2011\np6468\nsVtitle\np6469\nVCFDA Awards 2011\np6470\nsVcreative_id\np6471\nV6003372645565\np6472\nsVpreview_url\np6473\nVhttp://www.facebook.com/ads/api/creative_preview.php?cid=6003372645565\np6474\nsVid\np6475\nV6003372645565\np6476\nsVimage_url\np6477\nVhttps://fbcdn-creative-a.akamaihd.net/hads-ak-prn1/s110x80/708189_6006845051765_25159_n.jpg\np6478\nsVcount_current_adgroups\np6479\nI0\nsVrun_status\np6480\nI1\nsVtype\np6481\nI1\nsVlink_url\np6482\nVhttp://www.huffingtonpost.com/2011/06/07/cfda-awards-2011-lady-gaga-marc-jacobs-proenza-schouler_n_872257.html?utm_campaign=buzzfeedIO&ncid=buzzfeedIO\np6483\nsVview_tag\np6484\ng1825\nsa(dp6485\nValt_view_tags\np6486\n(lp6487\nsVbody\np6488\nVMorgan allegedly let loose a viciously homophobic rant that was a dead serious attack on gay men and women. Find out more.\np6489\nsVimage_hash\np6490\nV66f63c02f0ee3a23660298bfd28aa84a\np6491\nsVname\np6492\nVTracy Morgan\'s Remarks\np6493\nsVtitle\np6494\nVTracy Morgan\'s Remarks\np6495\nsVcreative_id\np6496\nV6003381485365\np6497\nsVpreview_url\np6498\nVhttp://www.facebook.com/ads/api/creative_preview.php?cid=6003381485365\np6499\nsVid\np6500\nV6003381485365\np6501\nsVimage_url\np6502\nVhttps://fbcdn-creative-a.akamaihd.net/hads-ak-prn1/s110x80/708186_6006844675765_10984_n.jpg\np6503\nsVcount_current_adgroups\np6504\nI0\nsVrun_status\np6505\nI1\nsVtype\np6506\nI1\nsVlink_url\np6507\nVhttp://www.huffingtonpost.com/2011/06/10/tracy-morgans-homophobic-remarks_n_874699.html?utm_campaign=buzzfeedIO&ncid=buzzfeedIO\np6508\nsVview_tag\np6509\ng1825\nsa(dp6510\nValt_view_tags\np6511\n(lp6512\nsVbody\np6513\nVCheck out the list of "20 Awesome Action Shots Taken At The Perfect Moment" on Buzzfeed!\np6514\nsVimage_hash\np6515\nVa821e8435af170887a477d24f000beae\np6516\nsVname\np6517\nVCapturing the Moment!\np6518\nsVtitle\np6519\nVCapturing the Moment!\np6520\nsVcreative_id\np6521\nV6005484595765\np6522\nsVpreview_url\np6523\nVhttp://www.facebook.com/ads/api/creative_preview.php?cid=6005484595765\np6524\nsVid\np6525\nV600548459576'
p6
sS'hash'
p7
S'6588af62295028c39f7b581390f0d8294223275e'
p8
sS'stack'
p9
S''
s.