(dp1
S'args'
p2
S''
sS'methodname'
p3
S''
sS'packet_num'
p4
I71
sS'returnval'
p5
S"un_status\np8113\nI1\nsVtype\np8114\nI25\nsVid\np8115\nV6005342782965\np8116\nsa(dp8117\nVrelated_fan_page\np8118\nI1\nsVname\np8119\nVSponsored story #6005335196965\np8120\nsVtitle\np8121\nVFake Title\np8122\nsVurl_tags\np8123\nVfb_ref%3dHFBSS1\np8124\nsVcreative_id\np8125\nV6005335196965\np8126\nsVpreview_url\np8127\nVhttp://www.facebook.com/ads/api/creative_preview.php?cid=6005335196965\np8128\nsVaction_spec\np8129\n(dp8130\nVobject\np8131\nVhttp://search.cpan.org/~makamaka/JSON-2.53/lib/JSON.pm#decode_json\np8132\nsVaction.type\np8133\nVlike\np8134\nssVcluster_id\np8135\nI6005335196765\nsVcount_current_adgroups\np8136\nI0\nsVrun_status\np8137\nI1\nsVtype\np8138\nI25\nsVid\np8139\nV6005335196965\np8140\nsa(dp8141\nVrelated_fan_page\np8142\nI1\nsVname\np8143\nVSponsored story #6005335191765\np8144\nsVtitle\np8145\nVadsl;kjfa;ldf\np8146\nsVurl_tags\np8147\ng1825\nsVcreative_id\np8148\nV6005335191765\np8149\nsVpreview_url\np8150\nVhttp://www.facebook.com/ads/api/creative_preview.php?cid=6005335191765\np8151\nsVaction_spec\np8152\n(dp8153\nVobject\np8154\nVhttp://www.buzzfeed.com/mikemehalick/bill-murray-delivers-on-his-minor-leage-hall-of-fa\np8155\nsVaction.type\np8156\nVlike\np8157\nssVcluster_id\np8158\nI6005335191565\nsVcount_current_adgroups\np8159\nI0\nsVrun_status\np8160\nI1\nsVtype\np8161\nI25\nsVid\np8162\nV6005335191765\np8163\nsa(dp8164\nValt_view_tags\np8165\n(lp8166\nsVbody\np8167\nVMake sure you are the best dressed at this summer's hottest festivals. Find out what look to rock!\np8168\nsVimage_hash\np8169\nV12bc55d632c37ec232508c551b99daef\np8170\nsVname\np8171\nVHot Summer Fashion Trends\np8172\nsVtitle\np8173\nVHot Summer Fashion Trends\np8174\nsVcreative_id\np8175\nV6003299342965\np8176\nsVpreview_url\np8177\nVhttp://www.facebook.com/ads/api/creative_preview.php?cid=6003299342965\np8178\nsVid\np8179\nV6003299342965\np8180\nsVimage_url\np8181\nVhttps://fbcdn-creative-a.akamaihd.net/hads-ak-ash3/s110x80/708168_6006844166365_64635_n.jpg\np8182\nsVcount_current_adgroups\np8183\nI0\nsVrun_status\np8184\nI1\nsVtype\np8185\nI1\nsVlink_url\np8186\nVhttp://www.buzzfeed.com/ht/armaniexchange/5-hot-summer-fashion-trends/hfaa1\np8187\nsVview_tag\np8188\ng1825\nsa(dp8189\nValt_view_tags\np8190\n(lp8191\nsVbody\np8192\nVThe summer is fast approaching, so what look will you be rockin? Make sure you are the best dressed at this summer's hottest events.\np8193\nsVimage_hash\np8194\nVfcdd241fb5aa9e83394115bc6db23baf\np8195\nsVname\np8196\nVTop 5 Hot Fashion Trends\np8197\nsVtitle\np8198\nVTop 5 Hot Fashion Trends\np8199\nsVcreative_id\np8200\nV6003326990365\np8201\nsVpreview_url\np8202\nVhttp://www.facebook.com/ads/api/creative_preview.php?cid=6003326990365\np8203\nsVid\np8204\nV6003326990365\np8205\nsVimage_url\np8206\nVhttps://fbcdn-creative-a.akamaihd.net/hads-ak-prn1/s110x80/708187_6006845584765_61572_n.jpg\np8207\nsVcount_current_adgroups\np8208\nI0\nsVrun_status\np8209\nI1\nsVtype\np8210\nI1\nsVlink_url\np8211\nVhttp://www.buzzfeed.com/ht/armaniexchange/5-hot-summer-fashion-trends/hfab1\np8212\nsVview_tag\np8213\ng1825\nsa(dp8214\nValt_view_tags\np8215\n(lp8216\nsVbody\np8217\nVCargo shorts are hot this summer.  Find out what look to rock and make sure you are the best dressed at this summer's hottest events.\np8218\nsVimage_hash\np8219\nV90bd3ccc23cca4126b07edee628452a4\np8220\nsVname\np8221\nVHot Summer Fashion Trends-00\np8222\nsVtitle\np8223\nVHot Summer Fashion Trends\np8224\nsVcreative_id\np8225\nV6003328254565\np8226\nsVpreview_url\np8227\nVhttp://www.facebook.com/ads/api/creative_preview.php?cid=6003328254565\np8228\nsVid\np8229\nV6003328254565\np8230\nsVimage_url\np8231\nVhttps://fbcdn-creative-a.akamaihd.net/hads-ak-prn1/s110x80/708189_6006844910365_9313_n.jpg\np8232\nsVcount_current_adgroups\np8233\nI0\nsVrun_status\np8234\nI1\nsVtype\np8235\nI1\nsVlink_url\np8236\nVhttp://www.buzzfeed.com/ht/armaniexchange/5-hot-summer-fashion-trends/hfac1\np8237\nsVview_tag\np8238\ng1825\nsa(dp8239\nValt_view_tags\np8240\n(lp8241\nsVbody\np8242\nVThe women of Armani Exchange are nothing less than spectacular, but who are they? Take an up close and personal look at the beauties!\np8243\nsVimage_hash\np8244\nV9a839f3f32c5f07729d5580811d544cd\np8245\nsVname\np8246\nVSexy Ladies Of Armani\np8247\nsVtitle\np8248\nVSexy Ladies Of Armani\np8249\nsVcreative_id\np8250\nV6003297004365\np8251\nsVpreview_url\np8252\nV"
p6
sS'hash'
p7
S'6588af62295028c39f7b581390f0d8294223275e'
p8
sS'stack'
p9
S''
s.