(dp1
S'args'
p2
S''
sS'methodname'
p3
S''
sS'packet_num'
p4
I94
sS'returnval'
p5
S'\np11028\nVhttp://www.buzzfeed.com/h1/fbad/ihop/the-15-best-breakfast-combos-to-start-your-morning\np11029\nsVview_tag\np11030\ng1825\nsa(dp11031\nValt_view_tags\np11032\n(lp11033\nsVbody\np11034\nVCheck out other awesome Rivalries and tell us who you side with. Only on BuzzFeed!\np11035\nsVimage_hash\np11036\nV8a61e2253a2157a40b9b7b70159cd1a2\np11037\nsVname\np11038\nVThe King vs Ronald\np11039\nsVtitle\np11040\nVThe King vs Ronald\np11041\nsVcreative_id\np11042\nV6005181469565\np11043\nsVpreview_url\np11044\nVhttp://www.facebook.com/ads/api/creative_preview.php?cid=6005181469565\np11045\nsVid\np11046\nV6005181469565\np11047\nsVimage_url\np11048\nVhttps://fbcdn-creative-a.akamaihd.net/hads-ak-ash3/s110x80/708199_6006844875565_37014_n.jpg\np11049\nsVcount_current_adgroups\np11050\nI1\nsVrun_status\np11051\nI1\nsVtype\np11052\nI1\nsVlink_url\np11053\nVhttp://www.buzzfeed.com/h1/fbad/historychannel/the-12-most-intense-rivalries-63mu\np11054\nsVview_tag\np11055\ng1825\nsa(dp11056\nValt_view_tags\np11057\n(lp11058\nsVbody\np11059\nVCheck out our look book of "The Best Bicycle Chic Street Style" - Add your own pics!\np11060\nsVimage_hash\np11061\nV4248f7b8d6d22f9926621a5c4603840c\np11062\nsVname\np11063\nVBest Summer Accessory \np11064\nsVtitle\np11065\nVBest Summer Accessory \np11066\nsVcreative_id\np11067\nV6005186091965\np11068\nsVpreview_url\np11069\nVhttp://www.facebook.com/ads/api/creative_preview.php?cid=6005186091965\np11070\nsVid\np11071\nV6005186091965\np11072\nsVimage_url\np11073\nVhttps://fbcdn-creative-a.akamaihd.net/hads-ak-prn1/s110x80/708205_6006844450565_21036_n.jpg\np11074\nsVcount_current_adgroups\np11075\nI1\nsVrun_status\np11076\nI1\nsVtype\np11077\nI1\nsVlink_url\np11078\nVhttp://www.buzzfeed.com/h1/fbad/schwinn/the-best-bicycle-chic-street-style\np11079\nsVview_tag\np11080\ng1825\nsa(dp11081\nValt_view_tags\np11082\n(lp11083\nsVbody\np11084\nVTell us your pick on check out more of our favorite celebrity rivalries on BuzzFeed!\\u000a\np11085\nsVimage_hash\np11086\nV5e3ec47ed7cb63f24600d1ef74ee089b\np11087\nsVname\np11088\nVLeno or Conan?\np11089\nsVtitle\np11090\nVLeno or Conan?\np11091\nsVcreative_id\np11092\nV6005156185565\np11093\nsVpreview_url\np11094\nVhttp://www.facebook.com/ads/api/creative_preview.php?cid=6005156185565\np11095\nsVid\np11096\nV6005156185565\np11097\nsVimage_url\np11098\nVhttps://fbcdn-creative-a.akamaihd.net/hads-ak-ash3/s110x80/701899_6006844632565_55934_n.jpg\np11099\nsVcount_current_adgroups\np11100\nI1\nsVrun_status\np11101\nI1\nsVtype\np11102\nI1\nsVlink_url\np11103\nVhttp://www.buzzfeed.com/h1/fbad/historychannel/the-10-most-hardcore-celebrity-rivalries-63mu\np11104\nsVview_tag\np11105\ng1825\nsa(dp11106\nValt_view_tags\np11107\n(lp11108\nsVbody\np11109\nVTo make our list of "16 Animals Cute Enough To Replace Cats On The Web" Look out LOL Cats!\np11110\nsVimage_hash\np11111\nV5e3019f79e5417bb98b75f015b9696d5\np11112\nsVname\np11113\nVAll the Koalafications\np11114\nsVtitle\np11115\nVAll the Koalafications\np11116\nsVcreative_id\np11117\nV6005181986165\np11118\nsVpreview_url\np11119\nVhttp://www.facebook.com/ads/api/creative_preview.php?cid=6005181986165\np11120\nsVid\np11121\nV6005181986165\np11122\nsVimage_url\np11123\nVhttps://fbcdn-creative-a.akamaihd.net/hads-ak-ash3/s110x80/701899_6006844632365_48201_n.jpg\np11124\nsVcount_current_adgroups\np11125\nI1\nsVrun_status\np11126\nI1\nsVtype\np11127\nI1\nsVlink_url\np11128\nVhttp://www.buzzfeed.com/h1/fbad/virginmobilelive/16-animals-cute-enough-to-replace-cats-on-the-web-5l87\np11129\nsVview_tag\np11130\ng1825\nsa(dp11131\nValt_view_tags\np11132\n(lp11133\nsVbody\np11134\nVCheck out the live recording of Maroon recording a brand new song - inspired by you. And check out awesome interviews with superfans!\np11135\nsVimage_hash\np11136\nVb74e5d22b20d171ed68b2b691c8630a4\np11137\nsVname\np11138\nVMaroon 5 24 Hour Session\np11139\nsVtitle\np11140\nVMaroon 5 24 Hour Session\np11141\nsVcreative_id\np11142\nV6003082322365\np11143\nsVpreview_url\np11144\nVhttp://www.facebook.com/ads/api/creative_preview.php?cid=6003082322365\np11145\nsVid\np11146\nV6003082322365\np11147\nsVimage_url\np11148\nVhttps://fbcdn-creative-a.akamaihd.net/hads-ak-prn1/s110x80/708173_6006845151365_22748_n.jpg\np11149\nsVcount_current_adgroups\np11150\nI0\nsVrun_status\np11151\nI1\nsVtype\np11152\nI1\nsVlink_url\np111'
p6
sS'hash'
p7
S'6588af62295028c39f7b581390f0d8294223275e'
p8
sS'stack'
p9
S''
s.