(dp1
S'args'
p2
S''
sS'methodname'
p3
S''
sS'packet_num'
p4
I87
sS'returnval'
p5
S"-a.akamaihd.net/hads-ak-ash3/s110x80/701899_6006844634565_9999_n.jpg\np10174\nsVcount_current_adgroups\np10175\nI0\nsVrun_status\np10176\nI1\nsVtype\np10177\nI1\nsVlink_url\np10178\nVhttp://www.huffingtonpost.com/2011/04/26/sony-playstation-network-down-ps3_n_853695.html?utm_campaign=buzzfeedIO&ncid=buzzfeedIO\np10179\nsVview_tag\np10180\ng1825\nsa(dp10181\nValt_view_tags\np10182\n(lp10183\nsVbody\np10184\nVPaula Abdul to join the X Factor: Simon Cowell wants to bring 'American Idol' Co-Star to New Show. Read more here.\np10185\nsVimage_hash\np10186\nV06c372edba1f82f16e1da377acb32886\np10187\nsVname\np10188\nVPaul Abdul on X Factor?\np10189\nsVtitle\np10190\nVPaul Abdul on X Factor?\np10191\nsVcreative_id\np10192\nV6003196027965\np10193\nsVpreview_url\np10194\nVhttp://www.facebook.com/ads/api/creative_preview.php?cid=6003196027965\np10195\nsVid\np10196\nV6003196027965\np10197\nsVimage_url\np10198\nVhttps://fbcdn-creative-a.akamaihd.net/hads-ak-ash3/s110x80/701888_6006844089965_31585_n.jpg\np10199\nsVcount_current_adgroups\np10200\nI0\nsVrun_status\np10201\nI1\nsVtype\np10202\nI1\nsVlink_url\np10203\nVhttp://www.huffingtonpost.com/2011/04/24/paula-abdul-joins-the-x-factor_n_853094.html?utm_campaign=buzzfeedIO&ncid=buzzfeedIO\np10204\nsVview_tag\np10205\ng1825\nsa(dp10206\nValt_view_tags\np10207\n(lp10208\nsVbody\np10209\nVPaula Abdul to join the X Factor: Simon Cowell wants to bring 'American Idol' Co-Star to New Show. Read more here.\np10210\nsVimage_hash\np10211\nV06c372edba1f82f16e1da377acb32886\np10212\nsVname\np10213\nVPaula Abdul on X Factor?\np10214\nsVtitle\np10215\nVPaula Abdul on X Factor?\np10216\nsVcreative_id\np10217\nV6003196029765\np10218\nsVpreview_url\np10219\nVhttp://www.facebook.com/ads/api/creative_preview.php?cid=6003196029765\np10220\nsVid\np10221\nV6003196029765\np10222\nsVimage_url\np10223\nVhttps://fbcdn-creative-a.akamaihd.net/hads-ak-ash3/s110x80/701888_6006844089965_31585_n.jpg\np10224\nsVcount_current_adgroups\np10225\nI0\nsVrun_status\np10226\nI1\nsVtype\np10227\nI1\nsVlink_url\np10228\nVhttp://www.huffingtonpost.com/2011/04/24/paula-abdul-joins-the-x-factor_n_853094.html?utm_campaign=buzzfeedIO&ncid=buzzfeedIO\np10229\nsVview_tag\np10230\ng1825\nsa(dp10231\nValt_view_tags\np10232\n(lp10233\nsVbody\np10234\nVNATO forces flattened a building inside Gaddafi's compound early this morning. Read more here.\np10235\nsVimage_hash\np10236\nVd7457207140156e9ebc232ab73101c85\np10237\nsVname\np10238\nVGaddafi Compound Bombed\np10239\nsVtitle\np10240\nVGaddafi Compound Bombed\np10241\nsVcreative_id\np10242\nV6003195941565\np10243\nsVpreview_url\np10244\nVhttp://www.facebook.com/ads/api/creative_preview.php?cid=6003195941565\np10245\nsVid\np10246\nV6003195941565\np10247\nsVimage_url\np10248\nVhttps://fbcdn-creative-a.akamaihd.net/hads-ak-prn1/s110x80/708189_6006845335365_49013_n.jpg\np10249\nsVcount_current_adgroups\np10250\nI0\nsVrun_status\np10251\nI1\nsVtype\np10252\nI1\nsVlink_url\np10253\nVhttp://www.huffingtonpost.com/2011/04/25/gaddafi-compound-bombed-libya_n_853167.html?utm_campaign=buzzfeedIO&ncid=buzzfeedIO\np10254\nsVview_tag\np10255\ng1825\nsa(dp10256\nValt_view_tags\np10257\n(lp10258\nsVbody\np10259\nVA cap on overall government spending \\u2014 bringing it to 20.6 percent of GDP over...\np10260\nsVimage_hash\np10261\nV51953d0cc57ac19442f5c4b889acc7c1\np10262\nsVname\np10263\nVDemocrats Wary of Hostage\np10264\nsVtitle\np10265\nVDemocrats Wary of Hostage\np10266\nsVcreative_id\np10267\nV6003191018565\np10268\nsVpreview_url\np10269\nVhttp://www.facebook.com/ads/api/creative_preview.php?cid=6003191018565\np10270\nsVid\np10271\nV6003191018565\np10272\nsVimage_url\np10273\nVhttps://fbcdn-creative-a.akamaihd.net/hads-ak-snc7/s110x80/701899_6006844564165_34757_n.jpg\np10274\nsVcount_current_adgroups\np10275\nI0\nsVrun_status\np10276\nI1\nsVtype\np10277\nI1\nsVlink_url\np10278\nVhttp://www.huffingtonpost.com/2011/04/21/democrats-debt-ceiling-debate_n_852074.html?utm_campaign=buzzfeedIO&ncid=buzzfeedIO\np10279\nsVview_tag\np10280\ng1825\nsa(dp10281\nValt_view_tags\np10282\n(lp10283\nsVbody\np10284\nVThousands of gallons of fracking fluid have spilled following an accident at a natural gas well in Pennsylvania. More info here.\np10285\nsVimage_hash\np10286\nVd56a4883b4b469052706229185510440\np10287\nsVname\np10288\nVGas Blowout Spill\np10"
p6
sS'hash'
p7
S'6588af62295028c39f7b581390f0d8294223275e'
p8
sS'stack'
p9
S''
s.