(dp1
S'args'
p2
S''
sS'methodname'
p3
S''
sS'packet_num'
p4
I38
sS'returnval'
p5
S'eview_url\np3862\nVhttp://www.facebook.com/ads/api/creative_preview.php?cid=6003518016365\np3863\nsVid\np3864\nV6003518016365\np3865\nsVimage_url\np3866\nVhttps://fbcdn-creative-a.akamaihd.net/hads-ak-prn1/s110x80/708181_6006844316965_49452_n.jpg\np3867\nsVcount_current_adgroups\np3868\nI0\nsVrun_status\np3869\nI1\nsVtype\np3870\nI1\nsVlink_url\np3871\nVhttp://www.huffingtonpost.com/2011/07/05/casey-anthony-trial-verdict_n_890173.html?utm_campaign=buzzfeedIO&ncid=buzzfeedIO%20#bfsrc=HLFB2\np3872\nsVview_tag\np3873\ng1825\nsa(dp3874\nValt_view_tags\np3875\n(lp3876\nsVbody\np3877\nVDisapprove of your friends... the Greek way! Enter your phrase and let Yiayia say it.\np3878\nsVimage_hash\np3879\nVb62df249fb0dd0b01b1bb7629c0d6158\np3880\nsVname\np3881\nVLet Yiayia Say It\np3882\nsVtitle\np3883\nVLet Yiayia Say It\np3884\nsVcreative_id\np3885\nV6003464835765\np3886\nsVpreview_url\np3887\nVhttp://www.facebook.com/ads/api/creative_preview.php?cid=6003464835765\np3888\nsVid\np3889\nV6003464835765\np3890\nsVimage_url\np3891\nVhttps://fbcdn-creative-a.akamaihd.net/hads-ak-ash3/s110x80/708173_6006845147165_48222_n.jpg\np3892\nsVcount_current_adgroups\np3893\nI0\nsVrun_status\np3894\nI1\nsVtype\np3895\nI1\nsVlink_url\np3896\nVhttp://bit.ly/mSuuh9\np3897\nsVview_tag\np3898\ng1825\nsa(dp3899\nValt_view_tags\np3900\n(lp3901\nsVbody\np3902\nVYou Decide! Disapprove of your friends the Greek way.\np3903\nsVimage_hash\np3904\nV7a4441ea4ffc1e0f66be00663c347cbe\np3905\nsVname\np3906\nV What Does Yiayia Hate?\np3907\nsVtitle\np3908\nV What Does Yiayia Hate?\np3909\nsVcreative_id\np3910\nV6003464839565\np3911\nsVpreview_url\np3912\nVhttp://www.facebook.com/ads/api/creative_preview.php?cid=6003464839565\np3913\nsVid\np3914\nV6003464839565\np3915\nsVimage_url\np3916\nVhttps://fbcdn-creative-a.akamaihd.net/hads-ak-ash3/s110x80/708196_6006844787165_53206_n.jpg\np3917\nsVcount_current_adgroups\np3918\nI0\nsVrun_status\np3919\nI1\nsVtype\np3920\nI1\nsVlink_url\np3921\nVhttp://bit.ly/j3lwjC\np3922\nsVview_tag\np3923\ng1825\nsa(dp3924\nValt_view_tags\np3925\n(lp3926\nsVbody\np3927\nVDisapprove of your friends... the Greek way. Create your own custom pissed-off Grandma video.\np3928\nsVimage_hash\np3929\nVcb439f1ccfbdef4ebf23cfcf6f84820b\np3930\nsVname\np3931\nVCustom Pissed-Off Grandma\np3932\nsVtitle\np3933\nVCustom Pissed-Off Grandma\np3934\nsVcreative_id\np3935\nV6003464843565\np3936\nsVpreview_url\np3937\nVhttp://www.facebook.com/ads/api/creative_preview.php?cid=6003464843565\np3938\nsVid\np3939\nV6003464843565\np3940\nsVimage_url\np3941\nVhttps://fbcdn-creative-a.akamaihd.net/hads-ak-ash3/s110x80/701898_6006845265965_14066_n.jpg\np3942\nsVcount_current_adgroups\np3943\nI0\nsVrun_status\np3944\nI1\nsVtype\np3945\nI1\nsVlink_url\np3946\nVhttp://bit.ly/jZOzBh\np3947\nsVview_tag\np3948\ng1825\nsa(dp3949\nValt_view_tags\np3950\n(lp3951\nsVbody\np3952\nVGrandmas + Customizable GIFs equals GILFs! Choose your Yiayia, choose your disapproving message, make your gif. Try it now.\np3953\nsVimage_hash\np3954\nV3741b3889147f7ef09f145fbd861cea5\np3955\nsVname\np3956\nVCustom Grandma Gif\np3957\nsVtitle\np3958\nVCustom Grandma Gif\np3959\nsVcreative_id\np3960\nV6003464860965\np3961\nsVpreview_url\np3962\nVhttp://www.facebook.com/ads/api/creative_preview.php?cid=6003464860965\np3963\nsVid\np3964\nV6003464860965\np3965\nsVimage_url\np3966\nVhttps://fbcdn-creative-a.akamaihd.net/hads-ak-prn1/s110x80/708193_6006844375365_6281_n.jpg\np3967\nsVcount_current_adgroups\np3968\nI0\nsVrun_status\np3969\nI1\nsVtype\np3970\nI1\nsVlink_url\np3971\nVhttp://bit.ly/mKk9af\np3972\nsVview_tag\np3973\ng1825\nsa(dp3974\nValt_view_tags\np3975\n(lp3976\nsVbody\np3977\nVMake your own GIF with someone else\\u2019s grandma. Choose your Yiayia, choose your disapproving message, make your gif! Try it now.\np3978\nsVimage_hash\np3979\nV9f4cfd6315031016614a36129c21b08b\np3980\nsVname\np3981\nVSomeone Else\\u2019s Grandma\np3982\nsVtitle\np3983\nVSomeone Else\\u2019s Grandma\np3984\nsVcreative_id\np3985\nV6003464864565\np3986\nsVpreview_url\np3987\nVhttp://www.facebook.com/ads/api/creative_preview.php?cid=6003464864565\np3988\nsVid\np3989\nV6003464864565\np3990\nsVimage_url\np3991\nVhttps://fbcdn-creative-a.akamaihd.net/hads-ak-ash3/s110x80/708180_6006845006965_15247_n.jpg\np3992\nsVcount_current_adgroups\np3993\nI0\nsVrun_status\np3994\nI1\nsVtype\np3995\nI1\nsVlink_ur'
p6
sS'hash'
p7
S'6588af62295028c39f7b581390f0d8294223275e'
p8
sS'stack'
p9
S''
s.