(dp1
S'args'
p2
S''
sS'methodname'
p3
S''
sS'packet_num'
p4
I23
sS'returnval'
p5
S'p1888\nsVpreview_url\np1889\nVhttp://www.facebook.com/ads/api/creative_preview.php?cid=6003559273165\np1890\nsVid\np1891\nV6003559273165\np1892\nsVimage_url\np1893\nVhttps://fbcdn-creative-a.akamaihd.net/hads-ak-prn1/s110x80/708195_6006844626165_56846_n.jpg\np1894\nsVcount_current_adgroups\np1895\nI0\nsVrun_status\np1896\nI1\nsVtype\np1897\nI1\nsVlink_url\np1898\nVhttp://bzfd.it/qtikFz\np1899\nsVview_tag\np1900\ng1825\nsa(dp1901\nValt_view_tags\np1902\n(lp1903\nsVbody\np1904\nVCheck out this compilation of the entire Harry Potter story in one minute.  And BTW, it\'s reenacted by cats.\np1905\nsVimage_hash\np1906\nV994ba1f2b78b9edc2163c27259d8bd1a\np1907\nsVname\np1908\nVAll Of Harry Potter...\np1909\nsVtitle\np1910\nVAll Of Harry Potter...\np1911\nsVcreative_id\np1912\nV6003559278365\np1913\nsVpreview_url\np1914\nVhttp://www.facebook.com/ads/api/creative_preview.php?cid=6003559278365\np1915\nsVid\np1916\nV6003559278365\np1917\nsVimage_url\np1918\nVhttps://fbcdn-creative-a.akamaihd.net/hads-ak-prn1/s110x80/708176_6006844963565_31915_n.jpg\np1919\nsVcount_current_adgroups\np1920\nI0\nsVrun_status\np1921\nI1\nsVtype\np1922\nI1\nsVlink_url\np1923\nVhttp://bzfd.it/pvnBTC\np1924\nsVview_tag\np1925\ng1825\nsa(dp1926\nValt_view_tags\np1927\n(lp1928\nsVbody\np1929\nVThere\'s nothing worse then working all morning and missing lunch.  Get up and enjoy lunchtime.  Click here for some inspiration!\np1930\nsVimage_hash\np1931\nV9fff00cb739b7f809578752c48f9d176\np1932\nsVname\np1933\nVNever Miss Lunch Again-00\np1934\nsVtitle\np1935\nVNever Miss Lunch Again\np1936\nsVcreative_id\np1937\nV6003559289565\np1938\nsVpreview_url\np1939\nVhttp://www.facebook.com/ads/api/creative_preview.php?cid=6003559289565\np1940\nsVid\np1941\nV6003559289565\np1942\nsVimage_url\np1943\nVhttps://fbcdn-creative-a.akamaihd.net/hads-ak-ash3/s110x80/701896_6006845012765_35456_n.jpg\np1944\nsVcount_current_adgroups\np1945\nI0\nsVrun_status\np1946\nI1\nsVtype\np1947\nI1\nsVlink_url\np1948\nVhttp://bzfd.it/q0osJg\np1949\nsVview_tag\np1950\ng1825\nsa(dp1951\nValt_view_tags\np1952\n(lp1953\nsVbody\np1954\nVOh no! Looks like you\\u2019ve been attacked by a nasty computer virus! Have no fear, check out how these guys tackle viruses with ease\np1955\nsVimage_hash\np1956\nV5d75d0991cb49516791d3cc89dabe20c\np1957\nsVname\np1958\nVAttack Of A Killer Virus-00\np1959\nsVtitle\np1960\nVAttack Of A Killer Virus\np1961\nsVcreative_id\np1962\nV6003559291965\np1963\nsVpreview_url\np1964\nVhttp://www.facebook.com/ads/api/creative_preview.php?cid=6003559291965\np1965\nsVid\np1966\nV6003559291965\np1967\nsVimage_url\np1968\nVhttps://fbcdn-creative-a.akamaihd.net/hads-ak-prn1/s110x80/708195_6006844626165_56846_n.jpg\np1969\nsVcount_current_adgroups\np1970\nI0\nsVrun_status\np1971\nI1\nsVtype\np1972\nI1\nsVlink_url\np1973\nVhttp://bzfd.it/qtikFz\np1974\nsVview_tag\np1975\ng1825\nsa(dp1976\nValt_view_tags\np1977\n(lp1978\nsVbody\np1979\nVCheck out this nice list of "Google+ Circles You\'ll Actually Use". Because Friends, Family, and Co-Workers won\'t cover it!\np1980\nsVimage_hash\np1981\nV16c456602339eff9ea5f026428dbe81b\np1982\nsVname\np1983\nVGoogle Circles You\'ll Use\np1984\nsVtitle\np1985\nVGoogle Circles You\'ll Use\np1986\nsVcreative_id\np1987\nV6003562961765\np1988\nsVpreview_url\np1989\nVhttp://www.facebook.com/ads/api/creative_preview.php?cid=6003562961765\np1990\nsVid\np1991\nV6003562961765\np1992\nsVimage_url\np1993\nVhttps://fbcdn-creative-a.akamaihd.net/hads-ak-prn1/s110x80/708166_6006844191965_48193_n.jpg\np1994\nsVcount_current_adgroups\np1995\nI0\nsVrun_status\np1996\nI1\nsVtype\np1997\nI1\nsVlink_url\np1998\nVhttp://bzfd.it/pz85ce\np1999\nsVview_tag\np2000\ng1825\nsa(dp2001\nValt_view_tags\np2002\n(lp2003\nsVbody\np2004\nVCheck out the official trailer For \\u201cThe Dark Knight Rises\\u201d and "Like" our page for more great stuff!\np2005\nsVimage_hash\np2006\nVecacdb90302f24e898f5d0be07ebd45e\np2007\nsVname\np2008\nVBuzzFeed-00\np2009\nsVtitle\np2010\ng1825\nsVcreative_id\np2011\nV6003572135565\np2012\nsVpreview_url\np2013\nVhttp://www.facebook.com/ads/api/creative_preview.php?cid=6003572135565\np2014\nsVobject_id\np2015\nI21898300328\nsVid\np2016\nV6003572135565\np2017\nsVimage_url\np2018\nVhttps://fbcdn-creative-a.akamaihd.net/hads-ak-ash3/s110x80/708195_6006845481765_32614_n.jpg\np2019\nsVcount_current_adgroups\np2020\nI0\nsVrun_status\np2021\nI'
p6
sS'hash'
p7
S'6588af62295028c39f7b581390f0d8294223275e'
p8
sS'stack'
p9
S''
s.