(dp1
S'args'
p2
S''
sS'methodname'
p3
S''
sS'packet_num'
p4
I82
sS'returnval'
p5
S'9536\nVa5af9e0f9bd0fa341215e8f9788dff9c\np9537\nsVname\np9538\nVNew Watch For Fathers Day\np9539\nsVtitle\np9540\nVNew Watch For Fathers Day\np9541\nsVcreative_id\np9542\nV6003267408165\np9543\nsVpreview_url\np9544\nVhttp://www.facebook.com/ads/api/creative_preview.php?cid=6003267408165\np9545\nsVid\np9546\nV6003267408165\np9547\nsVimage_url\np9548\nVhttps://fbcdn-creative-a.akamaihd.net/hads-ak-snc7/s110x80/701888_6006845044565_35583_n.jpg\np9549\nsVcount_current_adgroups\np9550\nI0\nsVrun_status\np9551\nI1\nsVtype\np9552\nI1\nsVlink_url\np9553\nVhttp://www.buzzfeed.com/ht/bic/guide-to-buying-your-first-expensive-watch/HFAC1\np9554\nsVview_tag\np9555\ng1825\nsa(dp9556\nValt_view_tags\np9557\n(lp9558\nsVbody\np9559\nVWatches are a classic component to every man\'s wardrobe.  Read the "Guide to Buying Your First Expensive Watch" & see what to look for.\np9560\nsVimage_hash\np9561\nVa5af9e0f9bd0fa341215e8f9788dff9c\np9562\nsVname\np9563\nVEvery Man Should Know\np9564\nsVtitle\np9565\nVEvery Man Should Know\np9566\nsVcreative_id\np9567\nV6003267414765\np9568\nsVpreview_url\np9569\nVhttp://www.facebook.com/ads/api/creative_preview.php?cid=6003267414765\np9570\nsVid\np9571\nV6003267414765\np9572\nsVimage_url\np9573\nVhttps://fbcdn-creative-a.akamaihd.net/hads-ak-snc7/s110x80/701888_6006845044565_35583_n.jpg\np9574\nsVcount_current_adgroups\np9575\nI0\nsVrun_status\np9576\nI1\nsVtype\np9577\nI1\nsVlink_url\np9578\nVhttp://www.buzzfeed.com/ht/bic/guide-to-buying-your-first-expensive-watch/HFAB1\np9579\nsVview_tag\np9580\ng1825\nsa(dp9581\nValt_view_tags\np9582\n(lp9583\nsVbody\np9584\nVThis shocking video shows a massive tornado as it pummels through Tuscaloosa.\np9585\nsVimage_hash\np9586\nV5637f0fb872a9c9fa8b4ad05438f6ef0\np9587\nsVname\np9588\nVAlabama Twister Filmed\np9589\nsVtitle\np9590\nVAlabama Twister Filmed\np9591\nsVcreative_id\np9592\nV6003205914365\np9593\nsVpreview_url\np9594\nVhttp://www.facebook.com/ads/api/creative_preview.php?cid=6003205914365\np9595\nsVid\np9596\nV6003205914365\np9597\nsVimage_url\np9598\nVhttps://fbcdn-creative-a.akamaihd.net/hads-ak-ash3/s110x80/708176_6006844589965_25808_n.jpg\np9599\nsVcount_current_adgroups\np9600\nI0\nsVrun_status\np9601\nI1\nsVtype\np9602\nI1\nsVlink_url\np9603\nVhttp://www.huffingtonpost.com/2011/04/28/tuscaloosa-alabama-tornado-video-2011_n_854811.html?utm_campaign=buzzfeedIO&ncid=buzzfeedIO\np9604\nsVview_tag\np9605\ng1825\nsa(dp9606\nValt_view_tags\np9607\n(lp9608\nsVbody\np9609\nVAs if there was any doubt about it, it appears that Pippa Middleton knows how to have a good time! Read here for more!\np9610\nsVimage_hash\np9611\nV56ba6a611afeb47eca764eeaf5f52f38\np9612\nsVname\np9613\nVPippa Middleton Shirtless\np9614\nsVtitle\np9615\nVPippa Middleton Shirtless\np9616\nsVcreative_id\np9617\nV6003221981365\np9618\nsVpreview_url\np9619\nVhttp://www.facebook.com/ads/api/creative_preview.php?cid=6003221981365\np9620\nsVid\np9621\nV6003221981365\np9622\nsVimage_url\np9623\nVhttps://fbcdn-creative-a.akamaihd.net/hads-ak-prn1/s110x80/708176_6006844591765_36733_n.jpg\np9624\nsVcount_current_adgroups\np9625\nI0\nsVrun_status\np9626\nI1\nsVtype\np9627\nI1\nsVlink_url\np9628\nVhttp://www.huffingtonpost.com/2011/05/05/pippa-middleton-topless-pictures-shirtless-photos_n_858024.html?utm_campaign=buzzfeedIO&ncid=buzzfeedIO\np9629\nsVview_tag\np9630\ng1825\nsa(dp9631\nValt_view_tags\np9632\n(lp9633\nsVbody\np9634\nVSo wilderness man, do you have what it takes to go camping? Check out this list for the camping essentials!\np9635\nsVimage_hash\np9636\nVe543abba1ee40bd02ba734e82fac2d25\np9637\nsVname\np9638\nVTop 10 Camping Essentials\np9639\nsVtitle\np9640\nVTop 10 Camping Essentials\np9641\nsVcreative_id\np9642\nV6003231095565\np9643\nsVpreview_url\np9644\nVhttp://www.facebook.com/ads/api/creative_preview.php?cid=6003231095565\np9645\nsVid\np9646\nV6003231095565\np9647\nsVimage_url\np9648\nVhttps://fbcdn-creative-a.akamaihd.net/hads-ak-prn1/s110x80/708185_6006845432365_11502_n.jpg\np9649\nsVcount_current_adgroups\np9650\nI0\nsVrun_status\np9651\nI1\nsVtype\np9652\nI1\nsVlink_url\np9653\nVhttp://www.buzzfeed.com/ht/bic/top-10-camping-essentials/HFAA1\np9654\nsVview_tag\np9655\ng1825\nsa(dp9656\nValt_view_tags\np9657\n(lp9658\nsVbody\np9659\nVSo wilderness man, do you have what it takes to go camping? Check out this list for the camping es'
p6
sS'hash'
p7
S'6588af62295028c39f7b581390f0d8294223275e'
p8
sS'stack'
p9
S''
s.