(dp1
S'args'
p2
S''
sS'methodname'
p3
S''
sS'packet_num'
p4
I12
sS'returnval'
p5
S'AMVXaG8gZWxzZSBpcyBleGNpdGVkIGZvciB0aGUgZ2FtZXM/IG9vb29vIEhvdyBUbyBIb3N0IEFuIEFtYXppbmcgT2x5bXBpY3MgUGFydHkgb29vb28gRnJvbSB0aGUgZm9vZCBhbmQgZHJpbmtzIHRvIHRoZSBtdXNpYywgYXRtb3NwaGVyZSwgYW5kIGRlY29yYXRpb25zIOKAlCB3ZSd2ZSBnb3QgeW91IGNvdmVyZWQgd2l0aCB0aGVzZSA1MiB0aXBzIQoAHAABqB7TpdusAA==\np1000\nsVcount_current_adgroups\np1001\nI0\nsVrun_status\np1002\nI1\nsVtype\np1003\nI27\nsVid\np1004\nV6005553048765\np1005\nsa(dp1006\nVname\np1007\nVAd from a Page post #6005557934565\np1008\nsVauto_update\np1009\nI1\nsVstory_id\np1010\nI371466382922084\nsVcreative_id\np1011\nV6005557934565\np1012\nsVpreview_url\np1013\nVhttp://www.facebook.com/ads/api/creative_preview.php?cid=6005557934565\np1014\nsVobject_id\np1015\nV21898300328\np1016\nsVaction_t\np1017\nVBgABAQcIAAZQEGlHCgAJAAAAAImt0MwKABAAAAAFGT2LqA0AGgYKAAAADQEKAAAAAAAAAFAAuAABUdjBzNFkALkAAAAAAAAAZAC6ACQQTQZKKBYCIwAAAAAAAAAIAMMAAABPVFI0HgG7AAAAAAAAAGoACgAAAACJrdDMAcoAAVHYwczRZAEeAAAAAEDil9AAAQABUdjBzNFkAbYAAAAAUBBpRwHkAAFR2MHM0WQNABsGCwAAAAFAAwAAAExUZWFtIFBhdHRpbnNvbiEgb29vb28gNzQgUmVhc29ucyBXaHkgS3Jpc3RlbiBTdGV3YXJ0IFJlYWxseSBNZXNzZWQgVXAgb29vb28gCgAcAAFR2MHM0WQA\np1018\nsVcount_current_adgroups\np1019\nI0\nsVrun_status\np1020\nI1\nsVtype\np1021\nI27\nsVid\np1022\nV6005557934565\np1023\nsa(dp1024\nVname\np1025\nVAd from a Page post #6005558957765\np1026\nsVauto_update\np1027\nI1\nsVstory_id\np1028\nV10151133188820329\np1029\nsVcreative_id\np1030\nV6005558957765\np1031\nsVpreview_url\np1032\nVhttp://www.facebook.com/ads/api/creative_preview.php?cid=6005558957765\np1033\nsVobject_id\np1034\nV21898300328\np1035\nsVaction_t\np1036\nVBgABAPcIAAZQEKh7CgAQAAAABRk9i6gNABoGCgAAABkBGQAkEGbfyXnhAXUAAAAAAAG1igCbAAAAAAAAAAgAZgAAABUHwjFIAL0AJBBm38i2kQD8AAAAAADGwc8BwAAAAAAAAAABAkwAAAAAAAAAAQJOAAAAAAAAA7YCTwAAAAAAAAJ5AlAAAAAAAAADtgJRAAAAAAAAAnkCVAAAAAAAAAO2AlUAAAAAAAACeQJXAAAAAAAAAAECUgAAAAAAAAAAAlMAAAAAAAAAAAJWAAAAAAAAAAABygAkEGbfyY1pAR4AAAAAiEv/TAAOAAAAAFAQqHsBhgAAAAAAAAAAAAEAJBBm38mNaQG2AAAAAFAQqHsB5AAkEGbfyY1pDQAbBgsAAAABQAMAAACvTmVlZCBhIGxpdHRsZSAiYXd3dyIgZm9yIHlvdXIgbmlnaHQ/DQoNClR3byBDaGVldGFoIEN1YnMgTWFrZSBUaGVpciBQdWJsaWMgRGVidXQNCmh0dHA6Ly93d3cuYnV6emZlZWQuY29tL3N1bW1lcmFubmUvdHdvLWNoZWV0YWgtY3Vicy1tYWtlLXRoZWlyLXB1YmxpYy1kZWJ1dCBvb29vbyBXYWxsIFBob3RvcwoAHAAkEGbfyLaRAA==\np1037\nsVcount_current_adgroups\np1038\nI0\nsVrun_status\np1039\nI1\nsVtype\np1040\nI27\nsVid\np1041\nV6005558957765\np1042\nsa(dp1043\nVname\np1044\nVAd from a Page post #6005559408365\np1045\nsVauto_update\np1046\nI1\nsVstory_id\np1047\nI342926135783950\nsVcreative_id\np1048\nV6005559408365\np1049\nsVpreview_url\np1050\nVhttp://www.facebook.com/ads/api/creative_preview.php?cid=6005559408365\np1051\nsVobject_id\np1052\nV21898300328\np1053\nsVaction_t\np1054\nVBgABAQcIAAZQENzgCgAQAAAABRk9i6gNABoGCgAAAAwBCgAAAAAAAABQALgAATfjtoHyDgC5AAAAAAAAAGQAugAkEGgD9ofPAiMAAAAAAAAAAADDAAAAT1RSNB4BuwAAAAAAAABqAcoAATfjtoHyDgEeAAAAAPek1LIAAQABN+O2gfIOAbYAAAAAUBDc4AHkAAE347aB8g4NABsGCwAAAAFAAwAAAKogb29vb28gMjUgRnVubnkgQW5pbWFsIFNpZ25zIG9vb29vIFNvbWUgb2YgdGhlc2Ugc2lnbnMgYXJlIGluaGVyZW50bHkgZnVubnksIG90aGVycyBhcmUgaW1wcm92ZWQgYnkgZnVubnkgYW5pbWFscy4gRWl0aGVyIHdheSwgaG93IGNhbiB5b3UgZ28gd3Jvbmc/IChQcm8tdGlwOiB5b3UgY2FuJ3QhKQoAHAABN+O2gfIOAA==\np1055\nsVcount_current_adgroups\np1056\nI0\nsVrun_status\np1057\nI1\nsVtype\np1058\nI27\nsVid\np1059\nV6005559408365\np1060\nsa(dp1061\nVname\np1062\nVAd from a Page post #6005559651965\np1063\nsVauto_update\np1064\nI1\nsVstory_id\np1065\nV10151133623420329\np1066\nsVcreative_id\np1067\nV6005559651965\np1068\nsVpreview_url\np1069\nVhttp://www.facebook.com/ads/api/creative_preview.php?cid=6005559651965\np1070\nsVobject_id\np1071\nV21898300328\np1072\nsVaction_t\np1073\nVBgABAPcIAAZQEPtZCgAQAAAABRk9i6gNABoGCgAAABkBGQAkEGb5sPIhAXUAAAAAAAd9pACbAAAAAAAAAAQAZgAkEFib29RxAL0AJBBm4DrFyQD8AAAAAADGweQBwAAAAAAAAAABAkwAAAAAAAAAAQJOAAAAAAAAAnECTwAAAAAAAAFUAlAAAAAAAAACcQJRAAAAAAAAAVQCVAAAAAAAAAJxAlUAAAAAAAABVAJXAAAAAAAAAAECUgAAAAAAAAAAAlMAAAAAAAAAAAJWAAAAAAAAAAABygAkEGb5sQWpAR4AAAAAdWLRygAOAAAAAFAQ+1kBhgAAAAAAAAAAAAEAJBBm+bEFqQG2AAAAAFAQ+1kB5AAkEGb5sQWpDQAbBgsAAAABQAMAAACgSGlsYXJpb3VzIQ0KDQpDZWxlYnJpdGllcyBSZWFkIE1lYW4gVHdlZXRzIEFib3V0IFRoZW1zZWx2ZXMNCmh0dHA6Ly93d3cuYnV6emZlZWQuY29tL3doaXRuZXlqZWZmZXJzb24vY2VsZWJyaXRpZXMtcmVhZC1tZWFuLXR3ZWV0cy1hYm91dC10aGVtc2VsdmVzIG9vb29vIFBo'
p6
sS'hash'
p7
S'6588af62295028c39f7b581390f0d8294223275e'
p8
sS'stack'
p9
S''
s.