(dp1
S'args'
p2
S''
sS'methodname'
p3
S''
sS'packet_num'
p4
I91
sS'returnval'
p5
S'ack at his best.\np10660\nsVimage_hash\np10661\nV6ca9aa5d1bdafa1b9a6160b8ef70b0f3\np10662\nsVname\np10663\nVThe Best of Drew Carey\np10664\nsVtitle\np10665\nVThe Best of Drew Carey\np10666\nsVcreative_id\np10667\nV6003140096765\np10668\nsVpreview_url\np10669\nVhttp://www.facebook.com/ads/api/creative_preview.php?cid=6003140096765\np10670\nsVid\np10671\nV6003140096765\np10672\nsVimage_url\np10673\nVhttps://fbcdn-creative-a.akamaihd.net/hads-ak-ash3/s110x80/701901_6006844710765_65012_n.jpg\np10674\nsVcount_current_adgroups\np10675\nI0\nsVrun_status\np10676\nI1\nsVtype\np10677\nI1\nsVlink_url\np10678\nVhttp://www.buzzfeed.com/ht/improvaganza/drew-careys-most-off-the-wall-improv-moments/HFAA1\np10679\nsVview_tag\np10680\ng1825\nsa(dp10681\nValt_view_tags\np10682\n(lp10683\nsVbody\np10684\nVDrew Carey\'s Improv-A-Ganza cast pushes the limits while trying to figure out what dirty words they can and cannot say. \np10685\nsVimage_hash\np10686\nV3fac6e71876445f5b78a613b4c8ae46f\np10687\nsVname\np10688\nVImprov-A-Ganza Gets Dirty\np10689\nsVtitle\np10690\nVImprov-A-Ganza Gets Dirty\np10691\nsVcreative_id\np10692\nV6003140099165\np10693\nsVpreview_url\np10694\nVhttp://www.facebook.com/ads/api/creative_preview.php?cid=6003140099165\np10695\nsVid\np10696\nV6003140099165\np10697\nsVimage_url\np10698\nVhttps://fbcdn-creative-a.akamaihd.net/hads-ak-ash3/s110x80/708157_6006844421565_25446_n.jpg\np10699\nsVcount_current_adgroups\np10700\nI0\nsVrun_status\np10701\nI1\nsVtype\np10702\nI1\nsVlink_url\np10703\nVhttp://www.buzzfeed.com/ht/improvaganza/drew-careys-improv-a-ganza-cast-gets-dirty/HFAA1\np10704\nsVview_tag\np10705\ng1825\nsa(dp10706\nValt_view_tags\np10707\n(lp10708\nsVbody\np10709\nVAuditions aren\'t always smooth sailing. It got pretty wild in the audition room for Abc\'s new comedy "Happy Endings". Check it out!\np10710\nsVimage_hash\np10711\nVb64a30b21744d92dd8ff72554fa6040b\np10712\nsVname\np10713\nVLeaked Audition Tapes\np10714\nsVtitle\np10715\nVLeaked Audition Tapes\np10716\nsVcreative_id\np10717\nV6003140048365\np10718\nsVpreview_url\np10719\nVhttp://www.facebook.com/ads/api/creative_preview.php?cid=6003140048365\np10720\nsVid\np10721\nV6003140048365\np10722\nsVimage_url\np10723\nVhttps://fbcdn-creative-a.akamaihd.net/hads-ak-prn1/s110x80/708173_6006845147365_36366_n.jpg\np10724\nsVcount_current_adgroups\np10725\nI0\nsVrun_status\np10726\nI1\nsVtype\np10727\nI1\nsVlink_url\np10728\nVhttp://www.buzzfeed.com/ht/happyendings/happy-endings-leaked-audition-tapes/HFAA1\np10729\nsVview_tag\np10730\ng1825\nsa(dp10731\nValt_view_tags\np10732\n(lp10733\nsVbody\np10734\nVHudgens spoke to the LA Times about her career and the photo scandal that has followed\\u2026\np10735\nsVimage_hash\np10736\nVf4db00b511eb526b471a51b255624f1f\np10737\nsVname\np10738\nVVanessa Hudgens Scandal\np10739\nsVtitle\np10740\nVVanessa Hudgens Scandal\np10741\nsVcreative_id\np10742\nV6003151267365\np10743\nsVpreview_url\np10744\nVhttp://www.facebook.com/ads/api/creative_preview.php?cid=6003151267365\np10745\nsVid\np10746\nV6003151267365\np10747\nsVimage_url\np10748\nVhttps://fbcdn-creative-a.akamaihd.net/hads-ak-ash3/s110x80/708186_6006845531765_15079_n.jpg\np10749\nsVcount_current_adgroups\np10750\nI0\nsVrun_status\np10751\nI1\nsVtype\np10752\nI1\nsVlink_url\np10753\nVhttp://www.buzzfeed.com/huffpost/vanessa-hudgens-nude-photos-star-talks-naked-pict-7p0?utm_campaign=buzzfeedIO&ncid=buzzfeedIO\np10754\nsVview_tag\np10755\ng1825\nsa(dp10756\nValt_view_tags\np10757\n(lp10758\nsVbody\np10759\nVHudgens spoke to the LA Times about her career and the photo scandal that has followed\\u2026\np10760\nsVimage_hash\np10761\nVf4db00b511eb526b471a51b255624f1f\np10762\nsVname\np10763\nVVanessa Hudgens Scandal-00\np10764\nsVtitle\np10765\nVVanessa Hudgens Scandal\np10766\nsVcreative_id\np10767\nV6003151293965\np10768\nsVpreview_url\np10769\nVhttp://www.facebook.com/ads/api/creative_preview.php?cid=6003151293965\np10770\nsVid\np10771\nV6003151293965\np10772\nsVimage_url\np10773\nVhttps://fbcdn-creative-a.akamaihd.net/hads-ak-ash3/s110x80/708186_6006845531765_15079_n.jpg\np10774\nsVcount_current_adgroups\np10775\nI0\nsVrun_status\np10776\nI1\nsVtype\np10777\nI1\nsVlink_url\np10778\nVhttp://www.huffingtonpost.com/2011/04/11/vanessa-hudgens-nude-photos-star-talks_n_847324.html?utm_campaign=buzzfeedIO&ncid=buzzfeedIO\np10779\nsV'
p6
sS'hash'
p7
S'6588af62295028c39f7b581390f0d8294223275e'
p8
sS'stack'
p9
S''
s.