(dp1
S'args'
p2
S''
sS'methodname'
p3
S''
sS'packet_num'
p4
I42
sS'returnval'
p5
S"l, things get bizzare.\np4403\nsVimage_hash\np4404\nVe75be0beef07608d0e2a54a2f4acf426\np4405\nsVname\np4406\nV5 Insane Surgeries\np4407\nsVtitle\np4408\nV5 Insane Surgeries\np4409\nsVcreative_id\np4410\nV6003398562965\np4411\nsVpreview_url\np4412\nVhttp://www.facebook.com/ads/api/creative_preview.php?cid=6003398562965\np4413\nsVid\np4414\nV6003398562965\np4415\nsVimage_url\np4416\nVhttps://fbcdn-creative-a.akamaihd.net/hads-ak-ash3/s110x80/708171_6006845446365_43696_n.jpg\np4417\nsVcount_current_adgroups\np4418\nI0\nsVrun_status\np4419\nI1\nsVtype\np4420\nI1\nsVlink_url\np4421\nVhttp://www.buzzfeed.com/ht/adultswimchildrenshospital/the-5-craziest-surgery-moments-on-childrens-hospit/HFBA1\np4422\nsVview_tag\np4423\ng1825\nsa(dp4424\nValt_view_tags\np4425\n(lp4426\nsVbody\np4427\nVMore than 35 years later, the Rubik\\u2019s Cube still drives people crazy. See what inventor Erno Rubik has to say about this iconic product\np4428\nsVimage_hash\np4429\nV76b45d2031f40224c4c4d6c8612167df\np4430\nsVname\np4431\nVThe Rubik's Cube\np4432\nsVtitle\np4433\nVThe Rubik's Cube\np4434\nsVcreative_id\np4435\nV6003414328765\np4436\nsVpreview_url\np4437\nVhttp://www.facebook.com/ads/api/creative_preview.php?cid=6003414328765\np4438\nsVid\np4439\nV6003414328765\np4440\nsVimage_url\np4441\nVhttps://fbcdn-creative-a.akamaihd.net/hads-ak-snc7/s110x80/701899_6006844769365_53666_n.jpg\np4442\nsVcount_current_adgroups\np4443\nI0\nsVrun_status\np4444\nI1\nsVtype\np4445\nI1\nsVlink_url\np4446\nVhttp://blogs.forbes.com/sap/2011/06/08/more-than-35-years-later-rubiks-cube-still-drives-people-crazy/?nowelcome#HFBA2\np4447\nsVview_tag\np4448\ng1825\nsa(dp4449\nValt_view_tags\np4450\n(lp4451\nsVbody\np4452\nVHave the past three months proven that the iPad is no one-hit wonder? See the Top 50 Schools & Organizations by iPad deployment.\np4453\nsVimage_hash\np4454\nV67c85c9351406cc8c0e7899036dfbc95\np4455\nsVname\np4456\nVTop 50 iPad Rollouts\np4457\nsVtitle\np4458\nVTop 50 iPad Rollouts\np4459\nsVcreative_id\np4460\nV6003414525965\np4461\nsVpreview_url\np4462\nVhttp://www.facebook.com/ads/api/creative_preview.php?cid=6003414525965\np4463\nsVid\np4464\nV6003414525965\np4465\nsVimage_url\np4466\nVhttps://fbcdn-creative-a.akamaihd.net/hads-ak-prn1/s110x80/708186_6006844678565_65294_n.jpg\np4467\nsVcount_current_adgroups\np4468\nI0\nsVrun_status\np4469\nI1\nsVtype\np4470\nI1\nsVlink_url\np4471\nVhttp://blogs.forbes.com/sap/2011/06/14/top-50-ipad-rollouts-by-enterprises-schools/#HFBA2\np4472\nsVview_tag\np4473\ng1825\nsa(dp4474\nValt_view_tags\np4475\n(lp4476\nsVbody\np4477\nVMore than 35 years later, the Rubik\\u2019s Cube still drives people crazy. See what inventor Erno Rubik has to say about this iconic product\np4478\nsVimage_hash\np4479\nV76b45d2031f40224c4c4d6c8612167df\np4480\nsVname\np4481\nVThe Rubik's Cube-01\np4482\nsVtitle\np4483\nVThe Rubik's Cube\np4484\nsVcreative_id\np4485\nV6003419018165\np4486\nsVpreview_url\np4487\nVhttp://www.facebook.com/ads/api/creative_preview.php?cid=6003419018165\np4488\nsVid\np4489\nV6003419018165\np4490\nsVimage_url\np4491\nVhttps://fbcdn-creative-a.akamaihd.net/hads-ak-snc7/s110x80/701899_6006844769365_53666_n.jpg\np4492\nsVcount_current_adgroups\np4493\nI0\nsVrun_status\np4494\nI1\nsVtype\np4495\nI1\nsVlink_url\np4496\nVhttp://blogs.forbes.com/sap/2011/06/08/more-than-35-years-later-rubiks-cube-still-drives-people-crazy/?nowelcome#bfsrc=HFBA2\np4497\nsVview_tag\np4498\ng1825\nsa(dp4499\nValt_view_tags\np4500\n(lp4501\nsVbody\np4502\nVMany are still in denial about this fact, but truly, it\\u2019s over. See what this expert says.\np4503\nsVimage_hash\np4504\nV0b4bdddc753d5fb2f9da336848c8cf6d\np4505\nsVname\np4506\nVB-to-B has Ceased to Be\np4507\nsVtitle\np4508\nVB-to-B has Ceased to Be\np4509\nsVcreative_id\np4510\nV6003493354565\np4511\nsVpreview_url\np4512\nVhttp://www.facebook.com/ads/api/creative_preview.php?cid=6003493354565\np4513\nsVid\np4514\nV6003493354565\np4515\nsVimage_url\np4516\nVhttps://fbcdn-creative-a.akamaihd.net/hads-ak-prn1/s110x80/708170_6006844118965_59331_n.jpg\np4517\nsVcount_current_adgroups\np4518\nI0\nsVrun_status\np4519\nI1\nsVtype\np4520\nI1\nsVlink_url\np4521\nVhttp://blogs.forbes.com/gyro/2011/06/16/b-to-b-has-ceased-to-be/?nowelcome\np4522\nsVview_tag\np4523\ng1825\nsa(dp4524\nValt_view_tags\np4525\n(lp4526\nsVbody\np4527\nVIn a world made n"
p6
sS'hash'
p7
S'6588af62295028c39f7b581390f0d8294223275e'
p8
sS'stack'
p9
S''
s.