(dp1
S'args'
p2
S''
sS'methodname'
p3
S''
sS'packet_num'
p4
I86
sS'returnval'
p5
S"un_status\np10051\nI1\nsVtype\np10052\nI1\nsVlink_url\np10053\nVhttp://www.buzzfeed.com/ht/washingtonlottery/10-awesome-things-you-can-do-when-you-win-20-mill/HFAA1\np10054\nsVview_tag\np10055\ng1825\nsa(dp10056\nValt_view_tags\np10057\n(lp10058\nsVbody\np10059\nVWant to build an amusement park in your backyard? Or take a space vacation? You must be in it to WIN it.\np10060\nsVimage_hash\np10061\nV6a826130578a640f75a71154b528d8d8\np10062\nsVname\np10063\nVIf You Won $20 Million...\np10064\nsVtitle\np10065\nVIf You Won $20 Million...\np10066\nsVcreative_id\np10067\nV6003200638165\np10068\nsVpreview_url\np10069\nVhttp://www.facebook.com/ads/api/creative_preview.php?cid=6003200638165\np10070\nsVid\np10071\nV6003200638165\np10072\nsVimage_url\np10073\nVhttps://fbcdn-creative-a.akamaihd.net/hads-ak-prn1/s110x80/708195_6006844694165_24136_n.jpg\np10074\nsVcount_current_adgroups\np10075\nI0\nsVrun_status\np10076\nI1\nsVtype\np10077\nI1\nsVlink_url\np10078\nVhttp://www.buzzfeed.com/ht/washingtonlottery/10-awesome-things-you-can-do-when-you-win-20-mill/HFAA1\np10079\nsVview_tag\np10080\ng1825\nsa(dp10081\nValt_view_tags\np10082\n(lp10083\nsVbody\np10084\nVIf you win the lottery, you can basically do anything you want. Check out these awesome ideas people would do with all that money!\np10085\nsVimage_hash\np10086\nV15199ecb8b0ec549035d439fab3adf3d\np10087\nsVname\np10088\nVIf You Won $20 Million...-00\np10089\nsVtitle\np10090\nVIf You Won $20 Million...\np10091\nsVcreative_id\np10092\nV6003200640765\np10093\nsVpreview_url\np10094\nVhttp://www.facebook.com/ads/api/creative_preview.php?cid=6003200640765\np10095\nsVid\np10096\nV6003200640765\np10097\nsVimage_url\np10098\nVhttps://fbcdn-creative-a.akamaihd.net/hads-ak-prn1/s110x80/708170_6006844182565_42440_n.jpg\np10099\nsVcount_current_adgroups\np10100\nI0\nsVrun_status\np10101\nI1\nsVtype\np10102\nI1\nsVlink_url\np10103\nVhttp://www.buzzfeed.com/ht/washingtonlottery/10-awesome-things-you-can-do-when-you-win-20-mill/HFAA1\np10104\nsVview_tag\np10105\ng1825\nsa(dp10106\nValt_view_tags\np10107\n(lp10108\nsVbody\np10109\nVIf you win the lottery, you can basically do anything you want. Check out these awesome ideas people would do with all that money!\np10110\nsVimage_hash\np10111\nV045795836f31455a26a08ddbde9a3d1e\np10112\nsVname\np10113\nVIf You Won $20 Million...-01\np10114\nsVtitle\np10115\nVIf You Won $20 Million...\np10116\nsVcreative_id\np10117\nV6003200645565\np10118\nsVpreview_url\np10119\nVhttp://www.facebook.com/ads/api/creative_preview.php?cid=6003200645565\np10120\nsVid\np10121\nV6003200645565\np10122\nsVimage_url\np10123\nVhttps://fbcdn-creative-a.akamaihd.net/hads-ak-ash3/s110x80/708186_6006844073365_28223_n.jpg\np10124\nsVcount_current_adgroups\np10125\nI0\nsVrun_status\np10126\nI1\nsVtype\np10127\nI1\nsVlink_url\np10128\nVhttp://www.buzzfeed.com/ht/washingtonlottery/10-awesome-things-you-can-do-when-you-win-20-mill/HFAA1\np10129\nsVview_tag\np10130\ng1825\nsa(dp10131\nValt_view_tags\np10132\n(lp10133\nsVbody\np10134\nVKinglsey talks hashtags, swag, leggo, and cool story bro.\np10135\nsVimage_hash\np10136\nV3e19b81b38281ff4f96f54b02c0799b0\np10137\nsVname\np10138\nVThings That Are Overexpo\np10139\nsVtitle\np10140\nVThings That Are Overexpo\np10141\nsVcreative_id\np10142\nV6003199348565\np10143\nsVpreview_url\np10144\nVhttp://www.facebook.com/ads/api/creative_preview.php?cid=6003199348565\np10145\nsVid\np10146\nV6003199348565\np10147\nsVimage_url\np10148\nVhttps://fbcdn-creative-a.akamaihd.net/hads-ak-prn1/s110x80/708157_6006844417365_39113_n.jpg\np10149\nsVcount_current_adgroups\np10150\nI0\nsVrun_status\np10151\nI1\nsVtype\np10152\nI1\nsVlink_url\np10153\nVhttp://buzzfeed.com/ht/mjs538/things-that-are-overexposed/HFAA1\np10154\nsVview_tag\np10155\ng1825\nsa(dp10156\nValt_view_tags\np10157\n(lp10158\nsVbody\np10159\nVSony's PlayStation Network, plagued by problems for days, is being shut down indefinitely. Read more here.\np10160\nsVimage_hash\np10161\nV5f12319b31dbb3d8bf23024bd8c1a71b\np10162\nsVname\np10163\nVPlayStation Shut Down\np10164\nsVtitle\np10165\nVPlayStation Shut Down\np10166\nsVcreative_id\np10167\nV6003199052165\np10168\nsVpreview_url\np10169\nVhttp://www.facebook.com/ads/api/creative_preview.php?cid=6003199052165\np10170\nsVid\np10171\nV6003199052165\np10172\nsVimage_url\np10173\nVhttps://fbcdn-creative"
p6
sS'hash'
p7
S'6588af62295028c39f7b581390f0d8294223275e'
p8
sS'stack'
p9
S''
s.