(dp1
S'args'
p2
S''
sS'methodname'
p3
S''
sS'packet_num'
p4
I4
sS'returnval'
p5
S'lcyBQaG90b3MgRnJvbSBPbGQgTW92aWVzDQpodHRwOi8vd3d3LmJ1enpmZWVkLmNvbS9seWFwYWxhdGVyLzMwLWF3ZXNvbWUtYmVoaW5kLXRoZS1zY2VuZXMtcGhvdG9zLWZyb20tb2xkLW1vdmllIG9vb29vIFdhbGwgUGhvdG9zCgAcACQQY37Q1BEA\np339\nsVcount_current_adgroups\np340\nI0\nsVrun_status\np341\nI1\nsVtype\np342\nI27\nsVid\np343\nV6005527147165\np344\nsa(dp345\nVname\np346\nVAd from a Page post #6005530071965\np347\nsVauto_update\np348\nI1\nsVstory_id\np349\nV10151118820805329\np350\nsVcreative_id\np351\nV6005530071965\np352\nsVpreview_url\np353\nVhttp://www.facebook.com/ads/api/creative_preview.php?cid=6005530071965\np354\nsVobject_id\np355\nV21898300328\np356\nsVaction_t\np357\nVBgABAPcIAAZQCB20CgAQAAAABRk9i6gNABoGCgAAAA4BGQAkEGOHYvdJAXUAAAAAAAG1igCbAAAAAAAAAAgAZgAAABUHwjFIAL0AJBBjh2JHgQD8AAAAAADF2PsBwAAAAAAAAAABAcoAJBBjh2MK0QEeAAAAAH6sYqwADgAAAABQCB20AYYAAAAAAAAAAAABACQQY4djCtEBtgAAAABQCB20AeQAJBBjh2MK0Q0AGwYLAAAAAUADAAAALkhvdyBtYW55IHNxdWFyZXMgZG8geW91IHNlZT8gb29vb28gV2FsbCBQaG90b3MKABwAJBBjh2JHgQA=\np358\nsVcount_current_adgroups\np359\nI0\nsVrun_status\np360\nI1\nsVtype\np361\nI27\nsVid\np362\nV6005530071965\np363\nsa(dp364\nVname\np365\nVAd from a Page post #6005530410365\np366\nsVauto_update\np367\nI1\nsVstory_id\np368\nV10151119046745329\np369\nsVcreative_id\np370\nV6005530410365\np371\nsVpreview_url\np372\nVhttp://www.facebook.com/ads/api/creative_preview.php?cid=6005530410365\np373\nsVobject_id\np374\nV21898300328\np375\nsVaction_t\np376\nVBgABAPcIAAZQCDw7CgAQAAAABRk9i6gNABoGCgAAAA4BGQAkEGOU2nXhAXUAAAAAAAG1igCbAAAAAAAAAAgAZgAAABUHwjFIAL0AJBBjlNlQ6QD8AAAAAADF22YBwAAAAAAAAAABAcoAJBBjlNqc8QEeAAAAAOkr18IADgAAAABQCDw7AYYAAAAAAAAAAAABACQQY5TanPEBtgAAAABQCDw7AeQAJBBjlNqc8Q0AGwYLAAAAAUADAAAAzlJlYWxseSBuZXZlciBleHBlY3RlZCB0aGlzIHRvIGhhcHBlbi4NCg0KVGhlIE5pZ2h0IE5ld3QgR2luZ3JpY2ggQW5kIFNub29raSBCZWNhbWUgQmVzdCBGcmllbmRzDQpodHRwOi8vd3d3LmJ1enpmZWVkLmNvbS93aGl0bmV5amVmZmVyc29uL3RoZS1uaWdodC1uZXd0LWdpbmdyaWNoLWFuZC1zbm9va2ktYmVjYW1lLWJlc3QtZnJpIG9vb29vIFdhbGwgUGhvdG9zCgAcACQQY5TZUOkA\np377\nsVcount_current_adgroups\np378\nI0\nsVrun_status\np379\nI1\nsVtype\np380\nI27\nsVid\np381\nV6005530410365\np382\nsa(dp383\nVname\np384\nVAd from a Page post #6005531626365\np385\nsVauto_update\np386\nI1\nsVstory_id\np387\nI340061322743932\nsVcreative_id\np388\nV6005531626365\np389\nsVpreview_url\np390\nVhttp://www.facebook.com/ads/api/creative_preview.php?cid=6005531626365\np391\nsVobject_id\np392\nV21898300328\np393\nsVaction_t\np394\nVBgABAQcIAAZQCGuqCgAJAAAAAImt0MwKABAAAAAFGT2LqA0AGgYKAAAADQEKAAAAAAAAAFAAuAABNUiyWBB8ALkAAAAAAAAAZAC6ACQQiU49QcwCIwAAAAAAAAAIAMMAAABPVFI0HgG7AAAAAAAAAGoACgAAAACJrdDMAcoAATVIslgQfAEeAAAAAC54eQgAAQABNUiyWBB8AbYAAAAAUAhrqgHkAAE1SLJYEHwNABsGCwAAAAFAAwAAATpUaGlzIGhhcyBiZWVuIHJlYWxseSBwb3B1bGFyIG9uIGhlcmUgdG9kYXkuIG9vb29vIE1lZXQgVGhlIDgyIFllYXIgT2xkIExhbnZpbiBIaXJlZCBUbyBNb2RlbCBJbiBJdHMgTmV3IEFkcyBvb29vbyBKYWNxdWVsaW5lIE11cmRvY2sgc3BlbnQgaGVyIGxpZmUgd29ya2luZyBhcyBhIGRhbmNlciBhdCB0aGUgQXBvbGxvIHRoZWF0ZXIgaW4gTmV3IFlvcmsuIEFmdGVyIGdldHRpbmcgcGhvdG9ncmFwaGVkIGZvciBzZW5pb3Igc3R5bGUgYmxvZyBBZHZhbmNlZCBTdHlsZSAsIHNoZSBjYXVnaHQgdGhlIGV5ZSBvZiBMYW52aW4gZGVzaWduZXIgQWxiZS4uLgoAHAABNUiyWBB8AA==\np395\nsVcount_current_adgroups\np396\nI0\nsVrun_status\np397\nI1\nsVtype\np398\nI27\nsVid\np399\nV6005531626365\np400\nsa(dp401\nVname\np402\nVAd from a Page post #6005531827365\np403\nsVauto_update\np404\nI1\nsVstory_id\np405\nI120159154795106\nsVcreative_id\np406\nV6005531827365\np407\nsVpreview_url\np408\nVhttp://www.facebook.com/ads/api/creative_preview.php?cid=6005531827365\np409\nsVobject_id\np410\nV21898300328\np411\nsVaction_t\np412\nVBgABAQcIAAZQCIJgCgAJAAAAAImt0MwKABAAAAAFGT2LqA0AGgYKAAAADQEKAAAAAAAAAFAAuAAAbUi7vPJiALkAAAAAAAAAZAC6ACQQPedUWa0CIwAAAAAAAAAIAMMAAABPVFI0HgG7AAAAAAAAAGoACgAAAACJrdDMAcoAAG1Iu7zyYgEeAAAAABmlTbgAAQAAbUi7vPJiAbYAAAAAUAiCYAHkAABtSLu88mINABsGCwAAAAFAAwAAAJZJIHRoaW5rIEkgd2FzIGd1aWx0eSBvZiBwcmV0dHkgbXVjaCBhbGwgb2YgdGhlc2UuIG9vb29vIDIwIEV2ZXJ5ZGF5IFRoaW5ncyBXZSdyZSBBbGwgR3VpbHR5IE9mIERvaW5nIG9vb29vIFlvdSB0aGluayB5b3UncmUgdGhlIG9ubHkgb25lPyBUaGluayBhZ2FpbiEKABwAAG1Iu7zyYgA=\np413\nsVcount_current_adgroups\np414\nI0\nsVrun_status\np415\nI1\nsVtype\np416\nI27\nsVid\np417\nV6005531827365\np418\nsa(dp419\nVname\np420\nVAd from a Page post #6005532479565\np421\nsVauto_update\np422\nI1\nsVstory_id\np423\nV10151119990025329\np424\nsVcr'
p6
sS'hash'
p7
S'6588af62295028c39f7b581390f0d8294223275e'
p8
sS'stack'
p9
S''
s.