(dp1
S'args'
p2
S''
sS'methodname'
p3
S''
sS'packet_num'
p4
I18
sS'returnval'
p5
S'T8A\np1465\nsVcount_current_adgroups\np1466\nI0\nsVrun_status\np1467\nI1\nsVtype\np1468\nI27\nsVid\np1469\nV6005572410165\np1470\nsa(dp1471\nVname\np1472\nVAd from a Page post #6005572543165\np1473\nsVauto_update\np1474\nI1\nsVstory_id\np1475\nI505298939487067\nsVcreative_id\np1476\nV6005572543165\np1477\nsVpreview_url\np1478\nVhttp://www.facebook.com/ads/api/creative_preview.php?cid=6005572543165\np1479\nsVobject_id\np1480\nV21898300328\np1481\nsVaction_t\np1482\nVBgABAQcIAAZQFYgxCgAQAAAABRk9i6gNABoGCgAAAAwBCgAAAAAAAABQALgAAcuRE8sjWwC5AAAAAAAAAGQAugAkEFVBy+OrAiMAAAAAAAAAAADDAAAAT1RSNB4BuwAAAAAAAABqAcoAAcuRE8sjWwEeAAAAAMRdaroAAQABy5ETyyNbAbYAAAAAUBWIMQHkAAHLkRPLI1sNABsGCwAAAAFAAwAAALFUaGlzIHdhcyBwcmV0dHkgY29vbC4gb29vb28gTWVldCBUaGUgT2x5bXBpYyBBdGhsZXRlcyBXaXRob3V0IEEgQ291bnRyeSBvb29vbyBXaG8gYXJlIHRoZSBmb3VyIGF0aGxldGVzIHdobyBhcmUgY29tcGV0aW5nIG5vdCBvbiBiZWhhbGYgb2YgYSBjb3VudHJ5LCBidXQgdW5kZXIgdGhlIE9seW1waWMgZmxhZz8KABwAAcuRE8sjWwA=\np1483\nsVcount_current_adgroups\np1484\nI0\nsVrun_status\np1485\nI1\nsVtype\np1486\nI27\nsVid\np1487\nV6005572543165\np1488\nsa(dp1489\nVname\np1490\nVAd from a Page post #6005572931165\np1491\nsVauto_update\np1492\nI1\nsVstory_id\np1493\nI322566804502851\nsVcreative_id\np1494\nV6005572931165\np1495\nsVpreview_url\np1496\nVhttp://www.facebook.com/ads/api/creative_preview.php?cid=6005572931165\np1497\nsVobject_id\np1498\nV21898300328\np1499\nsVaction_t\np1500\nVBgABAQcIAAZQFcBwCgAQAAAABRk9i6gNABoGCgAAAAwBCgAAAAAAAABQALgAASVfb8x5QwC5AAAAAAAAAGQAugAkEGI+O8FHAiMAAAAAAAAAAADDAAAAT1RSNB4BuwAAAAAAAABqAcoAASVfb8x5QwEeAAAAACsWy+wAAQABJV9vzHlDAbYAAAAAUBXAcAHkAAElX2/MeUMNABsGCwAAAAFAAwAAAQVGWUkgb29vb28gMzMgVG90YWxseSBEby1BYmxlIEQuSS5ZLiBQcm9qZWN0cyBGb3IgWW91ciBQZXRzIG9vb29vIEl0J3MgZGVmaW5pdGVseSB3b29mIGl0IHRvIHRha2UgYSBsb29rIGF0IHRoZXNlIGVhc3kgcHJvamVjdHMgYW5kIGZpbmQgdGhlIHB1cnJmZWN0IGZpdCBmb3IgeW91ciBhbmltYWwgZmFtaWx5LiBNb3N0IG9mIHRoZXNlIGRvLWl0LXlvdXJzZWxmIGlkZWFzIHJlcXVpcmUgbWluaW1hbCBzcGVjaWFsIHNraWxscyBvciB0b29scywgYW5kIGEuLi4KABwAASVfb8x5QwA=\np1501\nsVcount_current_adgroups\np1502\nI0\nsVrun_status\np1503\nI1\nsVtype\np1504\nI27\nsVid\np1505\nV6005572931165\np1506\nsa(dp1507\nVname\np1508\nVAd from a Page post #6005573077365\np1509\nsVauto_update\np1510\nI1\nsVstory_id\np1511\nI343871502357906\nsVcreative_id\np1512\nV6005573077365\np1513\nsVpreview_url\np1514\nVhttp://www.facebook.com/ads/api/creative_preview.php?cid=6005573077365\np1515\nsVobject_id\np1516\nV21898300328\np1517\nsVaction_t\np1518\nVBgABAQcIAAZQFeqhCgAQAAAABRk9i6gNABoGCgAAAAwBCgAAAAAAAABQALgAATi/0r8VkgC5AAAAAAAAAGQAugAkEGdlLwCiAiMAAAAAAAAAAADDAAAAT1RSNB4BuwAAAAAAAABqAcoAATi/0r8VkgEeAAAAAMqym5wAAQABOL/SvxWSAbYAAAAAUBXqoQHkAAE4v9K/FZINABsGCwAAAAFAAwAAANQgb29vb28gMTUgV2F5cyBUbyBDaGVhdCBBdCBUaGUgT2x5bXBpY3MgV2l0aCBUZWNoIEFuZCBTY2llbmNlIG9vb29vIElmIHlvdSB3ZXJlIGJvcm4gYSBtZXJlIG1vcnRhbCBidXQgYXJlIGRlc3BlcmF0ZSB0byBiZSBhbiBPbHltcGljIGdvZCwgdGhlc2UgKG9mdGVuIGlsbGVnYWwgb3IgZGFuZ2Vyb3VzISkgdGVjaG5vLWJpb2xvZ2ljYWwgbWV0aG9kcyBtaWdodCBoZWxwLgoAHAABOL/SvxWSAA==\np1519\nsVcount_current_adgroups\np1520\nI0\nsVrun_status\np1521\nI1\nsVtype\np1522\nI27\nsVid\np1523\nV6005573077365\np1524\nsa(dp1525\nVname\np1526\nVAd from a Page post #6005573253365\np1527\nsVauto_update\np1528\nI1\nsVstory_id\np1529\nV10151142016575329\np1530\nsVcreative_id\np1531\nV6005573253365\np1532\nsVpreview_url\np1533\nVhttp://www.facebook.com/ads/api/creative_preview.php?cid=6005573253365\np1534\nsVobject_id\np1535\nV21898300328\np1536\nsVaction_t\np1537\nVBgABAPcIAAZQFhcqCgAQAAAABRk9i6gNABoGCgAAABkBGQAkEGjt9lPZAXUAAAAAAAd9pACbAAAAAAAAAAQAZgAkEFib29RxAL0AJBBo32xnWQD8AAAAAADHS64BwAAAAAAAAAABAkwAAAAAAAAAAQJOAAAAAAAAAlgCTwAAAAAAAAGPAlAAAAAAAAACWAJRAAAAAAAAAY8CVAAAAAAAAAJYAlUAAAAAAAABjwJXAAAAAAAAAAECUgAAAAAAAAAAAlMAAAAAAAAAAAJWAAAAAAAAAAABygAkEGjt9mdhAR4AAAAAHgXyRgAOAAAAAFAWFyoBhgAAAAAAAAAAAAEAJBBo7fZnYQG2AAAAAFAWFyoB5AAkEGjt9mdhDQAbBgsAAAABQAMAAAAXR29vZG5pZ2h0ISBvb29vbyBQaG90b3MKABwAJBBo32xnWQA=\np1538\nsVcount_current_adgroups\np1539\nI0\nsVrun_status\np1540\nI1\nsVtype\np1541\nI27\nsVid\np1542\nV6005573253365\np1543\nsa(dp1544\nVname\np1545\nVAd from a Page post #6005574177165\np1546\nsVauto_update\np1547\nI1\nsVstory_id\np1548\nI429503167092872\nsVcreative_id\np1549\nV6005574177165\np1550\nsVpreview_url\np1551\nVhttp://www.facebook.com/ads/api/creative_preview.p'
p6
sS'hash'
p7
S'6588af62295028c39f7b581390f0d8294223275e'
p8
sS'stack'
p9
S''
s.