(dp1
S'args'
p2
S''
sS'methodname'
p3
S''
sS'packet_num'
p4
I80
sS'returnval'
p5
S'hash\np9286\nV4c11d22760cc33b1a38cf8e0056d070a\np9287\nsVname\np9288\nVMacaulay Culkin is 30\np9289\nsVtitle\np9290\nVMacaulay Culkin is 30\np9291\nsVcreative_id\np9292\nV6003263563165\np9293\nsVpreview_url\np9294\nVhttp://www.facebook.com/ads/api/creative_preview.php?cid=6003263563165\np9295\nsVid\np9296\nV6003263563165\np9297\nsVimage_url\np9298\nVhttps://fbcdn-creative-a.akamaihd.net/hads-ak-prn1/s110x80/708166_6006844512365_2207_n.jpg\np9299\nsVcount_current_adgroups\np9300\nI0\nsVrun_status\np9301\nI1\nsVtype\np9302\nI1\nsVlink_url\np9303\nVhttp://www.buzzfeed.com/ht/mjs538/40-things-that-will-make-you-feel-old/HFAA1\np9304\nsVview_tag\np9305\ng1825\nsa(dp9306\nValt_view_tags\np9307\n(lp9308\nsVbody\np9309\nV40 things that will make you feel old.  After reading this list, you will feel old.\np9310\nsVimage_hash\np9311\nVb3f1e0248223c755b5f64d75d2c40d46\np9312\nsVname\np9313\nVDo You Know Brenda Walsh?\np9314\nsVtitle\np9315\nVDo You Know Brenda Walsh?\np9316\nsVcreative_id\np9317\nV6003263570965\np9318\nsVpreview_url\np9319\nVhttp://www.facebook.com/ads/api/creative_preview.php?cid=6003263570965\np9320\nsVid\np9321\nV6003263570965\np9322\nsVimage_url\np9323\nVhttps://fbcdn-creative-a.akamaihd.net/hads-ak-ash3/s110x80/708188_6006845132965_22926_n.jpg\np9324\nsVcount_current_adgroups\np9325\nI0\nsVrun_status\np9326\nI1\nsVtype\np9327\nI1\nsVlink_url\np9328\nVhttp://www.buzzfeed.com/ht/mjs538/40-things-that-will-make-you-feel-old/HFAA1\np9329\nsVview_tag\np9330\ng1825\nsa(dp9331\nValt_view_tags\np9332\n(lp9333\nsVbody\np9334\nVThose who claim to have knowledge of the situation say "Judgment Day" will take place May 21.  Find out the top 21 reasons why its not.\np9335\nsVimage_hash\np9336\nVa333434cf18babebd0807b1c53e07df9\np9337\nsVname\np9338\nVIs May 21st The End?\np9339\nsVtitle\np9340\nVIs May 21st The End?\np9341\nsVcreative_id\np9342\nV6003251464965\np9343\nsVpreview_url\np9344\nVhttp://www.facebook.com/ads/api/creative_preview.php?cid=6003251464965\np9345\nsVid\np9346\nV6003251464965\np9347\nsVimage_url\np9348\nVhttps://fbcdn-creative-a.akamaihd.net/hads-ak-ash3/s110x80/708199_6006845031365_21657_n.jpg\np9349\nsVcount_current_adgroups\np9350\nI0\nsVrun_status\np9351\nI1\nsVtype\np9352\nI1\nsVlink_url\np9353\nVhttp://www.huffingtonpost.com/2011/05/11/21-reasons-may-21-not-end-of-world_n_860747.html?utm_campaign=buzzfeedIO&ncid=buzzfeedIO\np9354\nsVview_tag\np9355\ng1825\nsa(dp9356\nValt_view_tags\np9357\n(lp9358\nsVbody\np9359\nVEveryone calm down for goodness sakes. The royal family is more understanding these days, yes? They\'ve come a long way baby!\np9360\nsVimage_hash\np9361\nV239ed2411eac6bc141c2adf08c01fe0a\np9362\nsVname\np9363\nVPippa Exposed\np9364\nsVtitle\np9365\nVPippa Exposed\np9366\nsVcreative_id\np9367\nV6003234267565\np9368\nsVpreview_url\np9369\nVhttp://www.facebook.com/ads/api/creative_preview.php?cid=6003234267565\np9370\nsVid\np9371\nV6003234267565\np9372\nsVimage_url\np9373\nVhttps://fbcdn-creative-a.akamaihd.net/hads-ak-prn1/s110x80/708167_6006844273365_7217_n.jpg\np9374\nsVcount_current_adgroups\np9375\nI0\nsVrun_status\np9376\nI1\nsVtype\np9377\nI1\nsVlink_url\np9378\nVhttp://www.thedaily.com/page/2011/05/10/051011-gossip-pippa-middleton-1-3/\np9379\nsVview_tag\np9380\ng1825\nsa(dp9381\nValt_view_tags\np9382\n(lp9383\nsVbody\np9384\nVTalk about being in the driver\'s seat. This guy\'s got it in the bag. Find out what working three days a week for 3 years gets you.\np9385\nsVimage_hash\np9386\nV9f9b9eafde05bd29a4292dc988de2e50\np9387\nsVname\np9388\nV$70 Million Man\np9389\nsVtitle\np9390\nV$70 Million Man\np9391\nsVcreative_id\np9392\nV6003234273565\np9393\nsVpreview_url\np9394\nVhttp://www.facebook.com/ads/api/creative_preview.php?cid=6003234273565\np9395\nsVid\np9396\nV6003234273565\np9397\nsVimage_url\np9398\nVhttps://fbcdn-creative-a.akamaihd.net/hads-ak-prn1/s110x80/708180_6006845007965_59009_n.jpg\np9399\nsVcount_current_adgroups\np9400\nI0\nsVrun_status\np9401\nI1\nsVtype\np9402\nI1\nsVlink_url\np9403\nVhttp://www.thedaily.com/page/2011/05/10/051011-gossip-matt-lauer/\np9404\nsVview_tag\np9405\ng1825\nsa(dp9406\nValt_view_tags\np9407\n(lp9408\nsVbody\np9409\nVA hard act to follow! Nothing else could possibly get you more pumped up than a 145 foot free fall. Add daredevil to bombshell!\np9410\nsVimage_hash\np9411\nVd1e9f5ce261b85bebde1f262ed1'
p6
sS'hash'
p7
S'6588af62295028c39f7b581390f0d8294223275e'
p8
sS'stack'
p9
S''
s.