(dp1
S'args'
p2
S'(t.'
p3
sS'methodname'
p4
S'__json_response'
p5
sS'packet_num'
p6
I0
sS'returnval'
p7
S'(dp0\nVcount\np1\nI5353\nsVlimit\np2\nV10\np3\nsVpaging\np4\n(dp5\nVnext\np6\nVhttps://graph.facebook.com/act_40156177/adcreatives?access_token=AAAAACn63CWkBAMqpbBAZCzY9ZAxUwkgZCUeUFd0WWNyXRuxBY2JJahcZBMBO0q2D8Hyp5OZAMKZCFcbZBMWBZClqLQFENvjildZCZCVCSD3vTlfAZDZD&limit=10&offset=10\np7\nssVdata\np8\n(lp9\n(dp10\nValt_view_tags\np11\n(lp12\nsVbody\np13\nVYou got nothing on these guys. Check out "24 Courageous Sport Fans You Wish You Could Be!"\np14\nsVimage_hash\np15\nV8a06e9449a92579a23fdc21742b8c01c\np16\nsVname\np17\nVThink You\'re A Fan?-00\np18\nsVtitle\np19\nVThink You\'re A Fan?\np20\nsVcreative_id\np21\nV6008009288965\np22\nsVpreview_url\np23\nVhttp://www.facebook.com/ads/api/creative_preview.php?cid=6008009288965\np24\nsVid\np25\nV6008009288965\np26\nsVimage_url\np27\nVhttps://fbcdn-creative-a.akamaihd.net/hads-ak-ash3/s110x80/735301_6008009288165_57003_n.png\np28\nsVcount_current_adgroups\np29\nI1\nsVrun_status\np30\nI1\nsVtype\np31\nI1\nsVlink_url\np32\nVhttp://www.buzzfeed.com/h1/fbad/scope/24-courageous-sport-fans-you-wish-you-could-be\np33\nsVview_tag\np34\nV\np35\nsa(dp36\nValt_view_tags\np37\n(lp38\nsVbody\np39\nVThey\'re fake getting ready for their fake online relationships. Only on Buzzfeed!\np40\nsVimage_hash\np41\nVcad0f0da7eb8aeca7201c6bd483d255c\np42\nsVname\np43\nVPeople on Photoshop Diets-01\np44\nsVtitle\np45\nVPhotoshop Fails!\np46\nsVcreative_id\np47\nV6008004586365\np48\nsVpreview_url\np49\nVhttp://www.facebook.com/ads/api/creative_preview.php?cid=6008004586365\np50\nsVid\np51\nV6008004586365\np52\nsVimage_url\np53\nVhttps://fbcdn-creative-a.akamaihd.net/hads-ak-prn1/s110x80/735326_6007991996165_56928_n.jpg\np54\nsVcount_current_adgroups\np55\nI1\nsVrun_status\np56\nI1\nsVtype\np57\nI1\nsVlink_url\np58\nVhttp://www.buzzfeed.com/h1/fbad/virginmobilelive/15-people-on-a-photoshop-diet-5l87\np59\nsVview_tag\np60\ng35\nsa(dp61\nValt_view_tags\np62\n(lp63\nsVbody\np64\nVHe has a very distinctive way of talking. See "10 Christopher Walken Impressions We Love!"\np65\nsVimage_hash\np66\nV7d6a45934d629c81abfc5b5a73d91b0d\np67\nsVname\np68\nVChristopher Walken!\np69\nsVtitle\np70\nVChristopher Walken!\np71\nsVcreative_id\np72\nV6007988719765\np73\nsVpreview_url\np74\nVhttp://www.facebook.com/ads/api/creative_preview.php?cid=6007988719765\np75\nsVid\np76\nV6007988719765\np77\nsVimage_url\np78\nVhttps://fbcdn-creative-a.akamaihd.net/hads-ak-ash3/s110x80/735309_6007988718165_4410_n.jpg\np79\nsVcount_current_adgroups\np80\nI1\nsVrun_status\np81\nI1\nsVtype\np82\nI1\nsVlink_url\np83\nVhttp://clk.atdmt.com/ULA/go/431167357/direct/01/?href=http://www.buzzfeed.com/h1/fbad/sevenpsychopaths/10-christopher-walken-impressions-well-love-forev-8rf6\np84\nsVview_tag\np85\ng35\nsa(dp86\nValt_view_tags\np87\n(lp88\nsVbody\np89\nVHis scene in Deep Blue Sea made the list of "12 Iconic Death Scenes From Movies!" \np90\nsVimage_hash\np91\nV7da137b8cbb93ba8bc7c1599a207d815\np92\nsVname\np93\nVSamuel Jackson Gets Eaten\np94\nsVtitle\np95\nVSamuel Jackson Gets Eaten\np96\nsVcreative_id\np97\nV6007989064765\np98\nsVpreview_url\np99\nVhttp://www.facebook.com/ads/api/creative_preview.php?cid=6007989064765\np100\nsVid\np101\nV6007989064765\np102\nsVimage_url\np103\nVhttps://fbcdn-creative-a.akamaihd.net/hads-ak-prn1/s110x80/735321_6007988911165_10438_n.png\np104\nsVcount_current_adgroups\np105\nI1\nsVrun_status\np106\nI1\nsVtype\np107\nI1\nsVlink_url\np108\nVhttp://clk.atdmt.com/ULA/go/431167357/direct/01/?href=http://www.buzzfeed.com/h1/fbad/sevenpsychopaths/12-iconic-death-scenes-from-movies-8rf6\np109\nsVview_tag\np110\ng35\nsa(dp111\nValt_view_tags\np112\n(lp113\nsVbody\np114\nVYou got nothing on these guys. Check out "24 Courageous Sport Fans You Wish You Could Be!"\np115\nsVimage_hash\np116\nVcf962452e1aacb50cc9bc37f438b1700\np117\nsVname\np118\nVThink You\'re A Fan?\np119\nsVtitle\np120\nVThink You\'re A Fan?\np121\nsVcreative_id\np122\nV6008004322965\np123\nsVpreview_url\np124\nVhttp://www.facebook.com/ads/api/creative_preview.php?cid=6008004322965\np125\nsVid\np126\nV6008004322965\np127\nsVimage_url\np128\nVhttps://fbcdn-creative-a.akamaihd.net/hads-ak-prn1/s110x80/735351_6008004310565_22239_n.png\np129\nsVcount_current_adgroups\np130\nI2\nsVrun_status\np131\nI1\nsVtype\np132\nI1\nsVlink_url\np133\nVhttp://www.buzzfeed.com/h1/fbad/scope/24-courageous-sport-fans-you-wish-you-could-'
p8
sS'hash'
p9
S'68cdc8001398f615e40e38390e71a67b32a086c5'
p10
sS'stack'
p11
S''
s.