(dp1
S'args'
p2
S''
sS'methodname'
p3
S''
sS'packet_num'
p4
I28
sS'returnval'
p5
S'005162799965\np4697\nsVauto_update\np4698\nI1\nsVstory_id\np4699\nV10150972388645329\np4700\nsVcreative_id\np4701\nV6005162799965\np4702\nsVpreview_url\np4703\nVhttp://www.facebook.com/ads/api/creative_preview.php?cid=6005162799965\np4704\nsVobject_id\np4705\nV21898300328\np4706\nsVcount_current_adgroups\np4707\nI0\nsVrun_status\np4708\nI1\nsVtype\np4709\nI27\nsVid\np4710\nV6005162799965\np4711\nsa(dp4712\nVname\np4713\nVAd from a Page post #6005163526365\np4714\nsVauto_update\np4715\nI1\nsVstory_id\np4716\nV10150973032445329\np4717\nsVcreative_id\np4718\nV6005163526365\np4719\nsVpreview_url\np4720\nVhttp://www.facebook.com/ads/api/creative_preview.php?cid=6005163526365\np4721\nsVobject_id\np4722\nV21898300328\np4723\nsVcount_current_adgroups\np4724\nI0\nsVrun_status\np4725\nI1\nsVtype\np4726\nI27\nsVid\np4727\nV6005163526365\np4728\nsa(dp4729\nVname\np4730\nVAd from a Page post #6005164233365\np4731\nsVauto_update\np4732\nI1\nsVstory_id\np4733\nI459329007426367\nsVcreative_id\np4734\nV6005164233365\np4735\nsVpreview_url\np4736\nVhttp://www.facebook.com/ads/api/creative_preview.php?cid=6005164233365\np4737\nsVobject_id\np4738\nV21898300328\np4739\nsVcount_current_adgroups\np4740\nI0\nsVrun_status\np4741\nI1\nsVtype\np4742\nI27\nsVid\np4743\nV6005164233365\np4744\nsa(dp4745\nVname\np4746\nVAd from a Page post #6005166827165\np4747\nsVauto_update\np4748\nI1\nsVstory_id\np4749\nI306699336079522\nsVcreative_id\np4750\nV6005166827165\np4751\nsVpreview_url\np4752\nVhttp://www.facebook.com/ads/api/creative_preview.php?cid=6005166827165\np4753\nsVobject_id\np4754\nV21898300328\np4755\nsVcount_current_adgroups\np4756\nI0\nsVrun_status\np4757\nI1\nsVtype\np4758\nI27\nsVid\np4759\nV6005166827165\np4760\nsa(dp4761\nVname\np4762\nVAd from a Page post #6005167006365\np4763\nsVauto_update\np4764\nI1\nsVstory_id\np4765\nV10150976030460329\np4766\nsVcreative_id\np4767\nV6005167006365\np4768\nsVpreview_url\np4769\nVhttp://www.facebook.com/ads/api/creative_preview.php?cid=6005167006365\np4770\nsVobject_id\np4771\nV21898300328\np4772\nsVcount_current_adgroups\np4773\nI0\nsVrun_status\np4774\nI1\nsVtype\np4775\nI27\nsVid\np4776\nV6005167006365\np4777\nsa(dp4778\nVname\np4779\nVAd from a Page post #6005167097965\np4780\nsVauto_update\np4781\nI1\nsVstory_id\np4782\nV10150976276035329\np4783\nsVcreative_id\np4784\nV6005167097965\np4785\nsVpreview_url\np4786\nVhttp://www.facebook.com/ads/api/creative_preview.php?cid=6005167097965\np4787\nsVobject_id\np4788\nV21898300328\np4789\nsVcount_current_adgroups\np4790\nI0\nsVrun_status\np4791\nI1\nsVtype\np4792\nI27\nsVid\np4793\nV6005167097965\np4794\nsa(dp4795\nVname\np4796\nVAd from a Page post #6005167359765\np4797\nsVauto_update\np4798\nI1\nsVstory_id\np4799\nI228987423878641\nsVcreative_id\np4800\nV6005167359765\np4801\nsVpreview_url\np4802\nVhttp://www.facebook.com/ads/api/creative_preview.php?cid=6005167359765\np4803\nsVobject_id\np4804\nV21898300328\np4805\nsVcount_current_adgroups\np4806\nI0\nsVrun_status\np4807\nI1\nsVtype\np4808\nI27\nsVid\np4809\nV6005167359765\np4810\nsa(dp4811\nVname\np4812\nVAd from a Page post #6005171390565\np4813\nsVauto_update\np4814\nI1\nsVstory_id\np4815\nV10150978377375329\np4816\nsVcreative_id\np4817\nV6005171390565\np4818\nsVpreview_url\np4819\nVhttp://www.facebook.com/ads/api/creative_preview.php?cid=6005171390565\np4820\nsVobject_id\np4821\nV21898300328\np4822\nsVcount_current_adgroups\np4823\nI0\nsVrun_status\np4824\nI1\nsVtype\np4825\nI27\nsVid\np4826\nV6005171390565\np4827\nsa(dp4828\nVname\np4829\nVAd from a Page post #6005173391965\np4830\nsVauto_update\np4831\nI1\nsVstory_id\np4832\nI225626024206884\nsVcreative_id\np4833\nV6005173391965\np4834\nsVpreview_url\np4835\nVhttp://www.facebook.com/ads/api/creative_preview.php?cid=6005173391965\np4836\nsVobject_id\np4837\nV21898300328\np4838\nsVcount_current_adgroups\np4839\nI0\nsVrun_status\np4840\nI1\nsVtype\np4841\nI27\nsVid\np4842\nV6005173391965\np4843\nsa(dp4844\nVname\np4845\nVAd from a Page post #6005173811165\np4846\nsVauto_update\np4847\nI1\nsVstory_id\np4848\nI241715232599955\nsVcreative_id\np4849\nV6005173811165\np4850\nsVpreview_url\np4851\nVhttp://www.facebook.com/ads/api/creative_preview.php?cid=6005173811165\np4852\nsVobject_id\np4853\nV21898300328\np4854\nsVcount_current_adgroups\np4855\nI0\nsVrun_status\np4856\nI1\nsVtype\np4857\nI27\nsVid\np4858\nV6005173811165\np4859\nsa(dp4860\nVname\np4861\nVAd from a Page post #6005174225165\np4862\nsVauto_update\np48'
p6
sS'hash'
p7
S'6b0ea49510370d5e5f2375491a40fdbf6f1aa809'
p8
sS'stack'
p9
S''
s.