(dp1
S'args'
p2
S''
sS'methodname'
p3
S''
sS'packet_num'
p4
I32
sS'returnval'
p5
S'\nVhttp://www.facebook.com/ads/api/creative_preview.php?cid=6005250541165\np5364\nsVobject_id\np5365\nV21898300328\np5366\nsVcount_current_adgroups\np5367\nI0\nsVrun_status\np5368\nI1\nsVtype\np5369\nI27\nsVid\np5370\nV6005250541165\np5371\nsa(dp5372\nVname\np5373\nVAd from a Page post #6005251242365\np5374\nsVauto_update\np5375\nI1\nsVstory_id\np5376\nI183666315093035\nsVcreative_id\np5377\nV6005251242365\np5378\nsVpreview_url\np5379\nVhttp://www.facebook.com/ads/api/creative_preview.php?cid=6005251242365\np5380\nsVobject_id\np5381\nV21898300328\np5382\nsVcount_current_adgroups\np5383\nI0\nsVrun_status\np5384\nI1\nsVtype\np5385\nI27\nsVid\np5386\nV6005251242365\np5387\nsa(dp5388\nVname\np5389\nVAd from a Page post #6005254606565\np5390\nsVauto_update\np5391\nI1\nsVstory_id\np5392\nI245214908918643\nsVcreative_id\np5393\nV6005254606565\np5394\nsVpreview_url\np5395\nVhttp://www.facebook.com/ads/api/creative_preview.php?cid=6005254606565\np5396\nsVobject_id\np5397\nV21898300328\np5398\nsVcount_current_adgroups\np5399\nI0\nsVrun_status\np5400\nI1\nsVtype\np5401\nI27\nsVid\np5402\nV6005254606565\np5403\nsa(dp5404\nVname\np5405\nVAd from a Page post #6005255316965\np5406\nsVauto_update\np5407\nI1\nsVstory_id\np5408\nV10151013904820329\np5409\nsVcreative_id\np5410\nV6005255316965\np5411\nsVpreview_url\np5412\nVhttp://www.facebook.com/ads/api/creative_preview.php?cid=6005255316965\np5413\nsVobject_id\np5414\nV21898300328\np5415\nsVcount_current_adgroups\np5416\nI0\nsVrun_status\np5417\nI1\nsVtype\np5418\nI27\nsVid\np5419\nV6005255316965\np5420\nsa(dp5421\nVname\np5422\nVAd from a Page post #6005255977165\np5423\nsVauto_update\np5424\nI1\nsVstory_id\np5425\nV10151014206300329\np5426\nsVcreative_id\np5427\nV6005255977165\np5428\nsVpreview_url\np5429\nVhttp://www.facebook.com/ads/api/creative_preview.php?cid=6005255977165\np5430\nsVobject_id\np5431\nV21898300328\np5432\nsVcount_current_adgroups\np5433\nI0\nsVrun_status\np5434\nI1\nsVtype\np5435\nI27\nsVid\np5436\nV6005255977165\np5437\nsa(dp5438\nVname\np5439\nVAd from a Page post #6005264140765\np5440\nsVauto_update\np5441\nI1\nsVstory_id\np5442\nV10151021127180329\np5443\nsVcreative_id\np5444\nV6005264140765\np5445\nsVpreview_url\np5446\nVhttp://www.facebook.com/ads/api/creative_preview.php?cid=6005264140765\np5447\nsVobject_id\np5448\nV21898300328\np5449\nsVcount_current_adgroups\np5450\nI0\nsVrun_status\np5451\nI1\nsVtype\np5452\nI27\nsVid\np5453\nV6005264140765\np5454\nsa(dp5455\nVname\np5456\nVAd from a Page post #6005264550165\np5457\nsVauto_update\np5458\nI1\nsVstory_id\np5459\nV10151021444740329\np5460\nsVcreative_id\np5461\nV6005264550165\np5462\nsVpreview_url\np5463\nVhttp://www.facebook.com/ads/api/creative_preview.php?cid=6005264550165\np5464\nsVobject_id\np5465\nV21898300328\np5466\nsVcount_current_adgroups\np5467\nI0\nsVrun_status\np5468\nI1\nsVtype\np5469\nI27\nsVid\np5470\nV6005264550165\np5471\nsa(dp5472\nVname\np5473\nVAd from a Page post #6005264861565\np5474\nsVauto_update\np5475\nI1\nsVstory_id\np5476\nI139744536161861\nsVcreative_id\np5477\nV6005264861565\np5478\nsVpreview_url\np5479\nVhttp://www.facebook.com/ads/api/creative_preview.php?cid=6005264861565\np5480\nsVobject_id\np5481\nV21898300328\np5482\nsVcount_current_adgroups\np5483\nI0\nsVrun_status\np5484\nI1\nsVtype\np5485\nI27\nsVid\np5486\nV6005264861565\np5487\nsa(dp5488\nVname\np5489\nVAd from a Page post #6005265594565\np5490\nsVauto_update\np5491\nI1\nsVstory_id\np5492\nV10151022191235329\np5493\nsVcreative_id\np5494\nV6005265594565\np5495\nsVpreview_url\np5496\nVhttp://www.facebook.com/ads/api/creative_preview.php?cid=6005265594565\np5497\nsVobject_id\np5498\nV21898300328\np5499\nsVcount_current_adgroups\np5500\nI0\nsVrun_status\np5501\nI1\nsVtype\np5502\nI27\nsVid\np5503\nV6005265594565\np5504\nsa(dp5505\nVname\np5506\nVAd from a Page post #6005269425165\np5507\nsVauto_update\np5508\nI1\nsVstory_id\np5509\nI247043682070815\nsVcreative_id\np5510\nV6005269425165\np5511\nsVpreview_url\np5512\nVhttp://www.facebook.com/ads/api/creative_preview.php?cid=6005269425165\np5513\nsVobject_id\np5514\nV21898300328\np5515\nsVcount_current_adgroups\np5516\nI0\nsVrun_status\np5517\nI1\nsVtype\np5518\nI27\nsVid\np5519\nV6005269425165\np5520\nsa(dp5521\nVname\np5522\nVAd from a Page post #6005271171565\np5523\nsVauto_update\np5524\nI1\nsVstory_id\np5525\nV10151024741280329\np5526\nsVcreative_id\np5527\nV6005271171565\np5528\nsVpreview_url\np5529\nVhttp://www.facebook.com/ad'
p6
sS'hash'
p7
S'6b0ea49510370d5e5f2375491a40fdbf6f1aa809'
p8
sS'stack'
p9
S''
s.