(dp1
S'args'
p2
S''
sS'methodname'
p3
S''
sS'packet_num'
p4
I9
sS'returnval'
p5
S'd\np1537\nV6004863201365\np1538\nsVpreview_url\np1539\nVhttp://www.facebook.com/ads/api/creative_preview.php?cid=6004863201365\np1540\nsVobject_id\np1541\nV21898300328\np1542\nsVcount_current_adgroups\np1543\nI0\nsVrun_status\np1544\nI1\nsVtype\np1545\nI27\nsVid\np1546\nV6004863201365\np1547\nsa(dp1548\nVname\np1549\nVAd from a Page post #6004863415765\np1550\nsVauto_update\np1551\nI1\nsVstory_id\np1552\nI190608001042786\nsVcreative_id\np1553\nV6004863415765\np1554\nsVpreview_url\np1555\nVhttp://www.facebook.com/ads/api/creative_preview.php?cid=6004863415765\np1556\nsVobject_id\np1557\nV21898300328\np1558\nsVcount_current_adgroups\np1559\nI0\nsVrun_status\np1560\nI1\nsVtype\np1561\nI27\nsVid\np1562\nV6004863415765\np1563\nsa(dp1564\nVname\np1565\nVAd from a Page post #6004863479565\np1566\nsVauto_update\np1567\nI1\nsVstory_id\np1568\nI189802311123332\nsVcreative_id\np1569\nV6004863479565\np1570\nsVpreview_url\np1571\nVhttp://www.facebook.com/ads/api/creative_preview.php?cid=6004863479565\np1572\nsVobject_id\np1573\nV21898300328\np1574\nsVcount_current_adgroups\np1575\nI0\nsVrun_status\np1576\nI1\nsVtype\np1577\nI27\nsVid\np1578\nV6004863479565\np1579\nsa(dp1580\nVname\np1581\nVAd from a Page post #6004866313165\np1582\nsVauto_update\np1583\nI1\nsVstory_id\np1584\nI339948619391474\nsVcreative_id\np1585\nV6004866313165\np1586\nsVpreview_url\np1587\nVhttp://www.facebook.com/ads/api/creative_preview.php?cid=6004866313165\np1588\nsVobject_id\np1589\nV21898300328\np1590\nsVcount_current_adgroups\np1591\nI0\nsVrun_status\np1592\nI1\nsVtype\np1593\nI27\nsVid\np1594\nV6004866313165\np1595\nsa(dp1596\nVname\np1597\nVAd from a Page post #6004866556365\np1598\nsVauto_update\np1599\nI1\nsVstory_id\np1600\nI387632131265135\nsVcreative_id\np1601\nV6004866556365\np1602\nsVpreview_url\np1603\nVhttp://www.facebook.com/ads/api/creative_preview.php?cid=6004866556365\np1604\nsVobject_id\np1605\nV21898300328\np1606\nsVcount_current_adgroups\np1607\nI0\nsVrun_status\np1608\nI1\nsVtype\np1609\nI27\nsVid\np1610\nV6004866556365\np1611\nsa(dp1612\nVname\np1613\nVAd from a Page post #6004868608165\np1614\nsVauto_update\np1615\nI1\nsVstory_id\np1616\nV10150735808205329\np1617\nsVcreative_id\np1618\nV6004868608165\np1619\nsVpreview_url\np1620\nVhttp://www.facebook.com/ads/api/creative_preview.php?cid=6004868608165\np1621\nsVobject_id\np1622\nV21898300328\np1623\nsVcount_current_adgroups\np1624\nI0\nsVrun_status\np1625\nI1\nsVtype\np1626\nI27\nsVid\np1627\nV6004868608165\np1628\nsa(dp1629\nVname\np1630\nVAd from a Page post #6004868875565\np1631\nsVauto_update\np1632\nI1\nsVstory_id\np1633\nI321309124584550\nsVcreative_id\np1634\nV6004868875565\np1635\nsVpreview_url\np1636\nVhttp://www.facebook.com/ads/api/creative_preview.php?cid=6004868875565\np1637\nsVobject_id\np1638\nV21898300328\np1639\nsVcount_current_adgroups\np1640\nI0\nsVrun_status\np1641\nI1\nsVtype\np1642\nI27\nsVid\np1643\nV6004868875565\np1644\nsa(dp1645\nVname\np1646\nVAd from a Page post #6004868972765\np1647\nsVauto_update\np1648\nI1\nsVstory_id\np1649\nI324908920900806\nsVcreative_id\np1650\nV6004868972765\np1651\nsVpreview_url\np1652\nVhttp://www.facebook.com/ads/api/creative_preview.php?cid=6004868972765\np1653\nsVobject_id\np1654\nV21898300328\np1655\nsVcount_current_adgroups\np1656\nI0\nsVrun_status\np1657\nI1\nsVtype\np1658\nI27\nsVid\np1659\nV6004868972765\np1660\nsa(dp1661\nVname\np1662\nVAd from a Page post #6004870620165\np1663\nsVauto_update\np1664\nI1\nsVstory_id\np1665\nI403560206324341\nsVcreative_id\np1666\nV6004870620165\np1667\nsVpreview_url\np1668\nVhttp://www.facebook.com/ads/api/creative_preview.php?cid=6004870620165\np1669\nsVobject_id\np1670\nV21898300328\np1671\nsVcount_current_adgroups\np1672\nI0\nsVrun_status\np1673\nI1\nsVtype\np1674\nI27\nsVid\np1675\nV6004870620165\np1676\nsa(dp1677\nVname\np1678\nVAd from a Page post #6004870748165\np1679\nsVauto_update\np1680\nI1\nsVstory_id\np1681\nI248824581873781\nsVcreative_id\np1682\nV6004870748165\np1683\nsVpreview_url\np1684\nVhttp://www.facebook.com/ads/api/creative_preview.php?cid=6004870748165\np1685\nsVobject_id\np1686\nV21898300328\np1687\nsVcount_current_adgroups\np1688\nI0\nsVrun_status\np1689\nI1\nsVtype\np1690\nI27\nsVid\np1691\nV6004870748165\np1692\nsa(dp1693\nVname\np1694\nVAd from a Page post #6004872987165\np1695\nsVauto_update\np1696\nI1\nsVstory_id\np1697\nI129025413892345\nsVcreative_id\np1698\nV6004872987165\np1699\nsVpreview_url\np1700\nVhttp://www.faceboo'
p6
sS'hash'
p7
S'6b0ea49510370d5e5f2375491a40fdbf6f1aa809'
p8
sS'stack'
p9
S''
s.