(dp1
S'args'
p2
S''
sS'methodname'
p3
S''
sS'packet_num'
p4
I16
sS'returnval'
p5
S'65\np2701\nsa(dp2702\nVname\np2703\nVAd from a Page post #6004941602765\np2704\nsVauto_update\np2705\nI1\nsVstory_id\np2706\nV10150779675765329\np2707\nsVcreative_id\np2708\nV6004941602765\np2709\nsVpreview_url\np2710\nVhttp://www.facebook.com/ads/api/creative_preview.php?cid=6004941602765\np2711\nsVobject_id\np2712\nV21898300328\np2713\nsVcount_current_adgroups\np2714\nI0\nsVrun_status\np2715\nI1\nsVtype\np2716\nI27\nsVid\np2717\nV6004941602765\np2718\nsa(dp2719\nVname\np2720\nVAd from a Page post #6004944319165\np2721\nsVauto_update\np2722\nI1\nsVstory_id\np2723\nV10150780919860329\np2724\nsVcreative_id\np2725\nV6004944319165\np2726\nsVpreview_url\np2727\nVhttp://www.facebook.com/ads/api/creative_preview.php?cid=6004944319165\np2728\nsVobject_id\np2729\nV21898300328\np2730\nsVcount_current_adgroups\np2731\nI0\nsVrun_status\np2732\nI1\nsVtype\np2733\nI27\nsVid\np2734\nV6004944319165\np2735\nsa(dp2736\nVname\np2737\nVAd from a Page post #6004945536765\np2738\nsVauto_update\np2739\nI1\nsVstory_id\np2740\nI316646911734072\nsVcreative_id\np2741\nV6004945536765\np2742\nsVpreview_url\np2743\nVhttp://www.facebook.com/ads/api/creative_preview.php?cid=6004945536765\np2744\nsVobject_id\np2745\nV21898300328\np2746\nsVcount_current_adgroups\np2747\nI0\nsVrun_status\np2748\nI1\nsVtype\np2749\nI27\nsVid\np2750\nV6004945536765\np2751\nsa(dp2752\nVname\np2753\nVAd from a Page post #6004945644165\np2754\nsVauto_update\np2755\nI1\nsVstory_id\np2756\nV10150781525625329\np2757\nsVcreative_id\np2758\nV6004945644165\np2759\nsVpreview_url\np2760\nVhttp://www.facebook.com/ads/api/creative_preview.php?cid=6004945644165\np2761\nsVobject_id\np2762\nV21898300328\np2763\nsVcount_current_adgroups\np2764\nI0\nsVrun_status\np2765\nI1\nsVtype\np2766\nI27\nsVid\np2767\nV6004945644165\np2768\nsa(dp2769\nVname\np2770\nVAd from a Page post #6004946504965\np2771\nsVauto_update\np2772\nI1\nsVstory_id\np2773\nI332210393507492\nsVcreative_id\np2774\nV6004946504965\np2775\nsVpreview_url\np2776\nVhttp://www.facebook.com/ads/api/creative_preview.php?cid=6004946504965\np2777\nsVobject_id\np2778\nV21898300328\np2779\nsVcount_current_adgroups\np2780\nI0\nsVrun_status\np2781\nI1\nsVtype\np2782\nI27\nsVid\np2783\nV6004946504965\np2784\nsa(dp2785\nVname\np2786\nVAd from a Page post #6004947929165\np2787\nsVauto_update\np2788\nI1\nsVstory_id\np2789\nI272757286143184\nsVcreative_id\np2790\nV6004947929165\np2791\nsVpreview_url\np2792\nVhttp://www.facebook.com/ads/api/creative_preview.php?cid=6004947929165\np2793\nsVobject_id\np2794\nV21898300328\np2795\nsVcount_current_adgroups\np2796\nI0\nsVrun_status\np2797\nI1\nsVtype\np2798\nI27\nsVid\np2799\nV6004947929165\np2800\nsa(dp2801\nVname\np2802\nVAd from a Page post #6004949265765\np2803\nsVauto_update\np2804\nI1\nsVstory_id\np2805\nI299583856779693\nsVcreative_id\np2806\nV6004949265765\np2807\nsVpreview_url\np2808\nVhttp://www.facebook.com/ads/api/creative_preview.php?cid=6004949265765\np2809\nsVobject_id\np2810\nV21898300328\np2811\nsVcount_current_adgroups\np2812\nI0\nsVrun_status\np2813\nI1\nsVtype\np2814\nI27\nsVid\np2815\nV6004949265765\np2816\nsa(dp2817\nVname\np2818\nVAd from a Page post #6004949378565\np2819\nsVauto_update\np2820\nI1\nsVstory_id\np2821\nI214987495267892\nsVcreative_id\np2822\nV6004949378565\np2823\nsVpreview_url\np2824\nVhttp://www.facebook.com/ads/api/creative_preview.php?cid=6004949378565\np2825\nsVobject_id\np2826\nV21898300328\np2827\nsVcount_current_adgroups\np2828\nI0\nsVrun_status\np2829\nI1\nsVtype\np2830\nI27\nsVid\np2831\nV6004949378565\np2832\nsa(dp2833\nVname\np2834\nVAd from a Page post #6004949806165\np2835\nsVauto_update\np2836\nI1\nsVstory_id\np2837\nV10150787831320329\np2838\nsVcreative_id\np2839\nV6004949806165\np2840\nsVpreview_url\np2841\nVhttp://www.facebook.com/ads/api/creative_preview.php?cid=6004949806165\np2842\nsVobject_id\np2843\nV21898300328\np2844\nsVcount_current_adgroups\np2845\nI0\nsVrun_status\np2846\nI1\nsVtype\np2847\nI27\nsVid\np2848\nV6004949806165\np2849\nsa(dp2850\nVname\np2851\nVAd from a Page post #6004951046165\np2852\nsVauto_update\np2853\nI1\nsVstory_id\np2854\nI381684958529975\nsVcreative_id\np2855\nV6004951046165\np2856\nsVpreview_url\np2857\nVhttp://www.facebook.com/ads/api/creative_preview.php?cid=6004951046165\np2858\nsVobject_id\np2859\nV21898300328\np2860\nsVcount_current_adgroups\np2861\nI0\nsVrun_status\np2862\nI1\nsVtype\np2863\nI27\nsVid\np2864\nV6004951046165\np2865\nsa(dp2866\nVname\np2867\nVAd from a Pa'
p6
sS'hash'
p7
S'6b0ea49510370d5e5f2375491a40fdbf6f1aa809'
p8
sS'stack'
p9
S''
s.