(dp1
S'args'
p2
S''
sS'methodname'
p3
S''
sS'packet_num'
p4
I11
sS'returnval'
p5
S'\np1864\nsVobject_id\np1865\nV21898300328\np1866\nsVcount_current_adgroups\np1867\nI0\nsVrun_status\np1868\nI1\nsVtype\np1869\nI27\nsVid\np1870\nV6004885705765\np1871\nsa(dp1872\nVname\np1873\nVAd from a Page post #6004885762565\np1874\nsVauto_update\np1875\nI1\nsVstory_id\np1876\nV10150746292885329\np1877\nsVcreative_id\np1878\nV6004885762565\np1879\nsVpreview_url\np1880\nVhttp://www.facebook.com/ads/api/creative_preview.php?cid=6004885762565\np1881\nsVobject_id\np1882\nV21898300328\np1883\nsVcount_current_adgroups\np1884\nI0\nsVrun_status\np1885\nI1\nsVtype\np1886\nI27\nsVid\np1887\nV6004885762565\np1888\nsa(dp1889\nVname\np1890\nVAd from a Page post #6004885961965\np1891\nsVauto_update\np1892\nI1\nsVstory_id\np1893\nV10150746602620329\np1894\nsVcreative_id\np1895\nV6004885961965\np1896\nsVpreview_url\np1897\nVhttp://www.facebook.com/ads/api/creative_preview.php?cid=6004885961965\np1898\nsVobject_id\np1899\nV21898300328\np1900\nsVcount_current_adgroups\np1901\nI0\nsVrun_status\np1902\nI1\nsVtype\np1903\nI27\nsVid\np1904\nV6004885961965\np1905\nsa(dp1906\nVname\np1907\nVAd from a Page post #6004886279565\np1908\nsVauto_update\np1909\nI1\nsVstory_id\np1910\nI350743868297248\nsVcreative_id\np1911\nV6004886279565\np1912\nsVpreview_url\np1913\nVhttp://www.facebook.com/ads/api/creative_preview.php?cid=6004886279565\np1914\nsVobject_id\np1915\nV21898300328\np1916\nsVcount_current_adgroups\np1917\nI0\nsVrun_status\np1918\nI1\nsVtype\np1919\nI27\nsVid\np1920\nV6004886279565\np1921\nsa(dp1922\nVname\np1923\nVAd from a Page post #6004886349565\np1924\nsVauto_update\np1925\nI1\nsVstory_id\np1926\nI379523702066908\nsVcreative_id\np1927\nV6004886349565\np1928\nsVpreview_url\np1929\nVhttp://www.facebook.com/ads/api/creative_preview.php?cid=6004886349565\np1930\nsVobject_id\np1931\nV21898300328\np1932\nsVcount_current_adgroups\np1933\nI0\nsVrun_status\np1934\nI1\nsVtype\np1935\nI27\nsVid\np1936\nV6004886349565\np1937\nsa(dp1938\nVname\np1939\nVAd from a Page post #6004886542965\np1940\nsVauto_update\np1941\nI1\nsVstory_id\np1942\nI392789334067325\nsVcreative_id\np1943\nV6004886542965\np1944\nsVpreview_url\np1945\nVhttp://www.facebook.com/ads/api/creative_preview.php?cid=6004886542965\np1946\nsVobject_id\np1947\nV21898300328\np1948\nsVcount_current_adgroups\np1949\nI0\nsVrun_status\np1950\nI1\nsVtype\np1951\nI27\nsVid\np1952\nV6004886542965\np1953\nsa(dp1954\nVname\np1955\nVAd from a Page post #6004887128365\np1956\nsVauto_update\np1957\nI1\nsVstory_id\np1958\nV10150748107785329\np1959\nsVcreative_id\np1960\nV6004887128365\np1961\nsVpreview_url\np1962\nVhttp://www.facebook.com/ads/api/creative_preview.php?cid=6004887128365\np1963\nsVobject_id\np1964\nV21898300328\np1965\nsVcount_current_adgroups\np1966\nI0\nsVrun_status\np1967\nI1\nsVtype\np1968\nI27\nsVid\np1969\nV6004887128365\np1970\nsa(dp1971\nVname\np1972\nVAd from a Page post #6004887909365\np1973\nsVauto_update\np1974\nI1\nsVstory_id\np1975\nI209221235852512\nsVcreative_id\np1976\nV6004887909365\np1977\nsVpreview_url\np1978\nVhttp://www.facebook.com/ads/api/creative_preview.php?cid=6004887909365\np1979\nsVobject_id\np1980\nV21898300328\np1981\nsVcount_current_adgroups\np1982\nI0\nsVrun_status\np1983\nI1\nsVtype\np1984\nI27\nsVid\np1985\nV6004887909365\np1986\nsa(dp1987\nVname\np1988\nVAd from a Page post #6004887958965\np1989\nsVauto_update\np1990\nI1\nsVstory_id\np1991\nV10150748282325329\np1992\nsVcreative_id\np1993\nV6004887958965\np1994\nsVpreview_url\np1995\nVhttp://www.facebook.com/ads/api/creative_preview.php?cid=6004887958965\np1996\nsVobject_id\np1997\nV21898300328\np1998\nsVcount_current_adgroups\np1999\nI0\nsVrun_status\np2000\nI1\nsVtype\np2001\nI27\nsVid\np2002\nV6004887958965\np2003\nsa(dp2004\nVname\np2005\nVAd from a Page post #6004888563365\np2006\nsVauto_update\np2007\nI1\nsVstory_id\np2008\nV10150748732735329\np2009\nsVcreative_id\np2010\nV6004888563365\np2011\nsVpreview_url\np2012\nVhttp://www.facebook.com/ads/api/creative_preview.php?cid=6004888563365\np2013\nsVobject_id\np2014\nV21898300328\np2015\nsVcount_current_adgroups\np2016\nI0\nsVrun_status\np2017\nI1\nsVtype\np2018\nI27\nsVid\np2019\nV6004888563365\np2020\nsa(dp2021\nVname\np2022\nVAd from a Page post #6004891213765\np2023\nsVauto_update\np2024\nI1\nsVstory_id\np2025\nI408573525836193\nsVcreative_id\np2026\nV6004891213765\np2027\nsVpreview_url\np2028\nVhttp://www.facebook.com/ads/api/creative_preview.php?cid=6004891213765\np2029\nsVobject_id\np2030\nV2189830032'
p6
sS'hash'
p7
S'6b0ea49510370d5e5f2375491a40fdbf6f1aa809'
p8
sS'stack'
p9
S''
s.