(dp1
S'args'
p2
S''
sS'methodname'
p3
S''
sS'packet_num'
p4
I37
sS'returnval'
p5
S'91\nVname\np6192\nVAd from a Page post #6005335238965\np6193\nsVauto_update\np6194\nI1\nsVstory_id\np6195\nI163354547130941\nsVcreative_id\np6196\nV6005335238965\np6197\nsVpreview_url\np6198\nVhttp://www.facebook.com/ads/api/creative_preview.php?cid=6005335238965\np6199\nsVobject_id\np6200\nV21898300328\np6201\nsVcount_current_adgroups\np6202\nI0\nsVrun_status\np6203\nI1\nsVtype\np6204\nI27\nsVid\np6205\nV6005335238965\np6206\nsa(dp6207\nVname\np6208\nVAd from a Page post #6005335875165\np6209\nsVauto_update\np6210\nI1\nsVstory_id\np6211\nI251852248257833\nsVcreative_id\np6212\nV6005335875165\np6213\nsVpreview_url\np6214\nVhttp://www.facebook.com/ads/api/creative_preview.php?cid=6005335875165\np6215\nsVobject_id\np6216\nV21898300328\np6217\nsVcount_current_adgroups\np6218\nI0\nsVrun_status\np6219\nI1\nsVtype\np6220\nI27\nsVid\np6221\nV6005335875165\np6222\nsa(dp6223\nVname\np6224\nVAd from a Page post #6005337280765\np6225\nsVauto_update\np6226\nI1\nsVstory_id\np6227\nI318589878228657\nsVcreative_id\np6228\nV6005337280765\np6229\nsVpreview_url\np6230\nVhttp://www.facebook.com/ads/api/creative_preview.php?cid=6005337280765\np6231\nsVobject_id\np6232\nV21898300328\np6233\nsVcount_current_adgroups\np6234\nI0\nsVrun_status\np6235\nI1\nsVtype\np6236\nI27\nsVid\np6237\nV6005337280765\np6238\nsa(dp6239\nVname\np6240\nVAd from a Page post #6005337686765\np6241\nsVauto_update\np6242\nI1\nsVstory_id\np6243\nV10151057986645329\np6244\nsVcreative_id\np6245\nV6005337686765\np6246\nsVpreview_url\np6247\nVhttp://www.facebook.com/ads/api/creative_preview.php?cid=6005337686765\np6248\nsVobject_id\np6249\nV21898300328\np6250\nsVcount_current_adgroups\np6251\nI0\nsVrun_status\np6252\nI1\nsVtype\np6253\nI27\nsVid\np6254\nV6005337686765\np6255\nsa(dp6256\nVname\np6257\nVAd from a Page post #6005343066565\np6258\nsVauto_update\np6259\nI1\nsVstory_id\np6260\nI352454474827475\nsVcreative_id\np6261\nV6005343066565\np6262\nsVpreview_url\np6263\nVhttp://www.facebook.com/ads/api/creative_preview.php?cid=6005343066565\np6264\nsVobject_id\np6265\nV21898300328\np6266\nsVcount_current_adgroups\np6267\nI0\nsVrun_status\np6268\nI1\nsVtype\np6269\nI27\nsVid\np6270\nV6005343066565\np6271\nsa(dp6272\nVname\np6273\nVAd from a Page post #6005343220565\np6274\nsVauto_update\np6275\nI1\nsVstory_id\np6276\nI439034836118818\nsVcreative_id\np6277\nV6005343220565\np6278\nsVpreview_url\np6279\nVhttp://www.facebook.com/ads/api/creative_preview.php?cid=6005343220565\np6280\nsVobject_id\np6281\nV21898300328\np6282\nsVcount_current_adgroups\np6283\nI0\nsVrun_status\np6284\nI1\nsVtype\np6285\nI27\nsVid\np6286\nV6005343220565\np6287\nsa(dp6288\nVname\np6289\nVAd from a Page post #6005357878165\np6290\nsVauto_update\np6291\nI1\nsVstory_id\np6292\nI408849575832915\nsVcreative_id\np6293\nV6005357878165\np6294\nsVpreview_url\np6295\nVhttp://www.facebook.com/ads/api/creative_preview.php?cid=6005357878165\np6296\nsVobject_id\np6297\nV21898300328\np6298\nsVcount_current_adgroups\np6299\nI0\nsVrun_status\np6300\nI1\nsVtype\np6301\nI27\nsVid\np6302\nV6005357878165\np6303\nsa(dp6304\nVname\np6305\nVAd from a Page post #6005358076165\np6306\nsVauto_update\np6307\nI1\nsVstory_id\np6308\nI415635241809164\nsVcreative_id\np6309\nV6005358076165\np6310\nsVpreview_url\np6311\nVhttp://www.facebook.com/ads/api/creative_preview.php?cid=6005358076165\np6312\nsVobject_id\np6313\nV21898300328\np6314\nsVcount_current_adgroups\np6315\nI0\nsVrun_status\np6316\nI1\nsVtype\np6317\nI27\nsVid\np6318\nV6005358076165\np6319\nsa(dp6320\nVname\np6321\nVAd from a Page post #6005358723565\np6322\nsVauto_update\np6323\nI1\nsVstory_id\np6324\nI333776316702339\nsVcreative_id\np6325\nV6005358723565\np6326\nsVpreview_url\np6327\nVhttp://www.facebook.com/ads/api/creative_preview.php?cid=6005358723565\np6328\nsVobject_id\np6329\nV21898300328\np6330\nsVcount_current_adgroups\np6331\nI0\nsVrun_status\np6332\nI1\nsVtype\np6333\nI27\nsVid\np6334\nV6005358723565\np6335\nsa(dp6336\nVname\np6337\nVAd from a Page post #6005358981565\np6338\nsVauto_update\np6339\nI1\nsVstory_id\np6340\nI258782857561008\nsVcreative_id\np6341\nV6005358981565\np6342\nsVpreview_url\np6343\nVhttp://www.facebook.com/ads/api/creative_preview.php?cid=6005358981565\np6344\nsVobject_id\np6345\nV21898300328\np6346\nsVcount_current_adgroups\np6347\nI0\nsVrun_status\np6348\nI1\nsVtype\np6349\nI27\nsVid\np6350\nV6005358981565\np6351\nsa(dp6352\nVname\np6353\nVAd from a Page post #6005359114365\np6354\nsVauto_upda'
p6
sS'hash'
p7
S'6b0ea49510370d5e5f2375491a40fdbf6f1aa809'
p8
sS'stack'
p9
S''
s.