(dp1
S'args'
p2
S''
sS'methodname'
p3
S''
sS'packet_num'
p4
I38
sS'returnval'
p5
S'te\np6355\nI1\nsVstory_id\np6356\nI239315579519224\nsVcreative_id\np6357\nV6005359114365\np6358\nsVpreview_url\np6359\nVhttp://www.facebook.com/ads/api/creative_preview.php?cid=6005359114365\np6360\nsVobject_id\np6361\nV21898300328\np6362\nsVcount_current_adgroups\np6363\nI0\nsVrun_status\np6364\nI1\nsVtype\np6365\nI27\nsVid\np6366\nV6005359114365\np6367\nsa(dp6368\nVname\np6369\nVAd from a Page post #6005359688165\np6370\nsVauto_update\np6371\nI1\nsVstory_id\np6372\nI305448289550522\nsVcreative_id\np6373\nV6005359688165\np6374\nsVpreview_url\np6375\nVhttp://www.facebook.com/ads/api/creative_preview.php?cid=6005359688165\np6376\nsVobject_id\np6377\nV21898300328\np6378\nsVcount_current_adgroups\np6379\nI0\nsVrun_status\np6380\nI1\nsVtype\np6381\nI27\nsVid\np6382\nV6005359688165\np6383\nsa(dp6384\nVname\np6385\nVAd from a Page post #6005360857565\np6386\nsVauto_update\np6387\nI1\nsVstory_id\np6388\nI149319431858589\nsVcreative_id\np6389\nV6005360857565\np6390\nsVpreview_url\np6391\nVhttp://www.facebook.com/ads/api/creative_preview.php?cid=6005360857565\np6392\nsVobject_id\np6393\nV21898300328\np6394\nsVcount_current_adgroups\np6395\nI0\nsVrun_status\np6396\nI1\nsVtype\np6397\nI27\nsVid\np6398\nV6005360857565\np6399\nsa(dp6400\nVname\np6401\nVAd from a Page post #6005366523165\np6402\nsVauto_update\np6403\nI1\nsVstory_id\np6404\nI196997890426277\nsVcreative_id\np6405\nV6005366523165\np6406\nsVpreview_url\np6407\nVhttp://www.facebook.com/ads/api/creative_preview.php?cid=6005366523165\np6408\nsVobject_id\np6409\nV21898300328\np6410\nsVcount_current_adgroups\np6411\nI0\nsVrun_status\np6412\nI1\nsVtype\np6413\nI27\nsVid\np6414\nV6005366523165\np6415\nsa(dp6416\nVname\np6417\nVAd from a Page post #6005366525365\np6418\nsVauto_update\np6419\nI1\nsVstory_id\np6420\nV10151060813240329\np6421\nsVcreative_id\np6422\nV6005366525365\np6423\nsVpreview_url\np6424\nVhttp://www.facebook.com/ads/api/creative_preview.php?cid=6005366525365\np6425\nsVobject_id\np6426\nV21898300328\np6427\nsVcount_current_adgroups\np6428\nI0\nsVrun_status\np6429\nI1\nsVtype\np6430\nI27\nsVid\np6431\nV6005366525365\np6432\nsa(dp6433\nVname\np6434\nVAd from a Page post #6005367758565\np6435\nsVauto_update\np6436\nI1\nsVstory_id\np6437\nI441988325833666\nsVcreative_id\np6438\nV6005367758565\np6439\nsVpreview_url\np6440\nVhttp://www.facebook.com/ads/api/creative_preview.php?cid=6005367758565\np6441\nsVobject_id\np6442\nV21898300328\np6443\nsVcount_current_adgroups\np6444\nI0\nsVrun_status\np6445\nI1\nsVtype\np6446\nI27\nsVid\np6447\nV6005367758565\np6448\nsa(dp6449\nVname\np6450\nVAd from a Page post #6005367821765\np6451\nsVauto_update\np6452\nI1\nsVstory_id\np6453\nI406321142752671\nsVcreative_id\np6454\nV6005367821765\np6455\nsVpreview_url\np6456\nVhttp://www.facebook.com/ads/api/creative_preview.php?cid=6005367821765\np6457\nsVobject_id\np6458\nV21898300328\np6459\nsVcount_current_adgroups\np6460\nI0\nsVrun_status\np6461\nI1\nsVtype\np6462\nI27\nsVid\np6463\nV6005367821765\np6464\nsa(dp6465\nVname\np6466\nVAd from a Page post #6005368158765\np6467\nsVauto_update\np6468\nI1\nsVstory_id\np6469\nI409549092429253\nsVcreative_id\np6470\nV6005368158765\np6471\nsVpreview_url\np6472\nVhttp://www.facebook.com/ads/api/creative_preview.php?cid=6005368158765\np6473\nsVobject_id\np6474\nV21898300328\np6475\nsVcount_current_adgroups\np6476\nI0\nsVrun_status\np6477\nI1\nsVtype\np6478\nI27\nsVid\np6479\nV6005368158765\np6480\nsa(dp6481\nVname\np6482\nVAd from a Page post #6005368575165\np6483\nsVauto_update\np6484\nI1\nsVstory_id\np6485\nI249832961795686\nsVcreative_id\np6486\nV6005368575165\np6487\nsVpreview_url\np6488\nVhttp://www.facebook.com/ads/api/creative_preview.php?cid=6005368575165\np6489\nsVobject_id\np6490\nV21898300328\np6491\nsVcount_current_adgroups\np6492\nI0\nsVrun_status\np6493\nI1\nsVtype\np6494\nI27\nsVid\np6495\nV6005368575165\np6496\nsa(dp6497\nVname\np6498\nVAd from a Page post #6005369603965\np6499\nsVauto_update\np6500\nI1\nsVstory_id\np6501\nV10151064942190329\np6502\nsVcreative_id\np6503\nV6005369603965\np6504\nsVpreview_url\np6505\nVhttp://www.facebook.com/ads/api/creative_preview.php?cid=6005369603965\np6506\nsVobject_id\np6507\nV21898300328\np6508\nsVcount_current_adgroups\np6509\nI0\nsVrun_status\np6510\nI1\nsVtype\np6511\nI27\nsVid\np6512\nV6005369603965\np6513\nsa(dp6514\nVname\np6515\nVAd from a Page post #6005370768165\np6516\nsVauto_update\np6517\nI1\nsVstory_id\np6518\nI166723463460703\nsVcreative_id\n'
p6
sS'hash'
p7
S'6b0ea49510370d5e5f2375491a40fdbf6f1aa809'
p8
sS'stack'
p9
S''
s.