(dp1
S'args'
p2
S''
sS'methodname'
p3
S''
sS'packet_num'
p4
I6
sS'returnval'
p5
S'ns\np1193\nI0\nsVquestion_vote\np1194\nI0\nssVsocial_impressions\np1195\nV0\np1196\nsVadgroup_id\np1197\nI6007306484165\nsVsocial_unique_impressions\np1198\nI0\nsVsocial_spent\np1199\nV0\np1200\nsVimpressions\np1201\nV470903\np1202\nsVnewsfeed_position\np1203\n(dp1204\nVnewsfeed_clicks\np1205\nV0\np1206\nsVnewsfeed_impressions\np1207\nV0\np1208\nsVnewsfeed_average_position\np1209\nI0\nssVid\np1210\nV6007306484165/stats/1353909600/1356588000\np1211\nsVunique_clicks\np1212\nI0\nsVend_time\np1213\nV2012-12-27T06:00:00+0000\np1214\nsa(dp1215\nVcampaign_id\np1216\nI6007306482965\nsVsocial_unique_clicks\np1217\nI0\nsVunique_impressions\np1218\nI0\nsVstart_time\np1219\nV2012-11-26T06:00:00+0000\np1220\nsVspent\np1221\nV13203\np1222\nsVactions\np1223\nNsVclicks\np1224\nV1540\np1225\nsVconnections\np1226\nI0\nsVsocial_clicks\np1227\nV0\np1228\nsVevents\np1229\n(dp1230\nVvideo_play\np1231\nI0\nsVtitle_clicks\np1232\nI0\nsVinline_like\np1233\nI0\nsVinline_comment\np1234\nI0\nsVrsvp_maybe\np1235\nI0\nsVlink_open\np1236\nI0\nsVphoto_view\np1237\nI0\nsVrsvp_yes\np1238\nI0\nsVfans\np1239\nI0\nsVquestion_vote\np1240\nI0\nssVsocial_impressions\np1241\nV0\np1242\nsVadgroup_id\np1243\nI6007306524365\nsVsocial_unique_impressions\np1244\nI0\nsVsocial_spent\np1245\nV0\np1246\nsVimpressions\np1247\nV496511\np1248\nsVnewsfeed_position\np1249\n(dp1250\nVnewsfeed_clicks\np1251\nV0\np1252\nsVnewsfeed_impressions\np1253\nV0\np1254\nsVnewsfeed_average_position\np1255\nI0\nssVid\np1256\nV6007306524365/stats/1353909600/1356588000\np1257\nsVunique_clicks\np1258\nI0\nsVend_time\np1259\nV2012-12-27T06:00:00+0000\np1260\nsa(dp1261\nVcampaign_id\np1262\nI6007308443165\nsVsocial_unique_clicks\np1263\nI0\nsVunique_impressions\np1264\nI0\nsVstart_time\np1265\nV2012-11-26T06:00:00+0000\np1266\nsVspent\np1267\nV9079\np1268\nsVactions\np1269\nNsVclicks\np1270\nV129\np1271\nsVconnections\np1272\nI0\nsVsocial_clicks\np1273\nV0\np1274\nsVevents\np1275\n(dp1276\nVvideo_play\np1277\nI0\nsVtitle_clicks\np1278\nI0\nsVinline_like\np1279\nI0\nsVinline_comment\np1280\nI0\nsVrsvp_maybe\np1281\nI0\nsVlink_open\np1282\nI0\nsVphoto_view\np1283\nI0\nsVrsvp_yes\np1284\nI0\nsVfans\np1285\nI0\nsVquestion_vote\np1286\nI0\nssVsocial_impressions\np1287\nV0\np1288\nsVadgroup_id\np1289\nI6007308444165\nsVsocial_unique_impressions\np1290\nI0\nsVsocial_spent\np1291\nV0\np1292\nsVimpressions\np1293\nV486178\np1294\nsVnewsfeed_position\np1295\n(dp1296\nVnewsfeed_clicks\np1297\nV0\np1298\nsVnewsfeed_impressions\np1299\nV0\np1300\nsVnewsfeed_average_position\np1301\nI0\nssVid\np1302\nV6007308444165/stats/1353909600/1356588000\np1303\nsVunique_clicks\np1304\nI0\nsVend_time\np1305\nV2012-12-27T06:00:00+0000\np1306\nsas.'
p6
sS'hash'
p7
S'72a441095b11ceb8de043dbcf1eaa6099438b3c8'
p8
sS'stack'
p9
S'__json_response /home/orozco/development/django/buzzfeed/local/lib/python2.7/site-packages/caliendo/facade.py cache /home/orozco/development/django/buzzfeed/pyfacebook/pyfacebook/__init__.py get /home/orozco/development/django/buzzfeed/pyfacebook/pyfacebook/__init__.py get_all /home/orozco/development/django/buzzfeed/pyfacebook/pyfacebook/api/adstatistic.py find_by_start_time_end_time /home/orozco/development/django/buzzfeed/pyfacebook/test/adstatistic_test.py test_find_by_start_time_end_time /home/orozco/development/django/buzzfeed/local/lib/python2.7/site-packages/nose/case.py runTest /usr/lib/python2.7/unittest/case.py run /usr/lib/python2.7/unittest/case.py __call__ /home/orozco/development/django/buzzfeed/local/lib/python2.7/site-packages/nose/case.py runTest /home/orozco/development/django/buzzfeed/local/lib/python2.7/site-packages/nose/case.py run /home/orozco/development/django/buzzfeed/local/lib/python2.7/site-packages/nose/case.py __call__ /home/orozco/development/django/buzzfeed/local/lib/python2.7/site-packages/nose/suite.py run /home/orozco/development/django/buzzfeed/local/lib/python2.7/site-packages/nose/suite.py __call__ /home/orozco/development/django/buzzfeed/local/lib/python2.7/site-packages/nose/suite.py run /home/orozco/development/django/buzzfeed/local/lib/python2.7/site-packages/nose/suite.py __call__ /home/orozco/development/django/buzzfeed/local/lib/python2.7/site-packages/nose/suite.py run /home/orozco/development/django/buzzfeed/local/lib/python2.7/site-packages/nose/suite.py __call__ /home/orozco/development/django/buzzfeed/local/lib/python2.7/site-packages/nose/suite.py run /home/orozco/development/django/b'
p10
s.