(dp1
S'args'
p2
S'(t.'
p3
sS'methodname'
p4
S'__json_response'
p5
sS'packet_num'
p6
I0
sS'returnval'
p7
S'(dp0\nVcount\np1\nI15\nsVinclude_deleted\np2\nI01\nsVpaging\np3\n(dp4\nVnext\np5\nVhttps://graph.facebook.com/act_106929496119713/adgroups?access_token=AAAAACn63CWkBAMqpbBAZCzY9ZAxUwkgZCUeUFd0WWNyXRuxBY2JJahcZBMBO0q2D8Hyp5OZAMKZCFcbZBMWBZClqLQFENvjildZCZCVCSD3vTlfAZDZD&include_deleted=true&offset=500\np6\nssVlimit\np7\nI500\nsVoffset\np8\nI0\nsVdata\np9\n(lp10\n(dp11\nVconversion_specs\np12\n(lp13\nsVupdated_time\np14\nV2012-09-06T18:00:46+0000\np15\nsVbid_type\np16\nI1\nsVname\np17\nVTest - 11\np18\nsVtracking_pixel_ids\np19\n(lp20\nsVtargeting\np21\n(dp22\nVkeywords\np23\n(lp24\nV#Google\np25\nasVage_max\np26\nI65\nsVcountries\np27\n(lp28\nVUS\np29\nasVbroad_age\np30\nI1\nsVage_min\np31\nI18\nssVbid_info\np32\n(dp33\nV1\np34\nV150\np35\nssVstart_time\np36\nNsVad_status\np37\nI2\nsVcampaign_id\np38\nI6006011670551\nsVlocations\np39\n(lp40\nI3\nasVcreated_time\np41\nV2012-09-06T17:46:37+0000\np42\nsVend_time\np43\nNsVadgroup_status\np44\nI8\nsVid\np45\nV6006011741951\np46\nsVad_id\np47\nI6006011741951\nsVimpression_control_map\np48\n(lp49\n(dp50\nVcontrol\np51\n(dp52\nVuser_impression_limit_period\np53\nI24\nsVuser_impression_limit\np54\nI6\nsVuser_impression_limit_period_unit\np55\nI0\nsVimpression_control_type\np56\nI2\nssVlocation\np57\nI3\nsasVcreative_ids\np58\n(lp59\nI6006011741151\nasVmax_bid\np60\nV150\np61\nsVadgroup_id\np62\nI6006011741951\nsVaccount_id\np63\nI106929496119713\nsa(dp64\nVconversion_specs\np65\n(lp66\nsVupdated_time\np67\nV2012-09-06T18:10:33+0000\np68\nsVbid_type\np69\nI1\nsVname\np70\nVTest - 1\np71\nsVtracking_pixel_ids\np72\n(lp73\nsVtargeting\np74\n(dp75\nVkeywords\np76\n(lp77\nV#Google\np78\nasVage_max\np79\nI65\nsVcountries\np80\n(lp81\nVUS\np82\nasVbroad_age\np83\nI1\nsVage_min\np84\nI18\nssVbid_info\np85\n(dp86\nV1\np87\nV150\np88\nssVstart_time\np89\nNsVad_status\np90\nI2\nsVcampaign_id\np91\nI6006011670551\nsVlocations\np92\n(lp93\nI3\nasVcreated_time\np94\nV2012-09-06T17:46:37+0000\np95\nsVend_time\np96\nNsVadgroup_status\np97\nI8\nsVid\np98\nV6006011742151\np99\nsVad_id\np100\nI6006011742151\nsVimpression_control_map\np101\n(lp102\n(dp103\nVcontrol\np104\n(dp105\nVuser_impression_limit_period\np106\nI24\nsVuser_impression_limit\np107\nI6\nsVuser_impression_limit_period_unit\np108\nI0\nsVimpression_control_type\np109\nI2\nssVlocation\np110\nI3\nsasVcreative_ids\np111\n(lp112\nI6006011740951\nasVmax_bid\np113\nV150\np114\nsVadgroup_id\np115\nI6006011742151\nsVaccount_id\np116\nI106929496119713\nsa(dp117\nVconversion_specs\np118\n(lp119\nsVupdated_time\np120\nV2012-09-06T18:10:33+0000\np121\nsVbid_type\np122\nI1\nsVname\np123\nVTest - 5\np124\nsVtracking_pixel_ids\np125\n(lp126\nsVtargeting\np127\n(dp128\nVkeywords\np129\n(lp130\nV#Google\np131\nasVage_max\np132\nI65\nsVcountries\np133\n(lp134\nVUS\np135\nasVbroad_age\np136\nI1\nsVage_min\np137\nI18\nssVbid_info\np138\n(dp139\nV1\np140\nV150\np141\nssVstart_time\np142\nNsVad_status\np143\nI2\nsVcampaign_id\np144\nI6006011670551\nsVlocations\np145\n(lp146\nI3\nasVcreated_time\np147\nV2012-09-06T17:46:37+0000\np148\nsVend_time\np149\nNsVadgroup_status\np150\nI8\nsVid\np151\nV6006011743751\np152\nsVad_id\np153\nI6006011743751\nsVimpression_control_map\np154\n(lp155\n(dp156\nVcontrol\np157\n(dp158\nVuser_impression_limit_period\np159\nI24\nsVuser_impression_limit\np160\nI6\nsVuser_impression_limit_period_unit\np161\nI0\nsVimpression_control_type\np162\nI2\nssVlocation\np163\nI3\nsasVcreative_ids\np164\n(lp165\nI6006011741351\nasVmax_bid\np166\nV150\np167\nsVadgroup_id\np168\nI6006011743751\nsVaccount_id\np169\nI106929496119713\nsa(dp170\nVconversion_specs\np171\n(lp172\nsVupdated_time\np173\nV2012-09-06T18:00:27+0000\np174\nsVbid_type\np175\nI1\nsVname\np176\nVTest - 12\np177\nsVtracking_pixel_ids\np178\n(lp179\nsVtargeting\np180\n(dp181\nVkeywords\np182\n(lp183\nV#Google\np184\nasVage_max\np185\nI65\nsVcountries\np186\n(lp187\nVUS\np188\nasVbroad_age\np189\nI1\nsVage_min\np190\nI18\nssVbid_info\np191\n(dp192\nV1\np193\nV150\np194\nssVstart_time\np195\nNsVad_status\np196\nI2\nsVcampaign_id\np197\nI6006011670551\nsVlocations\np198\n(lp199\nI3\nasVcreated_time\np200\nV2012-09-06T17:46:37+0000\np201\nsVend_time\np202\nNsVadgroup_status\np203\nI8\nsVid\np204\nV6006011744951\np205\nsVad_id\np206\nI6006011744951\nsVimpression_control_map\np207\n(lp208\n(dp209\nVcontrol\np210\n(dp211\nVuser_impression_limit_period\np212\nI24\nsVuser_impression_limit\np213\nI6\nsVuser_impression_limit_period_unit\np214\nI0\nsVimpression_control_type\np215\nI2\nssVlocation\np216\nI3\nsasVcrea'
p8
sS'hash'
p9
S'74c9d113f7bad337a9508937a84f62470d99f515'
p10
sS'stack'
p11
S''
s.