(dp1
S'args'
p2
S''
sS'methodname'
p3
S''
sS'packet_num'
p4
I78
sS'returnval'
p5
S'weetest-Things-In-The-World-6E1K\np8866\nsbag1\n(g2\ng3\nNtp8867\nRp8868\n(dp8869\ng7\nI20000\nsg8\nV2012-07-25T18:42:00-0700\np8870\nsg10\nI40156177\nsg11\nNsg12\nV2012-07-27T20:00:00-0700\np8871\nsg14\nI2\nsg15\nV6005558396565\np8872\nsg17\nVVirgin Mobile: Q3 2012 | an-idiots-guide-to-the-2012-olympics-5l87\np8873\nsbag1\n(g2\ng3\nNtp8874\nRp8875\n(dp8876\ng7\nNsg8\nV2012-07-28T08:00:00-0700\np8877\nsg10\nI40156177\nsg11\nI25000\nsg12\nV2012-07-29T20:00:00-0700\np8878\nsg14\nI2\nsg15\nV6005558884765\np8879\nsg17\nVVirgin Mobile: Q3 2012 | 20-timeline-cover-photo-cliches-were-already-sick-5l87\np8880\nsbag1\n(g2\ng3\nNtp8881\nRp8882\n(dp8883\ng7\nNsg8\nV2012-07-25T22:28:00-0700\np8884\nsg10\nI40156177\nsg11\nI35000\nsg12\nV2012-07-27T20:00:00-0700\np8885\nsg14\nI2\nsg15\nV6005558995365\np8886\nsg17\nVVirgin Mobile: Q3 2012 | 11-ridiculous-real-paralyzing-phobias-5l87\np8887\nsbag1\n(g2\ng3\nNtp8888\nRp8889\n(dp8890\ng7\nNsg8\nV2012-07-26T15:29:00-0700\np8891\nsg10\nI40156177\nsg11\nI40000\nsg12\nV2012-07-28T20:00:00-0700\np8892\nsg14\nI2\nsg15\nV6005562194165\np8893\nsg17\nVVirgin Mobile Live User Page | the-middle-class-kids-of-instagram-5l87\np8894\nsbag1\n(g2\ng3\nNtp8895\nRp8896\n(dp8897\ng7\nNsg8\nV2012-07-26T14:38:55-0700\np8898\nsg10\nI40156177\nsg11\nI50000\nsg12\nV2012-07-27T20:30:00-0700\np8899\nsg14\nI2\nsg15\nV6005564689965\np8900\nsg17\nVOld Navy: Funnovations July 2012 | The-Most-Awesome-Public-Parties-6Mok\np8901\nsbag1\n(g2\ng3\nNtp8902\nRp8903\n(dp8904\ng7\nI20000\nsg8\nV2012-07-27T08:55:42-0700\np8905\nsg10\nI40156177\nsg11\nNsg12\nV2012-07-30T20:30:00-0700\np8906\nsg14\nI2\nsg15\nV6005567307365\np8907\nsg17\nVHVR Phase 2: June-Sept 2012 | 10-Burgers-Made-Better-With-One-Secret-Ingredient\np8908\nsbag1\n(g2\ng3\nNtp8909\nRp8910\n(dp8911\ng7\nNsg8\nV2012-07-27T11:53:00-0700\np8912\nsg10\nI40156177\nsg11\nI60000\nsg12\nV2012-07-28T08:00:00-0700\np8913\nsg14\nI2\nsg15\nV6005567325365\np8914\nsg17\nVMcDonalds: Olympics: July_Aug 2012 | Awesomely-Creative-Ways-Of-Showing-Your-Olympic-Spn\np8915\nsbag1\n(g2\ng3\nNtp8916\nRp8917\n(dp8918\ng7\nNsg8\nV2012-07-27T12:02:00-0700\np8919\nsg10\nI40156177\nsg11\nI60000\nsg12\nV2012-07-28T08:00:00-0700\np8920\nsg14\nI2\nsg15\nV6005567334965\np8921\nsg17\nVMcDonalds: Olympics: July_Aug 2012 | Awesomely-Creative-Ways-Of-Showing-Your-Olympic-Sp\np8922\nsbag1\n(g2\ng3\nNtp8923\nRp8924\n(dp8925\ng7\nNsg8\nV2012-07-27T11:22:36-0700\np8926\nsg10\nI40156177\nsg11\nI40000\nsg12\nV2012-07-30T20:30:00-0700\np8927\nsg14\nI2\nsg15\nV6005567611765\np8928\nsg17\nVMikes Hard Lemonade: July-Aug 2012 | You-Know-You-Need-A-Vacation-When-6J5C\np8929\nsbag1\n(g2\ng3\nNtp8930\nRp8931\n(dp8932\ng7\nI20000\nsg8\nV2012-07-27T13:24:00-0700\np8933\nsg10\nI40156177\nsg11\nNsg12\nV2012-08-05T20:30:00-0700\np8934\nsg14\nI2\nsg15\nV6005568204365\np8935\nsg17\nVFord Fusion: ROAF July-Sept 2012 | The-Top-5-Funniest-Twitter-Feuds\np8936\nsbag1\n(g2\ng3\nNtp8937\nRp8938\n(dp8939\ng7\nI30000\nsg8\nV2012-07-30T07:34:54-0700\np8940\nsg10\nI40156177\nsg11\nNsg12\nV2012-08-04T00:00:00-0700\np8941\nsg14\nI2\nsg15\nV6005574317165\np8942\nsg17\nVBuzzFeed RND: API SS Test|mjs538/why-the-world-might-actually-end-in-2012\np8943\nsbag1\n(g2\ng3\nNtp8944\nRp8945\n(dp8946\ng7\nI32500\nsg8\nV2012-07-30T12:43:00-0700\np8947\nsg10\nI40156177\nsg11\nNsg12\nV2012-08-11T20:30:00-0700\np8948\nsg14\nI2\nsg15\nV6005574574165\np8949\nsg17\nVMcDonalds: Olympics: July_Aug 2012 | 11-Unforgettable-Olympic-Moments\np8950\nsbag1\n(g2\ng3\nNtp8951\nRp8952\n(dp8953\ng7\nI20000\nsg8\nV2012-07-30T12:01:00-0700\np8954\nsg10\nI40156177\nsg11\nNsg12\nV2012-07-31T20:30:00-0700\np8955\nsg14\nI2\nsg15\nV6005575040165\np8956\nsg17\nVArbys: Snap and Rock: July-August_2012 | 15-Things-Every-Kid-In-The-90S-Can-Relate-To-5Eak\np8957\nsbag1\n(g2\ng3\nNtp8958\nRp8959\n(dp8960\ng7\nI25000\nsg8\nV2012-07-31T07:00:00-0700\np8961\nsg10\nI40156177\nsg11\nNsg12\nV2012-08-01T20:25:00-0700\np8962\nsg14\nI2\nsg15\nV6005575126565\np8963\nsg17\nVArbys: Snap and Rock: July-August_2012 | 10-Weirdest-Superstitions-From-Around-The-World-5Eak\np8964\nsbag1\n(g2\ng3\nNtp8965\nRp8966\n(dp8967\ng7\nNsg8\nV2012-07-31T07:23:00-0700\np8968\nsg10\nI40156177\nsg11\nI20000\nsg12\nV2012-07-31T20:30:00-0700\np8969\nsg14\nI2\nsg15\nV6005577056365\np8970\nsg17\nVMikes Hard Lemonade: July-Aug 2012 | The-Dos-And-Donts-Of-Getting-Through-Summer-6J5C\np8971\nsbag1\n(g2\ng3\nNtp8972\nRp8973\n(dp8974\ng7\nI5000\nsg8\nV2012-07-31T09:37:00-0700\np8975\nsg10\nI401561'
p6
sS'hash'
p7
S'781a7c425e7b5b4582cb1c79f8bade6d6bcb09c3'
p8
sS'stack'
p9
S''
s.