(dp1
S'args'
p2
S''
sS'methodname'
p3
S''
sS'packet_num'
p4
I18
sS'returnval'
p5
S'9\nsg17\nVVW: Smiles: Sept-Oct 2012 | 14-Things-You-Never-Have-To-Be-Sorry-For\np2020\nsbag1\n(g2\ng3\nNtp2021\nRp2022\n(dp2023\ng7\nI40000\nsg8\nV2012-11-11T06:30:00-0800\np2024\nsg10\nI40156177\nsg11\nNsg12\nV2012-11-12T20:30:00-0800\np2025\nsg14\nI1\nsg15\nV6006214444165\np2026\nsg17\nVVW: Smiles: Sept-Oct 2012 | 15-Animals-That-Are-Totally-Living-The-Good-Life\np2027\nsbag1\n(g2\ng3\nNtp2028\nRp2029\n(dp2030\ng7\nI40000\nsg8\nV2012-11-13T06:30:00-0800\np2031\nsg10\nI40156177\nsg11\nNsg12\nV2012-11-14T20:30:00-0800\np2032\nsg14\nI1\nsg15\nV6006214490965\np2033\nsg17\nVVW: Smiles: Sept-Oct 2012 | 16-Things-Our-Pets-Do-That-Always-Make-Us-Smile\np2034\nsbag1\n(g2\ng3\nNtp2035\nRp2036\n(dp2037\ng7\nI20000\nsg8\nV2012-11-09T12:45:00-0800\np2038\nsg10\nI40156177\nsg11\nNsg12\nV2012-11-14T23:45:00-0800\np2039\nsg14\nI1\nsg15\nV6006215642765\np2040\nsg17\nVSpike TV: Eddie Murphy Nov_2012 | Great-Eddie-Murphy-Quotes\np2041\nsbag1\n(g2\ng3\nNtp2042\nRp2043\n(dp2044\ng7\nI40000\nsg8\nV2012-11-09T17:16:00-0800\np2045\nsg10\nI40156177\nsg11\nNsg12\nV2012-11-11T21:00:00-0800\np2046\nsg14\nI1\nsg15\nV6006216581965\np2047\nsg17\nVCampbells: GO Oct-Dec 2012 | 15-Diy-Tricks-That-Are-As-Good-As-The-Real-Thing\np2048\nsbag1\n(g2\ng3\nNtp2049\nRp2050\n(dp2051\ng7\nI50000\nsg8\nV2012-11-09T17:31:00-0800\np2052\nsg10\nI40156177\nsg11\nNsg12\nV2012-12-13T17:31:00-0800\np2053\nsg14\nI1\nsg15\nV6006216633165\np2054\nsg17\nVCampbells: GO Oct-Dec 2012 | 20-Mind-Blowing-Hacks-For-Food-On-The-Go\np2055\nsbag1\n(g2\ng3\nNtp2056\nRp2057\n(dp2058\ng7\nI50000\nsg8\nV2012-11-09T17:46:00-0800\np2059\nsg10\nI40156177\nsg11\nNsg12\nV2012-11-11T17:46:00-0800\np2060\nsg14\nI1\nsg15\nV6006216675165\np2061\nsg17\nVCampbells: GO Oct-Dec 2012 | 10-Dyi-Tips-For-Camping-Without-Leaving-Home\np2062\nsbag1\n(g2\ng3\nNtp2063\nRp2064\n(dp2065\ng7\nNsg8\nV2012-11-10T18:57:00-0800\np2066\nsg10\nI40156177\nsg11\nI160000\nsg12\nV2012-11-13T20:30:00-0800\np2067\nsg14\nI1\nsg15\nV6006220946365\np2068\nsg17\nVFOX: Tues Night Nov 2012 | 18-Life-Lessons-We-Learned-From-Watching-New-Girl-7Juf\np2069\nsbag1\n(g2\ng3\nNtp2070\nRp2071\n(dp2072\ng7\nI40000\nsg8\nV2012-11-12T07:43:34-0800\np2073\nsg10\nI40156177\nsg11\nNsg12\nV2012-11-13T20:30:00-0800\np2074\nsg14\nI1\nsg15\nV6006225669965\np2075\nsg17\nVMattel: Apples to Apples Nov-Dec 2012 | 15-Things-From-Our-Childhood-That-Never-Stopped-Be\np2076\nsbag1\n(g2\ng3\nNtp2077\nRp2078\n(dp2079\ng7\nI40000\nsg8\nV2012-11-14T06:30:00-0800\np2080\nsg10\nI40156177\nsg11\nNsg12\nV2012-12-13T20:30:00-0800\np2081\nsg14\nI1\nsg15\nV6006225723965\np2082\nsg17\nVMattel: Apples to Apples Nov-Dec 2012 | 11-Of-The-Best-Combinations-Ever\np2083\nsbag1\n(g2\ng3\nNtp2084\nRp2085\n(dp2086\ng7\nI40000\nsg8\nV2012-11-16T06:30:00-0800\np2087\nsg10\nI40156177\nsg11\nNsg12\nV2012-12-14T20:30:00-0800\np2088\nsg14\nI1\nsg15\nV6006225798765\np2089\nsg17\nVMattel: Apples to Apples Nov-Dec 2012 | 15-Crazy-Delicious-Food-Combinations\np2090\nsbag1\n(g2\ng3\nNtp2091\nRp2092\n(dp2093\ng7\nI40000\nsg8\nV2012-11-12T09:00:00-0800\np2094\nsg10\nI40156177\nsg11\nNsg12\nV2012-11-21T23:45:00-0800\np2095\nsg14\nI1\nsg15\nV6006225904765\np2096\nsg17\nVTruTv: Killer Karaoke Nov_2012 | 15-Reasons-Why-Steve-O-Is-Crazy\np2097\nsbag1\n(g2\ng3\nNtp2098\nRp2099\n(dp2100\ng7\nI23600\nsg8\nV2012-11-12T09:33:00-0800\np2101\nsg10\nI40156177\nsg11\nNsg12\nV2012-11-20T23:30:00-0800\np2102\nsg14\nI1\nsg15\nV6006225928165\np2103\nsg17\nVTruTv: Killer Karaoke Nov_2012 | 7-People-Who-Should-Never-Sing-Again\np2104\nsbag1\n(g2\ng3\nNtp2105\nRp2106\n(dp2107\ng7\nI40000\nsg8\nV2012-11-12T09:00:00-0800\np2108\nsg10\nI40156177\nsg11\nNsg12\nV2012-11-22T23:30:00-0800\np2109\nsg14\nI1\nsg15\nV6006225937565\np2110\nsg17\nVTruTv: Killer Karaoke Nov_2012 | 15-Stunts-Gone-Terribly-Wrong\np2111\nsbag1\n(g2\ng3\nNtp2112\nRp2113\n(dp2114\ng7\nI23800\nsg8\nV2012-11-12T09:15:00-0800\np2115\nsg10\nI40156177\nsg11\nNsg12\nV2012-11-20T23:45:00-0800\np2116\nsg14\nI1\nsg15\nV6006225964365\np2117\nsg17\nVTruTv: Killer Karaoke Nov_2012 | 7-Terrible-Karaoke-Disasters\np2118\nsbag1\n(g2\ng3\nNtp2119\nRp2120\n(dp2121\ng7\nI50000\nsg8\nV2012-11-12T12:10:00-0800\np2122\nsg10\nI40156177\nsg11\nNsg12\nV2012-11-13T21:00:00-0800\np2123\nsg14\nI1\nsg15\nV6006226090365\np2124\nsg17\nVCampbells: GO Oct-Dec 2012 | 8-Things-That-Are-So-Close-To-The-Real-Thing\np2125\nsbag1\n(g2\ng3\nNtp2126\nRp2127\n(dp2128\ng7\nI40000\nsg8\nV2012-11-12T09:50:33-0800\np2129\nsg10\nI40156177\nsg11\nNsg12\nV2012-11-13T20:30:00-0'
p6
sS'hash'
p7
S'781a7c425e7b5b4582cb1c79f8bade6d6bcb09c3'
p8
sS'stack'
p9
S''
s.