(dp1
S'args'
p2
S''
sS'methodname'
p3
S''
sS'packet_num'
p4
I12
sS'returnval'
p5
S'sg10\nI40156177\nsg11\nNsg12\nV2012-11-11T21:00:00-0800\np1353\nsg14\nI1\nsg15\nV6006068112765\np1354\nsg17\nVIntuit: Oct-Nov 2012 | 10-Reasons-Why-Youre-Already-Living-In-The-Future\np1355\nsbag1\n(g2\ng3\nNtp1356\nRp1357\n(dp1358\ng7\nI25000\nsg8\nV2012-10-22T08:10:46-0700\np1359\nsg10\nI40156177\nsg11\nNsg12\nV2012-10-23T20:30:00-0700\np1360\nsg14\nI1\nsg15\nV6006068151165\np1361\nsg17\nVNick: Mom: Sept-Oct_2012 | The-5-Most-Unapologetically-Messy-Kids-7J6J\np1362\nsbag1\n(g2\ng3\nNtp1363\nRp1364\n(dp1365\ng7\nI20000\nsg8\nV2012-10-22T11:06:00-0700\np1366\nsg10\nI40156177\nsg11\nNsg12\nV2012-11-06T09:06:00-0800\np1367\nsg14\nI1\nsg15\nV6006068164565\np1368\nsg17\nVIntuit: Oct-Nov 2012 | 13-Of-The-Weirdest-Conventions-From-Around-The-Wor\np1369\nsbag1\n(g2\ng3\nNtp1370\nRp1371\n(dp1372\ng7\nI25000\nsg8\nV2012-10-24T06:30:00-0700\np1373\nsg10\nI40156177\nsg11\nNsg12\nV2012-10-25T20:30:00-0700\np1374\nsg14\nI1\nsg15\nV6006068186365\np1375\nsg17\nVNick: Mom: Sept-Oct_2012 | Dramatic-Letters-From-Kids-To-Their-Parents-7J6J\np1376\nsbag1\n(g2\ng3\nNtp1377\nRp1378\n(dp1379\ng7\nI15000\nsg8\nV2012-10-22T11:04:00-0700\np1380\nsg10\nI40156177\nsg11\nNsg12\nV2012-10-23T23:00:00-0700\np1381\nsg14\nI1\nsg15\nV6006068943765\np1382\nsg17\nVTotinos Party Pizza: Sept-Oct_2012 | 11-Things-You-Probably-Didnt-Know-About-Popular-S-2Wvj\np1383\nsbag1\n(g2\ng3\nNtp1384\nRp1385\n(dp1386\ng7\nI15000\nsg8\nV2012-10-22T11:00:13-0700\np1387\nsg10\nI40156177\nsg11\nNsg12\nV2012-10-30T23:00:00-0700\np1388\nsg14\nI1\nsg15\nV6006069161965\np1389\nsg17\nVFreelancers Union: Oct_2012 | 11-Awesome-Tv-Doctors-You-Wish-Were-Real\np1390\nsbag1\n(g2\ng3\nNtp1391\nRp1392\n(dp1393\ng7\nI15000\nsg8\nV2012-10-22T12:01:00-0700\np1394\nsg10\nI40156177\nsg11\nNsg12\nV2012-10-30T23:00:00-0700\np1395\nsg14\nI1\nsg15\nV6006069180765\np1396\nsg17\nVFreelancers Union: Oct_2012 | 10-Gifs-Of-The-Weirdest-Exercise-Equipment-Ever-In\np1397\nsbag1\n(g2\ng3\nNtp1398\nRp1399\n(dp1400\ng7\nI15000\nsg8\nV2012-10-22T12:14:00-0700\np1401\nsg10\nI40156177\nsg11\nNsg12\nV2012-10-23T23:00:00-0700\np1402\nsg14\nI1\nsg15\nV6006069210165\np1403\nsg17\nVMicrosoft Outlook: Aug-Oct_2012 | 10-Most-Ridiculous-Portrayals-Of-Technology-In-Fil-76Ab\np1404\nsbag1\n(g2\ng3\nNtp1405\nRp1406\n(dp1407\ng7\nI50000\nsg8\nV2012-10-22T15:01:45-0700\np1408\nsg10\nI40156177\nsg11\nNsg12\nV2012-11-02T21:01:00-0700\np1409\nsg14\nI1\nsg15\nV6006071407565\np1410\nsg17\nVGEICO: Delightful Oct-Dec 2012 | 26-Desserts-That-Will-Delight-Your-Taste-Buds\np1411\nsbag1\n(g2\ng3\nNtp1412\nRp1413\n(dp1414\ng7\nI50000\nsg8\nV2012-10-22T15:07:23-0700\np1415\nsg10\nI40156177\nsg11\nNsg12\nV2012-10-23T15:07:00-0700\np1416\nsg14\nI1\nsg15\nV6006071422765\np1417\nsg17\nVGEICO: Delightful Oct-Dec 2012 | Can-You-Make-It-Through-This-Post-Without-Feeling\np1418\nsbag1\n(g2\ng3\nNtp1419\nRp1420\n(dp1421\ng7\nI15000\nsg8\nV2012-10-23T12:03:00-0700\np1422\nsg10\nI40156177\nsg11\nNsg12\nV2012-10-24T23:00:00-0700\np1423\nsg14\nI1\nsg15\nV6006077586765\np1424\nsg17\nVTotinos Party Pizza: Sept-Oct_2012 | 15-Things-Only-Your-Parents-Can-Understand\np1425\nsbag1\n(g2\ng3\nNtp1426\nRp1427\n(dp1428\ng7\nI40000\nsg8\nV2012-10-23T11:27:24-0700\np1429\nsg10\nI40156177\nsg11\nNsg12\nV2012-10-24T20:30:00-0700\np1430\nsg14\nI1\nsg15\nV6006077790165\np1431\nsg17\nVPedigree: Aug-Oct 2012 | 15-Of-Our-Favorite-Dog-Actors-6Fjy\np1432\nsbag1\n(g2\ng3\nNtp1433\nRp1434\n(dp1435\ng7\nI40000\nsg8\nV2012-10-25T06:30:00-0700\np1436\nsg10\nI40156177\nsg11\nNsg12\nV2012-10-26T20:30:00-0700\np1437\nsg14\nI1\nsg15\nV6006077814165\np1438\nsg17\nVPedigree: Aug-Oct 2012 | 20-Adorable-Dogs-Looking-For-Love\np1439\nsbag1\n(g2\ng3\nNtp1440\nRp1441\n(dp1442\ng7\nI40000\nsg8\nV2012-10-24T12:29:03-0700\np1443\nsg10\nI40156177\nsg11\nNsg12\nV2012-10-25T20:30:00-0700\np1444\nsg14\nI1\nsg15\nV6006078452765\np1445\nsg17\nVRdio: Oct-Dec 2012 | TOP CHARTS\np1446\nsbag1\n(g2\ng3\nNtp1447\nRp1448\n(dp1449\ng7\nI40000\nsg8\nV2012-10-24T12:29:59-0700\np1450\nsg10\nI40156177\nsg11\nNsg12\nV2012-10-25T20:30:00-0700\np1451\nsg14\nI1\nsg15\nV6006079169965\np1452\nsg17\nVRdio: Oct-Dec 2012 | GEEKY\np1453\nsbag1\n(g2\ng3\nNtp1454\nRp1455\n(dp1456\ng7\nI30000\nsg8\nV2012-10-25T06:00:00-0700\np1457\nsg10\nI40156177\nsg11\nNsg12\nV2012-11-02T23:30:00-0700\np1458\nsg14\nI1\nsg15\nV6006103175565\np1459\nsg17\nVTHQ: WWE Oct-Nov_2012 | 10-Of-The-All-Time-Best-Wwe-Rivalries-6Gwn\np1460\nsbag1\n(g2\ng3\nNtp1461\nRp1462\n(dp1463\ng7\nI35000\nsg8\nV2012-10-25T06:00:00-0700\np1464\nsg10\n'
p6
sS'hash'
p7
S'781a7c425e7b5b4582cb1c79f8bade6d6bcb09c3'
p8
sS'stack'
p9
S''
s.