(dp1
S'args'
p2
S''
sS'methodname'
p3
S''
sS'packet_num'
p4
I11
sS'returnval'
p5
S"uld-Be-Able-To-Try-Before-You-Buy\np1800\nsVstart_time\np1801\nV2012-04-11T09:00:00-0700\np1802\nsVcampaign_id\np1803\nI6004970175565\nsVfrequency_cap\np1804\nI0\nsVdaily_imps\np1805\nI0\nsVlifetime_budget\np1806\nI40000\nsVend_time\np1807\nV2012-04-24T23:15:00-0700\np1808\nsVcreated_time\np1809\nV2012-04-06T08:30:52-0700\np1810\nsVupdated_time\np1811\nV2012-09-21T13:01:50-0700\np1812\nsVcampaign_status\np1813\nI2\nsVid\np1814\nV6004970175565\np1815\nsVaccount_id\np1816\nI40156177\nsa(dp1817\nVname\np1818\nVThe Daily: Q2 2012 | It's Kimye\np1819\nsVstart_time\np1820\nV2012-04-06T08:45:00-0700\np1821\nsVcampaign_id\np1822\nI6004970177965\nsVfrequency_cap\np1823\nI0\nsVdaily_imps\np1824\nI0\nsVlifetime_budget\np1825\nI20000\nsVend_time\np1826\nV2012-04-06T20:30:00-0700\np1827\nsVcreated_time\np1828\nV2012-04-06T08:32:22-0700\np1829\nsVupdated_time\np1830\nV2012-09-21T13:01:52-0700\np1831\nsVcampaign_status\np1832\nI2\nsVid\np1833\nV6004970177965\np1834\nsVaccount_id\np1835\nI40156177\nsa(dp1836\nVname\np1837\nVPepsi: Next | 10-Things-You-Havent-Tried-But-Probably-Should\np1838\nsVstart_time\np1839\nV2012-04-16T06:00:00-0700\np1840\nsVcampaign_id\np1841\nI6004970190765\nsVfrequency_cap\np1842\nI0\nsVdaily_imps\np1843\nI0\nsVlifetime_budget\np1844\nI40000\nsVend_time\np1845\nV2012-04-24T23:00:00-0700\np1846\nsVcreated_time\np1847\nV2012-04-06T08:40:57-0700\np1848\nsVupdated_time\np1849\nV2012-09-21T13:01:54-0700\np1850\nsVcampaign_status\np1851\nI2\nsVid\np1852\nV6004970190765\np1853\nsVaccount_id\np1854\nI40156177\nsa(dp1855\nVname\np1856\nVBBC: April Premiers | How-To-Hunt-A-Giant-Tree-Rat\np1857\nsVstart_time\np1858\nV2012-04-08T06:30:00-0700\np1859\nsVcampaign_id\np1860\nI6004970415165\nsVfrequency_cap\np1861\nI0\nsVdaily_imps\np1862\nI0\nsVlifetime_budget\np1863\nI25000\nsVend_time\np1864\nV2012-04-16T15:30:00-0700\np1865\nsVcreated_time\np1866\nV2012-04-06T11:11:57-0700\np1867\nsVupdated_time\np1868\nV2012-09-21T13:01:56-0700\np1869\nsVcampaign_status\np1870\nI2\nsVid\np1871\nV6004970415165\np1872\nsVaccount_id\np1873\nI40156177\nsa(dp1874\nVname\np1875\nVBbc: April Premiers | 10-Weird-Foods-You-Should-Actually-Try-2Rld\np1876\nsVstart_time\np1877\nV2012-04-06T11:23:03-0700\np1878\nsVcampaign_id\np1879\nI6004970539165\nsVfrequency_cap\np1880\nI0\nsVdaily_imps\np1881\nI0\nsVlifetime_budget\np1882\nI15000\nsVend_time\np1883\nV2012-04-10T09:00:00-0700\np1884\nsVcreated_time\np1885\nV2012-04-06T11:23:03-0700\np1886\nsVupdated_time\np1887\nV2012-09-21T13:01:58-0700\np1888\nsVcampaign_status\np1889\nI2\nsVid\np1890\nV6004970539165\np1891\nsVaccount_id\np1892\nI40156177\nsa(dp1893\nVname\np1894\nVBOOST|dsafjkl|1|O4KeMG2mF151|iguxwhfwytarnmhwobtn\np1895\nsVstart_time\np1896\nV2012-04-06T12:59:37-0700\np1897\nsVcampaign_id\np1898\nI6004970626565\nsVfrequency_cap\np1899\nI0\nsVdaily_imps\np1900\nI0\nsVlifetime_budget\np1901\nI400\nsVend_time\np1902\nV2012-04-06T18:59:36-0700\np1903\nsVcreated_time\np1904\nV2012-04-06T12:59:37-0700\np1905\nsVupdated_time\np1906\nV2012-04-06T12:59:37-0700\np1907\nsVcampaign_status\np1908\nI2\nsVid\np1909\nV6004970626565\np1910\nsVaccount_id\np1911\nI40156177\nsasVoffset\np1912\nV800\np1913\ns."
p6
sS'hash'
p7
S'82af453179f0c6552128c89f0ade85ee5c6b0eed'
p8
sS'stack'
p9
S'__json_response /home/orozco/development/django/buzzfeed/local/lib/python2.7/site-packages/caliendo/facade.py cache /home/orozco/development/django/buzzfeed/pyfacebook/pyfacebook/__init__.py get /home/orozco/development/django/buzzfeed/pyfacebook/pyfacebook/__init__.py get_all /home/orozco/development/django/buzzfeed/pyfacebook/pyfacebook/__init__.py get_list_from_fb /home/orozco/development/django/buzzfeed/pyfacebook/pyfacebook/api/adcampaign.py find_by_adaccount_id /home/orozco/development/django/buzzfeed/local/lib/python2.7/site-packages/caliendo/facade.py __cache /home/orozco/development/django/buzzfeed/local/lib/python2.7/site-packages/caliendo/facade.py <lambda> /home/orozco/development/django/buzzfeed/pyfacebook/test/adcampaign_test.py test_find_by_adaccount_id /home/orozco/development/django/buzzfeed/local/lib/python2.7/site-packages/nose/case.py runTest /usr/lib/python2.7/unittest/case.py run /usr/lib/python2.7/unittest/case.py __call__ /home/orozco/development/django/buzzfeed/local/lib/python2.7/site-packages/nose/case.py runTest /home/orozco/development/django/buzzfeed/local/lib/python2.7/site-packages/nose/case.py run /home/orozco/development/django/b'
p10
s.