(dp1
S'args'
p2
S''
sS'methodname'
p3
S''
sS'packet_num'
p4
I3
sS'returnval'
p5
S'mpaign_status\np502\nI2\nsVid\np503\nV6004746708765\np504\nsVaccount_id\np505\nI40156177\nsa(dp506\nVname\np507\nVProject X | Tyler The Creator Story\np508\nsVstart_time\np509\nV2012-02-14T09:02:10-0800\np510\nsVcampaign_id\np511\nI6004750712765\nsVfrequency_cap\np512\nI0\nsVdaily_imps\np513\nI0\nsVlifetime_budget\np514\nI30000\nsVend_time\np515\nV2012-02-14T20:30:00-0800\np516\nsVcreated_time\np517\nV2012-02-14T09:02:10-0800\np518\nsVupdated_time\np519\nV2012-09-21T13:00:01-0700\np520\nsVcampaign_status\np521\nI2\nsVid\np522\nV6004750712765\np523\nsVaccount_id\np524\nI40156177\nsa(dp525\nVname\np526\nVProject X | Nick Swardson Story\np527\nsVstart_time\np528\nV2012-02-15T06:00:00-0800\np529\nsVcampaign_id\np530\nI6004750799965\nsVfrequency_cap\np531\nI0\nsVdaily_imps\np532\nI0\nsVlifetime_budget\np533\nI30000\nsVend_time\np534\nV2012-02-15T20:30:00-0800\np535\nsVcreated_time\np536\nV2012-02-14T10:20:54-0800\np537\nsVupdated_time\np538\nV2012-09-21T13:00:03-0700\np539\nsVcampaign_status\np540\nI2\nsVid\np541\nV6004750799965\np542\nsVaccount_id\np543\nI40156177\nsa(dp544\nVname\np545\nVProject X | Snoop Dogg Story\np546\nsVstart_time\np547\nV2012-02-16T06:00:00-0800\np548\nsVcampaign_id\np549\nI6004750825565\nsVfrequency_cap\np550\nI0\nsVdaily_imps\np551\nI0\nsVlifetime_budget\np552\nI30000\nsVend_time\np553\nV2012-02-16T20:30:00-0800\np554\nsVcreated_time\np555\nV2012-02-14T10:36:23-0800\np556\nsVupdated_time\np557\nV2012-09-21T13:00:05-0700\np558\nsVcampaign_status\np559\nI2\nsVid\np560\nV6004750825565\np561\nsVaccount_id\np562\nI40156177\nsa(dp563\nVname\np564\nVSonic: Those2Guys | Deserve Their Jobs Back\np565\nsVstart_time\np566\nV2012-02-14T11:03:05-0800\np567\nsVcampaign_id\np568\nI6004750841965\nsVfrequency_cap\np569\nI0\nsVdaily_imps\np570\nI0\nsVlifetime_budget\np571\nI35000\nsVend_time\np572\nV2012-02-14T20:30:00-0800\np573\nsVcreated_time\np574\nV2012-02-14T11:03:05-0800\np575\nsVupdated_time\np576\nV2012-09-21T13:00:06-0700\np577\nsVcampaign_status\np578\nI2\nsVid\np579\nV6004750841965\np580\nsVaccount_id\np581\nI40156177\nsa(dp582\nVname\np583\nVSonic: Those2Guys | What They Been Up To\np584\nsVstart_time\np585\nV2012-02-17T06:00:00-0800\np586\nsVcampaign_id\np587\nI6004751499365\nsVfrequency_cap\np588\nI0\nsVdaily_imps\np589\nI0\nsVlifetime_budget\np590\nI35000\nsVend_time\np591\nV2012-02-17T20:30:00-0800\np592\nsVcreated_time\np593\nV2012-02-14T12:33:59-0800\np594\nsVupdated_time\np595\nV2012-09-21T13:00:08-0700\np596\nsVcampaign_status\np597\nI2\nsVid\np598\nV6004751499365\np599\nsVaccount_id\np600\nI40156177\nsa(dp601\nVname\np602\nVProject X | A-Traks Story\np603\nsVstart_time\np604\nV2012-02-20T13:49:16-0800\np605\nsVcampaign_id\np606\nI6004787047565\nsVfrequency_cap\np607\nI0\nsVdaily_imps\np608\nI0\nsVlifetime_budget\np609\nI30000\nsVend_time\np610\nV2012-02-21T12:00:00-0800\np611\nsVcreated_time\np612\nV2012-02-20T13:49:17-0800\np613\nsVupdated_time\np614\nV2012-09-21T13:00:10-0700\np615\nsVcampaign_status\np616\nI2\nsVid\np617\nV6004787047565\np618\nsVaccount_id\np619\nI40156177\nsa(dp620\nVname\np621\nVMio Energy | Most Surprising Small Things\np622\nsVstart_time\np623\nV2012-02-21T12:29:36-0800\np624\nsVcampaign_id\np625\nI6004790489565\nsVfrequency_cap\np626\nI0\nsVdaily_imps\np627\nI0\nsVlifetime_budget\np628\nI40000\nsVend_time\np629\nV2012-02-21T17:30:00-0800\np630\nsVcreated_time\np631\nV2012-02-21T12:29:36-0800\np632\nsVupdated_time\np633\nV2012-09-21T13:00:12-0700\np634\nsVcampaign_status\np635\nI2\nsVid\np636\nV6004790489565\np637\nsVaccount_id\np638\nI40156177\nsa(dp639\nVname\np640\nVMio Energy | Favorite 90s Sidekick\np641\nsVstart_time\np642\nV2012-02-22T03:30:00-0800\np643\nsVcampaign_id\np644\nI6004791126765\nsVfrequency_cap\np645\nI0\nsVdaily_imps\np646\nI0\nsVlifetime_budget\np647\nI40000\nsVend_time\np648\nV2012-02-22T17:30:00-0800\np649\nsVcreated_time\np650\nV2012-02-21T12:55:36-0800\np651\nsVupdated_time\np652\nV2012-09-21T13:00:14-0700\np653\nsVcampaign_status\np654\nI2\nsVid\np655\nV6004791126765\np656\nsVaccount_id\np657\nI40156177\nsa(dp658\nVname\np659\nVSonic: Those2Guys | Best Odd Couples\np660\nsVstart_time\np661\nV2012-02-21T15:00:00-0800\np662\nsVcampaign_id\np663\nI6004791878965\nsVfrequency_cap\np664\nI0\nsVdaily_imps\np665\nI0\nsVlifetime_budget\np666\nI35000\nsVend_time\np667\nV2012-02-22T12:00:00-0800\np668\nsVcreated_time\np669\nV2012-02-21T14:50:35-0800\np670\nsVupdated_time\np671\nV2012-09-21T13:00:16-0700\np672\nsVcampaign_status\np673\nI2'
p6
sS'hash'
p7
S'82af453179f0c6552128c89f0ade85ee5c6b0eed'
p8
sS'stack'
p9
S''
s.