(dp1
S'args'
p2
S''
sS'methodname'
p3
S''
sS'packet_num'
p4
I10
sS'returnval'
p5
S'atus\np1642\nI2\nsVid\np1643\nV6004963992165\np1644\nsVaccount_id\np1645\nI40156177\nsa(dp1646\nVname\np1647\nVAbc: Apt23 | 14-Passive-Aggressive-Roommate-Notes-5H77\np1648\nsVstart_time\np1649\nV2012-04-05T15:00:00-0700\np1650\nsVcampaign_id\np1651\nI6004964045565\nsVfrequency_cap\np1652\nI0\nsVdaily_imps\np1653\nI0\nsVlifetime_budget\np1654\nI25550\nsVend_time\np1655\nV2012-04-10T22:00:00-0700\np1656\nsVcreated_time\np1657\nV2012-04-04T15:01:12-0700\np1658\nsVupdated_time\np1659\nV2012-09-21T13:01:39-0700\np1660\nsVcampaign_status\np1661\nI2\nsVid\np1662\nV6004964045565\np1663\nsVaccount_id\np1664\nI40156177\nsa(dp1665\nVname\np1666\nVAbc: Apt23 | Stop-Making-Memes-James-Van-Der-Beek-Memes-5H77\np1667\nsVstart_time\np1668\nV2012-04-07T06:48:53-0700\np1669\nsVcampaign_id\np1670\nI6004966755965\nsVfrequency_cap\np1671\nI0\nsVdaily_imps\np1672\nI0\nsVlifetime_budget\np1673\nI25000\nsVend_time\np1674\nV2012-04-10T22:00:00-0700\np1675\nsVcreated_time\np1676\nV2012-04-05T09:16:49-0700\np1677\nsVupdated_time\np1678\nV2012-04-10T12:11:31-0700\np1679\nsVcampaign_status\np1680\nI2\nsVid\np1681\nV6004966755965\np1682\nsVaccount_id\np1683\nI40156177\nsa(dp1684\nVname\np1685\nVVirgin Mobile: Q2 Flight | 11-Things-No-One-Wants-To-See-You-Instagram-5L87\np1686\nsVstart_time\np1687\nV2012-04-05T11:30:00-0700\np1688\nsVcampaign_id\np1689\nI6004967487565\nsVfrequency_cap\np1690\nI0\nsVdaily_imps\np1691\nI0\nsVlifetime_budget\np1692\nI40000\nsVend_time\np1693\nV2012-04-10T20:30:00-0700\np1694\nsVcreated_time\np1695\nV2012-04-05T11:09:46-0700\np1696\nsVupdated_time\np1697\nV2012-09-21T13:01:41-0700\np1698\nsVcampaign_status\np1699\nI2\nsVid\np1700\nV6004967487565\np1701\nsVaccount_id\np1702\nI40156177\nsa(dp1703\nVname\np1704\nVBOOST|dsafjkl|1|mSx115|psbutcltbsjvsnsfhhhq\np1705\nsVstart_time\np1706\nV2012-04-05T11:35:13-0700\np1707\nsVcampaign_id\np1708\nI6004967518965\nsVfrequency_cap\np1709\nI0\nsVdaily_imps\np1710\nI0\nsVlifetime_budget\np1711\nI400\nsVend_time\np1712\nV2012-04-05T17:35:07-0700\np1713\nsVcreated_time\np1714\nV2012-04-05T11:35:13-0700\np1715\nsVupdated_time\np1716\nV2012-04-05T11:35:14-0700\np1717\nsVcampaign_status\np1718\nI2\nsVid\np1719\nV6004967518965\np1720\nsVaccount_id\np1721\nI40156177\nsa(dp1722\nVname\np1723\nVBic: Get Real | Celebrities-That-Look-Better-Without-Facial-Hair\np1724\nsVstart_time\np1725\nV2012-04-11T09:30:00-0700\np1726\nsVcampaign_id\np1727\nI6004967574365\nsVfrequency_cap\np1728\nI0\nsVdaily_imps\np1729\nI0\nsVlifetime_budget\np1730\nI25000\nsVend_time\np1731\nV2012-04-12T13:00:00-0700\np1732\nsVcreated_time\np1733\nV2012-04-05T12:14:42-0700\np1734\nsVupdated_time\np1735\nV2012-09-21T13:01:43-0700\np1736\nsVcampaign_status\np1737\nI2\nsVid\np1738\nV6004967574365\np1739\nsVaccount_id\np1740\nI40156177\nsa(dp1741\nVname\np1742\nVMio Energy: Q2 Flight | Exciting-Moments-In-Sport-Fan-History\np1743\nsVstart_time\np1744\nV2012-04-06T05:00:00-0700\np1745\nsVcampaign_id\np1746\nI6004967626165\nsVfrequency_cap\np1747\nI0\nsVdaily_imps\np1748\nI0\nsVlifetime_budget\np1749\nI15000\nsVend_time\np1750\nV2012-04-10T22:00:00-0700\np1751\nsVcreated_time\np1752\nV2012-04-05T13:00:13-0700\np1753\nsVupdated_time\np1754\nV2012-09-21T13:01:45-0700\np1755\nsVcampaign_status\np1756\nI2\nsVid\np1757\nV6004967626165\np1758\nsVaccount_id\np1759\nI40156177\nsa(dp1760\nVname\np1761\nVVirgin Mobile: Q2 Flight | Virgin Mobile Live User Page\np1762\nsVstart_time\np1763\nV2012-04-05T14:20:49-0700\np1764\nsVcampaign_id\np1765\nI6004968062965\nsVfrequency_cap\np1766\nI0\nsVdaily_imps\np1767\nI0\nsVlifetime_budget\np1768\nI155000\nsVend_time\np1769\nV2012-06-02T20:00:00-0700\np1770\nsVcreated_time\np1771\nV2012-04-05T14:20:49-0700\np1772\nsVupdated_time\np1773\nV2012-09-21T13:01:47-0700\np1774\nsVcampaign_status\np1775\nI2\nsVid\np1776\nV6004968062965\np1777\nsVaccount_id\np1778\nI40156177\nsa(dp1779\nVname\np1780\nVPepsi Next | Look-At-This-Guy-Pretending-To-Be-Jonah-Peretti\np1781\nsVstart_time\np1782\nV2012-04-05T15:09:29-0700\np1783\nsVcampaign_id\np1784\nI6004968352365\nsVfrequency_cap\np1785\nI0\nsVdaily_imps\np1786\nI0\nsVlifetime_budget\np1787\nI40000\nsVend_time\np1788\nV2012-04-10T15:00:00-0700\np1789\nsVcreated_time\np1790\nV2012-04-05T15:09:29-0700\np1791\nsVupdated_time\np1792\nV2012-09-21T13:01:49-0700\np1793\nsVcampaign_status\np1794\nI2\nsVid\np1795\nV6004968352365\np1796\nsVaccount_id\np1797\nI40156177\nsa(dp1798\nVname\np1799\nVPepsi: Next | 10-Things-You-Sho'
p6
sS'hash'
p7
S'82af453179f0c6552128c89f0ade85ee5c6b0eed'
p8
sS'stack'
p9
S''
s.