(dp1
S'args'
p2
S''
sS'methodname'
p3
S''
sS'packet_num'
p4
I5
sS'returnval'
p5
S"ign_status\np844\nI2\nsVid\np845\nV6004807124965\np846\nsVaccount_id\np847\nI40156177\nsa(dp848\nVname\np849\nVGE: Gifs | Gifs from GE Factory\np850\nsVstart_time\np851\nV2012-03-01T06:30:00-0800\np852\nsVcampaign_id\np853\nI6004807141765\nsVfrequency_cap\np854\nI0\nsVdaily_imps\np855\nI0\nsVlifetime_budget\np856\nI30000\nsVend_time\np857\nV2012-03-01T20:30:00-0800\np858\nsVcreated_time\np859\nV2012-02-27T08:35:24-0800\np860\nsVupdated_time\np861\nV2012-09-21T13:00:35-0700\np862\nsVcampaign_status\np863\nI2\nsVid\np864\nV6004807141765\np865\nsVaccount_id\np866\nI40156177\nsa(dp867\nVname\np868\nVGE: Gifs | 60 Most Beautiful Cinematic GIFs\np869\nsVstart_time\np870\nV2012-03-05T06:30:00-0800\np871\nsVcampaign_id\np872\nI6004807423565\nsVfrequency_cap\np873\nI0\nsVdaily_imps\np874\nI0\nsVlifetime_budget\np875\nI30000\nsVend_time\np876\nV2012-03-05T20:30:00-0800\np877\nsVcreated_time\np878\nV2012-02-27T09:07:55-0800\np879\nsVupdated_time\np880\nV2012-09-21T13:00:37-0700\np881\nsVcampaign_status\np882\nI2\nsVid\np883\nV6004807423565\np884\nsVaccount_id\np885\nI40156177\nsa(dp886\nVname\np887\nVGolf Channel: Haney Feherty | Best Feherty-isms\np888\nsVstart_time\np889\nV2012-02-28T06:30:00-0800\np890\nsVcampaign_id\np891\nI6004807602165\nsVfrequency_cap\np892\nI0\nsVdaily_imps\np893\nI0\nsVlifetime_budget\np894\nI30000\nsVend_time\np895\nV2012-02-29T20:30:00-0800\np896\nsVcreated_time\np897\nV2012-02-27T10:59:48-0800\np898\nsVupdated_time\np899\nV2012-09-21T13:00:38-0700\np900\nsVcampaign_status\np901\nI2\nsVid\np902\nV6004807602165\np903\nsVaccount_id\np904\nI40156177\nsa(dp905\nVname\np906\nVArbys | Favorite Sandwiches Conceived\np907\nsVstart_time\np908\nV2012-02-27T13:05:23-0800\np909\nsVcampaign_id\np910\nI6004808456765\nsVfrequency_cap\np911\nI0\nsVdaily_imps\np912\nI0\nsVlifetime_budget\np913\nI30000\nsVend_time\np914\nV2012-02-28T12:00:00-0800\np915\nsVcreated_time\np916\nV2012-02-27T13:05:23-0800\np917\nsVupdated_time\np918\nV2012-09-21T13:00:40-0700\np919\nsVcampaign_status\np920\nI2\nsVid\np921\nV6004808456765\np922\nsVaccount_id\np923\nI40156177\nsa(dp924\nVname\np925\nVArbys | Variations of Reuben\np926\nsVstart_time\np927\nV2012-03-01T14:30:00-0800\np928\nsVcampaign_id\np929\nI6004834318765\nsVfrequency_cap\np930\nI0\nsVdaily_imps\np931\nI0\nsVlifetime_budget\np932\nI30000\nsVend_time\np933\nV2012-03-02T12:30:00-0800\np934\nsVcreated_time\np935\nV2012-03-01T14:22:19-0800\np936\nsVupdated_time\np937\nV2012-09-21T13:00:42-0700\np938\nsVcampaign_status\np939\nI2\nsVid\np940\nV6004834318765\np941\nsVaccount_id\np942\nI40156177\nsa(dp943\nVname\np944\nVBOOST|dsafjkl|1|MzquOnNqA97|rohynxpzlifzbwxytzlm\np945\nsVstart_time\np946\nV2012-03-01T14:35:57-0800\np947\nsVcampaign_id\np948\nI6004834345965\nsVfrequency_cap\np949\nI0\nsVdaily_imps\np950\nI0\nsVlifetime_budget\np951\nI400\nsVend_time\np952\nV2012-03-01T20:35:56-0800\np953\nsVcreated_time\np954\nV2012-03-01T14:35:57-0800\np955\nsVupdated_time\np956\nV2012-03-01T14:35:58-0800\np957\nsVcampaign_status\np958\nI2\nsVid\np959\nV6004834345965\np960\nsVaccount_id\np961\nI40156177\nsa(dp962\nVname\np963\nVGE: Gifs | Stunning Pictures of Powerful Engines\np964\nsVstart_time\np965\nV2012-03-02T06:30:00-0800\np966\nsVcampaign_id\np967\nI6004834358765\nsVfrequency_cap\np968\nI0\nsVdaily_imps\np969\nI0\nsVlifetime_budget\np970\nI30000\nsVend_time\np971\nV2012-03-02T20:30:00-0800\np972\nsVcreated_time\np973\nV2012-03-01T15:15:49-0800\np974\nsVupdated_time\np975\nV2012-09-21T13:00:44-0700\np976\nsVcampaign_status\np977\nI2\nsVid\np978\nV6004834358765\np979\nsVaccount_id\np980\nI40156177\nsa(dp981\nVname\np982\nVMSFT: Hotmail | If Graymail Subject Lines Were People\np983\nsVstart_time\np984\nV2012-03-05T14:15:00-0800\np985\nsVcampaign_id\np986\nI6004847452165\nsVfrequency_cap\np987\nI0\nsVdaily_imps\np988\nI0\nsVlifetime_budget\np989\nI150000\nsVend_time\np990\nV2012-03-12T16:00:00-0700\np991\nsVcreated_time\np992\nV2012-03-02T14:13:42-0800\np993\nsVupdated_time\np994\nV2012-09-21T13:00:46-0700\np995\nsVcampaign_status\np996\nI2\nsVid\np997\nV6004847452165\np998\nsVaccount_id\np999\nI40156177\nsa(dp1000\nVname\np1001\nVMSFT: Hotmail | Internet Terms You Didn't Know\np1002\nsVstart_time\np1003\nV2012-03-12T06:30:00-0700\np1004\nsVcampaign_id\np1005\nI6004863266765\nsVfrequency_cap\np1006\nI0\nsVdaily_imps\np1007\nI0\nsVlifetime_budget\np1008\nI150000\nsVend_time\np1009\nV2012-03-19T20:30:00-0700\np1010\nsVcreated_time\np1011\nV2012-03-07T13:45:22-0800\np101"
p6
sS'hash'
p7
S'82af453179f0c6552128c89f0ade85ee5c6b0eed'
p8
sS'stack'
p9
S''
s.