(dp1
S'args'
p2
S''
sS'methodname'
p3
S''
sS'packet_num'
p4
I39
sS'returnval'
p5
S'\naV#Portlandia (TV series)\np7458\naV#Agnosticism\np7459\naV#Geekologie\np7460\naV#Scott Thompson (footballer)\np7461\naV#Louis C.K.\np7462\naVgarfunkel oates\np7463\naV#Dark Horse Comics\np7464\naV#Joss Whedon\np7465\nasVage_max\np7466\nI65\nsVcountries\np7467\n(lp7468\nVUS\np7469\nasVbroad_age\np7470\nI1\nsVage_min\np7471\nI13\nssVid\np7472\nV6007694875765\np7473\nsVobjective\np7474\nI2\nsVmax_bid\np7475\nV65\np7476\nsVad_id\np7477\nI6007694875765\nsVaccount_id\np7478\nI40156177\nsVstart_time\np7479\nNsVlocations\np7480\n(lp7481\nI3\nasVadgroup_status\np7482\nI1\nsVad_status\np7483\nI1\nsVimpression_control_map\np7484\n(lp7485\n(dp7486\nVcontrol\np7487\n(dp7488\nVuser_impression_limit_period\np7489\nI24\nsVuser_impression_limit\np7490\nI6\nsVuser_impression_limit_period_unit\np7491\nI0\nsVimpression_control_type\np7492\nI2\nssVlocation\np7493\nI3\nsasVcreative_ids\np7494\n(lp7495\nI6007694833365\nasVtracking_pixel_ids\np7496\n(lp7497\nsVbid_type\np7498\nI1\nsVname\np7499\nVtweet - optimal\np7500\nsVupdated_time\np7501\nV2013-01-11T17:13:44+0000\np7502\nsVend_time\np7503\nNsa(dp7504\nVbid_info\np7505\n(dp7506\nV1\np7507\nV65\np7508\nssVcampaign_id\np7509\nI6007697014365\nsVlast_updated_by_app_id\np7510\nI6802152230\nsVcreated_time\np7511\nV2013-01-11T18:59:35+0000\np7512\nsVconversion_specs\np7513\n(lp7514\nsVadgroup_id\np7515\nI6007697015565\nsVtargeting\np7516\n(dp7517\nVregions\np7518\n(lp7519\n(dp7520\nVid\np7521\nV32\np7522\nsVname\np7523\nVNevada\np7524\nsasVage_max\np7525\nI65\nsVcountries\np7526\n(lp7527\nVUS\np7528\nasVbroad_age\np7529\nI1\nsVage_min\np7530\nI13\nssVid\np7531\nV6007697015565\np7532\nsVobjective\np7533\nI2\nsVmax_bid\np7534\nV65\np7535\nsVad_id\np7536\nI6007697015565\nsVaccount_id\np7537\nI40156177\nsVstart_time\np7538\nNsVlocations\np7539\n(lp7540\nI3\nasVadgroup_status\np7541\nI1\nsVad_status\np7542\nI1\nsVimpression_control_map\np7543\n(lp7544\n(dp7545\nVcontrol\np7546\n(dp7547\nVuser_impression_limit_period\np7548\nI24\nsVuser_impression_limit\np7549\nI6\nsVuser_impression_limit_period_unit\np7550\nI0\nsVimpression_control_type\np7551\nI2\nssVlocation\np7552\nI3\nsasVcreative_ids\np7553\n(lp7554\nI6007697015165\nasVtracking_pixel_ids\np7555\n(lp7556\nsVbid_type\np7557\nI1\nsVname\np7558\nVfire - nevada\np7559\nsVupdated_time\np7560\nV2013-01-11T19:03:11+0000\np7561\nsVend_time\np7562\nNsa(dp7563\nVbid_info\np7564\n(dp7565\nV1\np7566\nV65\np7567\nssVcampaign_id\np7568\nI6007697014365\nsVlast_updated_by_app_id\np7569\nI6802152230\nsVcreated_time\np7570\nV2013-01-11T19:00:55+0000\np7571\nsVconversion_specs\np7572\n(lp7573\nsVadgroup_id\np7574\nI6007697056765\nsVtargeting\np7575\n(dp7576\nVcountries\np7577\n(lp7578\nVUS\np7579\nasVage_max\np7580\nI65\nsVcities\np7581\n(lp7582\n(dp7583\nVid\np7584\nV2413713\np7585\nsVname\np7586\nVPhoenix, AZ\np7587\nsa(dp7588\nVid\np7589\nV2420379\np7590\nsVname\np7591\nVLos Angeles, CA\np7592\nsa(dp7593\nVid\np7594\nV2421793\np7595\nsVname\np7596\nVSacramento, CA\np7597\nsa(dp7598\nVid\np7599\nV2421830\np7600\nsVname\np7601\nVSan Diego, CA\np7602\nsa(dp7603\nVid\np7604\nV2421836\np7605\nsVname\np7606\nVSan Francisco, CA\np7607\nsa(dp7608\nVid\np7609\nV2532348\np7610\nsVname\np7611\nVSalt Lake City, UT\np7612\nsasVbroad_age\np7613\nI1\nsVage_min\np7614\nI13\nssVid\np7615\nV6007697056765\np7616\nsVobjective\np7617\nI2\nsVmax_bid\np7618\nV65\np7619\nsVad_id\np7620\nI6007697056765\nsVaccount_id\np7621\nI40156177\nsVstart_time\np7622\nNsVlocations\np7623\n(lp7624\nI3\nasVadgroup_status\np7625\nI1\nsVad_status\np7626\nI1\nsVimpression_control_map\np7627\n(lp7628\n(dp7629\nVcontrol\np7630\n(dp7631\nVuser_impression_limit_period\np7632\nI24\nsVuser_impression_limit\np7633\nI6\nsVuser_impression_limit_period_unit\np7634\nI0\nsVimpression_control_type\np7635\nI2\nssVlocation\np7636\nI3\nsasVcreative_ids\np7637\n(lp7638\nI6007697015165\nasVtracking_pixel_ids\np7639\n(lp7640\nsVbid_type\np7641\nI1\nsVname\np7642\nVfire - cities\np7643\nsVupdated_time\np7644\nV2013-01-11T19:04:48+0000\np7645\nsVend_time\np7646\nNsa(dp7647\nVbid_info\np7648\n(dp7649\nV1\np7650\nV65\np7651\nssVcampaign_id\np7652\nI6007700802765\nsVlast_updated_by_app_id\np7653\nI6802152230\nsVcreated_time\np7654\nV2013-01-11T22:44:09+0000\np7655\nsVconversion_specs\np7656\n(lp7657\nsVadgroup_id\np7658\nI6007700803765\nsVtargeting\np7659\n(dp7660\nVkeywords\np7661\n(lp7662\nVanimal party\np7663\naV#Rachel Berry\np7664\naV#SeaWorld\np7665\naV#Ghost Hunters\np7666\naV#Costume\np7667\naV#DC Cupcakes\np7668\naV#Animal Planet\np7669\naV#Disneyn'
p6
sS'hash'
p7
S'835acb921602195ccd1fafc190a85a4c483e4325'
p8
sS'stack'
p9
S''
s.