(dp1
S'args'
p2
S''
sS'methodname'
p3
S''
sS'packet_num'
p4
I14
sS'returnval'
p5
S')\np2637\naV#Ryan Gosling\np2638\nasVage_max\np2639\nI65\nsVcountries\np2640\n(lp2641\nVUS\np2642\nasVbroad_age\np2643\nI1\nsVage_min\np2644\nI13\nssVid\np2645\nV6007671138765\np2646\nsVobjective\np2647\nI2\nsVmax_bid\np2648\nV65\np2649\nsVdisapprove_reason_descriptions\np2650\n(lp2651\nVBefore resubmitting your ad, please visit our Help Center (http://www.facebook.com/help/?page=245316378826196) for additional information and examples compliant with our Advertising Guidelines.\np2652\nasVad_id\np2653\nI6007671138765\nsVaccount_id\np2654\nI40156177\nsVstart_time\np2655\nNsVlocations\np2656\n(lp2657\nI3\nasVadgroup_status\np2658\nI5\nsVad_status\np2659\nI5\nsVimpression_control_map\np2660\n(lp2661\n(dp2662\nVcontrol\np2663\n(dp2664\nVuser_impression_limit_period\np2665\nI24\nsVuser_impression_limit\np2666\nI6\nsVuser_impression_limit_period_unit\np2667\nI0\nsVimpression_control_type\np2668\nI2\nssVlocation\np2669\nI3\nsasVcreative_ids\np2670\n(lp2671\nI6007647273565\nasVtracking_pixel_ids\np2672\n(lp2673\nsVbid_type\np2674\nI1\nsVname\np2675\nVGay\np2676\nsVupdated_time\np2677\nV2013-01-11T22:40:01+0000\np2678\nsVend_time\np2679\nNsa(dp2680\nVbid_info\np2681\n(dp2682\nV1\np2683\nV65\np2684\nssVcampaign_id\np2685\nI6007647325165\nsVlast_updated_by_app_id\np2686\nI209787012415271\nsVcreated_time\np2687\nV2013-01-09T20:09:21+0000\np2688\nsVconversion_specs\np2689\n(lp2690\nsVadgroup_id\np2691\nI6007647326365\nsVtargeting\np2692\n(dp2693\nVkeywords\np2694\n(lp2695\nV#Thor\np2696\naV#Marvel Comics\np2697\naV#Pembroke Welsh Corgi\np2698\naV#Corgi Classics\np2699\naV#Welsh Corgi\np2700\naV#Cuteness\np2701\naV#Thor (Marvel Comics)\np2702\naV#Corgi International\np2703\naV#Dog\np2704\naV#Cardigan Welsh Corgi\np2705\naV#BuzzFeed\np2706\naV#The Avengers (2012 film)\np2707\naV#Corgi Toys\np2708\naV#Chris Hemsworth\np2709\naV#Thor (film)\np2710\nasVage_max\np2711\nI65\nsVcountries\np2712\n(lp2713\nVUS\np2714\nasVbroad_age\np2715\nI1\nsVage_min\np2716\nI13\nssVid\np2717\nV6007647326365\np2718\nsVobjective\np2719\nI2\nsVmax_bid\np2720\nV65\np2721\nsVad_id\np2722\nI6007647326365\nsVaccount_id\np2723\nI40156177\nsVstart_time\np2724\nNsVlocations\np2725\n(lp2726\nI3\nasVadgroup_status\np2727\nI1\nsVad_status\np2728\nI1\nsVimpression_control_map\np2729\n(lp2730\n(dp2731\nVcontrol\np2732\n(dp2733\nVuser_impression_limit_period\np2734\nI24\nsVuser_impression_limit\np2735\nI3\nsVuser_impression_limit_period_unit\np2736\nI0\nsVimpression_control_type\np2737\nI2\nssVlocation\np2738\nI3\nsasVcreative_ids\np2739\n(lp2740\nI6007647325965\nasVtracking_pixel_ids\np2741\n(lp2742\nsVbid_type\np2743\nI1\nsVname\np2744\nVhttp://bs.serving-sys.com/BurstingPipe/adServer.bs?cn=tf&c=20&mc=click&pli=6041976&PluID=0&o... - Ad\np2745\nsVupdated_time\np2746\nV2013-01-09T20:13:43+0000\np2747\nsVend_time\np2748\nNsa(dp2749\nVbid_info\np2750\n(dp2751\nV1\np2752\nV65\np2753\nssVcampaign_id\np2754\nI6007647325165\nsVlast_updated_by_app_id\np2755\nI209787012415271\nsVcreated_time\np2756\nV2013-01-10T16:06:16+0000\np2757\nsVconversion_specs\np2758\n(lp2759\nsVadgroup_id\np2760\nI6007671322765\nsVtargeting\np2761\n(dp2762\nVkeywords\np2763\n(lp2764\nV#Batman: Arkham City\np2765\naV#Batman: Arkham Asylum\np2766\naV#Stray Cats\np2767\naV#Kitten\np2768\naV#Cat\np2769\naV#Batman Begins\np2770\naV#Cuteness\np2771\naV#Cats 101\np2772\naV#DC Comics\np2773\naV#The Dark Knight Rises\np2774\naV#The Dark Knight (film)\np2775\naV#Cats Protection\np2776\naV#Batman\np2777\nasVage_max\np2778\nI65\nsVcountries\np2779\n(lp2780\nVUS\np2781\nasVbroad_age\np2782\nI1\nsVage_min\np2783\nI13\nssVid\np2784\nV6007671322765\np2785\nsVobjective\np2786\nI2\nsVmax_bid\np2787\nV65\np2788\nsVad_id\np2789\nI6007671322765\nsVaccount_id\np2790\nI40156177\nsVstart_time\np2791\nNsVlocations\np2792\n(lp2793\nI3\nasVadgroup_status\np2794\nI1\nsVad_status\np2795\nI1\nsVimpression_control_map\np2796\n(lp2797\n(dp2798\nVcontrol\np2799\n(dp2800\nVuser_impression_limit_period\np2801\nI24\nsVuser_impression_limit\np2802\nI3\nsVuser_impression_limit_period_unit\np2803\nI0\nsVimpression_control_type\np2804\nI2\nssVlocation\np2805\nI3\nsasVcreative_ids\np2806\n(lp2807\nI6007671322365\nasVtracking_pixel_ids\np2808\n(lp2809\nsVbid_type\np2810\nI1\nsVname\np2811\nVBatCat\np2812\nsVupdated_time\np2813\nV2013-01-10T22:28:48+0000\np2814\nsVend_time\np2815\nNsa(dp2816\nVbid_info\np2817\n(dp2818\nV1\np2819\nV65\np2820\nssVcampaign_id\np2821\nI6007648504165\nsVlast_updated_by_app_id\np2822\nI209787012415271\nsV'
p6
sS'hash'
p7
S'835acb921602195ccd1fafc190a85a4c483e4325'
p8
sS'stack'
p9
S''
s.