(dp1
S'args'
p2
S''
sS'methodname'
p3
S''
sS'packet_num'
p4
I63
sS'returnval'
p5
S'last_updated_by_app_id\np11960\nI209787012415271\nsVcreated_time\np11961\nV2013-01-15T15:59:44+0000\np11962\nsVconversion_specs\np11963\n(lp11964\nsVadgroup_id\np11965\nI6007789306365\nsVtargeting\np11966\n(dp11967\nVkeywords\np11968\n(lp11969\nV#Mashable\np11970\naV#Redneck\np11971\naV#Internet meme\np11972\naV#Digg\np11973\naV#The Onion\np11974\naV#CollegeHumor\np11975\naV#Cracked.com\np11976\naV#My Big Redneck Wedding\np11977\naV#Reddit\np11978\naV#BuzzFeed\np11979\naV#Funny or Die\np11980\nasVage_max\np11981\nI65\nsVcountries\np11982\n(lp11983\nVUS\np11984\nasVbroad_age\np11985\nI1\nsVage_min\np11986\nI13\nssVid\np11987\nV6007789306365\np11988\nsVobjective\np11989\nI2\nsVmax_bid\np11990\nV65\np11991\nsVad_id\np11992\nI6007789306365\nsVaccount_id\np11993\nI40156177\nsVstart_time\np11994\nNsVlocations\np11995\n(lp11996\nI3\nasVadgroup_status\np11997\nI1\nsVad_status\np11998\nI1\nsVimpression_control_map\np11999\n(lp12000\n(dp12001\nVcontrol\np12002\n(dp12003\nVuser_impression_limit_period\np12004\nI24\nsVuser_impression_limit\np12005\nI6\nsVuser_impression_limit_period_unit\np12006\nI0\nsVimpression_control_type\np12007\nI2\nssVlocation\np12008\nI3\nsasVcreative_ids\np12009\n(lp12010\nI6007789305965\nasVtracking_pixel_ids\np12011\n(lp12012\nsVbid_type\np12013\nI1\nsVname\np12014\nVcandlebra\np12015\nsVupdated_time\np12016\nV2013-01-16T21:45:40+0000\np12017\nsVend_time\np12018\nNsa(dp12019\nVbid_info\np12020\n(dp12021\nV1\np12022\nV65\np12023\nssVcampaign_id\np12024\nI6007789305365\nsVlast_updated_by_app_id\np12025\nI209787012415271\nsVcreated_time\np12026\nV2013-01-15T16:00:20+0000\np12027\nsVconversion_specs\np12028\n(lp12029\nsVadgroup_id\np12030\nI6007789310365\nsVtargeting\np12031\n(dp12032\nVkeywords\np12033\n(lp12034\nV#Mashable\np12035\naV#Redneck\np12036\naV#Internet meme\np12037\naV#Digg\np12038\naV#The Onion\np12039\naV#CollegeHumor\np12040\naV#Cracked.com\np12041\naV#My Big Redneck Wedding\np12042\naV#Reddit\np12043\naV#BuzzFeed\np12044\naV#Funny or Die\np12045\nasVage_max\np12046\nI65\nsVcountries\np12047\n(lp12048\nVUS\np12049\nasVbroad_age\np12050\nI1\nsVage_min\np12051\nI13\nssVid\np12052\nV6007789310365\np12053\nsVobjective\np12054\nI2\nsVmax_bid\np12055\nV65\np12056\nsVad_id\np12057\nI6007789310365\nsVaccount_id\np12058\nI40156177\nsVstart_time\np12059\nNsVlocations\np12060\n(lp12061\nI3\nasVadgroup_status\np12062\nI1\nsVad_status\np12063\nI1\nsVimpression_control_map\np12064\n(lp12065\n(dp12066\nVcontrol\np12067\n(dp12068\nVuser_impression_limit_period\np12069\nI24\nsVuser_impression_limit\np12070\nI3\nsVuser_impression_limit_period_unit\np12071\nI0\nsVimpression_control_type\np12072\nI2\nssVlocation\np12073\nI3\nsasVcreative_ids\np12074\n(lp12075\nI6007789309965\nasVtracking_pixel_ids\np12076\n(lp12077\nsVbid_type\np12078\nI1\nsVname\np12079\nVparty glasses\np12080\nsVupdated_time\np12081\nV2013-01-16T21:45:23+0000\np12082\nsVend_time\np12083\nNsa(dp12084\nVbid_info\np12085\n(dp12086\nV1\np12087\nV65\np12088\nssVcampaign_id\np12089\nI6007789376165\nsVlast_updated_by_app_id\np12090\nI6802152230\nsVcreated_time\np12091\nV2013-01-15T16:03:53+0000\np12092\nsVconversion_specs\np12093\n(lp12094\nsVadgroup_id\np12095\nI6007789377165\nsVtargeting\np12096\n(dp12097\nVkeywords\np12098\n(lp12099\nV#Mashable\np12100\naV#Redneck\np12101\naV#Internet meme\np12102\naV#Digg\np12103\naV#The Onion\np12104\naV#CollegeHumor\np12105\naV#Cracked.com\np12106\naV#My Big Redneck Wedding\np12107\naV#Reddit\np12108\naV#BuzzFeed\np12109\naV#Funny or Die\np12110\nasVage_max\np12111\nI65\nsVcountries\np12112\n(lp12113\nVUS\np12114\nasVbroad_age\np12115\nI1\nsVage_min\np12116\nI13\nssVid\np12117\nV6007789377165\np12118\nsVobjective\np12119\nI2\nsVmax_bid\np12120\nV65\np12121\nsVad_id\np12122\nI6007789377165\nsVaccount_id\np12123\nI40156177\nsVstart_time\np12124\nNsVlocations\np12125\n(lp12126\nI3\nasVadgroup_status\np12127\nI1\nsVad_status\np12128\nI1\nsVimpression_control_map\np12129\n(lp12130\n(dp12131\nVcontrol\np12132\n(dp12133\nVuser_impression_limit_period\np12134\nI24\nsVuser_impression_limit\np12135\nI6\nsVuser_impression_limit_period_unit\np12136\nI0\nsVimpression_control_type\np12137\nI2\nssVlocation\np12138\nI3\nsasVcreative_ids\np12139\n(lp12140\nI6007789376765\nasVtracking_pixel_ids\np12141\n(lp12142\nsVbid_type\np12143\nI1\nsVname\np12144\nVmystery hole\np12145\nsVupdated_time\np12146\nV2013-01-15T16:08:15+0000\np12147\nsVend_time\np12148\nNsa(dp12149\nVbid_info\np12150\n(dp12151\nV1\np12152\nV65\np12153\nssVcampaign'
p6
sS'hash'
p7
S'835acb921602195ccd1fafc190a85a4c483e4325'
p8
sS'stack'
p9
S''
s.