(dp1
S'args'
p2
S''
sS'methodname'
p3
S''
sS'packet_num'
p4
I96
sS'returnval'
p5
S''
sS'hash'
p6
S'835acb921602195ccd1fafc190a85a4c483e4325'
p7
sS'stack'
p8
S'evelopment/django/buzzfeed/local/lib/python2.7/site-packages/nose/core.py __init__ /home/orozco/development/django/buzzfeed/bin/nosetests <module> '
p9
s.