(dp1
S'args'
p2
S''
sS'methodname'
p3
S''
sS'packet_num'
p4
I37
sS'returnval'
p5
S"3\naV#The '90s Are All That\np7074\naV#90s\np7075\naV#Psyduck\np7076\nasVage_max\np7077\nI65\nsVcountries\np7078\n(lp7079\nVUS\np7080\nasVbroad_age\np7081\nI1\nsVage_min\np7082\nI13\nssVid\np7083\nV6007694626565\np7084\nsVobjective\np7085\nI2\nsVmax_bid\np7086\nV65\np7087\nsVad_id\np7088\nI6007694626565\nsVaccount_id\np7089\nI40156177\nsVstart_time\np7090\nNsVlocations\np7091\n(lp7092\nI3\nasVadgroup_status\np7093\nI1\nsVad_status\np7094\nI1\nsVimpression_control_map\np7095\n(lp7096\n(dp7097\nVcontrol\np7098\n(dp7099\nVuser_impression_limit_period\np7100\nI24\nsVuser_impression_limit\np7101\nI6\nsVuser_impression_limit_period_unit\np7102\nI0\nsVimpression_control_type\np7103\nI2\nssVlocation\np7104\nI3\nsasVcreative_ids\np7105\n(lp7106\nI6007694514565\nasVtracking_pixel_ids\np7107\n(lp7108\nsVbid_type\np7109\nI1\nsVname\np7110\nVNot Optimal\np7111\nsVupdated_time\np7112\nV2013-01-11T16:58:37+0000\np7113\nsVend_time\np7114\nNsa(dp7115\nVbid_info\np7116\n(dp7117\nV1\np7118\nV65\np7119\nssVcampaign_id\np7120\nI6007694513965\nsVlast_updated_by_app_id\np7121\nI6802152230\nsVcreated_time\np7122\nV2013-01-14T18:23:21+0000\np7123\nsVconversion_specs\np7124\n(lp7125\nsVadgroup_id\np7126\nI6007766266765\nsVtargeting\np7127\n(dp7128\nVkeywords\np7129\n(lp7130\nV#Pok\xe9mon Ruby and Sapphire\np7131\naV#Pok\xe9mon (video game series)\np7132\naV#Pok\xe9mon HeartGold and SoulSilver\np7133\naV#Nostalgia\np7134\naV#LGBT rights by country or territory\np7135\naV#Pok\xe9mon Platinum\np7136\naVpokemon\np7137\naV#Pok\xe9mon FireRed and LeafGreen\np7138\naV#Game Boy Color\np7139\naV#Game Boy\np7140\naV#Gay pride\np7141\naV#Pok\xe9mon crime syndicates\np7142\naV#Pok\xe9mon Black and White\np7143\naV#Lesbian\np7144\naV#Ash Ketchum\np7145\naV#Mew (Pok\xe9mon)\np7146\naV#LGBT parenting\np7147\naV#Pok\xe9Park Wii: Pikachu's Adventure\np7148\naV#Pok\xe9mon Snap\np7149\naV#Pok\xe9mon Red and Blue\np7150\naV#Pok\xe9mon Gold and Silver\np7151\naV#Game Boy Advance\np7152\naV#Pok\xe9mon Diamond and Pearl\np7153\naV#Homosexuality\np7154\naV#Mewtwo\np7155\naV#Pok\xe9mon\np7156\naV#Power Rangers\np7157\naV#Pok\xe9mon (anime)\np7158\naV#Pok\xe9mon regions\np7159\naV#Snorlax\np7160\naV#Gay Times\np7161\naV#Squirtle\np7162\naV#Pok\xe9mon Trading Card Game\np7163\naV#Mighty Morphin Power Rangers\np7164\naV#LGBT culture\np7165\naV#LGBT\np7166\naV#Jigglypuff\np7167\naV#Tetris\np7168\naV#Gay\np7169\naV#Brock (Pok\xe9mon)\np7170\naV#Pok\xe9mon Stadium\np7171\naV#Pikachu\np7172\naV#Pok\xe9mon (manga)\np7173\naV#Bulbasaur\np7174\naV#Charmander\np7175\naV#Blastoise\np7176\naV#Teenage Mutant Ninja Turtles\np7177\naV#Pok\xe9mon Trainer\np7178\naV#Gay bar\np7179\naV#Misty (Pok\xe9mon)\np7180\naV#Gameplay of Pok\xe9mon\np7181\naV#Pika\np7182\naV#Charizard\np7183\naV#The '90s Are All That\np7184\naV#Gay.com\np7185\naV#LGBT social movements\np7186\naV#90s\np7187\naV#Psyduck\np7188\naV#LGBT community\np7189\nasVage_max\np7190\nI65\nsVcountries\np7191\n(lp7192\nVUS\np7193\nasVbroad_age\np7194\nI1\nsVage_min\np7195\nI13\nssVid\np7196\nV6007766266765\np7197\nsVobjective\np7198\nI2\nsVmax_bid\np7199\nV65\np7200\nsVad_id\np7201\nI6007766266765\nsVaccount_id\np7202\nI40156177\nsVstart_time\np7203\nNsVlocations\np7204\n(lp7205\nI3\nasVadgroup_status\np7206\nI1\nsVad_status\np7207\nI1\nsVimpression_control_map\np7208\n(lp7209\n(dp7210\nVcontrol\np7211\n(dp7212\nVuser_impression_limit_period\np7213\nI24\nsVuser_impression_limit\np7214\nI6\nsVuser_impression_limit_period_unit\np7215\nI0\nsVimpression_control_type\np7216\nI2\nssVlocation\np7217\nI3\nsasVcreative_ids\np7218\n(lp7219\nI6007694514565\nasVtracking_pixel_ids\np7220\n(lp7221\nsVbid_type\np7222\nI1\nsVname\np7223\nVNot Optimal + Gay\np7224\nsVupdated_time\np7225\nV2013-01-14T18:27:29+0000\np7226\nsVend_time\np7227\nNsa(dp7228\nVbid_info\np7229\n(dp7230\nV1\np7231\nV65\np7232\nssVcampaign_id\np7233\nI6007694669765\nsVlast_updated_by_app_id\np7234\nI6802152230\nsVcreated_time\np7235\nV2013-01-11T16:57:54+0000\np7236\nsVconversion_specs\np7237\n(lp7238\nsVadgroup_id\np7239\nI6007694670965\nsVtargeting\np7240\n(dp7241\nVkeywords\np7242\n(lp7243\nV#Mashable\np7244\naV#Wired (magazine)\np7245\naV#Reddit\np7246\naV#Gizmodo\np7247\naV#Lifehacker\np7248\naV#Instagram\np7249\naV#Pinterest\np7250\naV#TechCrunch\np7251\naV#VentureBeat\np7252\nasVage_max\np7253\nI65\nsVcountries\np7254\n(lp7255\nVUS\np7256\nasVbroad_age\np7257\nI1\nsVage_min\np7258\nI13\nssVid\np7259\nV6007694670965\np7260\nsVobjective\np7261\nI2\nsVmax_bid\np7262\nV65\np7263\nsVad_id\np7264\nI6007694670965\nsVaccount_id\np7265\nI401"
p6
sS'hash'
p7
S'835acb921602195ccd1fafc190a85a4c483e4325'
p8
sS'stack'
p9
S''
s.