(dp1
S'args'
p2
S''
sS'methodname'
p3
S''
sS'packet_num'
p4
I12
sS'returnval'
p5
S"ch Fitness\np2274\naV#Superman\np2275\naV#Bench press\np2276\naVnew york sports club\np2277\naV#Chris Evans (actor)\np2278\naV#100 (DC Comics)\np2279\naV#The Avengers (2012 film)\np2280\naV#Weight training\np2281\naV#Batman\np2282\naV#Fantastic Four\np2283\naV#Storm (Marvel Comics)\np2284\naV#Bodybuilding\np2285\naV#MuscleTech\np2286\naV#Biceps\np2287\naV#Captain America\np2288\naV#Thor (film)\np2289\naV#Joss Whedon\np2290\naV#Marvel: Avengers Alliance\np2291\nasVage_max\np2292\nI65\nsVcountries\np2293\n(lp2294\nVUS\np2295\nasVbroad_age\np2296\nI1\nsVage_min\np2297\nI13\nssVid\np2298\nV6007670578965\np2299\nsVobjective\np2300\nI2\nsVmax_bid\np2301\nV65\np2302\nsVad_id\np2303\nI6007670578965\nsVaccount_id\np2304\nI40156177\nsVstart_time\np2305\nNsVlocations\np2306\n(lp2307\nI3\nasVadgroup_status\np2308\nI1\nsVad_status\np2309\nI1\nsVimpression_control_map\np2310\n(lp2311\n(dp2312\nVcontrol\np2313\n(dp2314\nVuser_impression_limit_period\np2315\nI24\nsVuser_impression_limit\np2316\nI3\nsVuser_impression_limit_period_unit\np2317\nI0\nsVimpression_control_type\np2318\nI2\nssVlocation\np2319\nI3\nsasVcreative_ids\np2320\n(lp2321\nI6007670690965\nasVtracking_pixel_ids\np2322\n(lp2323\nsVbid_type\np2324\nI1\nsVname\np2325\nVWeightlifting\np2326\nsVupdated_time\np2327\nV2013-01-14T14:57:26+0000\np2328\nsVend_time\np2329\nV2013-01-15T07:45:00+0000\np2330\nsa(dp2331\nVbid_info\np2332\n(dp2333\nV1\np2334\nV65\np2335\nssVcampaign_id\np2336\nI6007647056565\nsVlast_updated_by_app_id\np2337\nI209787012415271\nsVcreated_time\np2338\nV2013-01-10T15:22:44+0000\np2339\nsVconversion_specs\np2340\n(lp2341\nsVadgroup_id\np2342\nI6007670580365\nsVtargeting\np2343\n(dp2344\nVkeywords\np2345\n(lp2346\nV#Superhero\np2347\naV#Hulk (comics)\np2348\naV#X-Men Origins: Wolverine\np2349\naV#Marvel Comics\np2350\naV#Sheldon Cooper\np2351\naV#X-Men (film series)\np2352\naV#X-Men: First Class\np2353\naV#Avengers (comics)\np2354\naV#Marvel Studios\np2355\naV#Comics\np2356\naV#Penny (The Big Bang Theory)\np2357\naV#Iron Man (film)\np2358\naV#Lobo (DC Comics)\np2359\naV#Vertigo (DC Comics)\np2360\naV#DC Comics Presents\np2361\naV#Livewire (DC Comics)\np2362\naV#The Incredible Hulk (film)\np2363\naV#Thor (Marvel Comics)\np2364\naV#The Avengers: Earth's Mightiest Heroes\np2365\naV#DC Comics\np2366\naV#Marvel Universe\np2367\naV#Captain America: The First Avenger\np2368\naV#Wolverine (comics)\np2369\naV#Professor X\np2370\naV#Iron Man 2\np2371\naV#Stan Lee\np2372\naV#Superman\np2373\naV#Chris Evans (actor)\np2374\naV#100 (DC Comics)\np2375\naV#The Avengers (2012 film)\np2376\naV#Batman\np2377\naV#Fantastic Four\np2378\naV#Storm (Marvel Comics)\np2379\naV#Captain America\np2380\naV#Thor (film)\np2381\naV#Joss Whedon\np2382\naV#Marvel: Avengers Alliance\np2383\nasVage_max\np2384\nI65\nsVcountries\np2385\n(lp2386\nVUS\np2387\nasVbroad_age\np2388\nI1\nsVage_min\np2389\nI13\nssVid\np2390\nV6007670580365\np2391\nsVobjective\np2392\nI2\nsVmax_bid\np2393\nV65\np2394\nsVad_id\np2395\nI6007670580365\nsVaccount_id\np2396\nI40156177\nsVstart_time\np2397\nNsVlocations\np2398\n(lp2399\nI3\nasVadgroup_status\np2400\nI1\nsVad_status\np2401\nI1\nsVimpression_control_map\np2402\n(lp2403\n(dp2404\nVcontrol\np2405\n(dp2406\nVuser_impression_limit_period\np2407\nI24\nsVuser_impression_limit\np2408\nI3\nsVuser_impression_limit_period_unit\np2409\nI0\nsVimpression_control_type\np2410\nI2\nssVlocation\np2411\nI3\nsasVcreative_ids\np2412\n(lp2413\nI6007670690965\nasVtracking_pixel_ids\np2414\n(lp2415\nsVbid_type\np2416\nI1\nsVname\np2417\nVMore Comics\np2418\nsVupdated_time\np2419\nV2013-01-14T14:57:26+0000\np2420\nsVend_time\np2421\nV2013-01-15T07:45:00+0000\np2422\nsa(dp2423\nVbid_info\np2424\n(dp2425\nV1\np2426\nV65\np2427\nssVcampaign_id\np2428\nI6007647272965\nsVlast_updated_by_app_id\np2429\nI209787012415271\nsVcreated_time\np2430\nV2013-01-09T20:06:53+0000\np2431\nsVconversion_specs\np2432\n(lp2433\nsVadgroup_id\np2434\nI6007647273965\nsVtargeting\np2435\n(dp2436\nVkeywords\np2437\n(lp2438\nV#Abdomen\np2439\naV#Pull-up (exercise)\np2440\naV#Crunch (exercise)\np2441\naV#Push-up\np2442\naV#Core (anatomy)\np2443\naV#P90X\np2444\naV#World Amateur Body Building Association\np2445\naV#Bally Total Fitness\np2446\naV#Abdominal exercise\np2447\naV#Fitness and figure competition\np2448\naV#Tae Bo\np2449\naV#Squat (exercise)\np2450\naV#The CW Television Network\np2451\naV#Gold's Gym\np2452\naVsixpack\np2453\naV#Arnold Schwarzenegger\np2454\naV#Crunch Fitness\n"
p6
sS'hash'
p7
S'835acb921602195ccd1fafc190a85a4c483e4325'
p8
sS'stack'
p9
S''
s.