(dp1
S'args'
p2
S''
sS'methodname'
p3
S''
sS'packet_num'
p4
I62
sS'returnval'
p5
S'time\np11755\nV2013-01-15T15:23:12+0000\np11756\nsVconversion_specs\np11757\n(lp11758\nsVadgroup_id\np11759\nI6007788613365\nsVtargeting\np11760\n(dp11761\nVregions\np11762\n(lp11763\n(dp11764\nVid\np11765\nV32\np11766\nsVname\np11767\nVNevada\np11768\nsasVage_max\np11769\nI65\nsVcountries\np11770\n(lp11771\nVUS\np11772\nasVbroad_age\np11773\nI1\nsVage_min\np11774\nI13\nssVid\np11775\nV6007788613365\np11776\nsVobjective\np11777\nI2\nsVmax_bid\np11778\nV65\np11779\nsVad_id\np11780\nI6007788613365\nsVaccount_id\np11781\nI40156177\nsVstart_time\np11782\nNsVlocations\np11783\n(lp11784\nI3\nasVadgroup_status\np11785\nI1\nsVad_status\np11786\nI1\nsVimpression_control_map\np11787\n(lp11788\n(dp11789\nVcontrol\np11790\n(dp11791\nVuser_impression_limit_period\np11792\nI24\nsVuser_impression_limit\np11793\nI6\nsVuser_impression_limit_period_unit\np11794\nI0\nsVimpression_control_type\np11795\nI2\nssVlocation\np11796\nI3\nsasVcreative_ids\np11797\n(lp11798\nI6007788612965\nasVtracking_pixel_ids\np11799\n(lp11800\nsVbid_type\np11801\nI1\nsVname\np11802\nVnevada\np11803\nsVupdated_time\np11804\nV2013-01-15T15:27:40+0000\np11805\nsVend_time\np11806\nNsa(dp11807\nVbid_info\np11808\n(dp11809\nV1\np11810\nV65\np11811\nssVcampaign_id\np11812\nI6007788612365\nsVlast_updated_by_app_id\np11813\nI6802152230\nsVcreated_time\np11814\nV2013-01-15T15:23:51+0000\np11815\nsVconversion_specs\np11816\n(lp11817\nsVadgroup_id\np11818\nI6007788615965\nsVtargeting\np11819\n(dp11820\nVcountries\np11821\n(lp11822\nVUS\np11823\nasVage_max\np11824\nI65\nsVcities\np11825\n(lp11826\n(dp11827\nVid\np11828\nV2413713\np11829\nsVname\np11830\nVPhoenix, AZ\np11831\nsa(dp11832\nVid\np11833\nV2420379\np11834\nsVname\np11835\nVLos Angeles, CA\np11836\nsa(dp11837\nVid\np11838\nV2421793\np11839\nsVname\np11840\nVSacramento, CA\np11841\nsa(dp11842\nVid\np11843\nV2421830\np11844\nsVname\np11845\nVSan Diego, CA\np11846\nsa(dp11847\nVid\np11848\nV2421836\np11849\nsVname\np11850\nVSan Francisco, CA\np11851\nsa(dp11852\nVid\np11853\nV2532348\np11854\nsVname\np11855\nVSalt Lake City, UT\np11856\nsasVbroad_age\np11857\nI1\nsVage_min\np11858\nI13\nssVid\np11859\nV6007788615965\np11860\nsVobjective\np11861\nI2\nsVmax_bid\np11862\nV65\np11863\nsVad_id\np11864\nI6007788615965\nsVaccount_id\np11865\nI40156177\nsVstart_time\np11866\nNsVlocations\np11867\n(lp11868\nI3\nasVadgroup_status\np11869\nI1\nsVad_status\np11870\nI1\nsVimpression_control_map\np11871\n(lp11872\n(dp11873\nVcontrol\np11874\n(dp11875\nVuser_impression_limit_period\np11876\nI24\nsVuser_impression_limit\np11877\nI6\nsVuser_impression_limit_period_unit\np11878\nI0\nsVimpression_control_type\np11879\nI2\nssVlocation\np11880\nI3\nsasVcreative_ids\np11881\n(lp11882\nI6007788612965\nasVtracking_pixel_ids\np11883\n(lp11884\nsVbid_type\np11885\nI1\nsVname\np11886\nVcities\np11887\nsVupdated_time\np11888\nV2013-01-15T15:27:41+0000\np11889\nsVend_time\np11890\nNsa(dp11891\nVbid_info\np11892\n(dp11893\nV1\np11894\nV65\np11895\nssVcampaign_id\np11896\nI6007788612365\nsVlast_updated_by_app_id\np11897\nI6802152230\nsVcreated_time\np11898\nV2013-01-15T20:15:36+0000\np11899\nsVconversion_specs\np11900\n(lp11901\nsVadgroup_id\np11902\nI6007793744365\nsVtargeting\np11903\n(dp11904\nVkeywords\np11905\n(lp11906\nV#Antiques Roadshow\np11907\naV#Las Vegas Strip\np11908\naV#Discovery Channel\np11909\naV#The Rat Pack (film)\np11910\naVrat pack\np11911\naV#Las Vegas\np11912\naV#Travel Channel\np11913\naV#History (U.S. TV channel)\np11914\naV#Vintage\np11915\nasVage_max\np11916\nI65\nsVcountries\np11917\n(lp11918\nVUS\np11919\nasVbroad_age\np11920\nI1\nsVage_min\np11921\nI13\nssVid\np11922\nV6007793744365\np11923\nsVobjective\np11924\nI2\nsVmax_bid\np11925\nV65\np11926\nsVad_id\np11927\nI6007793744365\nsVaccount_id\np11928\nI40156177\nsVstart_time\np11929\nNsVlocations\np11930\n(lp11931\nI3\nasVadgroup_status\np11932\nI1\nsVad_status\np11933\nI1\nsVimpression_control_map\np11934\n(lp11935\n(dp11936\nVcontrol\np11937\n(dp11938\nVuser_impression_limit_period\np11939\nI24\nsVuser_impression_limit\np11940\nI6\nsVuser_impression_limit_period_unit\np11941\nI0\nsVimpression_control_type\np11942\nI2\nssVlocation\np11943\nI3\nsasVcreative_ids\np11944\n(lp11945\nI6007788612965\nasVtracking_pixel_ids\np11946\n(lp11947\nsVbid_type\np11948\nI1\nsVname\np11949\nVUS - targeted\np11950\nsVupdated_time\np11951\nV2013-01-15T20:18:44+0000\np11952\nsVend_time\np11953\nNsa(dp11954\nVbid_info\np11955\n(dp11956\nV1\np11957\nV65\np11958\nssVcampaign_id\np11959\nI6007789305365\nsV'
p6
sS'hash'
p7
S'835acb921602195ccd1fafc190a85a4c483e4325'
p8
sS'stack'
p9
S''
s.