(dp1
S'args'
p2
S''
sS'methodname'
p3
S''
sS'packet_num'
p4
I46
sS'returnval'
p5
S"m series)\np8850\naV#The Nightmare Before Christmas\np8851\naV#Child's Play (film series)\np8852\naV#American Horror Story (season 1)\np8853\naV#A Nightmare on Elm Street 2: Freddy's Revenge\np8854\naV#Haunted attraction\np8855\naV#Dawn of the Dead (2004 film)\np8856\naV#Haunted (1995 film)\np8857\naV#The Texas Chainsaw Massacre: The Beginning\np8858\naV#The Texas Chainsaw Massacre (2003 film)\np8859\naV#A Nightmare on Elm Street (franchise)\np8860\naV#Saw (film)\np8861\naV#Chucky (Child's Play)\np8862\naV#Friday the 13th (franchise)\np8863\naV#The Exorcist (film)\np8864\naV#28 Weeks Later\np8865\naV#Halloween (franchise)\np8866\naV#The Texas Chainsaw Massacre (franchise)\np8867\naV#A Nightmare on Elm Street (2010 film)\np8868\naV#Child's Play 3\np8869\naV#Horror film\np8870\naV#Child's Play (1988 film)\np8871\nasVage_max\np8872\nI65\nsVcountries\np8873\n(lp8874\nVUS\np8875\nasVbroad_age\np8876\nI1\nsVage_min\np8877\nI13\nssVid\np8878\nV6007971158165\np8879\nsVobjective\np8880\nI2\nsVmax_bid\np8881\nV65\np8882\nsVad_id\np8883\nI6007971158165\nsVaccount_id\np8884\nI40156177\nsVstart_time\np8885\nNsVlocations\np8886\n(lp8887\nI3\nasVadgroup_status\np8888\nI1\nsVad_status\np8889\nI1\nsVimpression_control_map\np8890\n(lp8891\n(dp8892\nVcontrol\np8893\n(dp8894\nVuser_impression_limit_period\np8895\nI24\nsVuser_impression_limit\np8896\nI6\nsVuser_impression_limit_period_unit\np8897\nI0\nsVimpression_control_type\np8898\nI2\nssVlocation\np8899\nI3\nsasVcreative_ids\np8900\n(lp8901\nI6007758682365\nasVtracking_pixel_ids\np8902\n(lp8903\nsVbid_type\np8904\nI1\nsVname\np8905\nVhaunted - U.S. (targeted) 2\np8906\nsVupdated_time\np8907\nV2013-01-22T22:31:14+0000\np8908\nsVend_time\np8909\nNsa(dp8910\nVbid_info\np8911\n(dp8912\nV1\np8913\nV65\np8914\nssVcampaign_id\np8915\nI6007758681565\nsVlast_updated_by_app_id\np8916\nI6802152230\nsVcreated_time\np8917\nV2013-01-14T14:36:54+0000\np8918\nsVconversion_specs\np8919\n(lp8920\nsVadgroup_id\np8921\nI6007758682765\nsVtargeting\np8922\n(dp8923\nVregions\np8924\n(lp8925\n(dp8926\nVid\np8927\nV32\np8928\nsVname\np8929\nVNevada\np8930\nsasVage_max\np8931\nI65\nsVcountries\np8932\n(lp8933\nVUS\np8934\nasVbroad_age\np8935\nI1\nsVage_min\np8936\nI13\nssVid\np8937\nV6007758682765\np8938\nsVobjective\np8939\nI2\nsVmax_bid\np8940\nV65\np8941\nsVad_id\np8942\nI6007758682765\nsVaccount_id\np8943\nI40156177\nsVstart_time\np8944\nNsVlocations\np8945\n(lp8946\nI3\nasVadgroup_status\np8947\nI9\nsVad_status\np8948\nI2\nsVimpression_control_map\np8949\n(lp8950\n(dp8951\nVcontrol\np8952\n(dp8953\nVuser_impression_limit_period\np8954\nI24\nsVuser_impression_limit\np8955\nI3\nsVuser_impression_limit_period_unit\np8956\nI0\nsVimpression_control_type\np8957\nI2\nssVlocation\np8958\nI3\nsasVcreative_ids\np8959\n(lp8960\nI6007758682365\nasVtracking_pixel_ids\np8961\n(lp8962\nsVbid_type\np8963\nI1\nsVname\np8964\nVhaunted - nevada\np8965\nsVupdated_time\np8966\nV2013-01-23T14:14:04+0000\np8967\nsVend_time\np8968\nV2013-01-24T04:30:00+0000\np8969\nsa(dp8970\nVbid_info\np8971\n(dp8972\nV1\np8973\nV65\np8974\nssVcampaign_id\np8975\nI6007758681565\nsVlast_updated_by_app_id\np8976\nI6802152230\nsVcreated_time\np8977\nV2013-01-14T14:37:33+0000\np8978\nsVconversion_specs\np8979\n(lp8980\nsVadgroup_id\np8981\nI6007758697765\nsVtargeting\np8982\n(dp8983\nVcountries\np8984\n(lp8985\nVUS\np8986\nasVage_max\np8987\nI65\nsVcities\np8988\n(lp8989\n(dp8990\nVid\np8991\nV2413713\np8992\nsVname\np8993\nVPhoenix, AZ\np8994\nsa(dp8995\nVid\np8996\nV2420379\np8997\nsVname\np8998\nVLos Angeles, CA\np8999\nsa(dp9000\nVid\np9001\nV2421793\np9002\nsVname\np9003\nVSacramento, CA\np9004\nsa(dp9005\nVid\np9006\nV2421830\np9007\nsVname\np9008\nVSan Diego, CA\np9009\nsa(dp9010\nVid\np9011\nV2421836\np9012\nsVname\np9013\nVSan Francisco, CA\np9014\nsa(dp9015\nVid\np9016\nV2532348\np9017\nsVname\np9018\nVSalt Lake City, UT\np9019\nsasVbroad_age\np9020\nI1\nsVage_min\np9021\nI13\nssVid\np9022\nV6007758697765\np9023\nsVobjective\np9024\nI2\nsVmax_bid\np9025\nV65\np9026\nsVad_id\np9027\nI6007758697765\nsVaccount_id\np9028\nI40156177\nsVstart_time\np9029\nNsVlocations\np9030\n(lp9031\nI3\nasVadgroup_status\np9032\nI9\nsVad_status\np9033\nI2\nsVimpression_control_map\np9034\n(lp9035\n(dp9036\nVcontrol\np9037\n(dp9038\nVuser_impression_limit_period\np9039\nI24\nsVuser_impression_limit\np9040\nI3\nsVuser_impression_limit_period_unit\np9041\nI0\nsVimpression_control_type\np9042\nI2\nssVlocation\np9043\nI3\nsasVcreative_ids\np9044\n(lp9045\nI600775868"
p6
sS'hash'
p7
S'835acb921602195ccd1fafc190a85a4c483e4325'
p8
sS'stack'
p9
S''
s.