(dp1
S'args'
p2
S''
sS'methodname'
p3
S''
sS'packet_num'
p4
I31
sS'returnval'
p5
S'l_map\np6225\n(lp6226\n(dp6227\nVcontrol\np6228\n(dp6229\nVuser_impression_limit_period\np6230\nI24\nsVuser_impression_limit\np6231\nI3\nsVuser_impression_limit_period_unit\np6232\nI0\nsVimpression_control_type\np6233\nI2\nssVlocation\np6234\nI3\nsasVcreative_ids\np6235\n(lp6236\nI6005487436365\nasVmax_bid\np6237\nV70\np6238\nsVadgroup_id\np6239\nI6005487436765\nsVaccount_id\np6240\nI40156177\nsa(dp6241\nVconversion_specs\np6242\n(lp6243\nsVupdated_time\np6244\nV2012-07-17T19:34:29+0000\np6245\nsVbid_type\np6246\nI1\nsVname\np6247\nVHulk Smash!\np6248\nsVtracking_pixel_ids\np6249\n(lp6250\nsVtargeting\np6251\n(dp6252\nVkeywords\np6253\n(lp6254\nV#The Incredible Hulk (2008 video game)\np6255\naV#Hulk (comics)\np6256\naV#Hulk (film)\np6257\naV#The Incredible Hulk (film)\np6258\naV#Hulk (video game)\np6259\naV#Iron Man 2\np6260\naV#The Incredible Hulk (1994 video game)\np6261\naV#The Avengers (2012 film)\np6262\naV#The Incredible Hulk (TV series)\np6263\naV#Lou Ferrigno\np6264\naV#Captain America\np6265\nasVage_max\np6266\nI65\nsVcountries\np6267\n(lp6268\nVUS\np6269\nasVbroad_age\np6270\nI1\nsVage_min\np6271\nI13\nssVbid_info\np6272\n(dp6273\nV1\np6274\nV70\np6275\nssVstart_time\np6276\nNsVad_status\np6277\nI2\nsVcampaign_id\np6278\nI6005468995965\nsVlocations\np6279\n(lp6280\nI3\nasVcreated_time\np6281\nV2012-07-13T16:59:33+0000\np6282\nsVend_time\np6283\nV2012-07-19T03:29:00+0000\np6284\nsVadgroup_status\np6285\nI9\nsVid\np6286\nV6005499174965\np6287\nsVad_id\np6288\nI6005499174965\nsVimpression_control_map\np6289\n(lp6290\n(dp6291\nVcontrol\np6292\n(dp6293\nVuser_impression_limit_period\np6294\nI24\nsVuser_impression_limit\np6295\nI3\nsVuser_impression_limit_period_unit\np6296\nI0\nsVimpression_control_type\np6297\nI2\nssVlocation\np6298\nI3\nsasVcreative_ids\np6299\n(lp6300\nI6005499174565\nasVmax_bid\np6301\nV70\np6302\nsVadgroup_id\np6303\nI6005499174965\nsVaccount_id\np6304\nI40156177\nsa(dp6305\nVconversion_specs\np6306\n(lp6307\nsVupdated_time\np6308\nV2012-07-18T15:26:36+0000\np6309\nsVbid_type\np6310\nI1\nsVname\np6311\nVInside Breaking Bad...\np6312\nsVtracking_pixel_ids\np6313\n(lp6314\nsVtargeting\np6315\n(dp6316\nVkeywords\np6317\n(lp6318\nV#Breaking Bad\np6319\naVweeds\np6320\naVjesse pinkman breaking bad\np6321\naV#Dexter (TV series)\np6322\naV#Bryan Cranston\np6323\naV#Weeds (TV series)\np6324\naV#Saul Goodman\np6325\naV#The Walking Dead (TV series)\np6326\naVbreaking bad or star trek 2009\np6327\naV#Jesse Pinkman\np6328\naV#Walter White (Breaking Bad)\np6329\naV#Aaron Paul\np6330\naV#Hermanos (Breaking Bad)\np6331\nasVage_max\np6332\nI65\nsVcountries\np6333\n(lp6334\nVUS\np6335\nasVbroad_age\np6336\nI1\nsVage_min\np6337\nI13\nssVbid_info\np6338\n(dp6339\nV1\np6340\nV65\np6341\nssVstart_time\np6342\nNsVad_status\np6343\nI2\nsVcampaign_id\np6344\nI6005469012565\nsVlocations\np6345\n(lp6346\nI3\nasVcreated_time\np6347\nV2012-07-17T03:49:45+0000\np6348\nsVend_time\np6349\nNsVadgroup_status\np6350\nI8\nsVid\np6351\nV6005512534165\np6352\nsVad_id\np6353\nI6005512534165\nsVimpression_control_map\np6354\n(lp6355\n(dp6356\nVcontrol\np6357\n(dp6358\nVuser_impression_limit_period\np6359\nI24\nsVuser_impression_limit\np6360\nI6\nsVuser_impression_limit_period_unit\np6361\nI0\nsVimpression_control_type\np6362\nI2\nssVlocation\np6363\nI3\nsasVcreative_ids\np6364\n(lp6365\nI6005512533765\nasVmax_bid\np6366\nV65\np6367\nsVadgroup_id\np6368\nI6005512534165\nsVaccount_id\np6369\nI40156177\nsa(dp6370\nVconversion_specs\np6371\n(lp6372\nsVupdated_time\np6373\nV2012-07-17T03:49:40+0000\np6374\nsVbid_type\np6375\nI1\nsVname\np6376\nVBetter Call Saul!\np6377\nsVtracking_pixel_ids\np6378\n(lp6379\nsVtargeting\np6380\n(dp6381\nVkeywords\np6382\n(lp6383\nV#Breaking Bad\np6384\naV#Bryan Cranston\np6385\naV#Saul Goodman\np6386\nasVage_max\np6387\nI65\nsVcountries\np6388\n(lp6389\nVUS\np6390\nasVbroad_age\np6391\nI1\nsVage_min\np6392\nI13\nssVbid_info\np6393\n(dp6394\nV1\np6395\nV65\np6396\nssVstart_time\np6397\nNsVad_status\np6398\nI2\nsVcampaign_id\np6399\nI6005469012565\nsVlocations\np6400\n(lp6401\nI3\nasVcreated_time\np6402\nV2012-07-06T20:44:43+0000\np6403\nsVend_time\np6404\nV2012-07-19T03:00:00+0000\np6405\nsVadgroup_status\np6406\nI9\nsVid\np6407\nV6005469013765\np6408\nsVad_id\np6409\nI6005469013765\nsVimpression_control_map\np6410\n(lp6411\n(dp6412\nVcontrol\np6413\n(dp6414\nVuser_impression_limit_period\np6415\nI24\nsVuser_impression_limit\np6416\nI3\nsVuser_impression_limit_period_unit\np6417\nI0\nsVimpression_co'
p6
sS'hash'
p7
S'8f03fec7edb13f9d3d7174de10a1e362d3862be1'
p8
sS'stack'
p9
S''
s.