(dp1
S'args'
p2
S''
sS'methodname'
p3
S''
sS'packet_num'
p4
I117
sS'returnval'
p5
S'\np22682\nssVstart_time\np22683\nNsVad_status\np22684\nI2\nsVcampaign_id\np22685\nI6005615999565\nsVlocations\np22686\n(lp22687\nI3\nasVcreated_time\np22688\nV2012-08-10T18:07:07+0000\np22689\nsVend_time\np22690\nNsVadgroup_status\np22691\nI8\nsVid\np22692\nV6005627335365\np22693\nsVad_id\np22694\nI6005627335365\nsVimpression_control_map\np22695\n(lp22696\n(dp22697\nVcontrol\np22698\n(dp22699\nVuser_impression_limit_period\np22700\nI24\nsVuser_impression_limit\np22701\nI6\nsVuser_impression_limit_period_unit\np22702\nI0\nsVimpression_control_type\np22703\nI2\nssVlocation\np22704\nI3\nsasVcreative_ids\np22705\n(lp22706\nI6005627334965\nasVmax_bid\np22707\nV75\np22708\nsVadgroup_id\np22709\nI6005627335365\nsVaccount_id\np22710\nI40156177\nsa(dp22711\nVbid_info\np22712\n(dp22713\nV1\np22714\nV68\np22715\nssVcampaign_id\np22716\nI6005615999565\nsVlast_updated_by_app_id\np22717\nI6802152230\nsVcreated_time\np22718\nV2012-08-08T19:25:55+0000\np22719\nsVconversion_specs\np22720\n(lp22721\nsVadgroup_id\np22722\nI6005616000765\nsVtargeting\np22723\n(dp22724\nVage_max\np22725\nI65\nsVcountries\np22726\n(lp22727\nVUS\np22728\nasVbroad_age\np22729\nI1\nsVage_min\np22730\nI13\nsVkeywords\np22731\n(lp22732\nV#Coca-Cola\np22733\naV#Toy Story 3\np22734\naV#The Walt Disney Company\np22735\naV#Katy Perry\np22736\nasVgenders\np22737\n(lp22738\nI2\nassVid\np22739\nV6005616000765\np22740\nsVmax_bid\np22741\nV68\np22742\nsVad_id\np22743\nI6005616000765\nsVaccount_id\np22744\nI40156177\nsVstart_time\np22745\nNsVlocations\np22746\n(lp22747\nI3\nasVadgroup_status\np22748\nI9\nsVad_status\np22749\nI2\nsVimpression_control_map\np22750\n(lp22751\n(dp22752\nVcontrol\np22753\n(dp22754\nVuser_impression_limit_period\np22755\nI24\nsVuser_impression_limit\np22756\nI3\nsVuser_impression_limit_period_unit\np22757\nI0\nsVimpression_control_type\np22758\nI2\nssVlocation\np22759\nI3\nsasVcreative_ids\np22760\n(lp22761\nI6005616000365\nasVtracking_pixel_ids\np22762\n(lp22763\nsVbid_type\np22764\nI1\nsVname\np22765\nVHanging with your Friends\np22766\nsVupdated_time\np22767\nV2012-08-10T17:52:50+0000\np22768\nsVend_time\np22769\nV2012-08-12T03:30:00+0000\np22770\nsa(dp22771\nVconversion_specs\np22772\n(lp22773\nsVupdated_time\np22774\nV2012-09-21T20:13:11+0000\np22775\nsVbid_type\np22776\nI1\nsVname\np22777\nVHilarous - So True!\np22778\nsVtracking_pixel_ids\np22779\n(lp22780\nsVtargeting\np22781\n(dp22782\nVage_max\np22783\nI65\nsVcountries\np22784\n(lp22785\nVUS\np22786\nasVbroad_age\np22787\nI1\nsVage_min\np22788\nI13\nssVbid_info\np22789\n(dp22790\nV1\np22791\nV67\np22792\nssVstart_time\np22793\nNsVad_status\np22794\nI2\nsVcampaign_id\np22795\nI6005616017165\nsVlocations\np22796\n(lp22797\nI3\nasVcreated_time\np22798\nV2012-08-08T19:32:22+0000\np22799\nsVend_time\np22800\nNsVadgroup_status\np22801\nI8\nsVid\np22802\nV6005616019365\np22803\nsVad_id\np22804\nI6005616019365\nsVimpression_control_map\np22805\n(lp22806\n(dp22807\nVcontrol\np22808\n(dp22809\nVuser_impression_limit_period\np22810\nI24\nsVuser_impression_limit\np22811\nI6\nsVuser_impression_limit_period_unit\np22812\nI0\nsVimpression_control_type\np22813\nI2\nssVlocation\np22814\nI3\nsasVcreative_ids\np22815\n(lp22816\nI6005616017765\nasVmax_bid\np22817\nV67\np22818\nsVadgroup_id\np22819\nI6005616019365\nsVaccount_id\np22820\nI40156177\nsa(dp22821\nVconversion_specs\np22822\n(lp22823\nsVupdated_time\np22824\nV2012-09-21T20:13:12+0000\np22825\nsVbid_type\np22826\nI1\nsVname\np22827\nVDo you love cats?\np22828\nsVtracking_pixel_ids\np22829\n(lp22830\nsVtargeting\np22831\n(dp22832\nVkeywords\np22833\n(lp22834\nV#I Can Has Cheezburger?\np22835\naVlol cats\np22836\naV#Cats (musical)\np22837\naV#Cat\np22838\naVcats\np22839\naV#Cats & Dogs\np22840\naVcute cats kittens gifs glitter\np22841\nasVage_max\np22842\nI65\nsVcountries\np22843\n(lp22844\nVUS\np22845\nasVbroad_age\np22846\nI1\nsVage_min\np22847\nI13\nssVbid_info\np22848\n(dp22849\nV1\np22850\nV65\np22851\nssVstart_time\np22852\nNsVad_status\np22853\nI2\nsVcampaign_id\np22854\nI6005616148765\nsVlocations\np22855\n(lp22856\nI3\nasVcreated_time\np22857\nV2012-08-08T20:31:48+0000\np22858\nsVend_time\np22859\nNsVadgroup_status\np22860\nI8\nsVid\np22861\nV6005616149765\np22862\nsVad_id\np22863\nI6005616149765\nsVimpression_control_map\np22864\n(lp22865\n(dp22866\nVcontrol\np22867\n(dp22868\nVuser_impression_limit_period\np22869\nI24\nsVuser_impression_limit\np22870\nI6\nsVuser_impression_limit_period_unit\np22871\nI0\nsVimpression_control_type\np22'
p6
sS'hash'
p7
S'8f03fec7edb13f9d3d7174de10a1e362d3862be1'
p8
sS'stack'
p9
S''
s.