(dp1
S'args'
p2
S''
sS'methodname'
p3
S''
sS'packet_num'
p4
I22
sS'returnval'
p5
S'\n(lp4436\n(dp4437\nVcontrol\np4438\n(dp4439\nVuser_impression_limit_period\np4440\nI24\nsVuser_impression_limit\np4441\nI6\nsVuser_impression_limit_period_unit\np4442\nI0\nsVimpression_control_type\np4443\nI2\nssVlocation\np4444\nI3\nsasVcreative_ids\np4445\n(lp4446\nI6005435558765\nasVmax_bid\np4447\nV100\np4448\nsVadgroup_id\np4449\nI6005435559365\nsVaccount_id\np4450\nI40156177\nsa(dp4451\nVconversion_specs\np4452\n(lp4453\nsVupdated_time\np4454\nV2012-09-21T20:09:38+0000\np4455\nsVbid_type\np4456\nI1\nsVname\np4457\nVEver Seen This?\np4458\nsVtracking_pixel_ids\np4459\n(lp4460\nsVtargeting\np4461\n(dp4462\nVcountries\np4463\n(lp4464\nVUS\np4465\nasVage_max\np4466\nI65\nsVcities\np4467\n(lp4468\n(dp4469\nVid\np4470\nV2490299\np4471\nsVname\np4472\nVNew York, NY\np4473\nsasVbroad_age\np4474\nI1\nsVage_min\np4475\nI13\nssVbid_info\np4476\n(dp4477\nV1\np4478\nV100\np4479\nssVstart_time\np4480\nNsVad_status\np4481\nI2\nsVcampaign_id\np4482\nI6005444406365\nsVlocations\np4483\n(lp4484\nI3\nasVcreated_time\np4485\nV2012-07-02T19:14:16+0000\np4486\nsVend_time\np4487\nNsVadgroup_status\np4488\nI8\nsVid\np4489\nV6005444407765\np4490\nsVad_id\np4491\nI6005444407765\nsVimpression_control_map\np4492\n(lp4493\n(dp4494\nVcontrol\np4495\n(dp4496\nVuser_impression_limit_period\np4497\nI24\nsVuser_impression_limit\np4498\nI6\nsVuser_impression_limit_period_unit\np4499\nI0\nsVimpression_control_type\np4500\nI2\nssVlocation\np4501\nI3\nsasVcreative_ids\np4502\n(lp4503\nI6005444407165\nasVmax_bid\np4504\nV100\np4505\nsVadgroup_id\np4506\nI6005444407765\nsVaccount_id\np4507\nI40156177\nsa(dp4508\nVconversion_specs\np4509\n(lp4510\nsVupdated_time\np4511\nV2012-09-21T20:09:38+0000\np4512\nsVbid_type\np4513\nI1\nsVname\np4514\nVMermaid Parade?\np4515\nsVtracking_pixel_ids\np4516\n(lp4517\nsVtargeting\np4518\n(dp4519\nVage_max\np4520\nI65\nsVcountries\np4521\n(lp4522\nVUS\np4523\nasVbroad_age\np4524\nI1\nsVage_min\np4525\nI13\nssVbid_info\np4526\n(dp4527\nV1\np4528\nV100\np4529\nssVstart_time\np4530\nNsVad_status\np4531\nI2\nsVcampaign_id\np4532\nI6005444406365\nsVlocations\np4533\n(lp4534\nI3\nasVcreated_time\np4535\nV2012-07-02T19:17:05+0000\np4536\nsVend_time\np4537\nNsVadgroup_status\np4538\nI8\nsVid\np4539\nV6005444449365\np4540\nsVad_id\np4541\nI6005444449365\nsVimpression_control_map\np4542\n(lp4543\n(dp4544\nVcontrol\np4545\n(dp4546\nVuser_impression_limit_period\np4547\nI24\nsVuser_impression_limit\np4548\nI6\nsVuser_impression_limit_period_unit\np4549\nI0\nsVimpression_control_type\np4550\nI2\nssVlocation\np4551\nI3\nsasVcreative_ids\np4552\n(lp4553\nI6005444448965\nasVmax_bid\np4554\nV100\np4555\nsVadgroup_id\np4556\nI6005444449365\nsVaccount_id\np4557\nI40156177\nsa(dp4558\nVconversion_specs\np4559\n(lp4560\nsVupdated_time\np4561\nV2012-09-21T20:09:38+0000\np4562\nsVbid_type\np4563\nI1\nsVname\np4564\nVCarnival!\np4565\nsVtracking_pixel_ids\np4566\n(lp4567\nsVtargeting\np4568\n(dp4569\nVkeywords\np4570\n(lp4571\nV#Brazil\np4572\naV#Carnival\np4573\naV#Rio de Janeiro\np4574\nasVage_max\np4575\nI65\nsVcountries\np4576\n(lp4577\nVUS\np4578\nasVbroad_age\np4579\nI1\nsVage_min\np4580\nI13\nssVbid_info\np4581\n(dp4582\nV1\np4583\nV100\np4584\nssVstart_time\np4585\nNsVad_status\np4586\nI2\nsVcampaign_id\np4587\nI6005444406365\nsVlocations\np4588\n(lp4589\nI3\nasVcreated_time\np4590\nV2012-07-02T19:19:11+0000\np4591\nsVend_time\np4592\nNsVadgroup_status\np4593\nI8\nsVid\np4594\nV6005444472965\np4595\nsVad_id\np4596\nI6005444472965\nsVimpression_control_map\np4597\n(lp4598\n(dp4599\nVcontrol\np4600\n(dp4601\nVuser_impression_limit_period\np4602\nI24\nsVuser_impression_limit\np4603\nI6\nsVuser_impression_limit_period_unit\np4604\nI0\nsVimpression_control_type\np4605\nI2\nssVlocation\np4606\nI3\nsasVcreative_ids\np4607\n(lp4608\nI6005444472565\nasVmax_bid\np4609\nV100\np4610\nsVadgroup_id\np4611\nI6005444472965\nsVaccount_id\np4612\nI40156177\nsa(dp4613\nVconversion_specs\np4614\n(lp4615\nsVupdated_time\np4616\nV2012-09-21T20:09:40+0000\np4617\nsVbid_type\np4618\nI1\nsVname\np4619\nVA Zip Line!\np4620\nsVtracking_pixel_ids\np4621\n(lp4622\nsVtargeting\np4623\n(dp4624\nVkeywords\np4625\n(lp4626\nV#Outdoor recreation\np4627\naV#Climbing\np4628\naV#Rock climbing\np4629\naV#Camping\np4630\naV#Hiking\np4631\naV#Zip-line\np4632\nasVage_max\np4633\nI65\nsVcountries\np4634\n(lp4635\nVUS\np4636\nasVbroad_age\np4637\nI1\nsVage_min\np4638\nI13\nssVbid_info\np4639\n(dp4640\nV1\np4641\nV100\np4642\nssVstart_time\np4643\nNsVad_status\np4644\nI2\nsVcampaign_id\np4645\nI6005444603565\ns'
p6
sS'hash'
p7
S'8f03fec7edb13f9d3d7174de10a1e362d3862be1'
p8
sS'stack'
p9
S''
s.