(dp1
S'args'
p2
S''
sS'methodname'
p3
S''
sS'packet_num'
p4
I105
sS'returnval'
p5
S'White\np20417\naV#Escape from New York\np20418\naV#United States Marine Corps\np20419\naV#Children\'s hospital\np20420\naV#Knights of Badassdom\np20421\naV#Ultimate Fighting Championship\np20422\naV#NTSF:SD:SUV::\np20423\nasVgenders\np20424\n(lp20425\nI1\nassVid\np20426\nV6005611522965\np20427\nsVmax_bid\np20428\nV65\np20429\nsVad_id\np20430\nI6005611522965\nsVaccount_id\np20431\nI40156177\nsVstart_time\np20432\nNsVlocations\np20433\n(lp20434\nI3\nasVadgroup_status\np20435\nI9\nsVad_status\np20436\nI2\nsVimpression_control_map\np20437\n(lp20438\n(dp20439\nVcontrol\np20440\n(dp20441\nVuser_impression_limit_period\np20442\nI24\nsVuser_impression_limit\np20443\nI3\nsVuser_impression_limit_period_unit\np20444\nI0\nsVimpression_control_type\np20445\nI2\nssVlocation\np20446\nI3\nsasVcreative_ids\np20447\n(lp20448\nI6005611520765\nasVtracking_pixel_ids\np20449\n(lp20450\nsVbid_type\np20451\nI1\nsVname\np20452\nVSnake Plissken 1\np20453\nsVupdated_time\np20454\nV2012-08-09T22:12:07+0000\np20455\nsVend_time\np20456\nV2012-08-11T03:59:00+0000\np20457\nsa(dp20458\nVconversion_specs\np20459\n(lp20460\nsVupdated_time\np20461\nV2012-09-21T20:12:48+0000\np20462\nsVbid_type\np20463\nI1\nsVname\np20464\nV"Hi Everybody!"\np20465\nsVtracking_pixel_ids\np20466\n(lp20467\nsVtargeting\np20468\n(dp20469\nVkeywords\np20470\n(lp20471\nV#Ralph Wiggum\np20472\naV#Lisa Simpson\np20473\naV#Bart Simpson\'s Guide to Life\np20474\naV#Marge Simpson\np20475\naV#Waylon Smithers\np20476\naV#Martin Prince\np20477\naV#Maggie Simpson\np20478\naV#Springfield (The Simpsons)\np20479\naV#The Simpsons Game\np20480\naV#Moe Szyslak\np20481\naV#Mr. Burns\np20482\naV#Family Guy\np20483\naV#Barney Gumble\np20484\naV#Comic Book Guy\np20485\naV#The Simpsons (franchise)\np20486\naV#Homer Simpson\np20487\naV#Patty and Selma Bouvier\np20488\naV#Nelson Muntz\np20489\naV#Bart Simpson\np20490\naV#Milhouse Van Houten\np20491\naV#The Simpsons\np20492\naV#The Simpsons Movie\np20493\nasVage_max\np20494\nI65\nsVcountries\np20495\n(lp20496\nVUS\np20497\nasVbroad_age\np20498\nI1\nsVage_min\np20499\nI13\nssVbid_info\np20500\n(dp20501\nV1\np20502\nV65\np20503\nssVstart_time\np20504\nNsVad_status\np20505\nI2\nsVcampaign_id\np20506\nI6005611490765\nsVlocations\np20507\n(lp20508\nI3\nasVcreated_time\np20509\nV2012-08-07T19:31:08+0000\np20510\nsVend_time\np20511\nNsVadgroup_status\np20512\nI8\nsVid\np20513\nV6005611491765\np20514\nsVad_id\np20515\nI6005611491765\nsVimpression_control_map\np20516\n(lp20517\n(dp20518\nVcontrol\np20519\n(dp20520\nVuser_impression_limit_period\np20521\nI24\nsVuser_impression_limit\np20522\nI6\nsVuser_impression_limit_period_unit\np20523\nI0\nsVimpression_control_type\np20524\nI2\nssVlocation\np20525\nI3\nsasVcreative_ids\np20526\n(lp20527\nI6005611491365\nasVmax_bid\np20528\nV65\np20529\nsVadgroup_id\np20530\nI6005611491765\nsVaccount_id\np20531\nI40156177\nsa(dp20532\nVconversion_specs\np20533\n(lp20534\nsVupdated_time\np20535\nV2012-09-21T20:12:50+0000\np20536\nsVbid_type\np20537\nI1\nsVname\np20538\nVRock Checkin Out Rihanna\np20539\nsVtracking_pixel_ids\np20540\n(lp20541\nsVtargeting\np20542\n(dp20543\nVkeywords\np20544\n(lp20545\nV#CollegeHumor\np20546\naV#TMZ.com\np20547\naV#Chris Rock\np20548\naV#Comedy Central\np20549\naVrihanna only girl\np20550\naV#TMZ on TV\np20551\naV#Rihanna\np20552\nasVage_max\np20553\nI65\nsVcountries\np20554\n(lp20555\nVUS\np20556\nasVbroad_age\np20557\nI1\nsVage_min\np20558\nI13\nssVbid_info\np20559\n(dp20560\nV1\np20561\nV66\np20562\nssVstart_time\np20563\nNsVad_status\np20564\nI2\nsVcampaign_id\np20565\nI6005614589765\nsVlocations\np20566\n(lp20567\nI3\nasVcreated_time\np20568\nV2012-08-08T13:04:17+0000\np20569\nsVend_time\np20570\nV2012-08-10T03:00:00+0000\np20571\nsVadgroup_status\np20572\nI8\nsVid\np20573\nV6005614590965\np20574\nsVad_id\np20575\nI6005614590965\nsVimpression_control_map\np20576\n(lp20577\n(dp20578\nVcontrol\np20579\n(dp20580\nVuser_impression_limit_period\np20581\nI24\nsVuser_impression_limit\np20582\nI6\nsVuser_impression_limit_period_unit\np20583\nI0\nsVimpression_control_type\np20584\nI2\nssVlocation\np20585\nI3\nsasVcreative_ids\np20586\n(lp20587\nI6005614590365\nasVmax_bid\np20588\nV66\np20589\nsVadgroup_id\np20590\nI6005614590965\nsVaccount_id\np20591\nI40156177\nsa(dp20592\nVconversion_specs\np20593\n(lp20594\nsVupdated_time\np20595\nV2012-09-21T20:12:50+0000\np20596\nsVbid_type\np20597\nI1\nsVname\np20598\nVChris Rock as Robin\np20599\nsVtracking_pixel_ids\np20600\n(lp20601\n'
p6
sS'hash'
p7
S'8f03fec7edb13f9d3d7174de10a1e362d3862be1'
p8
sS'stack'
p9
S''
s.