(dp1
S'args'
p2
S''
sS'methodname'
p3
S''
sS'packet_num'
p4
I59
sS'returnval'
p5
S'\np11737\nI65\nsVcountries\np11738\n(lp11739\nVUS\np11740\nasVbroad_age\np11741\nI1\nsVage_min\np11742\nI13\nssVbid_info\np11743\n(dp11744\nV1\np11745\nV70\np11746\nssVstart_time\np11747\nNsVad_status\np11748\nI2\nsVcampaign_id\np11749\nI6005536155565\nsVlocations\np11750\n(lp11751\nI3\nasVcreated_time\np11752\nV2012-07-20T16:31:38+0000\np11753\nsVend_time\np11754\nV2012-07-24T03:00:00+0000\np11755\nsVadgroup_status\np11756\nI8\nsVid\np11757\nV6005536156565\np11758\nsVad_id\np11759\nI6005536156565\nsVimpression_control_map\np11760\n(lp11761\n(dp11762\nVcontrol\np11763\n(dp11764\nVuser_impression_limit_period\np11765\nI24\nsVuser_impression_limit\np11766\nI6\nsVuser_impression_limit_period_unit\np11767\nI0\nsVimpression_control_type\np11768\nI2\nssVlocation\np11769\nI3\nsasVcreative_ids\np11770\n(lp11771\nI6005536156165\nasVmax_bid\np11772\nV70\np11773\nsVadgroup_id\np11774\nI6005536156565\nsVaccount_id\np11775\nI40156177\nsa(dp11776\nVconversion_specs\np11777\n(lp11778\nsVupdated_time\np11779\nV2012-09-21T20:11:01+0000\np11780\nsVbid_type\np11781\nI1\nsVname\np11782\nVNo Way!\np11783\nsVtracking_pixel_ids\np11784\n(lp11785\nsVtargeting\np11786\n(dp11787\nVkeywords\np11788\n(lp11789\nV#Michael Jordan in Flight\np11790\naV#Michael Jordan\np11791\naVjordon\np11792\naV#Michael Jordan to the Max\np11793\naV#Jumpman\np11794\naV#Michael Jordan: Chaos in the Windy City\np11795\naVjumpman 23\np11796\naVmichael jordon\np11797\nasVage_max\np11798\nI65\nsVcountries\np11799\n(lp11800\nVUS\np11801\nasVbroad_age\np11802\nI1\nsVage_min\np11803\nI13\nssVbid_info\np11804\n(dp11805\nV1\np11806\nV70\np11807\nssVstart_time\np11808\nNsVad_status\np11809\nI2\nsVcampaign_id\np11810\nI6005536155565\nsVlocations\np11811\n(lp11812\nI3\nasVcreated_time\np11813\nV2012-07-20T16:31:44+0000\np11814\nsVend_time\np11815\nV2012-07-24T03:00:00+0000\np11816\nsVadgroup_status\np11817\nI8\nsVid\np11818\nV6005536157565\np11819\nsVad_id\np11820\nI6005536157565\nsVimpression_control_map\np11821\n(lp11822\n(dp11823\nVcontrol\np11824\n(dp11825\nVuser_impression_limit_period\np11826\nI24\nsVuser_impression_limit\np11827\nI6\nsVuser_impression_limit_period_unit\np11828\nI0\nsVimpression_control_type\np11829\nI2\nssVlocation\np11830\nI3\nsasVcreative_ids\np11831\n(lp11832\nI6005536156165\nasVmax_bid\np11833\nV70\np11834\nsVadgroup_id\np11835\nI6005536157565\nsVaccount_id\np11836\nI40156177\nsa(dp11837\nVconversion_specs\np11838\n(lp11839\nsVupdated_time\np11840\nV2012-09-21T20:11:03+0000\np11841\nsVbid_type\np11842\nI1\nsVname\np11843\nVAwesome Cat Gifs!\np11844\nsVtracking_pixel_ids\np11845\n(lp11846\nsVtargeting\np11847\n(dp11848\nVkeywords\np11849\n(lp11850\nV#Cats (musical)\np11851\naV#Cat\np11852\naVcats\np11853\naV#Cuteness\np11854\naV#Cats & Dogs\np11855\naV#Cats 101\np11856\naV#Dog\np11857\naV#Dogs 101\np11858\naVcats dogs revenge kitty galore\np11859\naV#Babies\np11860\naV#Pet\np11861\nasVage_max\np11862\nI65\nsVcountries\np11863\n(lp11864\nVUS\np11865\nasVbroad_age\np11866\nI1\nsVage_min\np11867\nI13\nssVbid_info\np11868\n(dp11869\nV1\np11870\nV55\np11871\nssVstart_time\np11872\nNsVad_status\np11873\nI2\nsVcampaign_id\np11874\nI6005536169365\nsVlocations\np11875\n(lp11876\nI3\nasVcreated_time\np11877\nV2012-07-20T16:39:32+0000\np11878\nsVend_time\np11879\nNsVadgroup_status\np11880\nI8\nsVid\np11881\nV6005536170365\np11882\nsVad_id\np11883\nI6005536170365\nsVimpression_control_map\np11884\n(lp11885\n(dp11886\nVcontrol\np11887\n(dp11888\nVuser_impression_limit_period\np11889\nI24\nsVuser_impression_limit\np11890\nI6\nsVuser_impression_limit_period_unit\np11891\nI0\nsVimpression_control_type\np11892\nI2\nssVlocation\np11893\nI3\nsasVcreative_ids\np11894\n(lp11895\nI6005536169965\nasVmax_bid\np11896\nV55\np11897\nsVadgroup_id\np11898\nI6005536170365\nsVaccount_id\np11899\nI40156177\nsa(dp11900\nVconversion_specs\np11901\n(lp11902\nsVupdated_time\np11903\nV2012-09-21T20:11:05+0000\np11904\nsVbid_type\np11905\nI1\nsVname\np11906\nVDo you have a cute cat? 2\np11907\nsVtracking_pixel_ids\np11908\n(lp11909\nsVtargeting\np11910\n(dp11911\nVage_max\np11912\nI65\nsVcountries\np11913\n(lp11914\nVUS\np11915\nasVbroad_age\np11916\nI1\nsVage_min\np11917\nI13\nsVkeywords\np11918\n(lp11919\nV#PetSmart\np11920\naVkitty\np11921\naV#Toy Story 3\np11922\naV#Kitten\np11923\naV#Discovery Channel\np11924\naVcat\np11925\naV#Cat\np11926\naVcats\np11927\naV#Cats & Dogs\np11928\naV#Cats 101\np11929\naV#Kitty Kat\np11930\naV#The Walt Disney Company\np11931\naV#Disneyland\np11932\naV#CatD'
p6
sS'hash'
p7
S'8f03fec7edb13f9d3d7174de10a1e362d3862be1'
p8
sS'stack'
p9
S''
s.