(dp1
S'args'
p2
S''
sS'methodname'
p3
S''
sS'packet_num'
p4
I124
sS'returnval'
p5
S".\np24017\nsVupdated_time\np24018\nV2012-08-14T03:49:42+0000\np24019\nsVend_time\np24020\nNsa(dp24021\nVconversion_specs\np24022\n(lp24023\nsVupdated_time\np24024\nV2012-09-21T20:13:27+0000\np24025\nsVbid_type\np24026\nI1\nsVname\np24027\nVThe Roast Of Roseanne 1\np24028\nsVtracking_pixel_ids\np24029\n(lp24030\nsVtargeting\np24031\n(dp24032\nVkeywords\np24033\n(lp24034\nV#The Real Roseanne Show\np24035\naV#Roseanne Barr\np24036\naV#Comedy\np24037\naV#Comedy Central\np24038\naV#Comedy Central Roast\np24039\naV#Roseanne (TV series)\np24040\nasVage_max\np24041\nI65\nsVcountries\np24042\n(lp24043\nVUS\np24044\nasVbroad_age\np24045\nI1\nsVage_min\np24046\nI13\nssVbid_info\np24047\n(dp24048\nV1\np24049\nV65\np24050\nssVstart_time\np24051\nNsVad_status\np24052\nI2\nsVcampaign_id\np24053\nI6005624430965\nsVlocations\np24054\n(lp24055\nI3\nasVcreated_time\np24056\nV2012-08-10T13:03:00+0000\np24057\nsVend_time\np24058\nNsVadgroup_status\np24059\nI8\nsVid\np24060\nV6005626051765\np24061\nsVad_id\np24062\nI6005626051765\nsVimpression_control_map\np24063\n(lp24064\n(dp24065\nVcontrol\np24066\n(dp24067\nVuser_impression_limit_period\np24068\nI24\nsVuser_impression_limit\np24069\nI6\nsVuser_impression_limit_period_unit\np24070\nI0\nsVimpression_control_type\np24071\nI2\nssVlocation\np24072\nI3\nsasVcreative_ids\np24073\n(lp24074\nI6005626430765\nasVmax_bid\np24075\nV65\np24076\nsVadgroup_id\np24077\nI6005626051765\nsVaccount_id\np24078\nI40156177\nsa(dp24079\nVbid_info\np24080\n(dp24081\nV1\np24082\nV65\np24083\nssVcampaign_id\np24084\nI6005624430965\nsVlast_updated_by_app_id\np24085\nI6802152230\nsVcreated_time\np24086\nV2012-08-09T21:09:32+0000\np24087\nsVconversion_specs\np24088\n(lp24089\nsVadgroup_id\np24090\nI6005624435565\nsVtargeting\np24091\n(dp24092\nVkeywords\np24093\n(lp24094\nVroseanne reruns\np24095\naVchelsea peretti\np24096\naV#The Real Roseanne Show\np24097\naV#New York Friars' Club\np24098\naVroseanne barr\np24099\naV#Gilbert Gottfried\np24100\naV#Roseanne Barr\np24101\naV#Lisa Lampanelli\np24102\naV#Seth Green\np24103\naV#Roast (comedy)\np24104\naV#Anthony Jeselnik\np24105\naV#Tom Arnold (actor)\np24106\naVcomedy central roast\np24107\naV#Katey Sagal\np24108\naV#Amy Schumer\np24109\naV#Carrie Fisher\np24110\naV#Jane Lynch\np24111\naV#Blake Anderson\np24112\naV#Ellen Barkin\np24113\naVjeffrey ross\np24114\naV#Comedy Central\np24115\naV#Comedy Central Roast\np24116\naV#Roseanne's Nuts\np24117\naV#Roseanne (TV series)\np24118\naVroseanne\np24119\naV#Wayne Brady\np24120\nasVage_max\np24121\nI65\nsVcountries\np24122\n(lp24123\nVUS\np24124\nasVbroad_age\np24125\nI1\nsVage_min\np24126\nI13\nssVid\np24127\nV6005624435565\np24128\nsVmax_bid\np24129\nV65\np24130\nsVad_id\np24131\nI6005624435565\nsVaccount_id\np24132\nI40156177\nsVstart_time\np24133\nNsVlocations\np24134\n(lp24135\nI3\nasVadgroup_status\np24136\nI9\nsVad_status\np24137\nI2\nsVimpression_control_map\np24138\n(lp24139\n(dp24140\nVcontrol\np24141\n(dp24142\nVuser_impression_limit_period\np24143\nI24\nsVuser_impression_limit\np24144\nI3\nsVuser_impression_limit_period_unit\np24145\nI0\nsVimpression_control_type\np24146\nI2\nssVlocation\np24147\nI3\nsasVcreative_ids\np24148\n(lp24149\nI6005624433365\nasVtracking_pixel_ids\np24150\n(lp24151\nsVbid_type\np24152\nI1\nsVname\np24153\nVThe Roast Of Roseanne\np24154\nsVupdated_time\np24155\nV2012-08-10T13:03:47+0000\np24156\nsVend_time\np24157\nNsa(dp24158\nVbid_info\np24159\n(dp24160\nV1\np24161\nV70\np24162\nssVcampaign_id\np24163\nI6005626526565\nsVlast_updated_by_app_id\np24164\nI6802152230\nsVcreated_time\np24165\nV2012-08-13T19:19:37+0000\np24166\nsVconversion_specs\np24167\n(lp24168\nsVadgroup_id\np24169\nI6005653179565\nsVtargeting\np24170\n(dp24171\nVage_max\np24172\nI65\nsVcountries\np24173\n(lp24174\nVUS\np24175\nasVbroad_age\np24176\nI1\nsVage_min\np24177\nI13\nssVid\np24178\nV6005653179565\np24179\nsVmax_bid\np24180\nV70\np24181\nsVad_id\np24182\nI6005653179565\nsVaccount_id\np24183\nI40156177\nsVstart_time\np24184\nNsVlocations\np24185\n(lp24186\nI3\nasVadgroup_status\np24187\nI8\nsVad_status\np24188\nI2\nsVimpression_control_map\np24189\n(lp24190\n(dp24191\nVcontrol\np24192\n(dp24193\nVuser_impression_limit_period\np24194\nI24\nsVuser_impression_limit\np24195\nI3\nsVuser_impression_limit_period_unit\np24196\nI0\nsVimpression_control_type\np24197\nI2\nssVlocation\np24198\nI3\nsasVcreative_ids\np24199\n(lp24200\nI6005653176365\nasVtracking_pixel_ids\np24201\n(lp24202\nsVbid_type\np24203\nI1\ns"
p6
sS'hash'
p7
S'8f03fec7edb13f9d3d7174de10a1e362d3862be1'
p8
sS'stack'
p9
S''
s.