(dp1
S'args'
p2
S''
sS'methodname'
p3
S''
sS'packet_num'
p4
I91
sS'returnval'
p5
S'\np11588\nsVcreative_id\np11589\nV6005278145965\np11590\nsVpreview_url\np11591\nVhttp://www.facebook.com/ads/api/creative_preview.php?cid=6005278145965\np11592\nsVid\np11593\nV6005278145965\np11594\nsVimage_url\np11595\nVhttps://fbcdn-creative-a.akamaihd.net/hads-ak-prn1/s110x80/708195_6006844692965_8357_n.jpg\np11596\nsVcount_current_adgroups\np11597\nI0\nsVrun_status\np11598\nI1\nsVtype\np11599\nI1\nsVlink_url\np11600\nVhttp://www.buzzfeed.com/h1/fbad/trident/the-most-insane-festivals-around-the-world\np11601\nsVview_tag\np11602\ng36\nsa(dp11603\nValt_view_tags\np11604\n(lp11605\nsVbody\np11606\nVWho wins in this "Clash of The Condiments" ?  Check out this hilarious video and find out.\np11607\nsVimage_hash\np11608\nV93638c96b78c699a31ad046521cbc519\np11609\nsVname\np11610\nVRanch vs. Ketchup\np11611\nsVtitle\np11612\nVRanch vs. Ketchup\np11613\nsVcreative_id\np11614\nV6005274660965\np11615\nsVpreview_url\np11616\nVhttp://www.facebook.com/ads/api/creative_preview.php?cid=6005274660965\np11617\nsVid\np11618\nV6005274660965\np11619\nsVimage_url\np11620\nVhttps://fbcdn-creative-a.akamaihd.net/hads-ak-prn1/s110x80/708188_6006844932765_22063_n.jpg\np11621\nsVcount_current_adgroups\np11622\nI0\nsVrun_status\np11623\nI1\nsVtype\np11624\nI1\nsVlink_url\np11625\nVhttp://www.buzzfeed.com/h1/fbad/hiddenvalleyranch/who-wins-in-clash-of-the-condiments-6abr\np11626\nsVview_tag\np11627\ng36\nsa(dp11628\nValt_view_tags\np11629\n(lp11630\nsVbody\np11631\nVWho wins in this "Clash of The Condiments" ?  Check out this hilarious video and find out.\np11632\nsVimage_hash\np11633\nVd798f15c817af7490c926edc049d601e\np11634\nsVname\np11635\nVRanch vs. Ketchup-00\np11636\nsVtitle\np11637\nVRanch vs. Ketchup\np11638\nsVcreative_id\np11639\nV6005274667165\np11640\nsVpreview_url\np11641\nVhttp://www.facebook.com/ads/api/creative_preview.php?cid=6005274667165\np11642\nsVid\np11643\nV6005274667165\np11644\nsVimage_url\np11645\nVhttps://fbcdn-creative-a.akamaihd.net/hads-ak-ash3/s110x80/708161_6006845340565_2918_n.jpg\np11646\nsVcount_current_adgroups\np11647\nI4\nsVrun_status\np11648\nI1\nsVtype\np11649\nI1\nsVlink_url\np11650\nVhttp://www.buzzfeed.com/h1/fbad/hiddenvalleyranch/who-wins-in-clash-of-the-condiments-6abr\np11651\nsVview_tag\np11652\ng36\nsa(dp11653\nValt_view_tags\np11654\n(lp11655\nsVbody\np11656\nVThis and more in our list of the "19 Completely Absurd Cell Phone Accessories" \np11657\nsVimage_hash\np11658\nV16d1293d60906a75f127dcafd0153ac9\np11659\nsVname\np11660\nVCellphone Winshield Wiper\np11661\nsVtitle\np11662\nVCellphone Winshield Wiper\np11663\nsVcreative_id\np11664\nV6005247727165\np11665\nsVpreview_url\np11666\nVhttp://www.facebook.com/ads/api/creative_preview.php?cid=6005247727165\np11667\nsVid\np11668\nV6005247727165\np11669\nsVimage_url\np11670\nVhttps://fbcdn-creative-a.akamaihd.net/hads-ak-prn1/s110x80/708166_6006844192165_36930_n.jpg\np11671\nsVcount_current_adgroups\np11672\nI1\nsVrun_status\np11673\nI1\nsVtype\np11674\nI1\nsVlink_url\np11675\nVhttp://www.buzzfeed.com/h1/fbad/virginmobilelive/19-completely-absurd-cell-phone-accessories-5l87\np11676\nsVview_tag\np11677\ng36\nsa(dp11678\nValt_view_tags\np11679\n(lp11680\nsVbody\np11681\nVIt\'s one of the 10 craziest things billionaires have done with their money.  See the rest!\np11682\nsVimage_hash\np11683\nVf70b6d63059ffafe181873dbf538a124\np11684\nsVname\np11685\nVSpace Tourism\np11686\nsVtitle\np11687\nVSpace Tourism\np11688\nsVcreative_id\np11689\nV6005228032765\np11690\nsVpreview_url\np11691\nVhttp://www.facebook.com/ads/api/creative_preview.php?cid=6005228032765\np11692\nsVid\np11693\nV6005228032765\np11694\nsVimage_url\np11695\nVhttps://fbcdn-creative-a.akamaihd.net/hads-ak-prn1/s110x80/708163_6006845545365_13830_n.jpg\np11696\nsVcount_current_adgroups\np11697\nI0\nsVrun_status\np11698\nI1\nsVtype\np11699\nI1\nsVlink_url\np11700\nVhttp://www.buzzfeed.com/h1/fbad/wslottery/10-things-you-could-do-if-you-won-the-lottery\np11701\nsVview_tag\np11702\ng36\nsa(dp11703\nValt_view_tags\np11704\n(lp11705\nsVbody\np11706\nVIt\'s one of the 10 craziest things billionaires have done with their money.  See the rest!\np11707\nsVimage_hash\np11708\nVa8981db02631b9dee01e6b3ef9dc5b3f\np11709\nsVname\np11710\nVBuying Las Vegas\np11711\nsVtitle\np11712\nVBuying Las Vegas\np11713\nsVcreative_id\np11714\nV6005228042765\np11715\nsVpreview_url\np117'
p6
sS'hash'
p7
S'9045f93cc1c868b9cc2233d65a814621f259d65b'
p8
sS'stack'
p9
S''
s.