(dp1
S'args'
p2
S''
sS'methodname'
p3
S''
sS'packet_num'
p4
I86
sS'returnval'
p5
S'38\nVMTV kept us informed and hip before the internet. See what else made sure we were cool !\np10939\nsVimage_hash\np10940\nV609edf1fe070f19defe9b6b0a1bbdde8\np10941\nsVname\np10942\nVI Want My MTV!-00\np10943\nsVtitle\np10944\nVWhat Made Us Cool?\np10945\nsVcreative_id\np10946\nV6005548506565\np10947\nsVpreview_url\np10948\nVhttp://www.facebook.com/ads/api/creative_preview.php?cid=6005548506565\np10949\nsVid\np10950\nV6005548506565\np10951\nsVimage_url\np10952\nVhttps://fbcdn-creative-a.akamaihd.net/hads-ak-snc7/s110x80/701903_6006844642165_19669_n.jpg\np10953\nsVcount_current_adgroups\np10954\nI1\nsVrun_status\np10955\nI1\nsVtype\np10956\nI1\nsVlink_url\np10957\nVhttp://www.buzzfeed.com/h1/fbad/eonline/a-history-of-how-we-get-pop-culture-6u0r\np10958\nsVview_tag\np10959\ng36\nsa(dp10960\nValt_view_tags\np10961\n(lp10962\nsVbody\np10963\nVIt\'s one of "The Most Creative Ways To Have A Drink This Summer." Check it out on BuzzFeed\np10964\nsVimage_hash\np10965\nV00dff5a81a3f9773413c700da9f68dbe\np10966\nsVname\np10967\nVWatermelon Dispenser\np10968\nsVtitle\np10969\nVWatermelon Dispenser\np10970\nsVcreative_id\np10971\nV6005531595165\np10972\nsVpreview_url\np10973\nVhttp://www.facebook.com/ads/api/creative_preview.php?cid=6005531595165\np10974\nsVid\np10975\nV6005531595165\np10976\nsVimage_url\np10977\nVhttps://fbcdn-creative-a.akamaihd.net/hads-ak-prn1/s110x80/708174_6006844055765_51242_n.jpg\np10978\nsVcount_current_adgroups\np10979\nI0\nsVrun_status\np10980\nI1\nsVtype\np10981\nI1\nsVlink_url\np10982\nVhttp://www.buzzfeed.com/h1/fbad/mikeshardlemonade/the-most-creative-ways-to-have-a-drink-this-summer\np10983\nsVview_tag\np10984\ng36\nsa(dp10985\nValt_view_tags\np10986\n(lp10987\nsVbody\np10988\nVThis and more slang words you should probably be using. See the rest on BuzzFeed!\\u000a\np10989\nsVimage_hash\np10990\nV7e1fbfbb2b61c14b342345ce3c4c237d\np10991\nsVname\np10992\nVEygptian for "hot girl"-00-00-00\np10993\nsVtitle\np10994\nVMeans A Really Hot Girl\np10995\nsVcreative_id\np10996\nV6005542572765\np10997\nsVpreview_url\np10998\nVhttp://www.facebook.com/ads/api/creative_preview.php?cid=6005542572765\np10999\nsVid\np11000\nV6005542572765\np11001\nsVimage_url\np11002\nVhttps://fbcdn-creative-a.akamaihd.net/hads-ak-ash3/s110x80/708186_6006844805565_39078_n.jpg\np11003\nsVcount_current_adgroups\np11004\nI0\nsVrun_status\np11005\nI1\nsVtype\np11006\nI1\nsVlink_url\np11007\nVhttp://www.buzzfeed.com/h1/fbad/americangypsies/slang-words-you-should-probably-be-using\np11008\nsVview_tag\np11009\ng36\nsa(dp11010\nValt_view_tags\np11011\n(lp11012\nsVbody\np11013\nVMakes our list of "10 Awesome TV Adaptations Of Badass Movies" see more on BuzzFeed!\np11014\nsVimage_hash\np11015\nV9c8d09f3d9a9bfd4a3be35ee2412d5da\np11016\nsVname\np11017\nVStar Wars: The Clone Wars\np11018\nsVtitle\np11019\nVStar Wars: The Clone Wars\np11020\nsVcreative_id\np11021\nV6005521622765\np11022\nsVpreview_url\np11023\nVhttp://www.facebook.com/ads/api/creative_preview.php?cid=6005521622765\np11024\nsVid\np11025\nV6005521622765\np11026\nsVimage_url\np11027\nVhttps://fbcdn-creative-a.akamaihd.net/hads-ak-ash3/s110x80/708195_6006844985965_36656_n.jpg\np11028\nsVcount_current_adgroups\np11029\nI1\nsVrun_status\np11030\nI1\nsVtype\np11031\nI1\nsVlink_url\np11032\nVhttp://www.buzzfeed.com/h1/fbad/blackdynamite/10-awesome-tv-adaptations-of-badass-movies-5e97\np11033\nsVview_tag\np11034\ng36\nsa(dp11035\nValt_view_tags\np11036\n(lp11037\nsVbody\np11038\nVIt\'s one of "The Most Inspiring Underdog Stories In Sports." See the rest on BuzzFeed!\np11039\nsVimage_hash\np11040\nVbfca30ce92431cb4426a7e6b39639407\np11041\nsVname\np11042\nVJeremy Lin\'s Streak\np11043\nsVtitle\np11044\nVJeremy Lin\'s Streak\np11045\nsVcreative_id\np11046\nV6005488512965\np11047\nsVpreview_url\np11048\nVhttp://www.facebook.com/ads/api/creative_preview.php?cid=6005488512965\np11049\nsVid\np11050\nV6005488512965\np11051\nsVimage_url\np11052\nVhttps://fbcdn-creative-a.akamaihd.net/hads-ak-ash3/s110x80/708192_6006845202565_20447_n.jpg\np11053\nsVcount_current_adgroups\np11054\nI1\nsVrun_status\np11055\nI1\nsVtype\np11056\nI1\nsVlink_url\np11057\nVhttp://www.buzzfeed.com/h1/fbad/jordanriseabove/10-of-the-most-inspiring-underdog-stories-in-sport-6peo\np11058\nsVview_tag\np11059\ng36\nsa(dp11060\nValt_view_tags\np11061\n(lp11062\nsVbody\np11063\nVCheck out '
p6
sS'hash'
p7
S'9045f93cc1c868b9cc2233d65a814621f259d65b'
p8
sS'stack'
p9
S''
s.