(dp1
S'args'
p2
S''
sS'methodname'
p3
S''
sS'packet_num'
p4
I90
sS'returnval'
p5
S'Addicted to Heavy Metal?\np11463\nsVcreative_id\np11464\nV6005359000765\np11465\nsVpreview_url\np11466\nVhttp://www.facebook.com/ads/api/creative_preview.php?cid=6005359000765\np11467\nsVid\np11468\nV6005359000765\np11469\nsVimage_url\np11470\nVhttps://fbcdn-creative-a.akamaihd.net/hads-ak-snc7/s110x80/701906_6006845356965_39865_n.jpg\np11471\nsVcount_current_adgroups\np11472\nI1\nsVrun_status\np11473\nI1\nsVtype\np11474\nI1\nsVlink_url\np11475\nVhttp://www.buzzfeed.com/h1/fbad/natgeo/8-behaviors-you-dont-see-in-mainstream-society-5n1c\np11476\nsVview_tag\np11477\ng36\nsa(dp11478\nValt_view_tags\np11479\n(lp11480\nsVbody\np11481\nVThis and more in "10 People In Love With Inanimate Objects". See the rest on BuzzFeed!\np11482\nsVimage_hash\np11483\nV55be9ed0dbd2f2854d19d8a355092e2f\np11484\nsVname\np11485\nVHe Married A Pillow!\np11486\nsVtitle\np11487\nVHe Married A Pillow!\np11488\nsVcreative_id\np11489\nV6005287786765\np11490\nsVpreview_url\np11491\nVhttp://www.facebook.com/ads/api/creative_preview.php?cid=6005287786765\np11492\nsVid\np11493\nV6005287786765\np11494\nsVimage_url\np11495\nVhttps://fbcdn-creative-a.akamaihd.net/hads-ak-prn1/s110x80/708175_6006844584765_59474_n.jpg\np11496\nsVcount_current_adgroups\np11497\nI1\nsVrun_status\np11498\nI1\nsVtype\np11499\nI1\nsVlink_url\np11500\nVhttp://www.buzzfeed.com/h1/fbad/natgeo/10-people-in-love-with-inanimate-objects-5n1c\np11501\nsVview_tag\np11502\ng36\nsa(dp11503\nValt_view_tags\np11504\n(lp11505\nsVbody\np11506\nVThis and more in "10 People In Love With Inanimate Objects". See the rest on BuzzFeed!\np11507\nsVimage_hash\np11508\nVa316ec921cd6c556af71675373a830b3\np11509\nsVname\np11510\nVHe Married A Pillow!-00\np11511\nsVtitle\np11512\nVMarried A Roller Coaster!\np11513\nsVcreative_id\np11514\nV6005287794965\np11515\nsVpreview_url\np11516\nVhttp://www.facebook.com/ads/api/creative_preview.php?cid=6005287794965\np11517\nsVid\np11518\nV6005287794965\np11519\nsVimage_url\np11520\nVhttps://fbcdn-creative-a.akamaihd.net/hads-ak-prn1/s110x80/708199_6006845031165_51311_n.jpg\np11521\nsVcount_current_adgroups\np11522\nI1\nsVrun_status\np11523\nI1\nsVtype\np11524\nI1\nsVlink_url\np11525\nVhttp://www.buzzfeed.com/h1/fbad/natgeo/10-people-in-love-with-inanimate-objects-5n1c\np11526\nsVview_tag\np11527\ng36\nsa(dp11528\nValt_view_tags\np11529\n(lp11530\nsVbody\np11531\nVFeel something like this? Check out these awesome realty vs expectation Gifs. #SusanGlenn\np11532\nsVimage_hash\np11533\nV0a7334e063d1e18641ccf7d45cdb5f4e\np11534\nsVname\np11535\nVSo She Has A Boyfriend!\np11536\nsVtitle\np11537\nVSo She Has A Boyfriend!\np11538\nsVcreative_id\np11539\nV6005287227165\np11540\nsVpreview_url\np11541\nVhttp://www.facebook.com/ads/api/creative_preview.php?cid=6005287227165\np11542\nsVid\np11543\nV6005287227165\np11544\nsVimage_url\np11545\nVhttps://fbcdn-creative-a.akamaihd.net/hads-ak-ash3/s110x80/708193_6006844111165_27951_n.jpg\np11546\nsVcount_current_adgroups\np11547\nI0\nsVrun_status\np11548\nI1\nsVtype\np11549\nI1\nsVlink_url\np11550\nVhttp://www.buzzfeed.com/h1/fbad/mattblakely42/what-to-expect-when-encountering-your-susan-glenn\np11551\nsVview_tag\np11552\ng36\nsa(dp11553\nValt_view_tags\np11554\n(lp11555\nsVbody\np11556\nVFeel something like this? Check out these awesome realty vs expectation Gifs. #SusanGlenn\np11557\nsVimage_hash\np11558\nV0a7334e063d1e18641ccf7d45cdb5f4e\np11559\nsVname\np11560\nVSo She Has A Boyfriend!-00\np11561\nsVtitle\np11562\nVSo She Has a Boyfriend!\np11563\nsVcreative_id\np11564\nV6005287654165\np11565\nsVpreview_url\np11566\nVhttp://www.facebook.com/ads/api/creative_preview.php?cid=6005287654165\np11567\nsVid\np11568\nV6005287654165\np11569\nsVimage_url\np11570\nVhttps://fbcdn-creative-a.akamaihd.net/hads-ak-ash3/s110x80/708193_6006844111165_27951_n.jpg\np11571\nsVcount_current_adgroups\np11572\nI1\nsVrun_status\np11573\nI1\nsVtype\np11574\nI1\nsVlink_url\np11575\nVhttp://www.buzzfeed.com/h1/fbad/mattblakely42/what-to-expect-when-encountering-your-susan-glenn\np11576\nsVview_tag\np11577\ng36\nsa(dp11578\nValt_view_tags\np11579\n(lp11580\nsVbody\np11581\nVSan Fran\'s Bay to Breakers Runt. Check out our list of insane festivals on BuzzFeed!\np11582\nsVimage_hash\np11583\nV6a339c446a4214ee86b486a5d448d88b\np11584\nsVname\np11585\nVWhat\'s going on here?\np11586\nsVtitle\np11587\nVWhat\'s going on here?'
p6
sS'hash'
p7
S'9045f93cc1c868b9cc2233d65a814621f259d65b'
p8
sS'stack'
p9
S''
s.