(dp1
S'args'
p2
S''
sS'methodname'
p3
S''
sS'packet_num'
p4
I63
sS'returnval'
p5
S'BA1\np8208\nsVview_tag\np8209\ng36\nsa(dp8210\nValt_view_tags\np8211\n(lp8212\nsVbody\np8213\nVCheck out how these fans expressed their undying love in "20 Awesome South Park Tattoos" brought to you by BuzzFeed and South Park!\np8214\nsVimage_hash\np8215\nV9e93985c3ff7df6619a8a75dd19ad1a9\np8216\nsVname\np8217\nVDie-Hard South Park Fans!\np8218\nsVtitle\np8219\nVDie-Hard South Park Fans!\np8220\nsVcreative_id\np8221\nV6003866065965\np8222\nsVpreview_url\np8223\nVhttp://www.facebook.com/ads/api/creative_preview.php?cid=6003866065965\np8224\nsVid\np8225\nV6003866065965\np8226\nsVimage_url\np8227\nVhttps://fbcdn-creative-a.akamaihd.net/hads-ak-ash3/s110x80/701899_6006844998765_61153_n.jpg\np8228\nsVcount_current_adgroups\np8229\nI0\nsVrun_status\np8230\nI1\nsVtype\np8231\nI1\nsVlink_url\np8232\nVhttp://www.buzzfeed.com/ht/southpark/20-awesome-south-park-tattoos/HFBA1\np8233\nsVview_tag\np8234\ng36\nsa(dp8235\nValt_view_tags\np8236\n(lp8237\nsVbody\np8238\nVCheck out how these fans expressed their undying love in "20 Awesome South Park Tattoos" brought to you by BuzzFeed and South Park!\np8239\nsVimage_hash\np8240\nVe7c24bbf39c61c18a1071fc6e96561ea\np8241\nsVname\np8242\nVDie-Hard South Park Fans!-00\np8243\nsVtitle\np8244\nVDie-Hard South Park Fans!\np8245\nsVcreative_id\np8246\nV6003866070565\np8247\nsVpreview_url\np8248\nVhttp://www.facebook.com/ads/api/creative_preview.php?cid=6003866070565\np8249\nsVid\np8250\nV6003866070565\np8251\nsVimage_url\np8252\nVhttps://fbcdn-creative-a.akamaihd.net/hads-ak-prn1/s110x80/708171_6006845448765_46535_n.jpg\np8253\nsVcount_current_adgroups\np8254\nI0\nsVrun_status\np8255\nI1\nsVtype\np8256\nI1\nsVlink_url\np8257\nVhttp://www.buzzfeed.com/ht/southpark/20-awesome-south-park-tattoos/HFBA1\np8258\nsVview_tag\np8259\ng36\nsa(dp8260\nValt_view_tags\np8261\n(lp8262\nsVbody\np8263\nVLearn some new funny terminology by checking out BuzzFeed\'s "10 Terms From \'The League\' You Should Know" brought to you by The League!\np8264\nsVimage_hash\np8265\nVe5d3c72c6cbda8a41d9b4fae1e0429ea\np8266\nsVname\np8267\nV10 Terms From The League\np8268\nsVtitle\np8269\nV10 Terms From The League\np8270\nsVcreative_id\np8271\nV6003866053765\np8272\nsVpreview_url\np8273\nVhttp://www.facebook.com/ads/api/creative_preview.php?cid=6003866053765\np8274\nsVid\np8275\nV6003866053765\np8276\nsVimage_url\np8277\nVhttps://fbcdn-creative-a.akamaihd.net/hads-ak-prn1/s110x80/708206_6006845438965_52165_n.jpg\np8278\nsVcount_current_adgroups\np8279\nI0\nsVrun_status\np8280\nI1\nsVtype\np8281\nI1\nsVlink_url\np8282\nVhttp://www.buzzfeed.com/ht/theleague/10-terms-from-the-league-you-should-know/HFBA1\np8283\nsVview_tag\np8284\ng36\nsa(dp8285\nValt_view_tags\np8286\n(lp8287\nsVbody\np8288\nVBulk up on Tim Allen facts by checking out BuzzFeed\'s "10 Things You Didn\'t Know About Tim Allen"  brought to you by Last Man Standing!\np8289\nsVimage_hash\np8290\nVa8228a411604efc43c909b39ea4397d6\np8291\nsVname\np8292\nV10 Things About Tim Allen\np8293\nsVtitle\np8294\nV10 Things About Tim Allen\np8295\nsVcreative_id\np8296\nV6003863669565\np8297\nsVpreview_url\np8298\nVhttp://www.facebook.com/ads/api/creative_preview.php?cid=6003863669565\np8299\nsVid\np8300\nV6003863669565\np8301\nsVimage_url\np8302\nVhttps://fbcdn-creative-a.akamaihd.net/hads-ak-prn1/s110x80/708184_6006845061765_61243_n.jpg\np8303\nsVcount_current_adgroups\np8304\nI0\nsVrun_status\np8305\nI1\nsVtype\np8306\nI1\nsVlink_url\np8307\nVhttp://t.cpmadvisors.com/click?cr=7579&bl=1000001319&sl=4773&se=1&pu=153334&v=214748360&ci=blank&so=facebook&prc=1.00&verbdir=http://www.buzzfeed.com/ht/lastmanstanding/10-things-you-didnt-know-about-tim-allen/HFB1533341\np8308\nsVview_tag\np8309\ng36\nsa(dp8310\nValt_view_tags\np8311\n(lp8312\nsVbody\np8313\nVBulk up on Tim Allen facts by checking out BuzzFeed\'s "10 Things You Didn\'t Know About Tim Allen"  brought to you by Last Man Standing!\np8314\nsVimage_hash\np8315\nV9c35fc7cb0a52b637151399e384ec871\np8316\nsVname\np8317\nV10 Facts About Tim Allen!\np8318\nsVtitle\np8319\nV10 Facts About Tim Allen!\np8320\nsVcreative_id\np8321\nV6003863671365\np8322\nsVpreview_url\np8323\nVhttp://www.facebook.com/ads/api/creative_preview.php?cid=6003863671365\np8324\nsVid\np8325\nV6003863671365\np8326\nsVimage_url\np8327\nVhttps://fbcdn-creative-a.akamaihd.net/hads-ak-ash3/s110x80/701900_60068449813'
p6
sS'hash'
p7
S'9045f93cc1c868b9cc2233d65a814621f259d65b'
p8
sS'stack'
p9
S''
s.