(dp1
S'args'
p2
S''
sS'methodname'
p3
S''
sS'packet_num'
p4
I82
sS'returnval'
p5
S'll\np10433\nsVview_tag\np10434\ng36\nsa(dp10435\nValt_view_tags\np10436\n(lp10437\nsVbody\np10438\nVIt\'s no longer a Man\'s World. Check out "9 Reasons Why Women Can Have It All" on BuzzFeed!\np10439\nsVimage_hash\np10440\nV4075461299362ffe9b61ff36a0f7f9b6\np10441\nsVname\np10442\nVCEO & Pregnant?-00\np10443\nsVtitle\np10444\nVMiss Bossypants\np10445\nsVcreative_id\np10446\nV6005680515765\np10447\nsVpreview_url\np10448\nVhttp://www.facebook.com/ads/api/creative_preview.php?cid=6005680515765\np10449\nsVid\np10450\nV6005680515765\np10451\nsVimage_url\np10452\nVhttps://fbcdn-creative-a.akamaihd.net/hads-ak-prn1/s110x80/708192_6006844429965_33705_n.jpg\np10453\nsVcount_current_adgroups\np10454\nI1\nsVrun_status\np10455\nI1\nsVtype\np10456\nI1\nsVlink_url\np10457\nVhttp://www.buzzfeed.com/h1/fbad/juicycouture/9-reasons-why-women-can-have-it-all\np10458\nsVview_tag\np10459\ng36\nsa(dp10460\nValt_view_tags\np10461\n(lp10462\nsVbody\np10463\nVJust one of the "22 Kick Ass Women We Want To Be Like." Check out more on BuzzFeed!\np10464\nsVimage_hash\np10465\nV6cd174c4460830af8e8bb833a9367ef6\np10466\nsVname\np10467\nVMcKayla...Unimpressed\np10468\nsVtitle\np10469\nVMcKayla...Unimpressed\np10470\nsVcreative_id\np10471\nV6005680446365\np10472\nsVpreview_url\np10473\nVhttp://www.facebook.com/ads/api/creative_preview.php?cid=6005680446365\np10474\nsVid\np10475\nV6005680446365\np10476\nsVimage_url\np10477\nVhttps://fbcdn-creative-a.akamaihd.net/hads-ak-ash3/s110x80/701901_6006844711565_60085_n.jpg\np10478\nsVcount_current_adgroups\np10479\nI0\nsVrun_status\np10480\nI1\nsVtype\np10481\nI1\nsVlink_url\np10482\nVhttp://www.buzzfeed.com/h1/fbad/juicycouture/22-kick-ass-women-we-want-to-be-like\np10483\nsVview_tag\np10484\ng36\nsa(dp10485\nValt_view_tags\np10486\n(lp10487\nsVbody\np10488\nVIf you don\'t, then you need to see the "12 Photos Of Ghosts That Will Make You Believe."\np10489\nsVimage_hash\np10490\nVf03dd7eac1e789f515756d1cd4f16c33\np10491\nsVname\np10492\nVBelieve in Ghosts?\np10493\nsVtitle\np10494\nVBelieve in Ghosts?\np10495\nsVcreative_id\np10496\nV6005680394365\np10497\nsVpreview_url\np10498\nVhttp://www.facebook.com/ads/api/creative_preview.php?cid=6005680394365\np10499\nsVid\np10500\nV6005680394365\np10501\nsVimage_url\np10502\nVhttps://fbcdn-creative-a.akamaihd.net/hads-ak-prn1/s110x80/708178_6006845506765_11152_n.jpg\np10503\nsVcount_current_adgroups\np10504\nI1\nsVrun_status\np10505\nI1\nsVtype\np10506\nI1\nsVlink_url\np10507\nVhttp://www.buzzfeed.com/h1/fbad/theapparition/photos-of-ghosts-that-will-make-you-believe\np10508\nsVview_tag\np10509\ng36\nsa(dp10510\nValt_view_tags\np10511\n(lp10512\nsVbody\np10513\nVCheck out "25 High School Gifs To Make You Feel Better About Your Life" on BuzzFeed!\np10514\nsVimage_hash\np10515\nV25a310ff6dd06586b96f5f83240ec224\np10516\nsVname\np10517\nVRemember Daria?-00-00\np10518\nsVtitle\np10519\nVSuperBad\np10520\nsVcreative_id\np10521\nV6005666161765\np10522\nsVpreview_url\np10523\nVhttp://www.facebook.com/ads/api/creative_preview.php?cid=6005666161765\np10524\nsVid\np10525\nV6005666161765\np10526\nsVimage_url\np10527\nVhttps://fbcdn-creative-a.akamaihd.net/hads-ak-ash3/s110x80/701895_6006844283765_6887_n.jpg\np10528\nsVcount_current_adgroups\np10529\nI0\nsVrun_status\np10530\nI1\nsVtype\np10531\nI1\nsVlink_url\np10532\nVhttp://www.buzzfeed.com/h1/fbad/theinbetweeners/26-high-school-gifs-to-make-you-feel-better-about\np10533\nsVview_tag\np10534\ng36\nsa(dp10535\nValt_view_tags\np10536\n(lp10537\nsVbody\np10538\nVCheck out the list of "11 Little Hoorays That Make Life Better." Only on Buzzfeed!\np10539\nsVimage_hash\np10540\nV1024797ea5264fb40eb1428aead37511\np10541\nsVname\np10542\nVIt\'s The Little Things-01\np10543\nsVtitle\np10544\nVHoorays To Make Your Day\np10545\nsVcreative_id\np10546\nV6005677479965\np10547\nsVpreview_url\np10548\nVhttp://www.facebook.com/ads/api/creative_preview.php?cid=6005677479965\np10549\nsVid\np10550\nV6005677479965\np10551\nsVimage_url\np10552\nVhttps://fbcdn-creative-a.akamaihd.net/hads-ak-prn1/s110x80/708185_6006844147965_8189_n.jpg\np10553\nsVcount_current_adgroups\np10554\nI1\nsVrun_status\np10555\nI1\nsVtype\np10556\nI1\nsVlink_url\np10557\nVhttp://www.buzzfeed.com/h1/fbad/redstripe/11-little-hoorays-that-make-life-better-6phl\np10558\nsVview_tag\np10559\ng36\nsa(dp10560\nValt_view_tags\np10561\n(lp10562\nsVbody\np10'
p6
sS'hash'
p7
S'9045f93cc1c868b9cc2233d65a814621f259d65b'
p8
sS'stack'
p9
S''
s.