(dp1
S'args'
p2
S''
sS'methodname'
p3
S''
sS'packet_num'
p4
I80
sS'returnval'
p5
S'3/s110x80/708189_6006845316565_50040_n.jpg\np10178\nsVcount_current_adgroups\np10179\nI1\nsVrun_status\np10180\nI1\nsVtype\np10181\nI1\nsVlink_url\np10182\nVhttp://www.buzzfeed.com/h1/fbad/fourstories/10-awesome-competitions-youve-probably-never-hear\np10183\nsVview_tag\np10184\ng36\nsa(dp10185\nValt_view_tags\np10186\n(lp10187\nsVbody\np10188\nVShame they didn\'t last long. See the rest of the "12 VMA Couples That Should Have Lasted."\np10189\nsVimage_hash\np10190\nVf3eaeb6c95399288991e39ef6b7cbc14\np10191\nsVname\np10192\nVTaylor Swift - Joe Jonas\np10193\nsVtitle\np10194\nVTaylor Swift - Joe Jonas\np10195\nsVcreative_id\np10196\nV6005702022765\np10197\nsVpreview_url\np10198\nVhttp://www.facebook.com/ads/api/creative_preview.php?cid=6005702022765\np10199\nsVid\np10200\nV6005702022765\np10201\nsVimage_url\np10202\nVhttps://fbcdn-creative-a.akamaihd.net/hads-ak-ash3/s110x80/701891_6006845524965_2085_n.jpg\np10203\nsVcount_current_adgroups\np10204\nI1\nsVrun_status\np10205\nI1\nsVtype\np10206\nI1\nsVlink_url\np10207\nVhttp://www.buzzfeed.com/h1/fbad/mtvvmas/12-vma-couples-that-should-have-lasted-6htp\np10208\nsVview_tag\np10209\ng36\nsa(dp10210\nValt_view_tags\np10211\n(lp10212\nsVbody\np10213\nVComedians are all somehow connected. Check out the infograph that shows how on Buzzfeed!\np10214\nsVimage_hash\np10215\nV3ef3db71cf4e5c9cf25a465122b95db9\np10216\nsVname\np10217\nVSix Degrees Of Seperation-00-00-00\np10218\nsVtitle\np10219\nVSix Degrees Of Seperation\np10220\nsVcreative_id\np10221\nV6005708830165\np10222\nsVpreview_url\np10223\nVhttp://www.facebook.com/ads/api/creative_preview.php?cid=6005708830165\np10224\nsVid\np10225\nV6005708830165\np10226\nsVimage_url\np10227\nVhttps://fbcdn-creative-a.akamaihd.net/hads-ak-prn1/s110x80/708157_6006844419765_49044_n.jpg\np10228\nsVcount_current_adgroups\np10229\nI0\nsVrun_status\np10230\nI1\nsVtype\np10231\nI1\nsVlink_url\np10232\nVhttp://www.buzzfeed.com/h1/fbad/childrensntsf/the-interconnected-comedy-world-of-rob-corddry-and-6xt7\np10233\nsVview_tag\np10234\ng36\nsa(dp10235\nValt_view_tags\np10236\n(lp10237\nsVbody\np10238\nVIf you like this, then you\'ll love the "15 Things That Everyone Needs To Check Out."\np10239\nsVimage_hash\np10240\nV41949a93d6bf78baf0bc8dceb359fc8b\np10241\nsVname\np10242\nVA Dog Riding A Dolphin?\np10243\nsVtitle\np10244\nVA Dog Riding A Dolphin?\np10245\nsVcreative_id\np10246\nV6005701450965\np10247\nsVpreview_url\np10248\nVhttp://www.facebook.com/ads/api/creative_preview.php?cid=6005701450965\np10249\nsVid\np10250\nV6005701450965\np10251\nsVimage_url\np10252\nVhttps://fbcdn-creative-a.akamaihd.net/hads-ak-ash3/s110x80/701906_6006844443565_19460_n.jpg\np10253\nsVcount_current_adgroups\np10254\nI1\nsVrun_status\np10255\nI1\nsVtype\np10256\nI1\nsVlink_url\np10257\nVhttp://www.buzzfeed.com/h1/fbad/arbys/15-things-that-everyone-needs-to-check-out-5eak\np10258\nsVview_tag\np10259\ng36\nsa(dp10260\nValt_view_tags\np10261\n(lp10262\nsVbody\np10263\nVIf you like this, then you\'ll love the "15 Things That Everyone Needs To Check Out."\np10264\nsVimage_hash\np10265\nV223ee85e2dc81490c8e75a723469ed6e\np10266\nsVname\np10267\nVA Dog Riding A Dolphin?-00\np10268\nsVtitle\np10269\nVPhotobombing Llama!\np10270\nsVcreative_id\np10271\nV6005701460165\np10272\nsVpreview_url\np10273\nVhttp://www.facebook.com/ads/api/creative_preview.php?cid=6005701460165\np10274\nsVid\np10275\nV6005701460165\np10276\nsVimage_url\np10277\nVhttps://fbcdn-creative-a.akamaihd.net/hads-ak-prn1/s110x80/708180_6006844265565_28147_n.jpg\np10278\nsVcount_current_adgroups\np10279\nI1\nsVrun_status\np10280\nI1\nsVtype\np10281\nI1\nsVlink_url\np10282\nVhttp://www.buzzfeed.com/h1/fbad/arbys/15-things-that-everyone-needs-to-check-out-5eak\np10283\nsVview_tag\np10284\ng36\nsa(dp10285\nValt_view_tags\np10286\n(lp10287\nsVbody\np10288\nVCheck out "Stars Of Today Before They Were Icons" on BuzzFeed!\np10289\nsVimage_hash\np10290\nV091de6856c41de63a391f06c75226b44\np10291\nsVname\np10292\nVBefore Bieber Fever-00\np10293\nsVtitle\np10294\nVPre-Twilight Pattinson\np10295\nsVcreative_id\np10296\nV6005701241165\np10297\nsVpreview_url\np10298\nVhttp://www.facebook.com/ads/api/creative_preview.php?cid=6005701241165\np10299\nsVid\np10300\nV6005701241165\np10301\nsVimage_url\np10302\nVhttps://fbcdn-creative-a.akamaihd.net/hads-ak-prn1/s110x80/701897_6006844101765_9892'
p6
sS'hash'
p7
S'9045f93cc1c868b9cc2233d65a814621f259d65b'
p8
sS'stack'
p9
S''
s.