(dp1
S'args'
p2
S''
sS'methodname'
p3
S''
sS'packet_num'
p4
I68
sS'returnval'
p5
S'Vview_tag\np8759\ng36\nsa(dp8760\nValt_view_tags\np8761\n(lp8762\nsVbody\np8763\nVWant to save money on a vacation? Hostels are a great option. Check out the best hostels to stay at when you travel around the world!\np8764\nsVimage_hash\np8765\nV9102dbf29cd67e9ff1d5cf92df154778\np8766\nsVname\np8767\nVHostels Save You Money!-01\np8768\nsVtitle\np8769\nVHostels Save You Money!\np8770\nsVcreative_id\np8771\nV6003854304765\np8772\nsVpreview_url\np8773\nVhttp://www.facebook.com/ads/api/creative_preview.php?cid=6003854304765\np8774\nsVid\np8775\nV6003854304765\np8776\nsVimage_url\np8777\nVhttps://fbcdn-creative-a.akamaihd.net/hads-ak-prn1/s110x80/708185_6006844915365_46500_n.jpg\np8778\nsVcount_current_adgroups\np8779\nI0\nsVrun_status\np8780\nI1\nsVtype\np8781\nI1\nsVlink_url\np8782\nVhttp://t.cpmadvisors.com/click?cr=7489&bl=1000001319&sl=4734&se=1&pu=151218&v=214748360&ci=blank&so=facebook&prc=1.00&verbdir=http://www.buzzfeed.com/ht/capitalone/the-best-hostels-to-stay-in-when-you-travel-around/HFB1512181\np8783\nsVview_tag\np8784\ng36\nsa(dp8785\nValt_view_tags\np8786\n(lp8787\nsVbody\np8788\nVSave money by checking out "The Best Hostels To Stay In When You Travel Around The World" - brought to you by BuzzFeed and Capital One!\np8789\nsVimage_hash\np8790\nV9102dbf29cd67e9ff1d5cf92df154778\np8791\nsVname\np8792\nVHostels Save You Money!-02\np8793\nsVtitle\np8794\nVHostels Save You Money!\np8795\nsVcreative_id\np8796\nV6003854306565\np8797\nsVpreview_url\np8798\nVhttp://www.facebook.com/ads/api/creative_preview.php?cid=6003854306565\np8799\nsVid\np8800\nV6003854306565\np8801\nsVimage_url\np8802\nVhttps://fbcdn-creative-a.akamaihd.net/hads-ak-prn1/s110x80/708185_6006844915365_46500_n.jpg\np8803\nsVcount_current_adgroups\np8804\nI0\nsVrun_status\np8805\nI1\nsVtype\np8806\nI1\nsVlink_url\np8807\nVhttp://t.cpmadvisors.com/click?cr=7489&bl=1000001319&sl=4734&se=1&pu=151215&v=214748360&ci=blank&so=facebook&prc=1.00&verbdir=http://www.buzzfeed.com/ht/capitalone/the-best-hostels-to-stay-in-when-you-travel-around/HFB1512151\np8808\nsVview_tag\np8809\ng36\nsa(dp8810\nValt_view_tags\np8811\n(lp8812\nsVbody\np8813\nVWant to save money on a vacation? Hostels are a great option. Check out the best hostels to stay at when you travel around the world!\np8814\nsVimage_hash\np8815\nV67ab91b1b9b2a1e8a3790da455bd8412\np8816\nsVname\np8817\nVBest Hostels To Stay At!-00\np8818\nsVtitle\np8819\nVBest Hostels To Stay At!\np8820\nsVcreative_id\np8821\nV6003854308365\np8822\nsVpreview_url\np8823\nVhttp://www.facebook.com/ads/api/creative_preview.php?cid=6003854308365\np8824\nsVid\np8825\nV6003854308365\np8826\nsVimage_url\np8827\nVhttps://fbcdn-creative-a.akamaihd.net/hads-ak-prn1/s110x80/708186_6006844677965_52399_n.jpg\np8828\nsVcount_current_adgroups\np8829\nI0\nsVrun_status\np8830\nI1\nsVtype\np8831\nI1\nsVlink_url\np8832\nVhttp://t.cpmadvisors.com/click?cr=7488&bl=1000001319&sl=4734&se=1&pu=151220&v=214748360&ci=blank&so=facebook&prc=1.00&verbdir=http://www.buzzfeed.com/ht/capitalone/the-best-hostels-to-stay-in-when-you-travel-around/HFB1512201\np8833\nsVview_tag\np8834\ng36\nsa(dp8835\nValt_view_tags\np8836\n(lp8837\nsVbody\np8838\nVSave money by checking out "The Best Hostels To Stay In When You Travel Around The World" - brought to you by BuzzFeed and Capital One!\np8839\nsVimage_hash\np8840\nV9102dbf29cd67e9ff1d5cf92df154778\np8841\nsVname\np8842\nVBest Hostels To Stay At!-01\np8843\nsVtitle\np8844\nVBest Hostels To Stay At!\np8845\nsVcreative_id\np8846\nV6003854309965\np8847\nsVpreview_url\np8848\nVhttp://www.facebook.com/ads/api/creative_preview.php?cid=6003854309965\np8849\nsVid\np8850\nV6003854309965\np8851\nsVimage_url\np8852\nVhttps://fbcdn-creative-a.akamaihd.net/hads-ak-prn1/s110x80/708185_6006844915365_46500_n.jpg\np8853\nsVcount_current_adgroups\np8854\nI0\nsVrun_status\np8855\nI1\nsVtype\np8856\nI1\nsVlink_url\np8857\nVhttp://t.cpmadvisors.com/click?cr=7489&bl=1000001319&sl=4734&se=1&pu=151221&v=214748360&ci=blank&so=facebook&prc=1.00&verbdir=http://www.buzzfeed.com/ht/capitalone/the-best-hostels-to-stay-in-when-you-travel-around/HFB1512211\np8858\nsVview_tag\np8859\ng36\nsa(dp8860\nValt_view_tags\np8861\n(lp8862\nsVbody\np8863\nVSave money by checking out "The Best Hostels To Stay In When You Travel Around The World" - brought to you by BuzzF'
p6
sS'hash'
p7
S'9045f93cc1c868b9cc2233d65a814621f259d65b'
p8
sS'stack'
p9
S''
s.