(dp1
S'args'
p2
S''
sS'methodname'
p3
S''
sS'packet_num'
p4
I21
sS'returnval'
p5
S'776\nI1\nsVtype\np2777\nI1\nsVlink_url\np2778\nVhttp://ad.doubleclick.net/clk;265349090;91012994;m?http://www.buzzfeed.com/h1/fbad/quiznos/11-obscure-holidays-you-should-remember-to-celebra-7ppi\np2779\nsVview_tag\np2780\ng36\nsa(dp2781\nValt_view_tags\np2782\n(lp2783\nsVbody\np2784\nVSee the rest of the "15 Delicious Cookie Reaction GIFs" and get ready for Free Cookie Day!\np2785\nsVimage_hash\np2786\nVdc15f9fe693e079bcad63b859ca60c52\np2787\nsVname\np2788\nVRalph Wiggum\np2789\nsVtitle\np2790\nVRalph Wiggum\np2791\nsVcreative_id\np2792\nV6006436844965\np2793\nsVpreview_url\np2794\nVhttp://www.facebook.com/ads/api/creative_preview.php?cid=6006436844965\np2795\nsVid\np2796\nV6006436844965\np2797\nsVimage_url\np2798\nVhttps://fbcdn-creative-a.akamaihd.net/hads-ak-prn1/s110x80/708191_6006845368365_65170_n.png\np2799\nsVcount_current_adgroups\np2800\nI1\nsVrun_status\np2801\nI1\nsVtype\np2802\nI1\nsVlink_url\np2803\nVhttp://ad.doubleclick.net/clk;265349090;91012994;m?http://www.buzzfeed.com/h1/fbad/quiznos/15-delicious-cookie-reaction-gifs-7ppi\np2804\nsVview_tag\np2805\ng36\nsa(dp2806\nValt_view_tags\np2807\n(lp2808\nsVbody\np2809\nVWe\'ve got "21 Delightful Ways To Make Homemade Holiday Gifts" on BuzzFeed.\np2810\nsVimage_hash\np2811\nVc1dc0179ac8072e703b640eb32fdce7d\np2812\nsVname\np2813\nVDIY Holiday Gifts\np2814\nsVtitle\np2815\nVDIY Holiday Gifts\np2816\nsVcreative_id\np2817\nV6006474383365\np2818\nsVpreview_url\np2819\nVhttp://www.facebook.com/ads/api/creative_preview.php?cid=6006474383365\np2820\nsVid\np2821\nV6006474383365\np2822\nsVimage_url\np2823\nVhttps://fbcdn-creative-a.akamaihd.net/hads-ak-ash3/s110x80/708174_6006474332365_45433_n.jpg\np2824\nsVcount_current_adgroups\np2825\nI1\nsVrun_status\np2826\nI1\nsVtype\np2827\nI1\nsVlink_url\np2828\nVhttp://ad.doubleclick.net/clk;265456027;91169813;o\np2829\nsVview_tag\np2830\ng36\nsa(dp2831\nValt_view_tags\np2832\n(lp2833\nsVbody\np2834\nVIt\'s not. Fool your family with what you learn from "The Ultimate Guide To Gift Wrapping!"\np2835\nsVimage_hash\np2836\nV443ac1bebeea031db421f7e8af399364\np2837\nsVname\np2838\nVThink It\'s A Plane?\np2839\nsVtitle\np2840\nVThink It\'s A Plane?\np2841\nsVcreative_id\np2842\nV6006334674365\np2843\nsVpreview_url\np2844\nVhttp://www.facebook.com/ads/api/creative_preview.php?cid=6006334674365\np2845\nsVid\np2846\nV6006334674365\np2847\nsVimage_url\np2848\nVhttps://fbcdn-creative-a.akamaihd.net/hads-ak-prn1/s110x80/708194_6006844461365_12204_n.png\np2849\nsVcount_current_adgroups\np2850\nI2\nsVrun_status\np2851\nI1\nsVtype\np2852\nI1\nsVlink_url\np2853\nVhttp://ad.doubleclick.net/clk;264495462;89854573;e?http://www.buzzfeed.com/h1/fbad/lenovo/the-ultimate-guide-to-gift-wrapping-everything-5vp1\np2854\nsVview_tag\np2855\ng36\nsa(dp2856\nValt_view_tags\np2857\n(lp2858\nsVbody\np2859\nVBody by Jake is donating Cardio-machines & DDR to schools for exercise - Read more here!\np2860\nsVimage_hash\np2861\nVa92f459516abda2e0b0e6b380ea47cc7\np2862\nsVname\np2863\nVCake w/Coca-Cola?-00-00-00\np2864\nsVtitle\np2865\nVDDR Saving Obesity?\np2866\nsVcreative_id\np2867\nV6006377555565\np2868\nsVpreview_url\np2869\nVhttp://www.facebook.com/ads/api/creative_preview.php?cid=6006377555565\np2870\nsVid\np2871\nV6006377555565\np2872\nsVimage_url\np2873\nVhttps://fbcdn-creative-a.akamaihd.net/hads-ak-ash3/s110x80/708187_6006845069565_18794_n.png\np2874\nsVcount_current_adgroups\np2875\nI0\nsVrun_status\np2876\nI1\nsVtype\np2877\nI1\nsVlink_url\np2878\nVhttp://bzfd.it/TkLtf7\np2879\nsVview_tag\np2880\ng36\nsa(dp2881\nValt_view_tags\np2882\n(lp2883\nsVbody\np2884\nVBody by Jake is donating Cardio-machines & DDR to schools for exercise - Read more here!\np2885\nsVimage_hash\np2886\nVb8217db65adb1120046abcdb8fd33e1a\np2887\nsVname\np2888\nVCake w/Coca-Cola?-00-00-00-00\np2889\nsVtitle\np2890\nVDDR Saving Obesity?\np2891\nsVcreative_id\np2892\nV6006377572965\np2893\nsVpreview_url\np2894\nVhttp://www.facebook.com/ads/api/creative_preview.php?cid=6006377572965\np2895\nsVid\np2896\nV6006377572965\np2897\nsVimage_url\np2898\nVhttps://fbcdn-creative-a.akamaihd.net/hads-ak-ash3/s110x80/708169_6006845156965_37186_n.png\np2899\nsVcount_current_adgroups\np2900\nI2\nsVrun_status\np2901\nI1\nsVtype\np2902\nI1\nsVlink_url\np2903\nVhttp://bzfd.it/TkLtf7\np2904\nsVview_tag\np2905\ng36\nsa(dp2906\nValt_view_tags\np2907\n(lp2908\nsVbody\np2909\nVCheck o'
p6
sS'hash'
p7
S'9045f93cc1c868b9cc2233d65a814621f259d65b'
p8
sS'stack'
p9
S''
s.