(dp1
S'args'
p2
S''
sS'methodname'
p3
S''
sS'packet_num'
p4
I47
sS'returnval'
p5
S'url\np6207\nVhttp://www.buzzfeed.com/h1/fba/skyydragonfruit/the-10-most-beautiful-cactuses-from-around-the-wor\np6208\nsVview_tag\np6209\ng36\nsa(dp6210\nValt_view_tags\np6211\n(lp6212\nsVbody\np6213\nVHere\'s BuzzFeed\'s list of "The Cutest Father-Son Duos". Who\'s your favorite & who\'d we miss?\np6214\nsVimage_hash\np6215\nV5b9c73abc4a3bf02b825cef1e11642c8\np6216\nsVname\np6217\nVBuzzFeed Partner-2011-10-25-f4b6c5d6b31ba4afa7707539d688932b\np6218\nsVtitle\np6219\ng36\nsVcreative_id\np6220\nV6003959859365\np6221\nsVpreview_url\np6222\nVhttp://www.facebook.com/ads/api/creative_preview.php?cid=6003959859365\np6223\nsVobject_id\np6224\nI238205562866018\nsVid\np6225\nV6003959859365\np6226\nsVimage_url\np6227\nVhttps://fbcdn-creative-a.akamaihd.net/hads-ak-ash3/s110x80/708187_6006844616565_8779_n.jpg\np6228\nsVcount_current_adgroups\np6229\nI0\nsVrun_status\np6230\nI1\nsVtype\np6231\nI2\nsVlink_url\np6232\nVhttp://www.facebook.com/BuzzFeedPartner?sk=wall\np6233\nsVview_tag\np6234\ng36\nsa(dp6235\nValt_view_tags\np6236\n(lp6237\nsVbody\np6238\nVHere\'s BuzzFeed\'s list of "The Cutest Father-Son Duos". Who\'s your favorite & who\'d we miss?\np6239\nsVimage_hash\np6240\nV7c7bb00df40130dc97084b71292ac741\np6241\nsVname\np6242\nVBuzzFeed Partner-2011-10-25-60571b460737bbac38cbe0f27a988610\np6243\nsVtitle\np6244\ng36\nsVcreative_id\np6245\nV6003959865365\np6246\nsVpreview_url\np6247\nVhttp://www.facebook.com/ads/api/creative_preview.php?cid=6003959865365\np6248\nsVobject_id\np6249\nI238205562866018\nsVid\np6250\nV6003959865365\np6251\nsVimage_url\np6252\nVhttps://fbcdn-creative-a.akamaihd.net/hads-ak-prn1/s110x80/708182_6006844796165_41966_n.jpg\np6253\nsVcount_current_adgroups\np6254\nI0\nsVrun_status\np6255\nI1\nsVtype\np6256\nI2\nsVlink_url\np6257\nVhttp://www.facebook.com/BuzzFeedPartner?sk=wall\np6258\nsVview_tag\np6259\ng36\nsa(dp6260\nValt_view_tags\np6261\n(lp6262\nsVbody\np6263\nVHere\'s BuzzFeed\'s list of "The Cutest Father-Son Duos". Who\'s your favorite & who\'d we miss?\np6264\nsVimage_hash\np6265\nV234301c71aceda84a79303cfcd6f8efb\np6266\nsVname\np6267\nVBuzzFeed Partner-2011-10-25-efdfa44fc81ee55faa3bcfd02cac3b93\np6268\nsVtitle\np6269\ng36\nsVcreative_id\np6270\nV6003959867765\np6271\nsVpreview_url\np6272\nVhttp://www.facebook.com/ads/api/creative_preview.php?cid=6003959867765\np6273\nsVobject_id\np6274\nI238205562866018\nsVid\np6275\nV6003959867765\np6276\nsVimage_url\np6277\nVhttps://fbcdn-creative-a.akamaihd.net/hads-ak-prn1/s110x80/708167_6006844272165_20134_n.jpg\np6278\nsVcount_current_adgroups\np6279\nI0\nsVrun_status\np6280\nI1\nsVtype\np6281\nI2\nsVlink_url\np6282\nVhttp://www.facebook.com/BuzzFeedPartner?sk=wall\np6283\nsVview_tag\np6284\ng36\nsa(dp6285\nValt_view_tags\np6286\n(lp6287\nsVbody\np6288\nVVote on Harold & Kumar\'s Facebook page to give your college a chance at  The Harold & Kumar Munchies Truck! Click to find out more!\np6289\nsVimage_hash\np6290\nV35ea0fe41431ab3b9b82a8a95b83d0f0\np6291\nsVname\np6292\nVHarold & Kumar Food Truck\np6293\nsVtitle\np6294\nVHarold & Kumar Food Truck\np6295\nsVcreative_id\np6296\nV6003959877965\np6297\nsVpreview_url\np6298\nVhttp://www.facebook.com/ads/api/creative_preview.php?cid=6003959877965\np6299\nsVid\np6300\nV6003959877965\np6301\nsVimage_url\np6302\nVhttps://fbcdn-creative-a.akamaihd.net/hads-ak-prn1/s110x80/708191_6006844366965_51708_n.jpg\np6303\nsVcount_current_adgroups\np6304\nI0\nsVrun_status\np6305\nI1\nsVtype\np6306\nI1\nsVlink_url\np6307\nVhttp://www.buzzfeed.com/h1/fba/haroldandkumar/follow-the-munchies-truck\np6308\nsVview_tag\np6309\ng36\nsa(dp6310\nValt_view_tags\np6311\n(lp6312\nsVbody\np6313\nVVote on Harold & Kumar\'s Facebook page to give your college a chance at  The Harold & Kumar Munchies Truck! Click to find out more!\np6314\nsVimage_hash\np6315\nV99cd76db63c56698bd5ca840b5c13771\np6316\nsVname\np6317\nVHarold & Kumar Food Truck-00\np6318\nsVtitle\np6319\nVHarold & Kumar Food Truck\np6320\nsVcreative_id\np6321\nV6003961448965\np6322\nsVpreview_url\np6323\nVhttp://www.facebook.com/ads/api/creative_preview.php?cid=6003961448965\np6324\nsVid\np6325\nV6003961448965\np6326\nsVimage_url\np6327\nVhttps://fbcdn-creative-a.akamaihd.net/hads-ak-ash3/s110x80/708163_6006844969365_35868_n.jpg\np6328\nsVcount_current_adgroups\np6329\nI0\nsVrun_status\np6330\nI1\nsVtype\np6331\nI1\nsVlink_url\np6332\nVhttp://www.buzzfeed.com'
p6
sS'hash'
p7
S'9045f93cc1c868b9cc2233d65a814621f259d65b'
p8
sS'stack'
p9
S''
s.