(dp1
S'args'
p2
S''
sS'methodname'
p3
S''
sS'packet_num'
p4
I72
sS'returnval'
p5
S'lls-with-wild-animals/HFB1511661\np9183\nsVview_tag\np9184\ng36\nsa(dp9185\nValt_view_tags\np9186\n(lp9187\nsVbody\np9188\nVThese animals may look cute and cuddly at first, but beware when they attack! Check out "8 Unbelievable Close Calls With Wild Animals"\np9189\nsVimage_hash\np9190\nV146b7dc0e7fa92997e6ec8b21a03572d\np9191\nsVname\np9192\nVClose Calls With Animals!-02\np9193\nsVtitle\np9194\nVClose Calls With Animals!\np9195\nsVcreative_id\np9196\nV6003854012965\np9197\nsVpreview_url\np9198\nVhttp://www.facebook.com/ads/api/creative_preview.php?cid=6003854012965\np9199\nsVid\np9200\nV6003854012965\np9201\nsVimage_url\np9202\nVhttps://fbcdn-creative-a.akamaihd.net/hads-ak-prn1/s110x80/708194_6006844175965_8916_n.jpg\np9203\nsVcount_current_adgroups\np9204\nI0\nsVrun_status\np9205\nI1\nsVtype\np9206\nI1\nsVlink_url\np9207\nVhttp://t.cpmadvisors.com/click?cr=7477&bl=1000001319&sl=4730&se=1&pu=151167&v=214748360&ci=blank&so=facebook&prc=1.00&verbdir=http://www.buzzfeed.com/ht/mentos/8-unbelievable-close-calls-with-wild-animals/HFB1511671\np9208\nsVview_tag\np9209\ng36\nsa(dp9210\nValt_view_tags\np9211\n(lp9212\nsVbody\np9213\nVThese animals may look cute and cuddly at first, but beware when they attack! Check out "8 Unbelievable Close Calls With Wild Animals"\np9214\nsVimage_hash\np9215\nV9579b843fedd488bd96d351eaead8916\np9216\nsVname\np9217\nVBeware: Animal Attacks!-00\np9218\nsVtitle\np9219\nVBeware: Animal Attacks!\np9220\nsVcreative_id\np9221\nV6003854013365\np9222\nsVpreview_url\np9223\nVhttp://www.facebook.com/ads/api/creative_preview.php?cid=6003854013365\np9224\nsVid\np9225\nV6003854013365\np9226\nsVimage_url\np9227\nVhttps://fbcdn-creative-a.akamaihd.net/hads-ak-prn1/s110x80/708196_6006844945165_21923_n.jpg\np9228\nsVcount_current_adgroups\np9229\nI0\nsVrun_status\np9230\nI1\nsVtype\np9231\nI1\nsVlink_url\np9232\nVhttp://t.cpmadvisors.com/click?cr=7479&bl=1000001319&sl=4730&se=1&pu=151159&v=214748360&ci=blank&so=facebook&prc=1.00&verbdir=http://www.buzzfeed.com/ht/mentos/8-unbelievable-close-calls-with-wild-animals/HFB1511591\np9233\nsVview_tag\np9234\ng36\nsa(dp9235\nValt_view_tags\np9236\n(lp9237\nsVbody\np9238\nVThese animals may look cute and cuddly at first, but beware when they attack! Check out "8 Unbelievable Close Calls With Wild Animals"\np9239\nsVimage_hash\np9240\nVcbd40bc0b3a4fe20c18b08698c0cf844\np9241\nsVname\np9242\nVBeware: Animal Attacks!-01\np9243\nsVtitle\np9244\nVBeware: Animal Attacks!\np9245\nsVcreative_id\np9246\nV6003854014365\np9247\nsVpreview_url\np9248\nVhttp://www.facebook.com/ads/api/creative_preview.php?cid=6003854014365\np9249\nsVid\np9250\nV6003854014365\np9251\nsVimage_url\np9252\nVhttps://fbcdn-creative-a.akamaihd.net/hads-ak-ash3/s110x80/708171_6006845272565_26023_n.jpg\np9253\nsVcount_current_adgroups\np9254\nI0\nsVrun_status\np9255\nI1\nsVtype\np9256\nI1\nsVlink_url\np9257\nVhttp://t.cpmadvisors.com/click?cr=7478&bl=1000001319&sl=4730&se=1&pu=151157&v=214748360&ci=blank&so=facebook&prc=1.00&verbdir=http://www.buzzfeed.com/ht/mentos/8-unbelievable-close-calls-with-wild-animals/HFB1511571\np9258\nsVview_tag\np9259\ng36\nsa(dp9260\nValt_view_tags\np9261\n(lp9262\nsVbody\np9263\nVThese animals may look cute and cuddly at first, but beware when they attack! Check out "8 Unbelievable Close Calls With Wild Animals"\np9264\nsVimage_hash\np9265\nV9579b843fedd488bd96d351eaead8916\np9266\nsVname\np9267\nVClose Calls With Animals!-03\np9268\nsVtitle\np9269\nVClose Calls With Animals!\np9270\nsVcreative_id\np9271\nV6003854018565\np9272\nsVpreview_url\np9273\nVhttp://www.facebook.com/ads/api/creative_preview.php?cid=6003854018565\np9274\nsVid\np9275\nV6003854018565\np9276\nsVimage_url\np9277\nVhttps://fbcdn-creative-a.akamaihd.net/hads-ak-prn1/s110x80/708196_6006844945165_21923_n.jpg\np9278\nsVcount_current_adgroups\np9279\nI0\nsVrun_status\np9280\nI1\nsVtype\np9281\nI1\nsVlink_url\np9282\nVhttp://t.cpmadvisors.com/click?cr=7479&bl=1000001319&sl=4730&se=1&pu=151164&v=214748360&ci=blank&so=facebook&prc=1.00&verbdir=http://www.buzzfeed.com/ht/mentos/8-unbelievable-close-calls-with-wild-animals/HFB1511641\np9283\nsVview_tag\np9284\ng36\nsa(dp9285\nValt_view_tags\np9286\n(lp9287\nsVbody\np9288\nVWant to see how close animal atacks can get? Your in luck, BuzzFeed and Mentos bring you "8 Unbelievable Close C'
p6
sS'hash'
p7
S'9045f93cc1c868b9cc2233d65a814621f259d65b'
p8
sS'stack'
p9
S''
s.