(dp1
S'args'
p2
S''
sS'methodname'
p3
S''
sS'packet_num'
p4
I1
sS'returnval'
p5
S'p131\nI0\nsVrun_status\np132\nI1\nsVtype\np133\nI1\nsVlink_url\np134\nVhttp://www.buzzfeed.com/h1/fbad/samsungcamera/32-instagrammers-that-you-should-totally-be-follow\np135\nsVview_tag\np136\ng36\nsa(dp137\nValt_view_tags\np138\n(lp139\nsVbody\np140\nVJust one of the "15 Animals That Are Definitely Caregivers!" See the rest on BuzzFeed!\np141\nsVimage_hash\np142\nV4578d8dd27e0ecb53a1600bad5128cd4\np143\nsVname\np144\nVMonkey Feeding A Tiger?\np145\nsVtitle\np146\nVMonkey Feeding A Tiger?\np147\nsVcreative_id\np148\nV6007812895765\np149\nsVpreview_url\np150\nVhttp://www.facebook.com/ads/api/creative_preview.php?cid=6007812895765\np151\nsVid\np152\nV6007812895765\np153\nsVimage_url\np154\nVhttps://fbcdn-creative-a.akamaihd.net/hads-ak-ash3/s110x80/735294_6007812893365_43826_n.jpg\np155\nsVcount_current_adgroups\np156\nI0\nsVrun_status\np157\nI1\nsVtype\np158\nI1\nsVlink_url\np159\nVhttp://www.buzzfeed.com/h1/fbad/archetypeme/15-animals-that-are-definitely-caregivers?sctp=da&scvn=buzzfeed&scsrc=bz_social-content-seeding&sckw=pixel&sccrtv=w_b__0115\np160\nsVview_tag\np161\ng36\nsa(dp162\nValt_view_tags\np163\n(lp164\nsVbody\np165\nVJust one of the "15 Animals That Are Definitely Caregivers!" See the rest on BuzzFeed!\np166\nsVimage_hash\np167\nV84429efdbe58a8483da5db57a6cb2c5b\np168\nsVname\np169\nVMonkey Feeding A Tiger?-00\np170\nsVtitle\np171\nVA Pug Doctor?\np172\nsVcreative_id\np173\nV6007824228365\np174\nsVpreview_url\np175\nVhttp://www.facebook.com/ads/api/creative_preview.php?cid=6007824228365\np176\nsVid\np177\nV6007824228365\np178\nsVimage_url\np179\nVhttps://fbcdn-creative-a.akamaihd.net/hads-ak-ash3/s110x80/735358_6007824203565_53873_n.png\np180\nsVcount_current_adgroups\np181\nI0\nsVrun_status\np182\nI1\nsVtype\np183\nI1\nsVlink_url\np184\nVhttp://www.buzzfeed.com/h1/fbad/archetypeme/15-animals-that-are-definitely-caregivers?sctp=da&scvn=buzzfeed&scsrc=bz_social-content-seeding&sckw=pixel&sccrtv=w_b__0115\np185\nsVview_tag\np186\ng36\nsa(dp187\nValt_view_tags\np188\n(lp189\nsVbody\np190\nVTake notes, these people are doing it right. Check out "11 People Paying It Forward" here!\np191\nsVimage_hash\np192\nVce4bf5145e1f440996e146eb3745682c\np193\nsVname\np194\nVHelping Out Others\np195\nsVtitle\np196\nVHelping Out Others\np197\nsVcreative_id\np198\nV6007813015965\np199\nsVpreview_url\np200\nVhttp://www.facebook.com/ads/api/creative_preview.php?cid=6007813015965\np201\nsVid\np202\nV6007813015965\np203\nsVimage_url\np204\nVhttps://fbcdn-creative-a.akamaihd.net/hads-ak-prn1/s110x80/735333_6007812932965_39099_n.png\np205\nsVcount_current_adgroups\np206\nI0\nsVrun_status\np207\nI1\nsVtype\np208\nI1\nsVlink_url\np209\nVhttp://www.buzzfeed.com/h1/fbad/archetypeme/11-people-paying-it-forward?sctp=da&scvn=buzzfeed&scsrc=bz_social-content-seeding&sckw=pixel&sccrtv=w_b__0115\np210\nsVview_tag\np211\ng36\nsa(dp212\nValt_view_tags\np213\n(lp214\nsVbody\np215\nVTravel back in time & Check out what headlines you\'d be reading back in the 19th Century!\np216\nsVimage_hash\np217\nV852dab295040f671d76dad69daca535d\np218\nsVname\np219\nVTravel Back in Time-00\np220\nsVtitle\np221\nVHeadline Generator\np222\nsVcreative_id\np223\nV6007825886565\np224\nsVpreview_url\np225\nVhttp://www.facebook.com/ads/api/creative_preview.php?cid=6007825886565\np226\nsVid\np227\nV6007825886565\np228\nsVimage_url\np229\nVhttps://fbcdn-creative-a.akamaihd.net/hads-ak-prn1/s110x80/735336_6007825871965_49579_n.jpg\np230\nsVcount_current_adgroups\np231\nI0\nsVrun_status\np232\nI1\nsVtype\np233\nI1\nsVlink_url\np234\nVhttp://ad.doubleclick.net/click;h=v2|4029|0|0|%2a|w;266257480;0-0;0;92132325;31-1|1;51989610|51950158|1;;;pc=[TPAS_ID]%3fhttp://www.buzzfeed.com/h1/fbad/bbcamerica/the-buzzfeed-old-timey-headline-generator?utm_source=BuzzFeed&utm_medium=banner&utm_campaign=ripper\np235\nsVview_tag\np236\ng36\nsa(dp237\nValt_view_tags\np238\n(lp239\nsVbody\np240\nVCheck out what kind of headlines you\'d be reading back in the 19th Century!\np241\nsVimage_hash\np242\nV852dab295040f671d76dad69daca535d\np243\nsVname\np244\nVTravel Back in Time\np245\nsVtitle\np246\nVTravel Back in Time\np247\nsVcreative_id\np248\nV6007825873365\np249\nsVpreview_url\np250\nVhttp://www.facebook.com/ads/api/creative_preview.php?cid=6007825873365\np251\nsVid\np252\nV6007825873365\np253\nsVimage_url\np254\nVhttps://fbcdn-creative-a.akamaih'
p6
sS'hash'
p7
S'9045f93cc1c868b9cc2233d65a814621f259d65b'
p8
sS'stack'
p9
S''
s.