(dp1
S'args'
p2
S''
sS'methodname'
p3
S''
sS'packet_num'
p4
I49
sS'returnval'
p5
S'Moves Like Jabba" parody video. Remember to "Like" our page for more great stuff!\np6464\nsVimage_hash\np6465\nV68da66e331ce8c69cdb9ca2640b6c166\np6466\nsVname\np6467\nVBuzzFeed Partner-44\np6468\nsVtitle\np6469\ng36\nsVcreative_id\np6470\nV6003908652765\np6471\nsVpreview_url\np6472\nVhttp://www.facebook.com/ads/api/creative_preview.php?cid=6003908652765\np6473\nsVobject_id\np6474\nI238205562866018\nsVid\np6475\nV6003908652765\np6476\nsVimage_url\np6477\nVhttps://fbcdn-creative-a.akamaihd.net/hads-ak-ash3/s110x80/708167_6006844686365_14684_n.jpg\np6478\nsVcount_current_adgroups\np6479\nI0\nsVrun_status\np6480\nI1\nsVtype\np6481\nI2\nsVlink_url\np6482\nVhttp://www.facebook.com/BuzzFeedPartner?sk=wall\np6483\nsVview_tag\np6484\ng36\nsa(dp6485\nValt_view_tags\np6486\n(lp6487\nsVbody\np6488\nVCheck out BuzzFeed\'s "The Coolest Jobs You Can Get With These College Degrees" by Capital One and see what majors lead to AWESOME jobs!\np6489\nsVimage_hash\np6490\nV0261537741c33f2cc769af04586796ff\np6491\nsVname\np6492\nVThe Job Of Your Dreams!\np6493\nsVtitle\np6494\nVThe Job Of Your Dreams!\np6495\nsVcreative_id\np6496\nV6003927106765\np6497\nsVpreview_url\np6498\nVhttp://www.facebook.com/ads/api/creative_preview.php?cid=6003927106765\np6499\nsVid\np6500\nV6003927106765\np6501\nsVimage_url\np6502\nVhttps://fbcdn-creative-a.akamaihd.net/hads-ak-prn1/s110x80/708194_6006844063965_23020_n.jpg\np6503\nsVcount_current_adgroups\np6504\nI0\nsVrun_status\np6505\nI1\nsVtype\np6506\nI1\nsVlink_url\np6507\nVhttp://www.buzzfeed.com/h1/fba/capitalone/the-coolest-jobs-you-can-get-with-these-college-de\np6508\nsVview_tag\np6509\ng36\nsa(dp6510\nValt_view_tags\np6511\n(lp6512\nsVbody\np6513\nVCheck out BuzzFeed\'s "The Coolest Jobs You Can Get With These College Degrees" by Capital One and see what majors lead to AWESOME jobs!\np6514\nsVimage_hash\np6515\nV5f6456a07fc2a9ae51eaf55392bdd7a3\np6516\nsVname\np6517\nVThe Job Of Your Dreams!-00\np6518\nsVtitle\np6519\nVThe Job Of Your Dreams!\np6520\nsVcreative_id\np6521\nV6003927111165\np6522\nsVpreview_url\np6523\nVhttp://www.facebook.com/ads/api/creative_preview.php?cid=6003927111165\np6524\nsVid\np6525\nV6003927111165\np6526\nsVimage_url\np6527\nVhttps://fbcdn-creative-a.akamaihd.net/hads-ak-snc7/s110x80/701899_6006844635565_44337_n.jpg\np6528\nsVcount_current_adgroups\np6529\nI0\nsVrun_status\np6530\nI1\nsVtype\np6531\nI1\nsVlink_url\np6532\nVhttp://www.buzzfeed.com/h1/fba/capitalone/the-coolest-jobs-you-can-get-with-these-college-de\np6533\nsVview_tag\np6534\ng36\nsa(dp6535\nValt_view_tags\np6536\n(lp6537\nsVbody\np6538\nVCheck out BuzzFeed\'s "The Coolest Jobs You Can Get With These College Degrees" by Capital One and see what majors lead to AWESOME jobs!\np6539\nsVimage_hash\np6540\nV28a950295ab9fe1de3d456b2e22443b7\np6541\nsVname\np6542\nVGet A Job That You Love!\np6543\nsVtitle\np6544\nVGet A Job That You Love!\np6545\nsVcreative_id\np6546\nV6003927304565\np6547\nsVpreview_url\np6548\nVhttp://www.facebook.com/ads/api/creative_preview.php?cid=6003927304565\np6549\nsVid\np6550\nV6003927304565\np6551\nsVimage_url\np6552\nVhttps://fbcdn-creative-a.akamaihd.net/hads-ak-ash3/s110x80/708161_6006844300765_53585_n.jpg\np6553\nsVcount_current_adgroups\np6554\nI0\nsVrun_status\np6555\nI1\nsVtype\np6556\nI1\nsVlink_url\np6557\nVhttp://www.buzzfeed.com/h1/fba/capitalone/the-coolest-jobs-you-can-get-with-these-college-de\np6558\nsVview_tag\np6559\ng36\nsa(dp6560\nValt_view_tags\np6561\n(lp6562\nsVbody\np6563\nVCheck out "The 9 Best Cameos From A Very Harold & Kumar 3D Christmas" and remember to "Like" our page for more great stuff.\np6564\nsVimage_hash\np6565\nV7eae853a9a13d88b05a80fcbd0f926b2\np6566\nsVname\np6567\nVBuzzFeed Partner-45\np6568\nsVtitle\np6569\ng36\nsVcreative_id\np6570\nV6003929558765\np6571\nsVpreview_url\np6572\nVhttp://www.facebook.com/ads/api/creative_preview.php?cid=6003929558765\np6573\nsVobject_id\np6574\nI238205562866018\nsVid\np6575\nV6003929558765\np6576\nsVimage_url\np6577\nVhttps://fbcdn-creative-a.akamaihd.net/hads-ak-prn1/s110x80/708186_6006844807565_56882_n.jpg\np6578\nsVcount_current_adgroups\np6579\nI0\nsVrun_status\np6580\nI1\nsVtype\np6581\nI2\nsVlink_url\np6582\nVhttp://www.facebook.com/BuzzFeedPartner?sk=wall\np6583\nsVview_tag\np6584\ng36\nsa(dp6585\nValt_view_tags\np6586\n(lp6587\nsVbody\np6588\nVShow us in one picture what your s'
p6
sS'hash'
p7
S'9045f93cc1c868b9cc2233d65a814621f259d65b'
p8
sS'stack'
p9
S''
s.