(dp1
S'args'
p2
S''
sS'methodname'
p3
S''
sS'packet_num'
p4
I70
sS'returnval'
p5
S'facebook.com/ads/api/creative_preview.php?cid=6003855381965\np8974\nsVid\np8975\nV6003855381965\np8976\nsVimage_url\np8977\nVhttps://fbcdn-creative-a.akamaihd.net/hads-ak-ash3/s110x80/708170_6006844181965_35063_n.jpg\np8978\nsVcount_current_adgroups\np8979\nI0\nsVrun_status\np8980\nI1\nsVtype\np8981\nI1\nsVlink_url\np8982\nVhttp://t.cpmadvisors.com/click?cr=7495&bl=1000001319&sl=4738&se=1&pu=151249&v=214748360&ci=blank&so=facebook&prc=1.00&verbdir=http://www.buzzfeed.com/ht/lastmanstanding/10-manliest-men-in-entertainment/HFB1512491\np8983\nsVview_tag\np8984\ng36\nsa(dp8985\nValt_view_tags\np8986\n(lp8987\nsVbody\np8988\nVWant to know what it takes to be a man? Check out "10 Manliest Men In Entertainment" by BuzzFeed and Last Man Standing to learn more!\np8989\nsVimage_hash\np8990\nV6440517da049eca732c2fadc88f55c2e\np8991\nsVname\np8992\nVThe 10 Manliest Men Ever-01\np8993\nsVtitle\np8994\nVThe 10 Manliest Men Ever\np8995\nsVcreative_id\np8996\nV6003855382165\np8997\nsVpreview_url\np8998\nVhttp://www.facebook.com/ads/api/creative_preview.php?cid=6003855382165\np8999\nsVid\np9000\nV6003855382165\np9001\nsVimage_url\np9002\nVhttps://fbcdn-creative-a.akamaihd.net/hads-ak-ash3/s110x80/708177_6006844660965_1997_n.jpg\np9003\nsVcount_current_adgroups\np9004\nI0\nsVrun_status\np9005\nI1\nsVtype\np9006\nI1\nsVlink_url\np9007\nVhttp://t.cpmadvisors.com/click?cr=7491&bl=1000001319&sl=4738&se=1&pu=151251&v=214748360&ci=blank&so=facebook&prc=1.00&verbdir=http://www.buzzfeed.com/ht/lastmanstanding/10-manliest-men-in-entertainment/HFB1512511\np9008\nsVview_tag\np9009\ng36\nsa(dp9010\nValt_view_tags\np9011\n(lp9012\nsVbody\np9013\nVIt takes a lot more to being a man\'s man then awesome chest hair.  Check out "10 Manliest Men In Entertainment" and learn how its done!\np9014\nsVimage_hash\np9015\nV6440517da049eca732c2fadc88f55c2e\np9016\nsVname\np9017\nVBuzzFeed Exclusive-17\np9018\nsVtitle\np9019\nVBuzzFeed Exclusive\np9020\nsVcreative_id\np9021\nV6003855385565\np9022\nsVpreview_url\np9023\nVhttp://www.facebook.com/ads/api/creative_preview.php?cid=6003855385565\np9024\nsVid\np9025\nV6003855385565\np9026\nsVimage_url\np9027\nVhttps://fbcdn-creative-a.akamaihd.net/hads-ak-ash3/s110x80/708177_6006844660965_1997_n.jpg\np9028\nsVcount_current_adgroups\np9029\nI0\nsVrun_status\np9030\nI1\nsVtype\np9031\nI1\nsVlink_url\np9032\nVhttp://t.cpmadvisors.com/click?cr=7491&bl=1000001319&sl=4738&se=1&pu=151256&v=214748360&ci=blank&so=facebook&prc=1.00&verbdir=http://www.buzzfeed.com/ht/lastmanstanding/10-manliest-men-in-entertainment/HFB1512561\np9033\nsVview_tag\np9034\ng36\nsa(dp9035\nValt_view_tags\np9036\n(lp9037\nsVbody\np9038\nVIt takes a lot more to being a man\'s man then awesome chest hair.  Check out "10 Manliest Men In Entertainment" and learn how its done!\np9039\nsVimage_hash\np9040\nV14e9eeb4581eb08fd671c504302d8c4d\np9041\nsVname\np9042\nVBuzzFeed Exclusive-18\np9043\nsVtitle\np9044\nVBuzzFeed Exclusive\np9045\nsVcreative_id\np9046\nV6003855387565\np9047\nsVpreview_url\np9048\nVhttp://www.facebook.com/ads/api/creative_preview.php?cid=6003855387565\np9049\nsVid\np9050\nV6003855387565\np9051\nsVimage_url\np9052\nVhttps://fbcdn-creative-a.akamaihd.net/hads-ak-ash3/s110x80/708170_6006844181965_35063_n.jpg\np9053\nsVcount_current_adgroups\np9054\nI0\nsVrun_status\np9055\nI1\nsVtype\np9056\nI1\nsVlink_url\np9057\nVhttp://t.cpmadvisors.com/click?cr=7495&bl=1000001319&sl=4738&se=1&pu=151255&v=214748360&ci=blank&so=facebook&prc=1.00&verbdir=http://www.buzzfeed.com/ht/lastmanstanding/10-manliest-men-in-entertainment/HFB1512551\np9058\nsVview_tag\np9059\ng36\nsa(dp9060\nValt_view_tags\np9061\n(lp9062\nsVbody\np9063\nVIt takes a lot more to being a man\'s man then awesome chest hair.  Check out "10 Manliest Men In Entertainment" and learn how its done!\np9064\nsVimage_hash\np9065\nV6440517da049eca732c2fadc88f55c2e\np9066\nsVname\np9067\nVThe 10 Manliest Men Ever-02\np9068\nsVtitle\np9069\nVThe 10 Manliest Men Ever\np9070\nsVcreative_id\np9071\nV6003855387765\np9072\nsVpreview_url\np9073\nVhttp://www.facebook.com/ads/api/creative_preview.php?cid=6003855387765\np9074\nsVid\np9075\nV6003855387765\np9076\nsVimage_url\np9077\nVhttps://fbcdn-creative-a.akamaihd.net/hads-ak-ash3/s110x80/708177_6006844660965_1997_n.jpg\np9078\nsVcount_current_adgroups\np9079\nI0\nsVrun_status'
p6
sS'hash'
p7
S'9045f93cc1c868b9cc2233d65a814621f259d65b'
p8
sS'stack'
p9
S''
s.