(dp1
S'args'
p2
S''
sS'methodname'
p3
S''
sS'packet_num'
p4
I55
sS'returnval'
p5
S'p7210\nValt_view_tags\np7211\n(lp7212\nsVbody\np7213\nVWhen \'boyfriends\' come into the picture, any father wants to protect his daughter. Check out these great ideas to show who\'s the BOSS!\np7214\nsVimage_hash\np7215\nV308f8e27fde516d3f1f5f353235417ac\np7216\nsVname\np7217\nVIntimidate THE Boyfriend!-01\np7218\nsVtitle\np7219\nVIntimidate THE Boyfriend!\np7220\nsVcreative_id\np7221\nV6003879596765\np7222\nsVpreview_url\np7223\nVhttp://www.facebook.com/ads/api/creative_preview.php?cid=6003879596765\np7224\nsVid\np7225\nV6003879596765\np7226\nsVimage_url\np7227\nVhttps://fbcdn-creative-a.akamaihd.net/hads-ak-ash3/s110x80/701901_6006844340165_3513_n.jpg\np7228\nsVcount_current_adgroups\np7229\nI0\nsVrun_status\np7230\nI1\nsVtype\np7231\nI1\nsVlink_url\np7232\nVhttp://www.buzzfeed.com/ht/lastmanstanding/the-dads-guide-to-intimidating-your-daughters-bo/HFBA1\np7233\nsVview_tag\np7234\ng36\nsa(dp7235\nValt_view_tags\np7236\n(lp7237\nsVbody\np7238\nVWhen \'boyfriends\' come into the picture, any father wants to protect his daughter. Check out these great ideas to show who\'s the BOSS!\np7239\nsVimage_hash\np7240\nVd67eec494fd9e764c9d54a41ba201f76\np7241\nsVname\np7242\nVIntimidate THE Boyfriend!-02\np7243\nsVtitle\np7244\nVIntimidate THE Boyfriend!\np7245\nsVcreative_id\np7246\nV6003879597565\np7247\nsVpreview_url\np7248\nVhttp://www.facebook.com/ads/api/creative_preview.php?cid=6003879597565\np7249\nsVid\np7250\nV6003879597565\np7251\nsVimage_url\np7252\nVhttps://fbcdn-creative-a.akamaihd.net/hads-ak-prn1/s110x80/708189_6006845332165_44941_n.jpg\np7253\nsVcount_current_adgroups\np7254\nI0\nsVrun_status\np7255\nI1\nsVtype\np7256\nI1\nsVlink_url\np7257\nVhttp://www.buzzfeed.com/ht/lastmanstanding/the-dads-guide-to-intimidating-your-daughters-bo/HFBA1\np7258\nsVview_tag\np7259\ng36\nsa(dp7260\nValt_view_tags\np7261\n(lp7262\nsVbody\np7263\nVReal and fantasy football both need an awesome trophy worth playing for. Check out "10 Epic Fantasy Football Trophies" by The League!\np7264\nsVimage_hash\np7265\nV13163c355d124f5df8918474efad4fc9\np7266\nsVname\np7267\nVAwesome Football Trophies\np7268\nsVtitle\np7269\nVAwesome Football Trophies\np7270\nsVcreative_id\np7271\nV6003879638565\np7272\nsVpreview_url\np7273\nVhttp://www.facebook.com/ads/api/creative_preview.php?cid=6003879638565\np7274\nsVid\np7275\nV6003879638565\np7276\nsVimage_url\np7277\nVhttps://fbcdn-creative-a.akamaihd.net/hads-ak-prn1/s110x80/708168_6006844168165_12881_n.jpg\np7278\nsVcount_current_adgroups\np7279\nI0\nsVrun_status\np7280\nI1\nsVtype\np7281\nI1\nsVlink_url\np7282\nVhttp://www.buzzfeed.com/ht/theleague/10-epic-fantasy-football-trophies/HFBA1\np7283\nsVview_tag\np7284\ng36\nsa(dp7285\nValt_view_tags\np7286\n(lp7287\nsVbody\np7288\nVReal and fantasy football both need an awesome trophy worth playing for. Check out "10 Epic Fantasy Football Trophies" by The League!\np7289\nsVimage_hash\np7290\nVc743151f2097cc83475e5542193de255\np7291\nsVname\np7292\nVAwesome Football Trophies-00\np7293\nsVtitle\np7294\nVAwesome Football Trophies\np7295\nsVcreative_id\np7296\nV6003879640365\np7297\nsVpreview_url\np7298\nVhttp://www.facebook.com/ads/api/creative_preview.php?cid=6003879640365\np7299\nsVid\np7300\nV6003879640365\np7301\nsVimage_url\np7302\nVhttps://fbcdn-creative-a.akamaihd.net/hads-ak-prn1/s110x80/708172_6006845245365_59388_n.jpg\np7303\nsVcount_current_adgroups\np7304\nI0\nsVrun_status\np7305\nI1\nsVtype\np7306\nI1\nsVlink_url\np7307\nVhttp://www.buzzfeed.com/ht/theleague/10-epic-fantasy-football-trophies/HFBA1\np7308\nsVview_tag\np7309\ng36\nsa(dp7310\nValt_view_tags\np7311\n(lp7312\nsVbody\np7313\nVCheck out "10 Celebrities That Are Human Versions Of Furby" on BuzzFeed!\np7314\nsVimage_hash\np7315\nVf438dd8d6799fc20b69470ccbc37286b\np7316\nsVname\np7317\nVPSY as a Furby?-00\np7318\nsVtitle\np7319\nVOne Direction & Furby?\np7320\nsVcreative_id\np7321\nV6005904142565\np7322\nsVpreview_url\np7323\nVhttp://www.facebook.com/ads/api/creative_preview.php?cid=6005904142565\np7324\nsVid\np7325\nV6005904142565\np7326\nsVimage_url\np7327\nVhttps://fbcdn-creative-a.akamaihd.net/hads-ak-ash3/s110x80/701891_6006845525965_48165_n.jpg\np7328\nsVcount_current_adgroups\np7329\nI1\nsVrun_status\np7330\nI1\nsVtype\np7331\nI1\nsVlink_url\np7332\nVhttp://www.buzzfeed.com/h1/fbad/furby/10-celebrities-that-are-human-versions-of-furby\np7'
p6
sS'hash'
p7
S'9045f93cc1c868b9cc2233d65a814621f259d65b'
p8
sS'stack'
p9
S''
s.