(dp1
S'args'
p2
S''
sS'methodname'
p3
S''
sS'packet_num'
p4
I57
sS'returnval'
p5
S'0-tips-from-the-league-to-make-sure-your-fantas/HFBA1\np7458\nsVview_tag\np7459\ng36\nsa(dp7460\nValt_view_tags\np7461\n(lp7462\nsVbody\np7463\nVTraveling abroad allows you to try a variety of different foods. Check out "The 10 Foods You Should Try When You Travel Abroad"\np7464\nsVimage_hash\np7465\nV2ac0ced1835cd4c19fd97fdbfdc5e589\np7466\nsVname\np7467\nV10 Great Food Ideas!\np7468\nsVtitle\np7469\nV10 Great Food Ideas!\np7470\nsVcreative_id\np7471\nV6003871206565\np7472\nsVpreview_url\np7473\nVhttp://www.facebook.com/ads/api/creative_preview.php?cid=6003871206565\np7474\nsVid\np7475\nV6003871206565\np7476\nsVimage_url\np7477\nVhttps://fbcdn-creative-a.akamaihd.net/hads-ak-prn1/s110x80/708172_6006844309365_28864_n.jpg\np7478\nsVcount_current_adgroups\np7479\nI0\nsVrun_status\np7480\nI1\nsVtype\np7481\nI1\nsVlink_url\np7482\nVhttp://www.buzzfeed.com/ht/capitalone/the-10-foods-you-should-try-when-you-travel-abroad/HFBA1\np7483\nsVview_tag\np7484\ng36\nsa(dp7485\nValt_view_tags\np7486\n(lp7487\nsVbody\np7488\nVTraveling abroad allows you to try a variety of different foods. Check out "The 10 Foods You Should Try When You Travel Abroad"\np7489\nsVimage_hash\np7490\nV690b066a4d7be1065dbcac94efd8fce7\np7491\nsVname\np7492\nV10 Great Food Ideas!-00\np7493\nsVtitle\np7494\nV10 Great Food Ideas!\np7495\nsVcreative_id\np7496\nV6003871209765\np7497\nsVpreview_url\np7498\nVhttp://www.facebook.com/ads/api/creative_preview.php?cid=6003871209765\np7499\nsVid\np7500\nV6003871209765\np7501\nsVimage_url\np7502\nVhttps://fbcdn-creative-a.akamaihd.net/hads-ak-ash3/s110x80/708167_6006844686965_26967_n.jpg\np7503\nsVcount_current_adgroups\np7504\nI0\nsVrun_status\np7505\nI1\nsVtype\np7506\nI1\nsVlink_url\np7507\nVhttp://www.buzzfeed.com/ht/capitalone/the-10-foods-you-should-try-when-you-travel-abroad/HFBA1\np7508\nsVview_tag\np7509\ng36\nsa(dp7510\nValt_view_tags\np7511\n(lp7512\nsVbody\np7513\nVCheck out how these people took life\'s problems and fought back! Mentos and BuzzFeed give you "These People Just Don\'t Give A Hoot"\np7514\nsVimage_hash\np7515\nV2d416f9b281b9bd2988e3b6a5bd93f25\np7516\nsVname\np7517\nVPeople Who Fight Back!\np7518\nsVtitle\np7519\nVPeople Who Fight Back!\np7520\nsVcreative_id\np7521\nV6003871522965\np7522\nsVpreview_url\np7523\nVhttp://www.facebook.com/ads/api/creative_preview.php?cid=6003871522965\np7524\nsVid\np7525\nV6003871522965\np7526\nsVimage_url\np7527\nVhttps://fbcdn-creative-a.akamaihd.net/hads-ak-prn1/s110x80/708194_6006844325565_39019_n.jpg\np7528\nsVcount_current_adgroups\np7529\nI0\nsVrun_status\np7530\nI1\nsVtype\np7531\nI1\nsVlink_url\np7532\nVhttp://www.buzzfeed.com/ht/mentos/these-people-just-dont-give-a-hoot/HFBA1\np7533\nsVview_tag\np7534\ng36\nsa(dp7535\nValt_view_tags\np7536\n(lp7537\nsVbody\np7538\nVCheck out how these people took life\'s problems and fought back! Mentos and BuzzFeed give you "These People Just Don\'t Give A Hoot"\np7539\nsVimage_hash\np7540\nVcc32b880194bc91179059910eb9a8b2e\np7541\nsVname\np7542\nVPeople Who Fight Back!-00\np7543\nsVtitle\np7544\nVPeople Who Fight Back!\np7545\nsVcreative_id\np7546\nV6003871526365\np7547\nsVpreview_url\np7548\nVhttp://www.facebook.com/ads/api/creative_preview.php?cid=6003871526365\np7549\nsVid\np7550\nV6003871526365\np7551\nsVimage_url\np7552\nVhttps://fbcdn-creative-a.akamaihd.net/hads-ak-prn1/s110x80/708171_6006845274965_41667_n.jpg\np7553\nsVcount_current_adgroups\np7554\nI0\nsVrun_status\np7555\nI1\nsVtype\np7556\nI1\nsVlink_url\np7557\nVhttp://www.buzzfeed.com/ht/mentos/these-people-just-dont-give-a-hoot/HFBA1\np7558\nsVview_tag\np7559\ng36\nsa(dp7560\nValt_view_tags\np7561\n(lp7562\nsVbody\np7563\nVCheck out how these people took life\'s problems and fought back! Mentos and BuzzFeed give you "These People Just Don\'t Give A Hoot"\np7564\nsVimage_hash\np7565\nV8a356f27eaab4ae00a3e08c4190d1ea6\np7566\nsVname\np7567\nVPeople Who Fight Back!-01\np7568\nsVtitle\np7569\nVPeople Who Fight Back!\np7570\nsVcreative_id\np7571\nV6003871528165\np7572\nsVpreview_url\np7573\nVhttp://www.facebook.com/ads/api/creative_preview.php?cid=6003871528165\np7574\nsVid\np7575\nV6003871528165\np7576\nsVimage_url\np7577\nVhttps://fbcdn-creative-a.akamaihd.net/hads-ak-ash3/s110x80/708199_6006844875365_34247_n.jpg\np7578\nsVcount_current_adgroups\np7579\nI0\nsVrun_status\np7580\nI1\nsVtype\np7581\nI1\nsVlink_url\np7582\n'
p6
sS'hash'
p7
S'9045f93cc1c868b9cc2233d65a814621f259d65b'
p8
sS'stack'
p9
S''
s.