(dp1
S'args'
p2
S''
sS'methodname'
p3
S''
sS'packet_num'
p4
I89
sS'returnval'
p5
S'873565\np11323\nsVimage_url\np11324\nVhttps://fbcdn-creative-a.akamaihd.net/hads-ak-prn1/s110x80/708169_6006845397365_23361_n.jpg\np11325\nsVcount_current_adgroups\np11326\nI0\nsVrun_status\np11327\nI1\nsVtype\np11328\nI1\nsVlink_url\np11329\nVhttp://www.buzzfeed.com/h1/fbad/virginmobilelive/the-25-raddest-dads-from-television-5l87\np11330\nsVview_tag\np11331\ng36\nsa(dp11332\nValt_view_tags\np11333\n(lp11334\nsVbody\np11335\nVYou\'re favorite function was an invention of the South. See this and more on BuzzFeed.\\u000a\np11336\nsVimage_hash\np11337\nVdc34edc9032baa39b30fc2438e7daeb2\np11338\nsVname\np11339\nVDid you kinow?\np11340\nsVtitle\np11341\nVDid you kinow?\np11342\nsVcreative_id\np11343\nV6005313091965\np11344\nsVpreview_url\np11345\nVhttp://www.facebook.com/ads/api/creative_preview.php?cid=6005313091965\np11346\nsVid\np11347\nV6005313091965\np11348\nsVimage_url\np11349\nVhttps://fbcdn-creative-a.akamaihd.net/hads-ak-prn1/s110x80/708191_6006845369165_20028_n.jpg\np11350\nsVcount_current_adgroups\np11351\nI0\nsVrun_status\np11352\nI1\nsVtype\np11353\nI1\nsVlink_url\np11354\nVhttp://www.buzzfeed.com/h1/fbad/jeremiahweed/the-souths-most-important-contributions-to-societ\np11355\nsVview_tag\np11356\ng36\nsa(dp11357\nVname\np11358\nVAd from a Page post #6005303383165\np11359\nsVauto_update\np11360\nI00\nsVstory_id\np11361\nV442043229148916\np11362\nsVcreative_id\np11363\nV6005303383165\np11364\nsVpreview_url\np11365\nVhttp://www.facebook.com/ads/api/creative_preview.php?cid=6005303383165\np11366\nsVobject_id\np11367\nV238205562866018\np11368\nsVaction_spec\np11369\n(dp11370\nVpost\np11371\nV442043229148916\np11372\nsVaction.type\np11373\nVlike\np11374\nssVcount_current_adgroups\np11375\nI0\nsVrun_status\np11376\nI1\nsVtype\np11377\nI27\nsVid\np11378\nV6005303383165\np11379\nsa(dp11380\nVname\np11381\nVSponsored story #6005303392365\np11382\nsVstory_id\np11383\nV442043229148916\np11384\nsVcreative_id\np11385\nV6005303392365\np11386\nsVpreview_url\np11387\nVhttp://www.facebook.com/ads/api/creative_preview.php?cid=6005303392365\np11388\nsVobject_id\np11389\nV238205562866018\np11390\nsVaction_spec\np11391\n(dp11392\nVpost\np11393\nV442043229148916\np11394\nsVaction.type\np11395\nVlike\np11396\nssVcluster_id\np11397\nI6005303392165\nsVcount_current_adgroups\np11398\nI0\nsVrun_status\np11399\nI1\nsVtype\np11400\nI25\nsVid\np11401\nV6005303392365\np11402\nsa(dp11403\nValt_view_tags\np11404\n(lp11405\nsVbody\np11406\nVDid you know Conan is an avid Phish fan (Phan) Find out more unknown facts on BuzzFeed!\np11407\nsVimage_hash\np11408\nVa12daf3d5c722e35d34d9802c00c18a3\np11409\nsVname\np11410\nVConan O\'Brien\'s Band\np11411\nsVtitle\np11412\nVConan O\'Brien\'s Band\np11413\nsVcreative_id\np11414\nV6005300247965\np11415\nsVpreview_url\np11416\nVhttp://www.facebook.com/ads/api/creative_preview.php?cid=6005300247965\np11417\nsVid\np11418\nV6005300247965\np11419\nsVimage_url\np11420\nVhttps://fbcdn-creative-a.akamaihd.net/hads-ak-ash3/s110x80/701896_6006845015965_50927_n.jpg\np11421\nsVcount_current_adgroups\np11422\nI1\nsVrun_status\np11423\nI1\nsVtype\np11424\nI1\nsVlink_url\np11425\nVhttp://www.buzzfeed.com/h1/fbad/conan/10-things-you-probably-didnt-know-about-conan-ob\np11426\nsVview_tag\np11427\ng36\nsa(dp11428\nValt_view_tags\np11429\n(lp11430\nsVbody\np11431\nVDid you know it\'s one of the "10 Foods Made Better With Ranch Dressing" ?\np11432\nsVimage_hash\np11433\nV7193a7f763d535fa9d2c984820a72604\np11434\nsVname\np11435\nVBuffalo Wings!-00\np11436\nsVtitle\np11437\nVDo You Love Pizza?\np11438\nsVcreative_id\np11439\nV6005300101565\np11440\nsVpreview_url\np11441\nVhttp://www.facebook.com/ads/api/creative_preview.php?cid=6005300101565\np11442\nsVid\np11443\nV6005300101565\np11444\nsVimage_url\np11445\nVhttps://fbcdn-creative-a.akamaihd.net/hads-ak-prn1/s110x80/708190_6006844735965_59728_n.jpg\np11446\nsVcount_current_adgroups\np11447\nI0\nsVrun_status\np11448\nI1\nsVtype\np11449\nI1\nsVlink_url\np11450\nVhttp://www.buzzfeed.com/h1/fbad/hiddenvalleyranch/10-foods-made-better-with-ranch-dressing\np11451\nsVview_tag\np11452\ng36\nsa(dp11453\nValt_view_tags\np11454\n(lp11455\nsVbody\np11456\nVRoger Tullgren of Sweden is! Read about this and more outrageous behaviors on BuzzFeed!\np11457\nsVimage_hash\np11458\nVd9c8a9860a243f39494fddb76cceb3b6\np11459\nsVname\np11460\nVReal Baby or Doll?-00-00\np11461\nsVtitle\np11462\nV'
p6
sS'hash'
p7
S'9045f93cc1c868b9cc2233d65a814621f259d65b'
p8
sS'stack'
p9
S''
s.