(dp1
S'args'
p2
S''
sS'methodname'
p3
S''
sS'packet_num'
p4
I81
sS'returnval'
p5
S'_n.jpg\np10303\nsVcount_current_adgroups\np10304\nI1\nsVrun_status\np10305\nI1\nsVtype\np10306\nI1\nsVlink_url\np10307\nVhttp://www.buzzfeed.com/h1/fbad/gap/stars-of-today-before-they-were-icons\np10308\nsVview_tag\np10309\ng36\nsa(dp10310\nValt_view_tags\np10311\n(lp10312\nsVbody\np10313\nVCheck Out "13 Amazing Dancers Who Will Inspire You" on BuzzFeed!\np10314\nsVimage_hash\np10315\nVbb19f785065bc7da25da1b7664aac75d\np10316\nsVname\np10317\nVDoin\' the Moonwalk-00\np10318\nsVtitle\np10319\nVB-Boys Defying Gravity\np10320\nsVcreative_id\np10321\nV6005681790565\np10322\nsVpreview_url\np10323\nVhttp://www.facebook.com/ads/api/creative_preview.php?cid=6005681790565\np10324\nsVid\np10325\nV6005681790565\np10326\nsVimage_url\np10327\nVhttps://fbcdn-creative-a.akamaihd.net/hads-ak-ash3/s110x80/708201_6006845174165_41675_n.jpg\np10328\nsVcount_current_adgroups\np10329\nI1\nsVrun_status\np10330\nI1\nsVtype\np10331\nI1\nsVlink_url\np10332\nVhttp://www.buzzfeed.com/h1/fbad/gap/13-amazing-dancers-who-will-inspire-you\np10333\nsVview_tag\np10334\ng36\nsa(dp10335\nValt_view_tags\np10336\n(lp10337\nsVbody\np10338\nVBeautiful pieces created from destruction. Check out "13 Stunning Examples Of Glass Art."\np10339\nsVimage_hash\np10340\nV286b2fe71ab9cd6ec78b8c1bbefcfa9f\np10341\nsVname\np10342\nVThe Glass Man-00\np10343\nsVtitle\np10344\nVBroken Glass Art\np10345\nsVcreative_id\np10346\nV6005701331165\np10347\nsVpreview_url\np10348\nVhttp://www.facebook.com/ads/api/creative_preview.php?cid=6005701331165\np10349\nsVid\np10350\nV6005701331165\np10351\nsVimage_url\np10352\nVhttps://fbcdn-creative-a.akamaihd.net/hads-ak-prn1/s110x80/708161_6006844299565_31002_n.jpg\np10353\nsVcount_current_adgroups\np10354\nI1\nsVrun_status\np10355\nI1\nsVtype\np10356\nI1\nsVlink_url\np10357\nVhttp://www.buzzfeed.com/h1/fbad/arbys/13-stunning-examples-of-glass-art-5eak\np10358\nsVview_tag\np10359\ng36\nsa(dp10360\nValt_view_tags\np10361\n(lp10362\nsVbody\np10363\nVFighting in stilettos never looked so good. Check out "13 Girls That Kick Ass" on BuzzFeed\np10364\nsVimage_hash\np10365\nV143ed25242c1abb0d0d1620733ae3e00\np10366\nsVname\np10367\nVFeisty Feline!\np10368\nsVtitle\np10369\nVFeisty Feline!\np10370\nsVcreative_id\np10371\nV6005680619765\np10372\nsVpreview_url\np10373\nVhttp://www.facebook.com/ads/api/creative_preview.php?cid=6005680619765\np10374\nsVid\np10375\nV6005680619765\np10376\nsVimage_url\np10377\nVhttps://fbcdn-creative-a.akamaihd.net/hads-ak-prn1/s110x80/708194_6006844175365_23381_n.jpg\np10378\nsVcount_current_adgroups\np10379\nI0\nsVrun_status\np10380\nI1\nsVtype\np10381\nI1\nsVlink_url\np10382\nVhttp://www.buzzfeed.com/h1/fbad/juicycouture/13-girls-that-kick-ass\np10383\nsVview_tag\np10384\ng36\nsa(dp10385\nValt_view_tags\np10386\n(lp10387\nsVbody\np10388\nVFighting in stilettos never looked so good. Check out 13 Girls That Kick Butt on BuzzFeed!\np10389\nsVimage_hash\np10390\nV143ed25242c1abb0d0d1620733ae3e00\np10391\nsVname\np10392\nVFeisty Feline!-00\np10393\nsVtitle\np10394\nVFeisty Feline!\np10395\nsVcreative_id\np10396\nV6005680658365\np10397\nsVpreview_url\np10398\nVhttp://www.facebook.com/ads/api/creative_preview.php?cid=6005680658365\np10399\nsVid\np10400\nV6005680658365\np10401\nsVimage_url\np10402\nVhttps://fbcdn-creative-a.akamaihd.net/hads-ak-prn1/s110x80/708194_6006844175365_23381_n.jpg\np10403\nsVcount_current_adgroups\np10404\nI1\nsVrun_status\np10405\nI1\nsVtype\np10406\nI1\nsVlink_url\np10407\nVhttp://www.buzzfeed.com/h1/fbad/juicycouture/13-girls-that-kick-ass\np10408\nsVview_tag\np10409\ng36\nsa(dp10410\nValt_view_tags\np10411\n(lp10412\nsVbody\np10413\nVIt\'s no longer a Man\'s World. Check out "9 Reasons Why Women Can Have It All" on BuzzFeed!\np10414\nsVimage_hash\np10415\nVe32b82d2e4f18d7db998745f3e1dd5e2\np10416\nsVname\np10417\nVCEO & Pregnant?\np10418\nsVtitle\np10419\nVCEO & Pregnant?\np10420\nsVcreative_id\np10421\nV6005680501365\np10422\nsVpreview_url\np10423\nVhttp://www.facebook.com/ads/api/creative_preview.php?cid=6005680501365\np10424\nsVid\np10425\nV6005680501365\np10426\nsVimage_url\np10427\nVhttps://fbcdn-creative-a.akamaihd.net/hads-ak-prn1/s110x80/708169_6006845419965_25415_n.jpg\np10428\nsVcount_current_adgroups\np10429\nI1\nsVrun_status\np10430\nI1\nsVtype\np10431\nI1\nsVlink_url\np10432\nVhttp://www.buzzfeed.com/h1/fbad/juicycouture/9-reasons-why-women-can-have-it-a'
p6
sS'hash'
p7
S'9045f93cc1c868b9cc2233d65a814621f259d65b'
p8
sS'stack'
p9
S''
s.