(dp1
S'args'
p2
S''
sS'methodname'
p3
S''
sS'packet_num'
p4
I4
sS'returnval'
p5
S'l\np517\nsVview_tag\np518\ng36\nsa(dp519\nValt_view_tags\np520\n(lp521\nsVbody\np522\nVFind Out What your Instagram Filter Says About You - Only on BuzzFeed!\\u000a\np523\nsVimage_hash\np524\nV09ad02180b82caa25777ba67884da851\np525\nsVname\np526\nVInstagram Filter Test?-00-00\np527\nsVtitle\np528\nVYour Instagram Type\np529\nsVcreative_id\np530\nV6007484098565\np531\nsVpreview_url\np532\nVhttp://www.facebook.com/ads/api/creative_preview.php?cid=6007484098565\np533\nsVid\np534\nV6007484098565\np535\nsVimage_url\np536\nVhttps://fbcdn-creative-a.akamaihd.net/hads-ak-prn1/s110x80/735356_6007484093365_56969_n.jpg\np537\nsVcount_current_adgroups\np538\nI1\nsVrun_status\np539\nI1\nsVtype\np540\nI1\nsVlink_url\np541\nVhttp://ad.doubleclick.net/clk;266799255;92776664;l\np542\nsVview_tag\np543\ng36\nsa(dp544\nValt_view_tags\np545\n(lp546\nsVbody\np547\nVWell don\'t! Stay calm and look at the "13 Times When It\'s Okay To Freak Out" on BuzzFeed!\np548\nsVimage_hash\np549\nV26945861da22799a139966c23337a1bb\np550\nsVname\np551\nVAre You Freaking Out?\np552\nsVtitle\np553\nVAre You Freaking Out?\np554\nsVcreative_id\np555\nV6007602437165\np556\nsVpreview_url\np557\nVhttp://www.facebook.com/ads/api/creative_preview.php?cid=6007602437165\np558\nsVid\np559\nV6007602437165\np560\nsVimage_url\np561\nVhttps://fbcdn-creative-a.akamaihd.net/hads-ak-prn1/s110x80/735341_6007602355165_3230_n.jpg\np562\nsVcount_current_adgroups\np563\nI1\nsVrun_status\np564\nI1\nsVtype\np565\nI1\nsVlink_url\np566\nVhttp://ad.doubleclick.net/clk;266543194;92810455;n?http://www.buzzfeed.com/h1/fbad/syfy/13-times-when-its-okay-to-freak-out-6wms\np567\nsVview_tag\np568\ng36\nsa(dp569\nValt_view_tags\np570\n(lp571\nsVbody\np572\nVWhat do our undies say about our personalities? See What Your Lingerie Says About You!\np573\nsVimage_hash\np574\nVdfc6a8309f0aa674ee86995f7c8fc1cd\np575\nsVname\np576\nVTake the Lingerie Quiz!-00\np577\nsVtitle\np578\nVTake the Lingerie Quiz!\np579\nsVcreative_id\np580\nV6007594143965\np581\nsVpreview_url\np582\nVhttp://www.facebook.com/ads/api/creative_preview.php?cid=6007594143965\np583\nsVid\np584\nV6007594143965\np585\nsVimage_url\np586\nVhttps://fbcdn-creative-a.akamaihd.net/hads-ak-ash3/s110x80/735308_6007594141765_63046_n.jpg\np587\nsVcount_current_adgroups\np588\nI1\nsVrun_status\np589\nI1\nsVtype\np590\nI1\nsVlink_url\np591\nVhttp://www.buzzfeed.com/h1/fbad/doubledivas/what-does-your-lingerie-say-about-you-8edm\np592\nsVview_tag\np593\ng36\nsa(dp594\nVname\np595\nVSponsored story #6,007,532,630,965\np596\nsVcreative_id\np597\nV6007532630965\np598\nsVpreview_url\np599\nVhttp://www.facebook.com/ads/api/creative_preview.php?cid=6007532630965\np600\nsVobject_id\np601\nV238205562866018\np602\nsVaction_spec\np603\n(lp604\n(dp605\nVpost\np606\nV270600369732082\np607\nsVaction.type\np608\nVlike\np609\nsa(dp610\nVpost\np611\nV270600369732082\np612\nsVaction.type\np613\nVcomment\np614\nsa(dp615\nVpost.object\np616\nV270600369732082\np617\nsVaction.type\np618\nVpost\np619\nsasVcluster_id\np620\nI6007532627165\nsVcount_current_adgroups\np621\nI1\nsVrun_status\np622\nI1\nsVtype\np623\nI25\nsVid\np624\nV6007532630965\np625\nsa(dp626\nValt_view_tags\np627\n(lp628\nsVbody\np629\nVJust One of the "10 Small Fictional Cities w/Big Problems" - See them all on BuzzFeed!\np630\nsVimage_hash\np631\nV961d08b53f691ede8b7e98c6487ee872\np632\nsVname\np633\nVSilent Hill\np634\nsVtitle\np635\nVSilent Hill\np636\nsVcreative_id\np637\nV6007597181565\np638\nsVpreview_url\np639\nVhttp://www.facebook.com/ads/api/creative_preview.php?cid=6007597181565\np640\nsVid\np641\nV6007597181565\np642\nsVimage_url\np643\nVhttps://fbcdn-creative-a.akamaihd.net/hads-ak-prn1/s110x80/735336_6007597142765_2227_n.jpg\np644\nsVcount_current_adgroups\np645\nI0\nsVrun_status\np646\nI1\nsVtype\np647\nI1\nsVlink_url\np648\nVhttp://www.buzzfeed.com/h1/fbad/banshee/10-small-fictional-cities-with-big-fictional-probl\np649\nsVview_tag\np650\ng36\nsa(dp651\nValt_view_tags\np652\n(lp653\nsVbody\np654\nVHe\'d be happy about that! Check out "How Things Would Change If Kids Ran The World!" \np655\nsVimage_hash\np656\nVb4894f0b9e8e702ecc24ed8c9bbdaf50\np657\nsVname\np658\nVBan All Clowns?-00\np659\nsVtitle\np660\nVNo More Coaster Cams?\np661\nsVcreative_id\np662\nV6007598760365\np663\nsVpreview_url\np664\nVhttp://www.facebook.com/ads/api/creative_preview.php?cid=6007598760365\np665\nsVid\np666\nV6007598'
p6
sS'hash'
p7
S'9045f93cc1c868b9cc2233d65a814621f259d65b'
p8
sS'stack'
p9
S''
s.