(dp1
S'args'
p2
S''
sS'methodname'
p3
S''
sS'packet_num'
p4
I33
sS'returnval'
p5
S's110x80/708186_6006844679165_47681_n.jpg\np4388\nsVcount_current_adgroups\np4389\nI0\nsVrun_status\np4390\nI1\nsVtype\np4391\nI1\nsVlink_url\np4392\nVhttp://www.buzzfeed.com/h1/fbad/pedigree/20-adorable-dogs-looking-for-love\np4393\nsVview_tag\np4394\ng36\nsa(dp4395\nValt_view_tags\np4396\n(lp4397\nsVbody\np4398\nVHe made the list of "13 Animals Who Know It\'s Business Time." Check out the rest here!\np4399\nsVimage_hash\np4400\nV2c1f5fd4dbb867eddf8b51285fdc71c1\np4401\nsVname\np4402\nVLawyer Dog\np4403\nsVtitle\np4404\nVLawyer Dog\np4405\nsVcreative_id\np4406\nV6005954940365\np4407\nsVpreview_url\np4408\nVhttp://www.facebook.com/ads/api/creative_preview.php?cid=6005954940365\np4409\nsVid\np4410\nV6005954940365\np4411\nsVimage_url\np4412\nVhttps://fbcdn-creative-a.akamaihd.net/hads-ak-prn1/s110x80/708181_6006844316365_64723_n.jpg\np4413\nsVcount_current_adgroups\np4414\nI1\nsVrun_status\np4415\nI1\nsVtype\np4416\nI1\nsVlink_url\np4417\nVhttp://www.buzzfeed.com/h1/fbad/marriott/13-animals-who-know-its-business-time-7bu6\np4418\nsVview_tag\np4419\ng36\nsa(dp4420\nValt_view_tags\np4421\n(lp4422\nsVbody\np4423\nVCatchy tune in your head? Check out our top chart Rdio playlist on BuzzFeed!\np4424\nsVimage_hash\np4425\nV217cdf32f0d987ce197a81a369557d7b\np4426\nsVname\np4427\nVWant to Listen to a Hit?\np4428\nsVtitle\np4429\nVWant to Listen to a Hit?\np4430\nsVcreative_id\np4431\nV6006078453365\np4432\nsVpreview_url\np4433\nVhttp://www.facebook.com/ads/api/creative_preview.php?cid=6006078453365\np4434\nsVid\np4435\nV6006078453365\np4436\nsVimage_url\np4437\nVhttps://fbcdn-creative-a.akamaihd.net/hads-ak-ash3/s110x80/708180_6006844261965_3035_n.jpg\np4438\nsVcount_current_adgroups\np4439\nI4\nsVrun_status\np4440\nI1\nsVtype\np4441\nI1\nsVlink_url\np4442\nVhttp://www.buzzfeed.com/h1/fbad/buzzfeedmusicpartner/you-wanted-a-hit-7p85\np4443\nsVview_tag\np4444\ng36\nsa(dp4445\nValt_view_tags\np4446\n(lp4447\nsVbody\np4448\nVCheck out "Classic Children\'s Books In 9 Words Or Less" on BuzzFeed!\np4449\nsVimage_hash\np4450\nV15de3b7a8f25db5c546bc4f0a7d0adeb\np4451\nsVname\np4452\nVAl Gore Was Right!\np4453\nsVtitle\np4454\nVAl Gore Was Right!\np4455\nsVcreative_id\np4456\nV6006104390365\np4457\nsVpreview_url\np4458\nVhttp://www.facebook.com/ads/api/creative_preview.php?cid=6006104390365\np4459\nsVid\np4460\nV6006104390365\np4461\nsVimage_url\np4462\nVhttps://fbcdn-creative-a.akamaihd.net/hads-ak-prn1/s110x80/708166_6006844190165_26964_n.png\np4463\nsVcount_current_adgroups\np4464\nI0\nsVrun_status\np4465\nI1\nsVtype\np4466\nI1\nsVlink_url\np4467\nVhttp://www.buzzfeed.com/h1/fbad/nickmom/classic-childrens-books-in-9-words-or-less\np4468\nsVview_tag\np4469\ng36\nsa(dp4470\nValt_view_tags\np4471\n(lp4472\nsVbody\np4473\nVCan only find it by rewinding past album\'s earliest point. See more hidden stuff in music!\np4474\nsVimage_hash\np4475\nVb17cbbb4456d8863be5b83cc8dbbba65\np4476\nsVname\np4477\nVHidden Kanye Track?\np4478\nsVtitle\np4479\nVHidden Kanye Track?\np4480\nsVcreative_id\np4481\nV6006055162565\np4482\nsVpreview_url\np4483\nVhttp://www.facebook.com/ads/api/creative_preview.php?cid=6006055162565\np4484\nsVid\np4485\nV6006055162565\np4486\nsVimage_url\np4487\nVhttps://fbcdn-creative-a.akamaihd.net/hads-ak-ash3/s110x80/701894_6006845120765_8795_n.jpg\np4488\nsVcount_current_adgroups\np4489\nI0\nsVrun_status\np4490\nI1\nsVtype\np4491\nI1\nsVlink_url\np4492\nVhttp://www.buzzfeed.com/h1/fbad/beatsbydre/9-hidden-songs-and-messages-in-music-that-you-prob-7jsw\np4493\nsVview_tag\np4494\ng36\nsa(dp4495\nValt_view_tags\np4496\n(lp4497\nsVbody\np4498\nVIf you like this, then check out more of the "15 Animals Who Are Behaving Like People!"\np4499\nsVimage_hash\np4500\nVdd1d79de70e411e1d3cad34f0b357b46\np4501\nsVname\np4502\nVCommuter Dog-00\np4503\nsVtitle\np4504\nVPhotobombing Stingray!\np4505\nsVcreative_id\np4506\nV6006028191565\np4507\nsVpreview_url\np4508\nVhttp://www.facebook.com/ads/api/creative_preview.php?cid=6006028191565\np4509\nsVid\np4510\nV6006028191565\np4511\nsVimage_url\np4512\nVhttps://fbcdn-creative-a.akamaihd.net/hads-ak-prn1/s110x80/708172_6006845376365_28839_n.jpg\np4513\nsVcount_current_adgroups\np4514\nI1\nsVrun_status\np4515\nI1\nsVtype\np4516\nI1\nsVlink_url\np4517\nVhttp://www.buzzfeed.com/h1/fbad/campbellsgo/15-animals-who-are-behaving-like-people\np4518\nsVview_tag\np4519\ng36\nsa(dp4520\nVal'
p6
sS'hash'
p7
S'9045f93cc1c868b9cc2233d65a814621f259d65b'
p8
sS'stack'
p9
S''
s.