(dp1
S'args'
p2
S''
sS'methodname'
p3
S''
sS'packet_num'
p4
I93
sS'returnval'
p5
S'/api/creative_preview.php?cid=6005186443165\np11842\nsVid\np11843\nV6005186443165\np11844\nsVimage_url\np11845\nVhttps://fbcdn-creative-a.akamaihd.net/hads-ak-ash3/s110x80/701891_6006844213765_47617_n.jpg\np11846\nsVcount_current_adgroups\np11847\nI1\nsVrun_status\np11848\nI1\nsVtype\np11849\nI1\nsVlink_url\np11850\nVhttp://www.buzzfeed.com/h1/fbad/internetexplorer9/the-worlds-most-surprisingly-fast-things\np11851\nsVview_tag\np11852\ng36\nsa(dp11853\nValt_view_tags\np11854\n(lp11855\nsVbody\np11856\nVCheck out these "20 Party Animals That Love To Celebrate" See them all on BuzzFeed!\np11857\nsVimage_hash\np11858\nV1401be15d41234a23e1dbb6add43c7e7\np11859\nsVname\np11860\nVPlease party with us?\np11861\nsVtitle\np11862\nVPlease party with us?\np11863\nsVcreative_id\np11864\nV6005185890365\np11865\nsVpreview_url\np11866\nVhttp://www.facebook.com/ads/api/creative_preview.php?cid=6005185890365\np11867\nsVid\np11868\nV6005185890365\np11869\nsVimage_url\np11870\nVhttps://fbcdn-creative-a.akamaihd.net/hads-ak-prn1/s110x80/708194_6006844173965_28494_n.jpg\np11871\nsVcount_current_adgroups\np11872\nI1\nsVrun_status\np11873\nI1\nsVtype\np11874\nI1\nsVlink_url\np11875\nVhttp://www.buzzfeed.com/h1/fbad/tostitos/20-party-animals-that-love-to-celebrate\np11876\nsVview_tag\np11877\ng36\nsa(dp11878\nValt_view_tags\np11879\n(lp11880\nsVbody\np11881\nVCheck out these "20 Party Animals That Love To Celebrate" See them all on BuzzFeed!\np11882\nsVimage_hash\np11883\nV93b921d6f438885905538818ae1cfd82\np11884\nsVname\np11885\nVPlease party with me?\np11886\nsVtitle\np11887\nVPlease party with me?\np11888\nsVcreative_id\np11889\nV6005185892365\np11890\nsVpreview_url\np11891\nVhttp://www.facebook.com/ads/api/creative_preview.php?cid=6005185892365\np11892\nsVid\np11893\nV6005185892365\np11894\nsVimage_url\np11895\nVhttps://fbcdn-creative-a.akamaihd.net/hads-ak-ash3/s110x80/708188_6006844934165_56012_n.jpg\np11896\nsVcount_current_adgroups\np11897\nI1\nsVrun_status\np11898\nI1\nsVtype\np11899\nI1\nsVlink_url\np11900\nVhttp://www.buzzfeed.com/h1/fbad/tostitos/20-party-animals-that-love-to-celebrate\np11901\nsVview_tag\np11902\ng36\nsa(dp11903\nValt_view_tags\np11904\n(lp11905\nsVbody\np11906\nVCheck out these "Adorable Videos Of Kids Taking Off Their Training Wheels" on BuzzFeed!\np11907\nsVimage_hash\np11908\nVf946f309ee0220ff8faff431ee53b92b\np11909\nsVname\np11910\nVThese kids are too cute!-00\np11911\nsVtitle\np11912\nVThese kids are too cute!\np11913\nsVcreative_id\np11914\nV6005185619165\np11915\nsVpreview_url\np11916\nVhttp://www.facebook.com/ads/api/creative_preview.php?cid=6005185619165\np11917\nsVid\np11918\nV6005185619165\np11919\nsVimage_url\np11920\nVhttps://fbcdn-creative-a.akamaihd.net/hads-ak-prn1/s110x80/708189_6006845561165_9262_n.jpg\np11921\nsVcount_current_adgroups\np11922\nI0\nsVrun_status\np11923\nI1\nsVtype\np11924\nI1\nsVlink_url\np11925\nVhttp://www.buzzfeed.com/h1/fbad/schwinn/adorable-videos-of-kids-taking-off-their-training-5vrq\np11926\nsVview_tag\np11927\ng36\nsa(dp11928\nValt_view_tags\np11929\n(lp11930\nsVbody\np11931\nVCheck out these "Adorable Videos Of Kids Taking Off Their Training Wheels" on BuzzFeed!\np11932\nsVimage_hash\np11933\nVf946f309ee0220ff8faff431ee53b92b\np11934\nsVname\np11935\nVMust See Videos...Cute!\np11936\nsVtitle\np11937\nVMust See Videos...Cute!\np11938\nsVcreative_id\np11939\nV6005186790365\np11940\nsVpreview_url\np11941\nVhttp://www.facebook.com/ads/api/creative_preview.php?cid=6005186790365\np11942\nsVid\np11943\nV6005186790365\np11944\nsVimage_url\np11945\nVhttps://fbcdn-creative-a.akamaihd.net/hads-ak-prn1/s110x80/708189_6006845561165_9262_n.jpg\np11946\nsVcount_current_adgroups\np11947\nI1\nsVrun_status\np11948\nI1\nsVtype\np11949\nI1\nsVlink_url\np11950\nVhttp://www.buzzfeed.com/h1/fbad/schwinn/adorable-videos-of-kids-taking-off-their-training-5vrq\np11951\nsVview_tag\np11952\ng36\nsa(dp11953\nValt_view_tags\np11954\n(lp11955\nsVbody\np11956\nVMake our list of "16 Animals Cute Enough To Replace Cats On The Web" Look out LOL Cats!\np11957\nsVimage_hash\np11958\nVcc860c3c2dc0b1e802924429e70b15a6\np11959\nsVname\np11960\nVHedgehogs in Party Hats\np11961\nsVtitle\np11962\nVHedgehogs in Party Hats\np11963\nsVcreative_id\np11964\nV6005181979365\np11965\nsVpreview_url\np11966\nVhttp://www.facebook.com/ads/api/creative_preview.php?cid=60051819793'
p6
sS'hash'
p7
S'9045f93cc1c868b9cc2233d65a814621f259d65b'
p8
sS'stack'
p9
S''
s.