(dp1
S'args'
p2
S''
sS'methodname'
p3
S''
sS'packet_num'
p4
I38
sS'returnval'
p5
S'sVpreview_url\np5052\nVhttp://www.facebook.com/ads/api/creative_preview.php?cid=6005983129365\np5053\nsVid\np5054\nV6005983129365\np5055\nsVimage_url\np5056\nVhttps://fbcdn-creative-a.akamaihd.net/hads-ak-prn1/s110x80/708189_6006845183765_59246_n.jpg\np5057\nsVcount_current_adgroups\np5058\nI0\nsVrun_status\np5059\nI1\nsVtype\np5060\nI1\nsVlink_url\np5061\nVhttp://www.buzzfeed.com/h1/fbad/cwarrow/get-abs-like-a-superhero-in-one-easy-step-6e97\np5062\nsVview_tag\np5063\ng36\nsa(dp5064\nValt_view_tags\np5065\n(lp5066\nsVbody\np5067\nVCheck out how they\'re connected in "The 6 Degrees Of Tuesday Night Sitcoms!"\np5068\nsVimage_hash\np5069\nVb35d89642317c0dba29fdf6541b6528a\np5070\nsVname\np5071\nVLove "The New Girl?"-02\np5072\nsVtitle\np5073\nVZooey & Kevin Bacon?\np5074\nsVcreative_id\np5075\nV6005961624565\np5076\nsVpreview_url\np5077\nVhttp://www.facebook.com/ads/api/creative_preview.php?cid=6005961624565\np5078\nsVid\np5079\nV6005961624565\np5080\nsVimage_url\np5081\nVhttps://fbcdn-creative-a.akamaihd.net/hads-ak-prn1/s110x80/708188_6006845131165_36388_n.jpg\np5082\nsVcount_current_adgroups\np5083\nI1\nsVrun_status\np5084\nI1\nsVtype\np5085\nI1\nsVlink_url\np5086\nVhttp://www.buzzfeed.com/h1/fbad/fox/the-6-degrees-of-tuesday-night-sitcoms-7juf\np5087\nsVview_tag\np5088\ng36\nsa(dp5089\nValt_view_tags\np5090\n(lp5091\nsVbody\np5092\nVMeet The New Cast Of It\'s Always Sunny In Philadelphia - Only on BuzzFeed!\np5093\nsVimage_hash\np5094\nV6baec637b264f2986e09aed1af14c64a\np5095\nsVname\np5096\nVSweet Dee as... XZIBIT?\np5097\nsVtitle\np5098\nVSweet Dee as... XZIBIT?\np5099\nsVcreative_id\np5100\nV6005924599365\np5101\nsVpreview_url\np5102\nVhttp://www.facebook.com/ads/api/creative_preview.php?cid=6005924599365\np5103\nsVid\np5104\nV6005924599365\np5105\nsVimage_url\np5106\nVhttps://fbcdn-creative-a.akamaihd.net/hads-ak-ash3/s110x80/708183_6006844702965_49628_n.jpg\np5107\nsVcount_current_adgroups\np5108\nI0\nsVrun_status\np5109\nI1\nsVtype\np5110\nI1\nsVlink_url\np5111\nVhttp://www.buzzfeed.com/h1/fbad/itsalwayssunny/meet-the-new-cast-of-its-always-sunny-in-philadel\np5112\nsVview_tag\np5113\ng36\nsa(dp5114\nValt_view_tags\np5115\n(lp5116\nsVbody\np5117\nVMeet The New Cast Of It\'s Always Sunny In Philadelphia - Only on BuzzFeed!\np5118\nsVimage_hash\np5119\nV96660c5bab1388dc0550997a2d7e39ec\np5120\nsVname\np5121\nVSweet Dee as... XZIBIT?-01\np5122\nsVtitle\np5123\nVMac is Haley Joel Osmont?\np5124\nsVcreative_id\np5125\nV6005924626165\np5126\nsVpreview_url\np5127\nVhttp://www.facebook.com/ads/api/creative_preview.php?cid=6005924626165\np5128\nsVid\np5129\nV6005924626165\np5130\nsVimage_url\np5131\nVhttps://fbcdn-creative-a.akamaihd.net/hads-ak-prn1/s110x80/708172_6006844950565_42325_n.jpg\np5132\nsVcount_current_adgroups\np5133\nI0\nsVrun_status\np5134\nI1\nsVtype\np5135\nI1\nsVlink_url\np5136\nVhttp://www.buzzfeed.com/h1/fbad/itsalwayssunny/meet-the-new-cast-of-its-always-sunny-in-philadel\np5137\nsVview_tag\np5138\ng36\nsa(dp5139\nValt_view_tags\np5140\n(lp5141\nsVbody\np5142\nVCheck Out How They\'re Connected in "The 6 Degrees Of Tuesday Night Sitcoms!"\np5143\nsVimage_hash\np5144\nVb35d89642317c0dba29fdf6541b6528a\np5145\nsVname\np5146\nVLove "The New Girl?"-01\np5147\nsVtitle\np5148\nVZooey & Kevin Bacon?\np5149\nsVcreative_id\np5150\nV6005961614165\np5151\nsVpreview_url\np5152\nVhttp://www.facebook.com/ads/api/creative_preview.php?cid=6005961614165\np5153\nsVid\np5154\nV6005961614165\np5155\nsVimage_url\np5156\nVhttps://fbcdn-creative-a.akamaihd.net/hads-ak-prn1/s110x80/708188_6006845131165_36388_n.jpg\np5157\nsVcount_current_adgroups\np5158\nI0\nsVrun_status\np5159\nI1\nsVtype\np5160\nI1\nsVlink_url\np5161\nVhttp://www.buzzfeed.com/h1/fbad/fox/the-best-of-schmidt-isms\np5162\nsVview_tag\np5163\ng36\nsa(dp5164\nValt_view_tags\np5165\n(lp5166\nsVbody\np5167\nVCheck out the "Top 10 Makeup Violations" on BuzzFeed!\np5168\nsVimage_hash\np5169\nV1a5e77fae16b5b47cbd717f7a77e537d\np5170\nsVname\np5171\nVCrazy Eyebrows\np5172\nsVtitle\np5173\nVCrazy Eyebrows\np5174\nsVcreative_id\np5175\nV6005839479365\np5176\nsVpreview_url\np5177\nVhttp://www.facebook.com/ads/api/creative_preview.php?cid=6005839479365\np5178\nsVid\np5179\nV6005839479365\np5180\nsVimage_url\np5181\nVhttps://fbcdn-creative-a.akamaihd.net/hads-ak-ash3/s110x80/701896_6006844219365_19560_n.jpg\np5182\nsVcount_current_adgroups\np51'
p6
sS'hash'
p7
S'9045f93cc1c868b9cc2233d65a814621f259d65b'
p8
sS'stack'
p9
S''
s.