(dp1
S'args'
p2
S''
sS'methodname'
p3
S''
sS'packet_num'
p4
I20
sS'returnval'
p5
S'_preview.php?cid=6006638457365\np2645\nsVid\np2646\nV6006638457365\np2647\nsVimage_url\np2648\nVhttps://fbcdn-creative-a.akamaihd.net/hads-ak-prn1/s110x80/708168_6006638133365_64082_n.jpg\np2649\nsVcount_current_adgroups\np2650\nI0\nsVrun_status\np2651\nI1\nsVtype\np2652\nI1\nsVlink_url\np2653\nVhttp://www.buzzfeed.com/h1/fbad/virginmobilelive/16-ways-santa-is-just-like-celebrities-5l87\np2654\nsVview_tag\np2655\ng36\nsa(dp2656\nValt_view_tags\np2657\n(lp2658\nsVbody\np2659\nVJust One of the "10 Small Changes At 20 That Can Make You A Millionaire By 60!"\np2660\nsVimage_hash\np2661\nV373c436cf55d502cdd11096549c7b9d8\np2662\nsVname\np2663\nVMaking Your Own Coffee-00\np2664\nsVtitle\np2665\nVReading Books over TV\np2666\nsVcreative_id\np2667\nV6006618327965\np2668\nsVpreview_url\np2669\nVhttp://www.facebook.com/ads/api/creative_preview.php?cid=6006618327965\np2670\nsVid\np2671\nV6006618327965\np2672\nsVimage_url\np2673\nVhttps://fbcdn-creative-a.akamaihd.net/hads-ak-prn1/s110x80/708171_6006618299165_32584_n.jpg\np2674\nsVcount_current_adgroups\np2675\nI0\nsVrun_status\np2676\nI1\nsVtype\np2677\nI1\nsVlink_url\np2678\nVhttp://ad.doubleclick.net/clk;265842839;91611814;r\np2679\nsVview_tag\np2680\ng36\nsa(dp2681\nValt_view_tags\np2682\n(lp2683\nsVbody\np2684\nVCheck ou the "20 Places That You\'ve Probably Never Heard Of But Should Totally Visit"\np2685\nsVimage_hash\np2686\nV2d9f2b34f6765d84eaa498afdd4632a3\np2687\nsVname\np2688\nVThis in Norway No Way!\np2689\nsVtitle\np2690\nVThis in Norway No Way!\np2691\nsVcreative_id\np2692\nV6006470253565\np2693\nsVpreview_url\np2694\nVhttp://www.facebook.com/ads/api/creative_preview.php?cid=6006470253565\np2695\nsVid\np2696\nV6006470253565\np2697\nsVimage_url\np2698\nVhttps://fbcdn-creative-a.akamaihd.net/hads-ak-prn1/s110x80/708194_6006844325965_63134_n.png\np2699\nsVcount_current_adgroups\np2700\nI0\nsVrun_status\np2701\nI1\nsVtype\np2702\nI1\nsVlink_url\np2703\nVhttp://www.buzzfeed.com/h1/fbad/samsungcamera/20-places-that-youve-probably-never-heard-of-but-7uaw\np2704\nsVview_tag\np2705\ng36\nsa(dp2706\nValt_view_tags\np2707\n(lp2708\nsVbody\np2709\nVCheck out the rest of the "15 Things All GIRLS Can Relate To" on BuzzFeed!\np2710\nsVimage_hash\np2711\nVf74f790615b4c0bb35707dbe97d1ec4b\np2712\nsVname\np2713\nVKanye Occupying Wall St?-01\np2714\nsVtitle\np2715\nVRunning into the Ex?\np2716\nsVcreative_id\np2717\nV6006572625365\np2718\nsVpreview_url\np2719\nVhttp://www.facebook.com/ads/api/creative_preview.php?cid=6006572625365\np2720\nsVid\np2721\nV6006572625365\np2722\nsVimage_url\np2723\nVhttps://fbcdn-creative-a.akamaihd.net/hads-ak-ash3/s110x80/708182_6006572513965_6886_n.jpg\np2724\nsVcount_current_adgroups\np2725\nI1\nsVrun_status\np2726\nI1\nsVtype\np2727\nI1\nsVlink_url\np2728\nVhttp://ad.doubleclick.net/clk;265750281;91504213;a\np2729\nsVview_tag\np2730\ng36\nsa(dp2731\nValt_view_tags\np2732\n(lp2733\nsVbody\np2734\nVThink he\'s too dreamy to eat? Check out more of the "14 Celebrities As Cookies" here!\np2735\nsVimage_hash\np2736\nVd0e75b6ba82f4af7ea339d5891c1ce40\np2737\nsVname\np2738\nVGosling Cookie?\np2739\nsVtitle\np2740\nVGosling Cookie?\np2741\nsVcreative_id\np2742\nV6006474706365\np2743\nsVpreview_url\np2744\nVhttp://www.facebook.com/ads/api/creative_preview.php?cid=6006474706365\np2745\nsVid\np2746\nV6006474706365\np2747\nsVimage_url\np2748\nVhttps://fbcdn-creative-a.akamaihd.net/hads-ak-ash3/s110x80/701900_6006474669365_63_n.jpg\np2749\nsVcount_current_adgroups\np2750\nI0\nsVrun_status\np2751\nI1\nsVtype\np2752\nI1\nsVlink_url\np2753\nVhttp://ad.doubleclick.net/clk;265349090;91012994;m?http://www.buzzfeed.com/h1/fbad/quiznos/14-celebrities-as-cookies-7ppi\np2754\nsVview_tag\np2755\ng36\nsa(dp2756\nValt_view_tags\np2757\n(lp2758\nsVbody\np2759\nVJust one of the "11 Obscure Holidays You Should Remember To Celebrate!" See them all!\np2760\nsVimage_hash\np2761\nVe4834dd60f1711b5cecb6451c75b2320\np2762\nsVname\np2763\nVPublic Sleeping Day?-00\np2764\nsVtitle\np2765\nVBad Poetry Day?\np2766\nsVcreative_id\np2767\nV6006490959765\np2768\nsVpreview_url\np2769\nVhttp://www.facebook.com/ads/api/creative_preview.php?cid=6006490959765\np2770\nsVid\np2771\nV6006490959765\np2772\nsVimage_url\np2773\nVhttps://fbcdn-creative-a.akamaihd.net/hads-ak-prn1/s110x80/708167_6006490785365_51518_n.jpg\np2774\nsVcount_current_adgroups\np2775\nI2\nsVrun_status\np2'
p6
sS'hash'
p7
S'9045f93cc1c868b9cc2233d65a814621f259d65b'
p8
sS'stack'
p9
S''
s.