(dp1
S'args'
p2
S''
sS'methodname'
p3
S''
sS'packet_num'
p4
I74
sS'returnval'
p5
S'iew.php?cid=6005853228565\np9399\nsVid\np9400\nV6005853228565\np9401\nsVimage_url\np9402\nVhttps://fbcdn-creative-a.akamaihd.net/hads-ak-prn1/s110x80/708179_6006845570165_32137_n.jpg\np9403\nsVcount_current_adgroups\np9404\nI0\nsVrun_status\np9405\nI1\nsVtype\np9406\nI1\nsVlink_url\np9407\nVhttp://ad.doubleclick.net/clk;262605598;86792726;d?http://www.buzzfeed.com/h1/fbad/volkswagen/pictures-of-smiles-taken-at-just-the-right-moment\np9408\nsVview_tag\np9409\ng36\nsa(dp9410\nValt_view_tags\np9411\n(lp9412\nsVbody\np9413\nVCheck out "10 Celebrities You Never Knew Had A Twin" on BuzzFeed!\np9414\nsVimage_hash\np9415\nV510e2db6c74c83b8f34ed492a6f93c03\np9416\nsVname\np9417\nVAshton & His Twin?-00\np9418\nsVtitle\np9419\nVScarlett Johansson\'s Twin\np9420\nsVcreative_id\np9421\nV6005858675965\np9422\nsVpreview_url\np9423\nVhttp://www.facebook.com/ads/api/creative_preview.php?cid=6005858675965\np9424\nsVid\np9425\nV6005858675965\np9426\nsVimage_url\np9427\nVhttps://fbcdn-creative-a.akamaihd.net/hads-ak-prn1/s110x80/708195_6006844558965_60058_n.jpg\np9428\nsVcount_current_adgroups\np9429\nI0\nsVrun_status\np9430\nI1\nsVtype\np9431\nI1\nsVlink_url\np9432\nVhttp://www.buzzfeed.com/h1/fbad/starbucks/10-celebrities-you-never-knew-had-a-twin-78m6\np9433\nsVview_tag\np9434\ng36\nsa(dp9435\nValt_view_tags\np9436\n(lp9437\nsVbody\np9438\nVCheck out more "Celebrities You Never Knew Had A Twin" on BuzzFeed!\np9439\nsVimage_hash\np9440\nV510e2db6c74c83b8f34ed492a6f93c03\np9441\nsVname\np9442\nVAshton & His Twin?-00-00\np9443\nsVtitle\np9444\nVScarlett Johansson\'s Twin\np9445\nsVcreative_id\np9446\nV6005858683365\np9447\nsVpreview_url\np9448\nVhttp://www.facebook.com/ads/api/creative_preview.php?cid=6005858683365\np9449\nsVid\np9450\nV6005858683365\np9451\nsVimage_url\np9452\nVhttps://fbcdn-creative-a.akamaihd.net/hads-ak-prn1/s110x80/708195_6006844558965_60058_n.jpg\np9453\nsVcount_current_adgroups\np9454\nI0\nsVrun_status\np9455\nI1\nsVtype\np9456\nI1\nsVlink_url\np9457\nVhttp://www.buzzfeed.com/h1/fbad/starbucks/10-celebrities-you-never-knew-had-a-twin-78m6\np9458\nsVview_tag\np9459\ng36\nsa(dp9460\nValt_view_tags\np9461\n(lp9462\nsVbody\np9463\nVCan You Make It Through This Post Without Smiling? Check it out on BuzzFeed!\np9464\nsVimage_hash\np9465\nV93ba59dd643b4aba459dbc6c8eed2df8\np9466\nsVname\np9467\nVWe Challenge You!\np9468\nsVtitle\np9469\nVWe Challenge You!\np9470\nsVcreative_id\np9471\nV6005853132565\np9472\nsVpreview_url\np9473\nVhttp://www.facebook.com/ads/api/creative_preview.php?cid=6005853132565\np9474\nsVid\np9475\nV6005853132565\np9476\nsVimage_url\np9477\nVhttps://fbcdn-creative-a.akamaihd.net/hads-ak-prn1/s110x80/708188_6006844934365_1131_n.jpg\np9478\nsVcount_current_adgroups\np9479\nI0\nsVrun_status\np9480\nI1\nsVtype\np9481\nI1\nsVlink_url\np9482\nVhttp://ad.doubleclick.net/clk;262604599;86792737;f?http://www.buzzfeed.com/h1/fbad/volkswagen/can-you-make-it-through-this-post-without-smiling\np9483\nsVview_tag\np9484\ng36\nsa(dp9485\nValt_view_tags\np9486\n(lp9487\nsVbody\np9488\nVCan You Make It Through This Post Without Smiling? Check it Out on BuzzFeed!\np9489\nsVimage_hash\np9490\nVb409ca4046ed99e426d037fa4c4c2bfb\np9491\nsVname\np9492\nVWe Challenge You!-00\np9493\nsVtitle\np9494\nVRyan Challenges You!\np9495\nsVcreative_id\np9496\nV6005853188365\np9497\nsVpreview_url\np9498\nVhttp://www.facebook.com/ads/api/creative_preview.php?cid=6005853188365\np9499\nsVid\np9500\nV6005853188365\np9501\nsVimage_url\np9502\nVhttps://fbcdn-creative-a.akamaihd.net/hads-ak-ash3/s110x80/701899_6006845138165_49259_n.jpg\np9503\nsVcount_current_adgroups\np9504\nI0\nsVrun_status\np9505\nI1\nsVtype\np9506\nI1\nsVlink_url\np9507\nVhttp://ad.doubleclick.net/clk;262604599;86792737;f?http://www.buzzfeed.com/h1/fbad/volkswagen/can-you-make-it-through-this-post-without-smiling\np9508\nsVview_tag\np9509\ng36\nsa(dp9510\nValt_view_tags\np9511\n(lp9512\nsVbody\np9513\nVCheck out "17 Things You Need To Know About Frankenweenie" on BuzzFeed!\np9514\nsVimage_hash\np9515\nVe2e10df3e91c059f7f308fbb67151e06\np9516\nsVname\np9517\nVWinona in "Frankenweenie"\np9518\nsVtitle\np9519\nVWinona in "Frankenweenie"\np9520\nsVcreative_id\np9521\nV6005859591165\np9522\nsVpreview_url\np9523\nVhttp://www.facebook.com/ads/api/creative_preview.php?cid=6005859591165\np9524\nsVid\np9525\nV6005859591165\np9526\nsVimage_url\np952'
p6
sS'hash'
p7
S'9045f93cc1c868b9cc2233d65a814621f259d65b'
p8
sS'stack'
p9
S''
s.