(dp1
S'args'
p2
S''
sS'methodname'
p3
S''
sS'packet_num'
p4
I52
sS'returnval'
p5
S'0000\nsVstart_time\np8029\nV2012-12-12T06:30:00-0800\np8030\nsVcampaign_id\np8031\nI6006723625565\nsVaccount_id\np8032\nI40156177\nsVdaily_imps\np8033\nI0\nsVend_time\np8034\nV2012-12-14T20:30:00-0800\np8035\nsVfrequency_cap\np8036\nI0\nsVcreated_time\np8037\nV2012-12-10T08:06:24-0800\np8038\nsVupdated_time\np8039\nV2012-12-13T14:10:18-0800\np8040\nsVcampaign_status\np8041\nI1\nsVid\np8042\nV6006723625565\np8043\nsVname\np8044\nVAmex: Serve Nov-Dec 2012 | 10-Of-The-Most-Wacky-Crowd-Funded-Projects\np8045\nsa(dp8046\nVdaily_budget\np8047\nI40000\nsVstart_time\np8048\nV2012-12-14T06:30:00-0800\np8049\nsVcampaign_id\np8050\nI6006723821165\nsVaccount_id\np8051\nI40156177\nsVdaily_imps\np8052\nI0\nsVend_time\np8053\nV2012-12-15T20:30:00-0800\np8054\nsVfrequency_cap\np8055\nI0\nsVcreated_time\np8056\nV2012-12-10T08:19:46-0800\np8057\nsVupdated_time\np8058\nV2012-12-10T09:42:37-0800\np8059\nsVcampaign_status\np8060\nI1\nsVid\np8061\nV6006723821165\np8062\nsVname\np8063\nVAmex: Serve Nov-Dec 2012 | 10-Epic-Items-You-Never-Thought-You-Could-Buy-Onli-7Wnz\np8064\nsa(dp8065\nVdaily_budget\np8066\nI40000\nsVstart_time\np8067\nV2012-12-10T11:11:00-0800\np8068\nsVcampaign_id\np8069\nI6006727846165\nsVaccount_id\np8070\nI40156177\nsVdaily_imps\np8071\nI0\nsVend_time\np8072\nV2012-12-11T21:00:00-0800\np8073\nsVfrequency_cap\np8074\nI0\nsVcreated_time\np8075\nV2012-12-10T08:55:08-0800\np8076\nsVupdated_time\np8077\nV2012-12-11T06:45:37-0800\np8078\nsVcampaign_status\np8079\nI1\nsVid\np8080\nV6006727846165\np8081\nsVname\np8082\nVSamsung: Galaxy S Camera: Nov-Dec 2012 | 21-Moments-Frozen-At-The-Perfect-Time\np8083\nsa(dp8084\nVdaily_budget\np8085\nI50000\nsVstart_time\np8086\nV2012-12-10T12:09:00-0800\np8087\nsVcampaign_id\np8088\nI6006729678565\nsVaccount_id\np8089\nI40156177\nsVdaily_imps\np8090\nI0\nsVend_time\np8091\nV2012-12-12T21:00:00-0800\np8092\nsVfrequency_cap\np8093\nI0\nsVcreated_time\np8094\nV2012-12-10T09:16:49-0800\np8095\nsVupdated_time\np8096\nV2012-12-12T14:28:41-0800\np8097\nsVcampaign_status\np8098\nI1\nsVid\np8099\nV6006729678565\np8100\nsVname\np8101\nVCampbells: GO Oct-Dec 2012 | 15-Foods-That-Are-Too-Good-To-Be-True\np8102\nsa(dp8103\nVname\np8104\nVGEICO: Delightful Oct-Dec 2012 | 10-Ways-To-Ensure-You-Always-Have-A-Delightful-Day\np8105\nsVstart_time\np8106\nV2012-12-10T10:13:53-0800\np8107\nsVcampaign_id\np8108\nI6006730416965\nsVfrequency_cap\np8109\nI0\nsVdaily_imps\np8110\nI0\nsVlifetime_budget\np8111\nI450000\nsVend_time\np8112\nV2012-12-27T20:30:00-0800\np8113\nsVcreated_time\np8114\nV2012-12-10T10:13:53-0800\np8115\nsVupdated_time\np8116\nV2012-12-27T06:43:54-0800\np8117\nsVcampaign_status\np8118\nI1\nsVid\np8119\nV6006730416965\np8120\nsVaccount_id\np8121\nI40156177\nsa(dp8122\nVdaily_budget\np8123\nI50000\nsVstart_time\np8124\nV2012-12-10T11:00:00-0800\np8125\nsVcampaign_id\np8126\nI6006730580565\nsVaccount_id\np8127\nI40156177\nsVdaily_imps\np8128\nI0\nsVend_time\np8129\nV2012-12-23T20:30:00-0800\np8130\nsVfrequency_cap\np8131\nI0\nsVcreated_time\np8132\nV2012-12-10T10:24:52-0800\np8133\nsVupdated_time\np8134\nV2012-12-22T16:16:47-0800\np8135\nsVcampaign_status\np8136\nI1\nsVid\np8137\nV6006730580565\np8138\nsVname\np8139\nVGEICO: Delightful Oct-Dec 2012 | 25-Delightful-Holiday-Cats-In-Unexpected-Places\np8140\nsa(dp8141\nVname\np8142\nVGEICO: Delightful Oct-Dec 2012 | How-Much-Do-You-Know-About-Delightful-90S-Holiday\np8143\nsVstart_time\np8144\nV2012-12-10T11:00:00-0800\np8145\nsVcampaign_id\np8146\nI6006730733565\nsVfrequency_cap\np8147\nI0\nsVdaily_imps\np8148\nI0\nsVlifetime_budget\np8149\nI100000\nsVend_time\np8150\nV2012-12-13T20:30:00-0800\np8151\nsVcreated_time\np8152\nV2012-12-10T10:34:35-0800\np8153\nsVupdated_time\np8154\nV2012-12-13T09:19:17-0800\np8155\nsVcampaign_status\np8156\nI1\nsVid\np8157\nV6006730733565\np8158\nsVaccount_id\np8159\nI40156177\nsa(dp8160\nVdaily_budget\np8161\nI30000\nsVstart_time\np8162\nV2012-12-11T06:00:00-0800\np8163\nsVcampaign_id\np8164\nI6006730915765\nsVaccount_id\np8165\nI40156177\nsVdaily_imps\np8166\nI0\nsVend_time\np8167\nV2012-12-13T23:30:00-0800\np8168\nsVfrequency_cap\np8169\nI0\nsVcreated_time\np8170\nV2012-12-10T10:46:38-0800\np8171\nsVupdated_time\np8172\nV2012-12-11T10:42:56-0800\np8173\nsVcampaign_status\np8174\nI1\nsVid\np8175\nV6006730915765\np8176\nsVname\np8177\nVUniversal Pictures: Mama Flight 1 Dec_2012 | 8-Unbelievable-Stories-Of-Children-Raised-In-The-W\np8178\nsa(dp8179\nVda'
p6
sS'hash'
p7
S'91ac33f2fa50fb85d51a90301722ae4fd17ac1a2'
p8
sS'stack'
p9
S''
s.