(dp1
S'args'
p2
S''
sS'methodname'
p3
S''
sS'packet_num'
p4
I19
sS'returnval'
p5
S's\np2941\nI0\nsVend_time\np2942\nV2012-10-16T23:03:00-0700\np2943\nsVfrequency_cap\np2944\nI0\nsVcreated_time\np2945\nV2012-10-12T11:22:36-0700\np2946\nsVupdated_time\np2947\nV2012-10-12T13:04:33-0700\np2948\nsVcampaign_status\np2949\nI1\nsVid\np2950\nV6006019297365\np2951\nsVname\np2952\nVAE Duck Dynasty: Oct_2012 | High-Fashion-Or-Redneck-Couture-7D62\np2953\nsa(dp2954\nVdaily_budget\np2955\nI30000\nsVstart_time\np2956\nV2012-10-15T07:23:00-0700\np2957\nsVcampaign_id\np2958\nI6006026883565\nsVaccount_id\np2959\nI40156177\nsVdaily_imps\np2960\nI0\nsVend_time\np2961\nV2012-10-31T23:23:00-0700\np2962\nsVfrequency_cap\np2963\nI0\nsVcreated_time\np2964\nV2012-10-15T06:27:59-0700\np2965\nsVupdated_time\np2966\nV2012-10-31T08:34:50-0700\np2967\nsVcampaign_status\np2968\nI1\nsVid\np2969\nV6006026883565\np2970\nsVname\np2971\nVFreelancers Union: Oct_2012 | 9-Ways-To-Stay-Healthy-For-Almost-Free\np2972\nsa(dp2973\nVdaily_budget\np2974\nI10000\nsVstart_time\np2975\nV2012-10-15T08:39:00-0700\np2976\nsVcampaign_id\np2977\nI6006026965965\nsVaccount_id\np2978\nI40156177\nsVdaily_imps\np2979\nI0\nsVend_time\np2980\nV2012-10-16T23:15:00-0700\np2981\nsVfrequency_cap\np2982\nI0\nsVcreated_time\np2983\nV2012-10-15T06:49:20-0700\np2984\nsVupdated_time\np2985\nV2012-10-15T08:49:24-0700\np2986\nsVcampaign_status\np2987\nI1\nsVid\np2988\nV6006026965965\np2989\nsVname\np2990\nVVirgin Mobile: Q4 2012 | 12-genius-party-hacks-5l87\np2991\nsa(dp2992\nVdaily_budget\np2993\nI10000\nsVstart_time\np2994\nV2012-10-15T08:30:00-0700\np2995\nsVcampaign_id\np2996\nI6006026986565\nsVaccount_id\np2997\nI40156177\nsVdaily_imps\np2998\nI0\nsVend_time\np2999\nV2012-10-16T23:51:00-0700\np3000\nsVfrequency_cap\np3001\nI0\nsVcreated_time\np3002\nV2012-10-15T06:55:18-0700\np3003\nsVupdated_time\np3004\nV2012-10-15T09:00:52-0700\np3005\nsVcampaign_status\np3006\nI1\nsVid\np3007\nV6006026986565\np3008\nsVname\np3009\nVVirgin Mobile: Q4 2012 | 22-germans-who-cant-handle-october-5l87\np3010\nsa(dp3011\nVdaily_budget\np3012\nI10000\nsVstart_time\np3013\nV2012-10-15T08:46:00-0700\np3014\nsVcampaign_id\np3015\nI6006026997165\nsVaccount_id\np3016\nI40156177\nsVdaily_imps\np3017\nI0\nsVend_time\np3018\nV2012-10-16T23:56:00-0700\np3019\nsVfrequency_cap\np3020\nI0\nsVcreated_time\np3021\nV2012-10-15T06:59:33-0700\np3022\nsVupdated_time\np3023\nV2012-10-15T08:51:26-0700\np3024\nsVcampaign_status\np3025\nI1\nsVid\np3026\nV6006026997165\np3027\nsVname\np3028\nVVirgin Mobile: Q4 2012 | 20-grandpas-who-own-the-internet-5l87\np3029\nsa(dp3030\nVdaily_budget\np3031\nI10000\nsVstart_time\np3032\nV2012-10-15T08:11:00-0700\np3033\nsVcampaign_id\np3034\nI6006027044965\nsVaccount_id\np3035\nI40156177\nsVdaily_imps\np3036\nI0\nsVend_time\np3037\nV2012-10-16T23:30:00-0700\np3038\nsVfrequency_cap\np3039\nI0\nsVcreated_time\np3040\nV2012-10-15T07:16:57-0700\np3041\nsVupdated_time\np3042\nV2012-10-15T09:33:11-0700\np3043\nsVcampaign_status\np3044\nI1\nsVid\np3045\nV6006027044965\np3046\nsVname\np3047\nVVirgin Mobile: Q4 2012 | 15-reactions-were-all-having-to-he-texted-5l87\np3048\nsa(dp3049\nVdaily_budget\np3050\nI25000\nsVstart_time\np3051\nV2012-10-15T12:03:00-0700\np3052\nsVcampaign_id\np3053\nI6006027886965\nsVaccount_id\np3054\nI40156177\nsVdaily_imps\np3055\nI0\nsVend_time\np3056\nV2012-11-08T23:03:00-0800\np3057\nsVfrequency_cap\np3058\nI0\nsVcreated_time\np3059\nV2012-10-15T11:12:09-0700\np3060\nsVupdated_time\np3061\nV2012-11-07T12:59:52-0800\np3062\nsVcampaign_status\np3063\nI1\nsVid\np3064\nV6006027886965\np3065\nsVname\np3066\nVGEICO: Delightful Oct-Dec 2012 | The-Most-Delightful-Moments-From-Your-Childhood-In\np3067\nsa(dp3068\nVdaily_budget\np3069\nI25000\nsVstart_time\np3070\nV2012-10-15T12:15:00-0700\np3071\nsVcampaign_id\np3072\nI6006027930565\nsVaccount_id\np3073\nI40156177\nsVdaily_imps\np3074\nI0\nsVend_time\np3075\nV2012-10-18T23:30:00-0700\np3076\nsVfrequency_cap\np3077\nI0\nsVcreated_time\np3078\nV2012-10-15T11:21:32-0700\np3079\nsVupdated_time\np3080\nV2012-10-16T06:41:07-0700\np3081\nsVcampaign_status\np3082\nI1\nsVid\np3083\nV6006027930565\np3084\nsVname\np3085\nVGEICO: Delightful Oct-Dec 2012 | 29-Animals-Who-Are-Delighted-To-See-You\np3086\nsa(dp3087\nVdaily_budget\np3088\nI25000\nsVstart_time\np3089\nV2012-10-15T13:14:00-0700\np3090\nsVcampaign_id\np3091\nI6006028187765\nsVaccount_id\np3092\nI40156177\nsVdaily_imps\np3093\nI0\nsVend_time\np3094\nV2012-10-23T23:14:00-0700\np3095\nsVfrequency_cap\np3096\nI0\nsVcr'
p6
sS'hash'
p7
S'91ac33f2fa50fb85d51a90301722ae4fd17ac1a2'
p8
sS'stack'
p9
S''
s.