(dp1
S'args'
p2
S''
sS'methodname'
p3
S''
sS'packet_num'
p4
I30
sS'returnval'
p5
S'r-The-End-Of-Days-7Nya\np4625\nsa(dp4626\nVdaily_budget\np4627\nI35000\nsVstart_time\np4628\nV2012-11-01T10:13:00-0700\np4629\nsVcampaign_id\np4630\nI6006158568765\nsVaccount_id\np4631\nI40156177\nsVdaily_imps\np4632\nI0\nsVend_time\np4633\nV2012-11-02T23:15:00-0700\np4634\nsVfrequency_cap\np4635\nI0\nsVcreated_time\np4636\nV2012-11-01T09:26:19-0700\np4637\nsVupdated_time\np4638\nV2012-11-01T09:32:31-0700\np4639\nsVcampaign_status\np4640\nI1\nsVid\np4641\nV6006158568765\np4642\nsVname\np4643\nVPepsi MAX: Nov_2012 | Print-Out-Your-Uncle-Drew-Mask-7Tkk\np4644\nsa(dp4645\nVdaily_budget\np4646\nI35000\nsVstart_time\np4647\nV2012-11-01T10:27:00-0700\np4648\nsVcampaign_id\np4649\nI6006158578365\nsVaccount_id\np4650\nI40156177\nsVdaily_imps\np4651\nI0\nsVend_time\np4652\nV2012-11-02T23:30:00-0700\np4653\nsVfrequency_cap\np4654\nI0\nsVcreated_time\np4655\nV2012-11-01T09:29:50-0700\np4656\nsVupdated_time\np4657\nV2012-11-01T09:35:41-0700\np4658\nsVcampaign_status\np4659\nI1\nsVid\np4660\nV6006158578365\np4661\nsVname\np4662\nVPepsi MAX: Nov_2012 | The-10-Greatest-Dunks-Of-All-Time-7Tkk\np4663\nsa(dp4664\nVdaily_budget\np4665\nI10000\nsVstart_time\np4666\nV2012-11-01T10:34:00-0700\np4667\nsVcampaign_id\np4668\nI6006158607965\nsVaccount_id\np4669\nI40156177\nsVdaily_imps\np4670\nI0\nsVend_time\np4671\nV2012-11-08T23:15:00-0800\np4672\nsVfrequency_cap\np4673\nI0\nsVcreated_time\np4674\nV2012-11-01T09:36:27-0700\np4675\nsVupdated_time\np4676\nV2012-11-07T06:40:09-0800\np4677\nsVcampaign_status\np4678\nI1\nsVid\np4679\nV6006158607965\np4680\nsVname\np4681\nVPepsi MAX: Nov_2012 | 24-Gifs-Of-Insane-Basketball-Shots-7Tkk\np4682\nsa(dp4683\nVdaily_budget\np4684\nI40000\nsVstart_time\np4685\nV2012-11-01T12:15:00-0700\np4686\nsVcampaign_id\np4687\nI6006158949765\nsVaccount_id\np4688\nI40156177\nsVdaily_imps\np4689\nI0\nsVend_time\np4690\nV2012-11-02T23:30:00-0700\np4691\nsVfrequency_cap\np4692\nI0\nsVcreated_time\np4693\nV2012-11-01T11:00:28-0700\np4694\nsVupdated_time\np4695\nV2012-11-01T11:06:37-0700\np4696\nsVcampaign_status\np4697\nI1\nsVid\np4698\nV6006158949765\np4699\nsVname\np4700\nVCMT: Red Neck Island Nov_2012 | 20-Things-Youll-Only-See-In-The-South-7Hyl\np4701\nsa(dp4702\nVdaily_budget\np4703\nI40000\nsVstart_time\np4704\nV2012-11-01T12:03:00-0700\np4705\nsVcampaign_id\np4706\nI6006159099365\nsVaccount_id\np4707\nI40156177\nsVdaily_imps\np4708\nI0\nsVend_time\np4709\nV2012-11-02T23:30:00-0700\np4710\nsVfrequency_cap\np4711\nI0\nsVcreated_time\np4712\nV2012-11-01T11:06:06-0700\np4713\nsVupdated_time\np4714\nV2012-11-01T11:06:57-0700\np4715\nsVcampaign_status\np4716\nI1\nsVid\np4717\nV6006159099365\np4718\nsVname\np4719\nVCMT: Red Neck Island Nov_2012 | 15-Reasons-Why-Its-Awesome-To-Be-A-Redneck-7Hyl\np4720\nsa(dp4721\nVdaily_budget\np4722\nI20000\nsVstart_time\np4723\nV2012-11-01T12:07:00-0700\np4724\nsVcampaign_id\np4725\nI6006159322565\nsVaccount_id\np4726\nI40156177\nsVdaily_imps\np4727\nI0\nsVend_time\np4728\nV2012-11-05T23:15:00-0800\np4729\nsVfrequency_cap\np4730\nI0\nsVcreated_time\np4731\nV2012-11-01T11:11:43-0700\np4732\nsVupdated_time\np4733\nV2012-11-05T07:28:54-0800\np4734\nsVcampaign_status\np4735\nI1\nsVid\np4736\nV6006159322565\np4737\nsVname\np4738\nVCMT: Red Neck Island Nov_2012 | 20-Of-The-Best-Redneck-Repair-Jobs-7Hyl\np4739\nsa(dp4740\nVdaily_budget\np4741\nI20000\nsVstart_time\np4742\nV2012-11-01T12:30:00-0700\np4743\nsVcampaign_id\np4744\nI6006159858965\nsVaccount_id\np4745\nI40156177\nsVdaily_imps\np4746\nI0\nsVend_time\np4747\nV2012-11-05T23:00:00-0800\np4748\nsVfrequency_cap\np4749\nI0\nsVcreated_time\np4750\nV2012-11-01T12:11:23-0700\np4751\nsVupdated_time\np4752\nV2012-11-05T07:30:17-0800\np4753\nsVcampaign_status\np4754\nI1\nsVid\np4755\nV6006159858965\np4756\nsVname\np4757\nVCMT: Redneck Island Nov_2012 | Talk-Like-A-Redneck-In-10-Easy-Steps-7Hyl\np4758\nsa(dp4759\nVdaily_budget\np4760\nI5000\nsVstart_time\np4761\nV2012-11-01T12:45:00-0700\np4762\nsVcampaign_id\np4763\nI6006159898765\nsVaccount_id\np4764\nI40156177\nsVdaily_imps\np4765\nI0\nsVend_time\np4766\nV2012-11-02T23:30:00-0700\np4767\nsVfrequency_cap\np4768\nI0\nsVcreated_time\np4769\nV2012-11-01T12:23:09-0700\np4770\nsVupdated_time\np4771\nV2012-11-01T12:23:44-0700\np4772\nsVcampaign_status\np4773\nI1\nsVid\np4774\nV6006159898765\np4775\nsVname\np4776\nVVirgin Mobile: Q4 2012 | 15-soul-shattering-portraits-of-celebrities\np4777\nsa(dp4778\nVdaily_budget\np4779\nI5000\nsVstart_time\np4780'
p6
sS'hash'
p7
S'91ac33f2fa50fb85d51a90301722ae4fd17ac1a2'
p8
sS'stack'
p9
S''
s.