(dp1
S'args'
p2
S''
sS'methodname'
p3
S''
sS'packet_num'
p4
I12
sS'returnval'
p5
S'Vstart_time\np1873\nV2012-10-01T13:19:00-0700\np1874\nsVcampaign_id\np1875\nI6005955411965\nsVaccount_id\np1876\nI40156177\nsVdaily_imps\np1877\nI0\nsVend_time\np1878\nV2012-10-02T23:19:00-0700\np1879\nsVfrequency_cap\np1880\nI0\nsVcreated_time\np1881\nV2012-10-01T12:29:50-0700\np1882\nsVupdated_time\np1883\nV2012-10-02T15:02:30-0700\np1884\nsVcampaign_status\np1885\nI1\nsVid\np1886\nV6005955411965\np1887\nsVname\np1888\nVAMC Walking Dead: Oct_2012 | 10-Creepy-Facts-You-Never-Knew-About-Zombies-7Fk1\np1889\nsa(dp1890\nVdaily_budget\np1891\nI40000\nsVstart_time\np1892\nV2012-10-03T06:30:00-0700\np1893\nsVcampaign_id\np1894\nI6005955433765\nsVaccount_id\np1895\nI40156177\nsVdaily_imps\np1896\nI0\nsVend_time\np1897\nV2012-10-04T20:30:00-0700\np1898\nsVfrequency_cap\np1899\nI0\nsVcreated_time\np1900\nV2012-10-01T12:33:34-0700\np1901\nsVupdated_time\np1902\nV2012-10-03T14:08:55-0700\np1903\nsVcampaign_status\np1904\nI1\nsVid\np1905\nV6005955433765\np1906\nsVname\np1907\nVCW: Emily Owens: Sept-Oct_2012 | Celebs-Who-Are-Feeling-The-Heat\np1908\nsa(dp1909\nVdaily_budget\np1910\nI25000\nsVstart_time\np1911\nV2012-10-02T05:44:00-0700\np1912\nsVcampaign_id\np1913\nI6005955493365\nsVaccount_id\np1914\nI40156177\nsVdaily_imps\np1915\nI0\nsVend_time\np1916\nV2012-10-03T23:44:00-0700\np1917\nsVfrequency_cap\np1918\nI0\nsVcreated_time\np1919\nV2012-10-01T12:49:44-0700\np1920\nsVupdated_time\np1921\nV2012-10-02T07:17:14-0700\np1922\nsVcampaign_status\np1923\nI1\nsVid\np1924\nV6005955493365\np1925\nsVname\np1926\nVAMC Walking Dead: Oct_2012 | The-8-Best-Walking-Dead-Easter-Eggs-You-Probably-D-7Fk1\np1927\nsa(dp1928\nVdaily_budget\np1929\nI40000\nsVstart_time\np1930\nV2012-10-05T06:30:00-0700\np1931\nsVcampaign_id\np1932\nI6005955503165\nsVaccount_id\np1933\nI40156177\nsVdaily_imps\np1934\nI0\nsVend_time\np1935\nV2012-10-06T20:30:00-0700\np1936\nsVfrequency_cap\np1937\nI0\nsVcreated_time\np1938\nV2012-10-01T12:56:09-0700\np1939\nsVupdated_time\np1940\nV2012-10-05T10:57:29-0700\np1941\nsVcampaign_status\np1942\nI1\nsVid\np1943\nV6005955503165\np1944\nsVname\np1945\nVCW: Emily Owens: Sept-Oct_2012 | 10-Reasons-Why-Doctors-On-Tv-Are-Better-Than-Docto\np1946\nsa(dp1947\nVdaily_budget\np1948\nI25000\nsVstart_time\np1949\nV2012-10-02T06:06:00-0700\np1950\nsVcampaign_id\np1951\nI6005955592365\nsVaccount_id\np1952\nI40156177\nsVdaily_imps\np1953\nI0\nsVend_time\np1954\nV2012-10-03T23:06:00-0700\np1955\nsVfrequency_cap\np1956\nI0\nsVcreated_time\np1957\nV2012-10-01T13:18:04-0700\np1958\nsVupdated_time\np1959\nV2012-10-02T10:03:18-0700\np1960\nsVcampaign_status\np1961\nI1\nsVid\np1962\nV6005955592365\np1963\nsVname\np1964\nVAMC Walking Dead: Oct_2012 | 8-Signs-That-Youre-Definitely-Turning-Into-A-Zomb-7Fk1\np1965\nsa(dp1966\nVdaily_budget\np1967\nI25000\nsVstart_time\np1968\nV2012-10-02T07:56:00-0700\np1969\nsVcampaign_id\np1970\nI6005957547565\nsVaccount_id\np1971\nI40156177\nsVdaily_imps\np1972\nI0\nsVend_time\np1973\nV2012-10-03T23:56:00-0700\np1974\nsVfrequency_cap\np1975\nI0\nsVcreated_time\np1976\nV2012-10-02T06:02:49-0700\np1977\nsVupdated_time\np1978\nV2012-10-02T10:01:14-0700\np1979\nsVcampaign_status\np1980\nI1\nsVid\np1981\nV6005957547565\np1982\nsVname\np1983\nVAMC Walking Dead: Oct_2012 | How-To-Make-A-Convincing-Zombie-Costume-In-30-Minu-7Fk1\np1984\nsa(dp1985\nVdaily_budget\np1986\nI20000\nsVstart_time\np1987\nV2012-10-02T08:13:00-0700\np1988\nsVcampaign_id\np1989\nI6005957592365\nsVaccount_id\np1990\nI40156177\nsVdaily_imps\np1991\nI0\nsVend_time\np1992\nV2012-10-03T23:13:00-0700\np1993\nsVfrequency_cap\np1994\nI0\nsVcreated_time\np1995\nV2012-10-02T06:17:50-0700\np1996\nsVupdated_time\np1997\nV2012-10-02T10:03:08-0700\np1998\nsVcampaign_status\np1999\nI1\nsVid\np2000\nV6005957592365\np2001\nsVname\np2002\nVMSFT Bing: Sept-Oct_2012 | 10-Things-You-Probably-Never-Knew-Your-Could-Do-On\np2003\nsa(dp2004\nVdaily_budget\np2005\nI25000\nsVstart_time\np2006\nV2012-10-02T06:31:31-0700\np2007\nsVcampaign_id\np2008\nI6005957616765\nsVaccount_id\np2009\nI40156177\nsVdaily_imps\np2010\nI0\nsVend_time\np2011\nV2012-10-03T20:30:00-0700\np2012\nsVfrequency_cap\np2013\nI0\nsVcreated_time\np2014\nV2012-10-02T06:31:16-0700\np2015\nsVupdated_time\np2016\nV2012-10-02T20:53:24-0700\np2017\nsVcampaign_status\np2018\nI1\nsVid\np2019\nV6005957616765\np2020\nsVname\np2021\nVTWC: Coast Guard Florida: Oct_2012 | 10-Unbelievable-Celebrity-Rescue-Stories\np2022\nsa(dp2023\nVdaily_budget\np2024\nI5'
p6
sS'hash'
p7
S'91ac33f2fa50fb85d51a90301722ae4fd17ac1a2'
p8
sS'stack'
p9
S''
s.