(dp1
S'args'
p2
S''
sS'methodname'
p3
S''
sS'packet_num'
p4
I16
sS'returnval'
p5
S'85\nI0\nsVend_time\np2486\nV2012-10-06T23:00:00-0700\np2487\nsVfrequency_cap\np2488\nI0\nsVcreated_time\np2489\nV2012-10-05T12:44:21-0700\np2490\nsVupdated_time\np2491\nV2012-10-05T14:16:20-0700\np2492\nsVcampaign_status\np2493\nI1\nsVid\np2494\nV6005984764965\np2495\nsVname\np2496\nVVirgin Mobile: Q4 2012 | 10-reactions-to-the-most-kick-ass-free-music-festi-5l87?b=1\np2497\nsa(dp2498\nVdaily_budget\np2499\nI5000\nsVstart_time\np2500\nV2012-10-05T14:00:00-0700\np2501\nsVcampaign_id\np2502\nI6005985365365\nsVaccount_id\np2503\nI40156177\nsVdaily_imps\np2504\nI0\nsVend_time\np2505\nV2012-10-06T23:00:00-0700\np2506\nsVfrequency_cap\np2507\nI0\nsVcreated_time\np2508\nV2012-10-05T12:53:46-0700\np2509\nsVupdated_time\np2510\nV2012-10-05T22:51:19-0700\np2511\nsVcampaign_status\np2512\nI1\nsVid\np2513\nV6005985365365\np2514\nsVname\np2515\nVVirgin Mobile: Q4 2012 | 15-musicians-and-their-signature-dance-moves-5l87?b=1\np2516\nsa(dp2517\nVdaily_budget\np2518\nI20000\nsVstart_time\np2519\nV2012-10-08T11:41:30-0700\np2520\nsVcampaign_id\np2521\nI6005997666165\nsVaccount_id\np2522\nI40156177\nsVdaily_imps\np2523\nI0\nsVend_time\np2524\nV2012-10-10T11:59:00-0700\np2525\nsVfrequency_cap\np2526\nI0\nsVcreated_time\np2527\nV2012-10-08T11:41:30-0700\np2528\nsVupdated_time\np2529\nV2012-10-09T12:10:10-0700\np2530\nsVcampaign_status\np2531\nI1\nsVid\np2532\nV6005997666165\np2533\nsVname\np2534\nVGE: Flyover Oct 2012 | 15-Unbelievable-Things-Seen-From-Great-Heights-6Ieg\np2535\nsa(dp2536\nVdaily_budget\np2537\nI40000\nsVstart_time\np2538\nV2012-10-08T12:15:00-0700\np2539\nsVcampaign_id\np2540\nI6005998454565\nsVaccount_id\np2541\nI40156177\nsVdaily_imps\np2542\nI0\nsVend_time\np2543\nV2012-10-09T20:30:00-0700\np2544\nsVfrequency_cap\np2545\nI0\nsVcreated_time\np2546\nV2012-10-08T12:15:00-0700\np2547\nsVupdated_time\np2548\nV2012-10-08T16:12:42-0700\np2549\nsVcampaign_status\np2550\nI1\nsVid\np2551\nV6005998454565\np2552\nsVname\np2553\nVVW: Smiles: Sept-Oct 2012 | 12-Great-Behind-The-Scenes-Moments-From-Our-Favo-72G1\np2554\nsa(dp2555\nVdaily_budget\np2556\nI40000\nsVstart_time\np2557\nV2012-10-08T12:30:38-0700\np2558\nsVcampaign_id\np2559\nI6005998487965\nsVaccount_id\np2560\nI40156177\nsVdaily_imps\np2561\nI0\nsVend_time\np2562\nV2012-10-09T20:30:00-0700\np2563\nsVfrequency_cap\np2564\nI0\nsVcreated_time\np2565\nV2012-10-08T12:30:38-0700\np2566\nsVupdated_time\np2567\nV2012-10-09T05:21:11-0700\np2568\nsVcampaign_status\np2569\nI1\nsVid\np2570\nV6005998487965\np2571\nsVname\np2572\nVVW: Smiles: Sept-Oct 2012 | 15-Photos-Of-Athletes-Enjoying-Their-Victories-72G1\np2573\nsa(dp2574\nVdaily_budget\np2575\nI30000\nsVstart_time\np2576\nV2012-10-08T12:52:53-0700\np2577\nsVcampaign_id\np2578\nI6005998569565\nsVaccount_id\np2579\nI40156177\nsVdaily_imps\np2580\nI0\nsVend_time\np2581\nV2012-10-10T20:30:00-0700\np2582\nsVfrequency_cap\np2583\nI0\nsVcreated_time\np2584\nV2012-10-08T12:52:53-0700\np2585\nsVupdated_time\np2586\nV2012-10-10T11:14:18-0700\np2587\nsVcampaign_status\np2588\nI1\nsVid\np2589\nV6005998569565\np2590\nsVname\np2591\nVTWC: Coast Guard Florida: Oct_2012 | 12-Dogs-That-Are-Ready-To-Save-Your-Life\np2592\nsa(dp2593\nVdaily_budget\np2594\nI50000\nsVstart_time\np2595\nV2012-10-08T14:17:45-0700\np2596\nsVcampaign_id\np2597\nI6005998788765\nsVaccount_id\np2598\nI40156177\nsVdaily_imps\np2599\nI0\nsVend_time\np2600\nV2012-10-10T20:30:00-0700\np2601\nsVfrequency_cap\np2602\nI0\nsVcreated_time\np2603\nV2012-10-08T14:17:45-0700\np2604\nsVupdated_time\np2605\nV2012-10-10T13:10:45-0700\np2606\nsVcampaign_status\np2607\nI1\nsVid\np2608\nV6005998788765\np2609\nsVname\np2610\nVTWC: Coast Guard Florida: Oct_2012 | 13-Awesome-Things-You-Didnt-Know-About-The-Coast\np2611\nsa(dp2612\nVdaily_budget\np2613\nI30000\nsVstart_time\np2614\nV2012-10-08T14:59:27-0700\np2615\nsVcampaign_id\np2616\nI6005998880365\nsVaccount_id\np2617\nI40156177\nsVdaily_imps\np2618\nI0\nsVend_time\np2619\nV2012-10-10T20:30:00-0700\np2620\nsVfrequency_cap\np2621\nI0\nsVcreated_time\np2622\nV2012-10-08T14:59:27-0700\np2623\nsVupdated_time\np2624\nV2012-10-10T15:33:12-0700\np2625\nsVcampaign_status\np2626\nI1\nsVid\np2627\nV6005998880365\np2628\nsVname\np2629\nVFox: Tuesday Night Comedies W3 Oct_2012 | 11-Awesome-Up-And-Coming-Funny-Ladies-You-Should-K-7Juf\np2630\nsa(dp2631\nVdaily_budget\np2632\nI15000\nsVstart_time\np2633\nV2012-10-09T09:59:00-0700\np2634\nsVcampaign_id\np2635\nI6006001450965\nsVaccount_id\np2'
p6
sS'hash'
p7
S'91ac33f2fa50fb85d51a90301722ae4fd17ac1a2'
p8
sS'stack'
p9
S''
s.