(dp1
S'args'
p2
S''
sS'methodname'
p3
S''
sS'packet_num'
p4
I1
sS'returnval'
p5
S'\np160\nVUniqlo Lucky Cube: Sept-Oct_2012 | The-Best-Gifs-Of-Maru-The-Internets-Favorite-Cat\np161\nsa(dp162\nVname\np163\nVMSFT: IE9 BYLTH: Sept-Oct_2012 | The-13-Most-Common-Misconceptions\np164\nsVstart_time\np165\nV2012-09-11T07:30:57-0700\np166\nsVcampaign_id\np167\nI6005801290565\nsVfrequency_cap\np168\nI0\nsVdaily_imps\np169\nI0\nsVlifetime_budget\np170\nI50000\nsVend_time\np171\nV2012-10-22T00:00:00-0700\np172\nsVcreated_time\np173\nV2012-09-11T07:30:57-0700\np174\nsVupdated_time\np175\nV2012-09-21T14:33:23-0700\np176\nsVcampaign_status\np177\nI1\nsVid\np178\nV6005801290565\np179\nsVaccount_id\np180\nI40156177\nsa(dp181\nVname\np182\nVMSFT: IE9 BYLTH: Sept-Oct_2012 | The-10-Most-Epic-Turnarounds\np183\nsVstart_time\np184\nV2012-09-11T07:32:38-0700\np185\nsVcampaign_id\np186\nI6005801296165\nsVfrequency_cap\np187\nI0\nsVdaily_imps\np188\nI0\nsVlifetime_budget\np189\nI50000\nsVend_time\np190\nV2012-10-22T00:00:00-0700\np191\nsVcreated_time\np192\nV2012-09-11T07:32:38-0700\np193\nsVupdated_time\np194\nV2012-09-21T14:33:24-0700\np195\nsVcampaign_status\np196\nI1\nsVid\np197\nV6005801296165\np198\nsVaccount_id\np199\nI40156177\nsa(dp200\nVname\np201\nVGE: Nostalgia: Sept_2012 | Thomas-Edison-And-Henry-Ford-Bffs-6Ieg\np202\nsVstart_time\np203\nV2012-09-11T08:53:00-0700\np204\nsVcampaign_id\np205\nI6005801789965\nsVfrequency_cap\np206\nI0\nsVdaily_imps\np207\nI0\nsVlifetime_budget\np208\nI50000\nsVend_time\np209\nV2012-09-30T00:00:00-0700\np210\nsVcreated_time\np211\nV2012-09-11T08:53:00-0700\np212\nsVupdated_time\np213\nV2012-09-21T14:32:20-0700\np214\nsVcampaign_status\np215\nI1\nsVid\np216\nV6005801789965\np217\nsVaccount_id\np218\nI40156177\nsa(dp219\nVname\np220\nVGE: Nostalgia: Sept_2012 | Hey-Girl-Thomas-Edison-Has-A-Crush-On-You-6Ieg\np221\nsVstart_time\np222\nV2012-09-11T08:54:28-0700\np223\nsVcampaign_id\np224\nI6005801793765\nsVfrequency_cap\np225\nI0\nsVdaily_imps\np226\nI0\nsVlifetime_budget\np227\nI50000\nsVend_time\np228\nV2012-09-30T00:00:00-0700\np229\nsVcreated_time\np230\nV2012-09-11T08:54:29-0700\np231\nsVupdated_time\np232\nV2012-09-21T14:32:16-0700\np233\nsVcampaign_status\np234\nI1\nsVid\np235\nV6005801793765\np236\nsVaccount_id\np237\nI40156177\nsa(dp238\nVdaily_budget\np239\nI50000\nsVstart_time\np240\nV2012-09-12T08:03:00-0700\np241\nsVcampaign_id\np242\nI6005804894365\nsVaccount_id\np243\nI40156177\nsVdaily_imps\np244\nI0\nsVend_time\np245\nV2012-09-24T23:03:00-0700\np246\nsVfrequency_cap\np247\nI0\nsVcreated_time\np248\nV2012-09-12T07:09:14-0700\np249\nsVupdated_time\np250\nV2012-09-24T09:29:52-0700\np251\nsVcampaign_status\np252\nI1\nsVid\np253\nV6005804894365\np254\nsVname\np255\nVIntel/Toshiba: Aug-Sept_2012 | 11-Of-The-Most-Amazing-Celebrity-Transformations-6Wxq\np256\nsa(dp257\nVname\np258\nVNBC: Animal Practice : Sept_2012 | 15-Sweet-Animalhuman-Friendships\np259\nsVstart_time\np260\nV2012-09-12T08:06:09-0700\np261\nsVcampaign_id\np262\nI6005805102965\nsVfrequency_cap\np263\nI0\nsVdaily_imps\np264\nI0\nsVlifetime_budget\np265\nI10000\nsVend_time\np266\nV2012-09-25T00:00:00-0700\np267\nsVcreated_time\np268\nV2012-09-12T08:06:09-0700\np269\nsVupdated_time\np270\nV2012-09-21T14:34:46-0700\np271\nsVcampaign_status\np272\nI1\nsVid\np273\nV6005805102965\np274\nsVaccount_id\np275\nI40156177\nsa(dp276\nVname\np277\nVNBC: Animal Practice : Sept_2012 | The-Most-Iconic-Animals-In-Showbiz\np278\nsVstart_time\np279\nV2012-09-12T10:10:12-0700\np280\nsVcampaign_id\np281\nI6005806016565\nsVfrequency_cap\np282\nI0\nsVdaily_imps\np283\nI0\nsVlifetime_budget\np284\nI10000\nsVend_time\np285\nV2012-09-25T00:00:00-0700\np286\nsVcreated_time\np287\nV2012-09-12T10:10:12-0700\np288\nsVupdated_time\np289\nV2012-09-21T14:34:44-0700\np290\nsVcampaign_status\np291\nI1\nsVid\np292\nV6005806016565\np293\nsVaccount_id\np294\nI40156177\nsa(dp295\nVname\np296\nVStarbucks: DoubleShot: Sept-Oct 2012 | 24-Double-Takes-That-Will-Leave-You-Puzzled-78M6\np297\nsVstart_time\np298\nV2012-09-13T07:51:18-0700\np299\nsVcampaign_id\np300\nI6005812343965\nsVfrequency_cap\np301\nI0\nsVdaily_imps\np302\nI0\nsVlifetime_budget\np303\nI50000\nsVend_time\np304\nV2012-10-06T00:00:00-0700\np305\nsVcreated_time\np306\nV2012-09-13T07:51:18-0700\np307\nsVupdated_time\np308\nV2012-09-21T14:33:02-0700\np309\nsVcampaign_status\np310\nI1\nsVid\np311\nV6005812343965\np312\nsVaccount_id\np313\nI40156177\nsa(dp314\nVdaily_budget\np315\nI10000\nsVstart_time\np316\nV2012-09-14T12:27:58-0700\np317\nsVc'
p6
sS'hash'
p7
S'973354766a935ccffc83e4512140369e4bb8d5b9'
p8
sS'stack'
p9
S''
s.