(dp1
S'args'
p2
S''
sS'methodname'
p3
S''
sS'packet_num'
p4
I2
sS'returnval'
p5
S'ampaign_id\np318\nI6005817407365\nsVaccount_id\np319\nI40156177\nsVdaily_imps\np320\nI0\nsVend_time\np321\nV2012-09-26T20:30:00-0700\np322\nsVfrequency_cap\np323\nI0\nsVcreated_time\np324\nV2012-09-14T11:23:05-0700\np325\nsVupdated_time\np326\nV2012-09-24T13:44:51-0700\np327\nsVcampaign_status\np328\nI1\nsVid\np329\nV6005817407365\np330\nsVname\np331\nVMSFT: IE9 BYLTH: Sept-Oct_2012 | Internet-Explorer-Is-Good-Now-Yes-Really-77Kk\np332\nsa(dp333\nVdaily_budget\np334\nI30000\nsVstart_time\np335\nV2012-09-19T06:30:00-0700\np336\nsVcampaign_id\np337\nI6005823886565\nsVaccount_id\np338\nI40156177\nsVdaily_imps\np339\nI0\nsVend_time\np340\nV2012-09-22T20:30:00-0700\np341\nsVfrequency_cap\np342\nI0\nsVcreated_time\np343\nV2012-09-17T07:07:33-0700\np344\nsVupdated_time\np345\nV2012-09-22T11:42:09-0700\np346\nsVcampaign_status\np347\nI1\nsVid\np348\nV6005823886565\np349\nsVname\np350\nVHasbro: Furby: Sept-Oct_2012 | 10-Fictional-Languages-We-Wish-We-Knew\np351\nsa(dp352\nVname\np353\nVHasbro: Furby: Sept-Oct_2012 | 18-Of-Your-Favorite-Toys-From-The-90S\np354\nsVstart_time\np355\nV2012-09-17T13:07:06-0700\np356\nsVcampaign_id\np357\nI6005824978565\nsVfrequency_cap\np358\nI0\nsVdaily_imps\np359\nI0\nsVlifetime_budget\np360\nI50000\nsVend_time\np361\nV2012-10-10T00:00:00-0700\np362\nsVcreated_time\np363\nV2012-09-17T13:07:06-0700\np364\nsVupdated_time\np365\nV2012-09-21T14:32:28-0700\np366\nsVcampaign_status\np367\nI1\nsVid\np368\nV6005824978565\np369\nsVaccount_id\np370\nI40156177\nsa(dp371\nVname\np372\nVFrankenweenie: Sept-Oct_2012 | 10-Animal-Celebrities-That-Are-Ready-For-Halloween\np373\nsVstart_time\np374\nV2012-09-18T06:48:21-0700\np375\nsVcampaign_id\np376\nI6005831458365\nsVfrequency_cap\np377\nI0\nsVdaily_imps\np378\nI0\nsVlifetime_budget\np379\nI50000\nsVend_time\np380\nV2012-10-07T00:00:00-0700\np381\nsVcreated_time\np382\nV2012-09-18T06:48:22-0700\np383\nsVupdated_time\np384\nV2012-09-21T14:32:04-0700\np385\nsVcampaign_status\np386\nI1\nsVid\np387\nV6005831458365\np388\nsVaccount_id\np389\nI40156177\nsa(dp390\nVname\np391\nVNBC: Animal Practice : Sept_2012 | 27-Animals-That-Are-Probably-Smarter-Than-You-7Auw\np392\nsVstart_time\np393\nV2012-09-18T09:07:38-0700\np394\nsVcampaign_id\np395\nI6005831979565\nsVfrequency_cap\np396\nI0\nsVdaily_imps\np397\nI0\nsVlifetime_budget\np398\nI10000\nsVend_time\np399\nV2012-09-25T00:00:00-0700\np400\nsVcreated_time\np401\nV2012-09-18T09:07:38-0700\np402\nsVupdated_time\np403\nV2012-09-21T14:34:41-0700\np404\nsVcampaign_status\np405\nI1\nsVid\np406\nV6005831979565\np407\nsVaccount_id\np408\nI40156177\nsa(dp409\nVname\np410\nVMSFT IE Atari: Sept_2012 | 10-Things-You-Probably-Never-Knew-About-Atari\np411\nsVstart_time\np412\nV2012-09-18T12:16:53-0700\np413\nsVcampaign_id\np414\nI6005832496165\nsVfrequency_cap\np415\nI0\nsVdaily_imps\np416\nI0\nsVlifetime_budget\np417\nI10000\nsVend_time\np418\nV2012-09-25T09:07:00-0700\np419\nsVcreated_time\np420\nV2012-09-18T12:16:53-0700\np421\nsVupdated_time\np422\nV2012-09-25T09:04:40-0700\np423\nsVcampaign_status\np424\nI1\nsVid\np425\nV6005832496165\np426\nsVaccount_id\np427\nI40156177\nsa(dp428\nVname\np429\nVMSFT IE Atari: Sept_2012 | 11-Of-The-Geekiest-Tributes-To-Retro-Games\np430\nsVstart_time\np431\nV2012-09-18T13:03:26-0700\np432\nsVcampaign_id\np433\nI6005832895565\nsVfrequency_cap\np434\nI0\nsVdaily_imps\np435\nI0\nsVlifetime_budget\np436\nI10000\nsVend_time\np437\nV2012-09-24T00:00:00-0700\np438\nsVcreated_time\np439\nV2012-09-18T13:03:27-0700\np440\nsVupdated_time\np441\nV2012-09-22T10:55:53-0700\np442\nsVcampaign_status\np443\nI1\nsVid\np444\nV6005832895565\np445\nsVaccount_id\np446\nI40156177\nsa(dp447\nVdaily_budget\np448\nI7500\nsVstart_time\np449\nV2012-09-18T17:00:00-0700\np450\nsVcampaign_id\np451\nI6005835110565\nsVaccount_id\np452\nI40156177\nsVdaily_imps\np453\nI0\nsVend_time\np454\nV2012-09-22T20:30:00-0700\np455\nsVfrequency_cap\np456\nI0\nsVcreated_time\np457\nV2012-09-18T14:07:51-0700\np458\nsVupdated_time\np459\nV2012-09-21T14:27:51-0700\np460\nsVcampaign_status\np461\nI1\nsVid\np462\nV6005835110565\np463\nsVname\np464\nVGE: Nostalgia: Sept_2012 | 21-Pictures-That-Will-Make-You-Wish-You-Lived-Duri-6Ieg\np465\nsa(dp466\nVdaily_budget\np467\nI10000\nsVstart_time\np468\nV2012-09-19T06:30:00-0700\np469\nsVcampaign_id\np470\nI6005836387965\nsVaccount_id\np471\nI40156177\nsVdaily_imps\np472\nI0\nsVend_time\np473\nV2012-10-02T20:30:00-0700\np474\nsVfrequency_cap\np475\nI0\nsVcreat'
p6
sS'hash'
p7
S'973354766a935ccffc83e4512140369e4bb8d5b9'
p8
sS'stack'
p9
S''
s.