(dp1
S'args'
p2
S''
sS'methodname'
p3
S''
sS'packet_num'
p4
I51
sS'returnval'
p5
S'sight?\np6288\nsVtitle\np6289\nVCarrots Improve Eyesight?\np6290\nsVcreative_id\np6291\nV6005798664565\np6292\nsVpreview_url\np6293\nVhttp://www.facebook.com/ads/api/creative_preview.php?cid=6005798664565\np6294\nsVid\np6295\nV6005798664565\np6296\nsVimage_url\np6297\nVhttps://fbcdn-creative-a.akamaihd.net/hads-ak-prn1/s110x80/708159_6006844255165_35818_n.jpg\np6298\nsVcount_current_adgroups\np6299\nI0\nsVrun_status\np6300\nI1\nsVtype\np6301\nI1\nsVlink_url\np6302\nVhttp://www.buzzfeed.com/h1/fbad/browseryoulovedtohate/the-13-most-common-misconceptions\np6303\nsVview_tag\np6304\ng36\nsa(dp6305\nValt_view_tags\np6306\n(lp6307\nsVbody\np6308\nVJust one of "The 13 Most Common Misconceptions" on BuzzFeed!\np6309\nsVimage_hash\np6310\nV20fcacc16e3a9357b61127d426eb0b29\np6311\nsVname\np6312\nVCarrots Improve Eyesight?-01\np6313\nsVtitle\np6314\nVCarrots Improve Eyesight?\np6315\nsVcreative_id\np6316\nV6005798780565\np6317\nsVpreview_url\np6318\nVhttp://www.facebook.com/ads/api/creative_preview.php?cid=6005798780565\np6319\nsVid\np6320\nV6005798780565\np6321\nsVimage_url\np6322\nVhttps://fbcdn-creative-a.akamaihd.net/hads-ak-prn1/s110x80/708159_6006844255165_35818_n.jpg\np6323\nsVcount_current_adgroups\np6324\nI1\nsVrun_status\np6325\nI1\nsVtype\np6326\nI1\nsVlink_url\np6327\nVhttp://www.buzzfeed.com/h1/fbad/browseryoulovedtohate/the-13-most-common-misconceptions?utm_source=facebook&utm_medium=seed&utm_campaign=msftie\np6328\nsVview_tag\np6329\ng36\nsa(dp6330\nValt_view_tags\np6331\n(lp6332\nsVbody\np6333\nVSearch engines give you results relevant to what your searching for.  "What your friends liked" is the new parameter added by social.\np6334\nsVimage_hash\np6335\nVa75e24b0fa6eac26f7c13d7a2fb7f86a\np6336\nsVname\np6337\nVIs Social The New Search?\np6338\nsVtitle\np6339\nVIs Social The New Search?\np6340\nsVcreative_id\np6341\nV6003736112565\np6342\nsVpreview_url\np6343\nVhttp://www.facebook.com/ads/api/creative_preview.php?cid=6003736112565\np6344\nsVid\np6345\nV6003736112565\np6346\nsVimage_url\np6347\nVhttps://fbcdn-creative-a.akamaihd.net/hads-ak-ash3/s110x80/708184_6006845058165_41897_n.jpg\np6348\nsVcount_current_adgroups\np6349\nI0\nsVrun_status\np6350\nI1\nsVtype\np6351\nI1\nsVlink_url\np6352\nVhttp://bzfd.it/qTl35j\np6353\nsVview_tag\np6354\ng36\nsa(dp6355\nValt_view_tags\np6356\n(lp6357\nsVbody\np6358\nVSearch engines give you results relevant to what your searching for.  "What your friends liked" is the new parameter added by social.\np6359\nsVimage_hash\np6360\nV01f5977d782662fc6432970ad0a09166\np6361\nsVname\np6362\nVIs Social The New Search?-00\np6363\nsVtitle\np6364\nVIs Social The New Search?\np6365\nsVcreative_id\np6366\nV6003736115365\np6367\nsVpreview_url\np6368\nVhttp://www.facebook.com/ads/api/creative_preview.php?cid=6003736115365\np6369\nsVid\np6370\nV6003736115365\np6371\nsVimage_url\np6372\nVhttps://fbcdn-creative-a.akamaihd.net/hads-ak-prn1/s110x80/708174_6006844058965_54519_n.jpg\np6373\nsVcount_current_adgroups\np6374\nI0\nsVrun_status\np6375\nI1\nsVtype\np6376\nI1\nsVlink_url\np6377\nVhttp://bzfd.it/qTl35j\np6378\nsVview_tag\np6379\ng36\nsa(dp6380\nValt_view_tags\np6381\n(lp6382\nsVbody\np6383\nVSearch engines give you results relevant to what your searching for.  "What your friends liked" is the new parameter added by social.\np6384\nsVimage_hash\np6385\nV8c077287dfe4e0a7ce0fd4a3fd55e5a3\np6386\nsVname\np6387\nVIs Social The New Search?-01\np6388\nsVtitle\np6389\nVIs Social The New Search?\np6390\nsVcreative_id\np6391\nV6003743942565\np6392\nsVpreview_url\np6393\nVhttp://www.facebook.com/ads/api/creative_preview.php?cid=6003743942565\np6394\nsVid\np6395\nV6003743942565\np6396\nsVimage_url\np6397\nVhttps://fbcdn-creative-a.akamaihd.net/hads-ak-prn1/s110x80/708199_6006844884765_65413_n.jpg\np6398\nsVcount_current_adgroups\np6399\nI0\nsVrun_status\np6400\nI1\nsVtype\np6401\nI1\nsVlink_url\np6402\nVhttp://bzfd.it/qTl35j\np6403\nsVview_tag\np6404\ng36\nsa(dp6405\nValt_view_tags\np6406\n(lp6407\nsVbody\np6408\nVSearch engines give you results relevant to what your searching for.  "What your friends liked" is the new parameter added by social.\np6409\nsVimage_hash\np6410\nV904d6f3a09c42fdb7d96f909c3ac6632\np6411\nsVname\np6412\nVIs Social The New Search?-02\np6413\nsVtitle\np6414\nVIs Social The New Search?\np6415\nsVcreative_id\np6416\nV6003744934565\np6417\nsVprevie'
p6
sS'hash'
p7
S'98c50fae031082bcefb8333b295e5e1623895049'
p8
sS'stack'
p9
S''
s.