(dp1
S'args'
p2
S''
sS'methodname'
p3
S''
sS'packet_num'
p4
I78
sS'returnval'
p5
S"o he put his studio up for rent. Use of Andy Richter not included.\np9858\nsVimage_hash\np9859\nV9913aee8bd1cdb4ad18bbdb840842cb8\np9860\nsVname\np9861\nVCrash at Conan's\np9862\nsVtitle\np9863\nVCrash at Conan's\np9864\nsVcreative_id\np9865\nV6003858014165\np9866\nsVpreview_url\np9867\nVhttp://www.facebook.com/ads/api/creative_preview.php?cid=6003858014165\np9868\nsVid\np9869\nV6003858014165\np9870\nsVimage_url\np9871\nVhttps://fbcdn-creative-a.akamaihd.net/hads-ak-prn1/s110x80/708176_6006844962565_10981_n.jpg\np9872\nsVcount_current_adgroups\np9873\nI0\nsVrun_status\np9874\nI1\nsVtype\np9875\nI1\nsVlink_url\np9876\nVhttp://buzzfeed.com/ht/airbnb/crash-at-conans-rent-conan-obrien-453n/HFAA1\np9877\nsVview_tag\np9878\ng36\nsa(dp9879\nValt_view_tags\np9880\n(lp9881\nsVbody\np9882\nVConan is looking for some extra money so he put his studio up for rent. Use of Andy Richter not included.\np9883\nsVimage_hash\np9884\nV7919136718c712bdc5768ccb1152f805\np9885\nsVname\np9886\nVCrash at Conan's-00\np9887\nsVtitle\np9888\nVCrash at Conan's\np9889\nsVcreative_id\np9890\nV6003863372365\np9891\nsVpreview_url\np9892\nVhttp://www.facebook.com/ads/api/creative_preview.php?cid=6003863372365\np9893\nsVid\np9894\nV6003863372365\np9895\nsVimage_url\np9896\nVhttps://fbcdn-creative-a.akamaihd.net/hads-ak-prn1/s110x80/708170_6006844780965_5096_n.jpg\np9897\nsVcount_current_adgroups\np9898\nI0\nsVrun_status\np9899\nI1\nsVtype\np9900\nI1\nsVlink_url\np9901\nVhttp://buzzfeed.com/ht/airbnb/crash-at-conans-rent-conan-obrien-453n/HFAA1\np9902\nsVview_tag\np9903\ng36\nsa(dp9904\nValt_view_tags\np9905\n(lp9906\nsVbody\np9907\nV1 outrageous coach, 5 demanding moms, fiftyseven million viewers  Watch the season 2 premiere of Dance Moms Tuesday, Jan 10th at 98\np9908\nsVimage_hash\np9909\nV11818f91400cdb689a9ff2b9c99d289a\np9910\nsVname\np9911\nVDance Moms Season 2\np9912\nsVtitle\np9913\nVDance Moms Season 2\np9914\nsVcreative_id\np9915\nV6004338279765\np9916\nsVpreview_url\np9917\nVhttp://www.facebook.com/ads/api/creative_preview.php?cid=6004338279765\np9918\nsVid\np9919\nV6004338279765\np9920\nsVimage_url\np9921\nVhttps://fbcdn-creative-a.akamaihd.net/hads-ak-prn1/s110x80/708177_6006844157165_22280_n.jpg\np9922\nsVcount_current_adgroups\np9923\nI0\nsVrun_status\np9924\nI1\nsVtype\np9925\nI1\nsVlink_url\np9926\nVhttp://buzzfeed.com/ht/viralvideochart/lifetime-dance-moms-season-2-26x3/HFAA1\np9927\nsVview_tag\np9928\ng36\nsa(dp9929\nValt_view_tags\np9930\n(lp9931\nsVbody\np9932\nVYou can judge a man by the type of companion he keeps.\np9933\nsVimage_hash\np9934\nV09f86f151b8cdf3d7f61988577a7ca34\np9935\nsVname\np9936\nVDos Equis  Kitchen\np9937\nsVtitle\np9938\nVDos Equis  Kitchen\np9939\nsVcreative_id\np9940\nV6004338334765\np9941\nsVpreview_url\np9942\nVhttp://www.facebook.com/ads/api/creative_preview.php?cid=6004338334765\np9943\nsVid\np9944\nV6004338334765\np9945\nsVimage_url\np9946\nVhttps://fbcdn-creative-a.akamaihd.net/hads-ak-prn1/s110x80/708193_6006844108365_63499_n.jpg\np9947\nsVcount_current_adgroups\np9948\nI0\nsVrun_status\np9949\nI1\nsVtype\np9950\nI1\nsVlink_url\np9951\nVhttp://buzzfeed.com/ht/viralvideochart/dos-equis-kitchen-26x3/HFAA1\np9952\nsVview_tag\np9953\ng36\nsa(dp9954\nValt_view_tags\np9955\n(lp9956\nsVbody\np9957\nVYou can judge a man by the kind of companion he keeps.  The Most Interesting Man In The World upholds the title with his companion.\np9958\nsVimage_hash\np9959\nV3caa5f7bf519d39d032d5e8916fc6560\np9960\nsVname\np9961\nVDos Equis Kitchen\np9962\nsVtitle\np9963\nVDos Equis Kitchen\np9964\nsVcreative_id\np9965\nV6004339119565\np9966\nsVpreview_url\np9967\nVhttp://www.facebook.com/ads/api/creative_preview.php?cid=6004339119565\np9968\nsVid\np9969\nV6004339119565\np9970\nsVimage_url\np9971\nVhttps://fbcdn-creative-a.akamaihd.net/hads-ak-prn1/s110x80/708161_6006844409965_42160_n.jpg\np9972\nsVcount_current_adgroups\np9973\nI0\nsVrun_status\np9974\nI1\nsVtype\np9975\nI1\nsVlink_url\np9976\nVhttp://www.buzzfeed.com/h1/fba/viralvideochart/dos-equis-kitchen-26x3\np9977\nsVview_tag\np9978\ng36\nsa(dp9979\nValt_view_tags\np9980\n(lp9981\nsVbody\np9982\nVEpisode 5 of Charles Schwab's lighthearted news series, 60 Second in Money.\np9983\nsVimage_hash\np9984\nVec75a3664b09fa82a155ae2fd67ceaf9\np9985\nsVname\np9986\nV60 Seconds In Money\np9987\nsVtitle\np9988\nV60 Seconds In Money\np9989\nsVcreative_"
p6
sS'hash'
p7
S'98c50fae031082bcefb8333b295e5e1623895049'
p8
sS'stack'
p9
S''
s.