(dp1
S'args'
p2
S''
sS'methodname'
p3
S''
sS'packet_num'
p4
I49
sS'returnval'
p5
S"s-ak-prn1/s110x80/708180_6006845007165_30898_n.jpg\np6023\nsVcount_current_adgroups\np6024\nI0\nsVrun_status\np6025\nI1\nsVtype\np6026\nI2\nsVlink_url\np6027\nVhttp://www.facebook.com/BuzzFeedPartner?sk=wall\np6028\nsVview_tag\np6029\ng36\nsa(dp6030\nValt_view_tags\np6031\n(lp6032\nsVbody\np6033\nVWant a good laugh? Come check out a few of the hilarious quotes that one of TV's funniest kids is known for!\np6034\nsVimage_hash\np6035\nVab7f7082b450bda978805c7d6df9179f\np6036\nsVname\np6037\nVWho Is Manny Delgado?\np6038\nsVtitle\np6039\nVWho Is Manny Delgado?\np6040\nsVcreative_id\np6041\nV6003757178365\np6042\nsVpreview_url\np6043\nVhttp://www.facebook.com/ads/api/creative_preview.php?cid=6003757178365\np6044\nsVid\np6045\nV6003757178365\np6046\nsVimage_url\np6047\nVhttps://fbcdn-creative-a.akamaihd.net/hads-ak-snc7/s110x80/701898_6006845080365_43485_n.jpg\np6048\nsVcount_current_adgroups\np6049\nI0\nsVrun_status\np6050\nI1\nsVtype\np6051\nI1\nsVlink_url\np6052\nVhttp://bzfd.it/qUxnhb\np6053\nsVview_tag\np6054\ng36\nsa(dp6055\nValt_view_tags\np6056\n(lp6057\nsVbody\np6058\nVBrooklyn Decker is not just a pretty face.\np6059\nsVimage_hash\np6060\nV4926f498ed5ad9f1b1594afe0a34417f\np6061\nsVname\np6062\nVBrooklyn Decker Can Burp\np6063\nsVtitle\np6064\nVBrooklyn Decker Can Burp\np6065\nsVcreative_id\np6066\nV6003762774365\np6067\nsVpreview_url\np6068\nVhttp://www.facebook.com/ads/api/creative_preview.php?cid=6003762774365\np6069\nsVid\np6070\nV6003762774365\np6071\nsVimage_url\np6072\nVhttps://fbcdn-creative-a.akamaihd.net/hads-ak-ash3/s110x80/708187_6006844493565_4293_n.jpg\np6073\nsVcount_current_adgroups\np6074\nI0\nsVrun_status\np6075\nI1\nsVtype\np6076\nI1\nsVlink_url\np6077\nVhttp://buzzfeed.com/ht/lacoste/brooklyn-decker-can-burp-on-command/HFAA1\np6078\nsVview_tag\np6079\ng36\nsa(dp6080\nValt_view_tags\np6081\n(lp6082\nsVbody\np6083\nVThe 2011 US Open is in full swing, but who are all the lovely ladies in the stands Meet the wives and girlfriends cheering at the mat\np6084\nsVimage_hash\np6085\nV8353d17bddd2f15f666c8adcaea0d3e6\np6086\nsVname\np6087\nVThe Hottest Wives And Gi\np6088\nsVtitle\np6089\nVThe Hottest Wives And Gi\np6090\nsVcreative_id\np6091\nV6003763982765\np6092\nsVpreview_url\np6093\nVhttp://www.facebook.com/ads/api/creative_preview.php?cid=6003763982765\np6094\nsVid\np6095\nV6003763982765\np6096\nsVimage_url\np6097\nVhttps://fbcdn-creative-a.akamaihd.net/hads-ak-ash3/s110x80/701894_6006844834165_23188_n.jpg\np6098\nsVcount_current_adgroups\np6099\nI0\nsVrun_status\np6100\nI1\nsVtype\np6101\nI1\nsVlink_url\np6102\nVhttp://buzzfeed.com/ht/lacoste/the-hottest-wives-and-girlfriends-of-tennis-player/HFAA1\np6103\nsVview_tag\np6104\ng36\nsa(dp6105\nValt_view_tags\np6106\n(lp6107\nsVbody\np6108\nVAs if that headline and thumbnail arent enough to get you to click through. Check out our list of the hottest swimsuits models!\np6109\nsVimage_hash\np6110\nVccca34f0593d51babbc0cfb019f8b73a\np6111\nsVname\np6112\nVThe 12 Hottest Swimsuit\np6113\nsVtitle\np6114\nVThe 12 Hottest Swimsuit\np6115\nsVcreative_id\np6116\nV6003763980965\np6117\nsVpreview_url\np6118\nVhttp://www.facebook.com/ads/api/creative_preview.php?cid=6003763980965\np6119\nsVid\np6120\nV6003763980965\np6121\nsVimage_url\np6122\nVhttps://fbcdn-creative-a.akamaihd.net/hads-ak-prn1/s110x80/701894_6006845280765_47663_n.jpg\np6123\nsVcount_current_adgroups\np6124\nI0\nsVrun_status\np6125\nI1\nsVtype\np6126\nI1\nsVlink_url\np6127\nVhttp://buzzfeed.com/ht/lacoste/the-12-hottest-swimsuit-models/HFAA1\np6128\nsVview_tag\np6129\ng36\nsa(dp6130\nValt_view_tags\np6131\n(lp6132\nsVbody\np6133\nVAs if that headline and thumbnail arent enough to get you to click through. Check out our list of the hottest swimsuits models!\np6134\nsVimage_hash\np6135\nVdee4950663db9a04d7534d8a96acf42e\np6136\nsVname\np6137\nVThe 12 Hottest Swimsuit-00\np6138\nsVtitle\np6139\nVThe 12 Hottest Swimsuit\np6140\nsVcreative_id\np6141\nV6003764740365\np6142\nsVpreview_url\np6143\nVhttp://www.facebook.com/ads/api/creative_preview.php?cid=6003764740365\np6144\nsVid\np6145\nV6003764740365\np6146\nsVimage_url\np6147\nVhttps://fbcdn-creative-a.akamaihd.net/hads-ak-ash3/s110x80/708179_6006845387565_57921_n.jpg\np6148\nsVcount_current_adgroups\np6149\nI0\nsVrun_status\np6150\nI1\nsVtype\np6151\nI1\nsVlink_url\np6152\nVhttp://buzzfeed.com/ht/lacoste/the-12-hottest-"
p6
sS'hash'
p7
S'98c50fae031082bcefb8333b295e5e1623895049'
p8
sS'stack'
p9
S''
s.