(dp1
S'args'
p2
S''
sS'methodname'
p3
S''
sS'packet_num'
p4
I3
sS'returnval'
p5
S'tion-of-the-party-through-the-decades-4hwd\np410\nsVview_tag\np411\ng36\nsa(dp412\nValt_view_tags\np413\n(lp414\nsVbody\np415\nVCheck out the "Evolution Of The Party Through The Decades" and share you favorite.\np416\nsVimage_hash\np417\nV4a18660dba13c6f2af970f8d7625f580\np418\nsVname\np419\nVFavorite Party Decade?-00\np420\nsVtitle\np421\nVFavorite Party Decade?\np422\nsVcreative_id\np423\nV6004996425565\np424\nsVpreview_url\np425\nVhttp://www.facebook.com/ads/api/creative_preview.php?cid=6004996425565\np426\nsVid\np427\nV6004996425565\np428\nsVimage_url\np429\nVhttps://fbcdn-creative-a.akamaihd.net/hads-ak-prn1/s110x80/708187_6006844496165_4600_n.jpg\np430\nsVcount_current_adgroups\np431\nI1\nsVrun_status\np432\nI1\nsVtype\np433\nI1\nsVlink_url\np434\nVhttp://www.buzzfeed.com/H1/FBAD/tostitos/evolution-of-the-party-through-the-decades-4hwd\np435\nsVview_tag\np436\ng36\nsa(dp437\nValt_view_tags\np438\n(lp439\nsVbody\np440\nVCheck them out and more "Animals With Jobs That Are More Important Than Yours"\np441\nsVimage_hash\np442\nV53f4deab1b64fcdccf39210266eba15e\np443\nsVname\np444\nVMilitary Dolphins\np445\nsVtitle\np446\nVMilitary Dolphins\np447\nsVcreative_id\np448\nV6004996001165\np449\nsVpreview_url\np450\nVhttp://www.facebook.com/ads/api/creative_preview.php?cid=6004996001165\np451\nsVid\np452\nV6004996001165\np453\nsVimage_url\np454\nVhttps://fbcdn-creative-a.akamaihd.net/hads-ak-ash3/s110x80/708166_6006844576765_54063_n.jpg\np455\nsVcount_current_adgroups\np456\nI1\nsVrun_status\np457\nI1\nsVtype\np458\nI1\nsVlink_url\np459\nVhttp://www.buzzfeed.com/H1/FBAD/wendyschicken/animals-with-jobs-that-are-more-important-than-you-5afm\np460\nsVview_tag\np461\ng36\nsa(dp462\nValt_view_tags\np463\n(lp464\nsVbody\np465\nVCheck them out and more "Animals With Jobs That Are More Important Than Yours"\np466\nsVimage_hash\np467\nV854853068b031c85db418adcf55db8a7\np468\nsVname\np469\nVRescue Dogs\np470\nsVtitle\np471\nVRescue Dogs\np472\nsVcreative_id\np473\nV6004996003365\np474\nsVpreview_url\np475\nVhttp://www.facebook.com/ads/api/creative_preview.php?cid=6004996003365\np476\nsVid\np477\nV6004996003365\np478\nsVimage_url\np479\nVhttps://fbcdn-creative-a.akamaihd.net/hads-ak-prn1/s110x80/708187_6006844848765_21520_n.jpg\np480\nsVcount_current_adgroups\np481\nI1\nsVrun_status\np482\nI1\nsVtype\np483\nI1\nsVlink_url\np484\nVhttp://www.buzzfeed.com/H1/FBAD/wendyschicken/animals-with-jobs-that-are-more-important-than-you-5afm\np485\nsVview_tag\np486\ng36\nsa(dp487\nValt_view_tags\np488\n(lp489\nsVbody\np490\nVWhat do the Jersey Shore and Motivational Speakers have in common? Check it on BuzzFeed\np491\nsVimage_hash\np492\nVffc0e5368602d6254ffebbcf72793a9a\np493\nsVname\np494\nVFist Pumps Time!\np495\nsVtitle\np496\nVFist Pumps Time!\np497\nsVcreative_id\np498\nV6005013219365\np499\nsVpreview_url\np500\nVhttp://www.facebook.com/ads/api/creative_preview.php?cid=6005013219365\np501\nsVid\np502\nV6005013219365\np503\nsVimage_url\np504\nVhttps://fbcdn-creative-a.akamaihd.net/hads-ak-ash3/s110x80/708201_6006845595965_40314_n.jpg\np505\nsVcount_current_adgroups\np506\nI0\nsVrun_status\np507\nI1\nsVtype\np508\nI1\nsVlink_url\np509\nVhttp://www.buzzfeed.com/H1/FBAD/wendyschicken/the-guide-to-being-a-motivational-speaker-5afm\np510\nsVview_tag\np511\ng36\nsa(dp512\nValt_view_tags\np513\n(lp514\nsVbody\np515\nVThis is one of "The Most Beautiful Fish In The World". Did your favorite make the list? See them all on BuzzFeed!\np516\nsVimage_hash\np517\nV9d7d2b3f8b7224bbb2bb4921897cb85d\np518\nsVname\np519\nVLion Fish\np520\nsVtitle\np521\nVLion Fish\np522\nsVcreative_id\np523\nV6004980814165\np524\nsVpreview_url\np525\nVhttp://www.facebook.com/ads/api/creative_preview.php?cid=6004980814165\np526\nsVid\np527\nV6004980814165\np528\nsVimage_url\np529\nVhttps://fbcdn-creative-a.akamaihd.net/hads-ak-prn1/s110x80/708195_6006844989965_7970_n.jpg\np530\nsVcount_current_adgroups\np531\nI0\nsVrun_status\np532\nI1\nsVtype\np533\nI1\nsVlink_url\np534\nVhttp://www.buzzfeed.com/H1/FBAD/tanked/the-most-beautiful-fish-in-the-world\np535\nsVview_tag\np536\ng36\nsa(dp537\nValt_view_tags\np538\n(lp539\nsVbody\np540\nVThis is one of "The Most Beautiful Fish In The World". Did your favorite make the list? See them all on BuzzFeed!\np541\nsVimage_hash\np542\nV772c13f3bfeec4249950dea3a3d3332f\np543\nsVname\np544\nVClown Fish\np545\nsVtitle\np546\n'
p6
sS'hash'
p7
S'98c50fae031082bcefb8333b295e5e1623895049'
p8
sS'stack'
p9
S''
s.