(dp1
S'args'
p2
S''
sS'methodname'
p3
S''
sS'packet_num'
p4
I18
sS'returnval'
p5
S'=wall\np2360\nsVview_tag\np2361\ng36\nsa(dp2362\nValt_view_tags\np2363\n(lp2364\nsVbody\np2365\nVCheck out BuzzFeed\'s list of "The 10 Best Things To Come Out Of Australia". Heath Ledger on the list - What\'s your pick?\np2366\nsVimage_hash\np2367\nV964f9b1461a3e26424b6bed9ca3c002c\np2368\nsVname\np2369\nVBuzzFeed-20\np2370\nsVtitle\np2371\ng36\nsVcreative_id\np2372\nV6004290012765\np2373\nsVpreview_url\np2374\nVhttp://www.facebook.com/ads/api/creative_preview.php?cid=6004290012765\np2375\nsVobject_id\np2376\nI21898300328\nsVid\np2377\nV6004290012765\np2378\nsVimage_url\np2379\nVhttps://fbcdn-creative-a.akamaihd.net/hads-ak-prn1/s110x80/708172_6006844950365_62443_n.jpg\np2380\nsVcount_current_adgroups\np2381\nI0\nsVrun_status\np2382\nI1\nsVtype\np2383\nI2\nsVlink_url\np2384\nVhttp://www.facebook.com/BuzzFeed?sk=wall\np2385\nsVview_tag\np2386\ng36\nsa(dp2387\nValt_view_tags\np2388\n(lp2389\nsVbody\np2390\nVCheck out BuzzFeed\'s list of "The 10 Best Things To Come Out Of Australia". AC/DC is on the list - What\'s your pick?\np2391\nsVimage_hash\np2392\nVd8254f97514687da7fd5eb8f90b887e4\np2393\nsVname\np2394\nVBuzzFeed-21\np2395\nsVtitle\np2396\ng36\nsVcreative_id\np2397\nV6004290015165\np2398\nsVpreview_url\np2399\nVhttp://www.facebook.com/ads/api/creative_preview.php?cid=6004290015165\np2400\nsVobject_id\np2401\nI21898300328\nsVid\np2402\nV6004290015165\np2403\nsVimage_url\np2404\nVhttps://fbcdn-creative-a.akamaihd.net/hads-ak-ash3/s110x80/708161_6006845342165_25654_n.jpg\np2405\nsVcount_current_adgroups\np2406\nI1\nsVrun_status\np2407\nI1\nsVtype\np2408\nI2\nsVlink_url\np2409\nVhttp://www.facebook.com/BuzzFeed?sk=wall\np2410\nsVview_tag\np2411\ng36\nsa(dp2412\nValt_view_tags\np2413\n(lp2414\nsVbody\np2415\nVCheck out what it takes to store all 495 episodes of The Simpsons and more in "How Much Can You Really Store On 8 Terabytes"\np2416\nsVimage_hash\np2417\nV472a7d8d40853121e9cc8d2d5b83cbe3\np2418\nsVname\np2419\nVEvery Simpsons Episode?\np2420\nsVtitle\np2421\nVEvery Simpsons Episode?\np2422\nsVcreative_id\np2423\nV6004271356565\np2424\nsVpreview_url\np2425\nVhttp://www.facebook.com/ads/api/creative_preview.php?cid=6004271356565\np2426\nsVid\np2427\nV6004271356565\np2428\nsVimage_url\np2429\nVhttps://fbcdn-creative-a.akamaihd.net/hads-ak-ash3/s110x80/701889_6006844479165_46215_n.jpg\np2430\nsVcount_current_adgroups\np2431\nI0\nsVrun_status\np2432\nI1\nsVtype\np2433\nI1\nsVlink_url\np2434\nVhttp://www.buzzfeed.com/h1/fba/drobo/how-much-can-you-really-store-on-8-terabytes\np2435\nsVview_tag\np2436\ng36\nsa(dp2437\nValt_view_tags\np2438\n(lp2439\nsVbody\np2440\nVSee what it takes to store all 495 episodes of The Simpsons and more in "How Much Can You Really Store On 8 Terabytes? "\np2441\nsVimage_hash\np2442\nV472a7d8d40853121e9cc8d2d5b83cbe3\np2443\nsVname\np2444\nVEvery Simpsons Episode?-00\np2445\nsVtitle\np2446\nVEvery Simpsons Episode?\np2447\nsVcreative_id\np2448\nV6004271358365\np2449\nsVpreview_url\np2450\nVhttp://www.facebook.com/ads/api/creative_preview.php?cid=6004271358365\np2451\nsVid\np2452\nV6004271358365\np2453\nsVimage_url\np2454\nVhttps://fbcdn-creative-a.akamaihd.net/hads-ak-ash3/s110x80/701889_6006844479165_46215_n.jpg\np2455\nsVcount_current_adgroups\np2456\nI0\nsVrun_status\np2457\nI1\nsVtype\np2458\nI1\nsVlink_url\np2459\nVhttp://www.buzzfeed.com/h1/fba/drobo/how-much-can-you-really-store-on-8-terabytes\np2460\nsVview_tag\np2461\ng36\nsa(dp2462\nValt_view_tags\np2463\n(lp2464\nsVbody\np2465\nVAll computers get error messages. Check out "The Error Messages That Every Computer User Fears" on BuzzFeed to see them all!\np2466\nsVimage_hash\np2467\nV5a5addaf9efe5f7773d5b30bbabe35be\np2468\nsVname\np2469\nVBlue Screen Of Death!\np2470\nsVtitle\np2471\nVBlue Screen Of Death!\np2472\nsVcreative_id\np2473\nV6004224799365\np2474\nsVpreview_url\np2475\nVhttp://www.facebook.com/ads/api/creative_preview.php?cid=6004224799365\np2476\nsVid\np2477\nV6004224799365\np2478\nsVimage_url\np2479\nVhttps://fbcdn-creative-a.akamaihd.net/hads-ak-ash3/s110x80/708164_6006844609165_58147_n.jpg\np2480\nsVcount_current_adgroups\np2481\nI0\nsVrun_status\np2482\nI1\nsVtype\np2483\nI1\nsVlink_url\np2484\nVhttp://www.buzzfeed.com/h1/fba/drobo/the-error-messages-that-every-computer-user-fears\np2485\nsVview_tag\np2486\ng36\nsa(dp2487\nValt_view_tags\np2488\n(lp2489\nsVbody\np2490\nVAll computers get error m'
p6
sS'hash'
p7
S'98c50fae031082bcefb8333b295e5e1623895049'
p8
sS'stack'
p9
S''
s.