(dp1
S'args'
p2
S''
sS'methodname'
p3
S''
sS'packet_num'
p4
I40
sS'returnval'
p5
S'image_url\np4922\nVhttps://fbcdn-creative-a.akamaihd.net/hads-ak-ash3/s110x80/708183_6006844700365_52997_n.jpg\np4923\nsVcount_current_adgroups\np4924\nI0\nsVrun_status\np4925\nI1\nsVtype\np4926\nI1\nsVlink_url\np4927\nVhttp://www.buzzfeed.com/h1/fbad/microsoftbing/11-of-the-most-unexpected-upsets-ever\np4928\nsVview_tag\np4929\ng36\nsa(dp4930\nValt_view_tags\np4931\n(lp4932\nsVbody\np4933\nVBoth were key to today\'s tech, but Edison is more known. See more unexpected upsets!\np4934\nsVimage_hash\np4935\nVa7bbdc98c0209b2c3c95cd48f6c87ac0\np4936\nsVname\np4937\nVGiants 2008 Superbowl-00\np4938\nsVtitle\np4939\nVEdison vs Tesla\np4940\nsVcreative_id\np4941\nV6005839243165\np4942\nsVpreview_url\np4943\nVhttp://www.facebook.com/ads/api/creative_preview.php?cid=6005839243165\np4944\nsVid\np4945\nV6005839243165\np4946\nsVimage_url\np4947\nVhttps://fbcdn-creative-a.akamaihd.net/hads-ak-ash3/s110x80/708184_6006845060165_32944_n.jpg\np4948\nsVcount_current_adgroups\np4949\nI0\nsVrun_status\np4950\nI1\nsVtype\np4951\nI1\nsVlink_url\np4952\nVhttp://www.buzzfeed.com/h1/fbad/microsoftbing/11-of-the-most-unexpected-upsets-ever\np4953\nsVview_tag\np4954\ng36\nsa(dp4955\nValt_view_tags\np4956\n(lp4957\nsVbody\np4958\nVComedy Central roasts just keep getting better. On the way to the Roast of Charlie Sheen, come check out the best roasts of all time!\np4959\nsVimage_hash\np4960\nV35350c0079a835ca4cd3999fc6e32f9a\np4961\nsVname\np4962\nVComedy Central Roasts!\np4963\nsVtitle\np4964\nVComedy Central Roasts!\np4965\nsVcreative_id\np4966\nV6003807697165\np4967\nsVpreview_url\np4968\nVhttp://www.facebook.com/ads/api/creative_preview.php?cid=6003807697165\np4969\nsVid\np4970\nV6003807697165\np4971\nsVimage_url\np4972\nVhttps://fbcdn-creative-a.akamaihd.net/hads-ak-prn1/s110x80/708161_6006844360565_41739_n.jpg\np4973\nsVcount_current_adgroups\np4974\nI0\nsVrun_status\np4975\nI1\nsVtype\np4976\nI1\nsVlink_url\np4977\nVhttp://www.buzzfeed.com/ht/theroastofcharliesheen/the-best-of-comedy-centrals-roast/HFBA1\np4978\nsVview_tag\np4979\ng36\nsa(dp4980\nValt_view_tags\np4981\n(lp4982\nsVbody\np4983\nVComedy Central roasts just keep getting better. On the way to the Roast of Charlie Sheen, come check out the best roasts of all time!\np4984\nsVimage_hash\np4985\nV35350c0079a835ca4cd3999fc6e32f9a\np4986\nsVname\np4987\nVRoast Coming Soon!\np4988\nsVtitle\np4989\nVRoast Coming Soon!\np4990\nsVcreative_id\np4991\nV6003807698965\np4992\nsVpreview_url\np4993\nVhttp://www.facebook.com/ads/api/creative_preview.php?cid=6003807698965\np4994\nsVid\np4995\nV6003807698965\np4996\nsVimage_url\np4997\nVhttps://fbcdn-creative-a.akamaihd.net/hads-ak-prn1/s110x80/708161_6006844360565_41739_n.jpg\np4998\nsVcount_current_adgroups\np4999\nI0\nsVrun_status\np5000\nI1\nsVtype\np5001\nI1\nsVlink_url\np5002\nVhttp://www.buzzfeed.com/ht/theroastofcharliesheen/the-best-of-comedy-centrals-roast/HFBA1\np5003\nsVview_tag\np5004\ng36\nsa(dp5005\nValt_view_tags\np5006\n(lp5007\nsVbody\np5008\nVComedy Central roasts just keep getting better. On the way to the Roast of Charlie Sheen, come check out the best roasts of all time!\np5009\nsVimage_hash\np5010\nV491220698f72a30721a15551706143c2\np5011\nsVname\np5012\nVCharlie Sheen Roast!\np5013\nsVtitle\np5014\nVCharlie Sheen Roast!\np5015\nsVcreative_id\np5016\nV6003807706565\np5017\nsVpreview_url\np5018\nVhttp://www.facebook.com/ads/api/creative_preview.php?cid=6003807706565\np5019\nsVid\np5020\nV6003807706565\np5021\nsVimage_url\np5022\nVhttps://fbcdn-creative-a.akamaihd.net/hads-ak-ash3/s110x80/708187_6006844493165_51223_n.jpg\np5023\nsVcount_current_adgroups\np5024\nI0\nsVrun_status\np5025\nI1\nsVtype\np5026\nI1\nsVlink_url\np5027\nVhttp://www.buzzfeed.com/ht/theroastofcharliesheen/the-best-of-comedy-centrals-roast/HFBA1\np5028\nsVview_tag\np5029\ng36\nsa(dp5030\nValt_view_tags\np5031\n(lp5032\nsVbody\np5033\nVCheck out our list of "The Best Comedy Central Roasts" and get ready for the roast of Charlie Sheen! You won\'t want to miss that one!\np5034\nsVimage_hash\np5035\nVed7294aa09e92dfe244d960ad66f79b2\np5036\nsVname\np5037\nVBest Comedy Central Roast\np5038\nsVtitle\np5039\nVBest Comedy Central Roast\np5040\nsVcreative_id\np5041\nV6003808328765\np5042\nsVpreview_url\np5043\nVhttp://www.facebook.com/ads/api/creative_preview.php?cid=6003808328765\np5044\nsVid\np5045\nV6003808328765\np5046\n'
p6
sS'hash'
p7
S'98c50fae031082bcefb8333b295e5e1623895049'
p8
sS'stack'
p9
S''
s.