(dp1
S'args'
p2
S''
sS'methodname'
p3
S''
sS'packet_num'
p4
I55
sS'returnval'
p5
S's://fbcdn-creative-a.akamaihd.net/hads-ak-prn1/s110x80/708171_6006845447765_36462_n.jpg\np6823\nsVcount_current_adgroups\np6824\nI0\nsVrun_status\np6825\nI1\nsVtype\np6826\nI1\nsVlink_url\np6827\nVhttp://bzfd.it/qtyKhE\np6828\nsVview_tag\np6829\ng36\nsa(dp6830\nValt_view_tags\np6831\n(lp6832\nsVbody\np6833\nVHospital visits for kids must be very intimidating.  Check out these how experts considered their audience to help with the experience!\np6834\nsVimage_hash\np6835\nVf0a3b223479d2c0977c3893351d918d4\np6836\nsVname\np6837\nVMarketing Lessons!\np6838\nsVtitle\np6839\nVMarketing Lessons!\np6840\nsVcreative_id\np6841\nV6003743916765\np6842\nsVpreview_url\np6843\nVhttp://www.facebook.com/ads/api/creative_preview.php?cid=6003743916765\np6844\nsVid\np6845\nV6003743916765\np6846\nsVimage_url\np6847\nVhttps://fbcdn-creative-a.akamaihd.net/hads-ak-prn1/s110x80/708178_6006845508565_22262_n.jpg\np6848\nsVcount_current_adgroups\np6849\nI0\nsVrun_status\np6850\nI1\nsVtype\np6851\nI1\nsVlink_url\np6852\nVhttp://bzfd.it/nEx6gS\np6853\nsVview_tag\np6854\ng36\nsa(dp6855\nValt_view_tags\np6856\n(lp6857\nsVbody\np6858\nVNothing screams "walk of shame" like bedhead and a tousled outfit. These lovely people look like they had a wonderful night out. Own\np6859\nsVimage_hash\np6860\nV4609d557e9b6b6b044821429780332b2\np6861\nsVname\np6862\nVThe Best Walk Shame Outf-00\np6863\nsVtitle\np6864\nVThe Best Walk Shame Outf\np6865\nsVcreative_id\np6866\nV6003741378165\np6867\nsVpreview_url\np6868\nVhttp://www.facebook.com/ads/api/creative_preview.php?cid=6003741378165\np6869\nsVid\np6870\nV6003741378165\np6871\nsVimage_url\np6872\nVhttps://fbcdn-creative-a.akamaihd.net/hads-ak-prn1/s110x80/701889_6006844476365_46348_n.jpg\np6873\nsVcount_current_adgroups\np6874\nI0\nsVrun_status\np6875\nI1\nsVtype\np6876\nI1\nsVlink_url\np6877\nVhttp://buzzfeed.com/ht/svedkavodka/the-best-walk-shame-outfits/HFAA1\np6878\nsVview_tag\np6879\ng36\nsa(dp6880\nValt_view_tags\np6881\n(lp6882\nsVbody\np6883\nVNothing screams "walk of shame" like bedhead and a tousled outfit. These lovely people look like they had a wonderful night out.\np6884\nsVimage_hash\np6885\nV9f56510f952b46c29d6985f32a35a77d\np6886\nsVname\np6887\nVBest Walk Shame Outfits-00\np6888\nsVtitle\np6889\nVBest Walk Shame Outfits\np6890\nsVcreative_id\np6891\nV6003741488565\np6892\nsVpreview_url\np6893\nVhttp://www.facebook.com/ads/api/creative_preview.php?cid=6003741488565\np6894\nsVid\np6895\nV6003741488565\np6896\nsVimage_url\np6897\nVhttps://fbcdn-creative-a.akamaihd.net/hads-ak-prn1/s110x80/708180_6006845007365_9197_n.jpg\np6898\nsVcount_current_adgroups\np6899\nI0\nsVrun_status\np6900\nI1\nsVtype\np6901\nI1\nsVlink_url\np6902\nVhttp://buzzfeed.com/ht/svedkavodka/the-best-walk-shame-outfits/HFAA1\np6903\nsVview_tag\np6904\ng36\nsa(dp6905\nValt_view_tags\np6906\n(lp6907\nsVbody\np6908\nVRob is a Wild Man! Check out "The 10 Most Ridiculous Things Rob Dyrdek Has Ever Done" on BuzzFeed\np6909\nsVimage_hash\np6910\nV4b75f97174f3984ad313d868f532113f\np6911\nsVname\np6912\nVRob Dyrdek is Ridiculous!\np6913\nsVtitle\np6914\nVRob Dyrdek is Ridiculous!\np6915\nsVcreative_id\np6916\nV6003734849965\np6917\nsVpreview_url\np6918\nVhttp://www.facebook.com/ads/api/creative_preview.php?cid=6003734849965\np6919\nsVid\np6920\nV6003734849965\np6921\nsVimage_url\np6922\nVhttps://fbcdn-creative-a.akamaihd.net/hads-ak-prn1/s110x80/708166_6006844509365_38633_n.jpg\np6923\nsVcount_current_adgroups\np6924\nI0\nsVrun_status\np6925\nI1\nsVtype\np6926\nI1\nsVlink_url\np6927\nVhttp://bzfd.it/qh027n\np6928\nsVview_tag\np6929\ng36\nsa(dp6930\nValt_view_tags\np6931\n(lp6932\nsVbody\np6933\nVRidiculous trends come and go, but they\'ve all had their moments. Check out our list of the "10 Trends That Have Swept The Nation"\np6934\nsVimage_hash\np6935\nVcf2862a9262cba5eebcb42cf54cef3f0\np6936\nsVname\np6937\nV10 Ridiculous Trends\np6938\nsVtitle\np6939\nV10 Ridiculous Trends\np6940\nsVcreative_id\np6941\nV6003734298965\np6942\nsVpreview_url\np6943\nVhttp://www.facebook.com/ads/api/creative_preview.php?cid=6003734298965\np6944\nsVid\np6945\nV6003734298965\np6946\nsVimage_url\np6947\nVhttps://fbcdn-creative-a.akamaihd.net/hads-ak-prn1/s110x80/708196_6006845291165_13527_n.jpg\np6948\nsVcount_current_adgroups\np6949\nI0\nsVrun_status\np6950\nI1\nsVtype\np6951\nI1\nsVlink_url\np6952\nVhttp://bzfd.it/p5fVJx\np695'
p6
sS'hash'
p7
S'98c50fae031082bcefb8333b295e5e1623895049'
p8
sS'stack'
p9
S''
s.