(dp1
S'args'
p2
S''
sS'methodname'
p3
S''
sS'packet_num'
p4
I73
sS'returnval'
p5
S"99\nI1\nsVtype\np9200\nI1\nsVlink_url\np9201\nVhttp://www.buzzfeed.com/h1/fba/viralvideochart/bruce-willis-sobieski-nut-cracker-26x3\np9202\nsVview_tag\np9203\ng36\nsa(dp9204\nValt_view_tags\np9205\n(lp9206\nsVbody\np9207\nVCheck out some of Bruce's latest ideas for his favorite vodka. Keep in mind that some of these might have bugs needing to be worked out\np9208\nsVimage_hash\np9209\nVbd3a62794b5dc57af30d9670a22873ea\np9210\nsVname\np9211\nVBruce Willis Freezer Mitt\np9212\nsVtitle\np9213\nVBruce Willis Freezer Mitt\np9214\nsVcreative_id\np9215\nV6004339295365\np9216\nsVpreview_url\np9217\nVhttp://www.facebook.com/ads/api/creative_preview.php?cid=6004339295365\np9218\nsVid\np9219\nV6004339295365\np9220\nsVimage_url\np9221\nVhttps://fbcdn-creative-a.akamaihd.net/hads-ak-prn1/s110x80/708189_6006845186965_36952_n.jpg\np9222\nsVcount_current_adgroups\np9223\nI0\nsVrun_status\np9224\nI1\nsVtype\np9225\nI1\nsVlink_url\np9226\nVhttp://www.buzzfeed.com/h1/fba/viralvideochart/bruce-willis-sobieski-freezer-mitt-26x3\np9227\nsVview_tag\np9228\ng36\nsa(dp9229\nValt_view_tags\np9230\n(lp9231\nsVbody\np9232\nVWho do the oddsmakers think will take the Republican Primary Do you think they are right\np9233\nsVimage_hash\np9234\nV7d863dca1e60f2c2778191dcc5652d02\np9235\nsVname\np9236\nVRepublican Primary Odds\np9237\nsVtitle\np9238\nVRepublican Primary Odds\np9239\nsVcreative_id\np9240\nV6004802156365\np9241\nsVpreview_url\np9242\nVhttp://www.facebook.com/ads/api/creative_preview.php?cid=6004802156365\np9243\nsVid\np9244\nV6004802156365\np9245\nsVimage_url\np9246\nVhttps://fbcdn-creative-a.akamaihd.net/hads-ak-prn1/s110x80/708186_6006844803165_47899_n.jpg\np9247\nsVcount_current_adgroups\np9248\nI0\nsVrun_status\np9249\nI1\nsVtype\np9250\nI1\nsVlink_url\np9251\nVhttp://buzzfeed.com/ht/sbrforumcom/republican-primaries-politics-is-a-gamble-1n/HFAA1\np9252\nsVview_tag\np9253\ng36\nsa(dp9254\nValt_view_tags\np9255\n(lp9256\nsVbody\np9257\nVWhat happens when an elasticlike shoe meets an iron will? The answer will amaze you.\np9258\nsVimage_hash\np9259\nVd9014040736abee68d3f857823ec5c36\np9260\nsVname\np9261\nVFeet for Hands\np9262\nsVtitle\np9263\nVFeet for Hands\np9264\nsVcreative_id\np9265\nV6004982038765\np9266\nsVpreview_url\np9267\nVhttp://www.facebook.com/ads/api/creative_preview.php?cid=6004982038765\np9268\nsVid\np9269\nV6004982038765\np9270\nsVimage_url\np9271\nVhttps://fbcdn-creative-a.akamaihd.net/hads-ak-prn1/s110x80/708182_6006845349765_49288_n.jpg\np9272\nsVcount_current_adgroups\np9273\nI0\nsVrun_status\np9274\nI1\nsVtype\np9275\nI1\nsVlink_url\np9276\nVhttp://buzzfeed.com/ht/asicsamerica/feet-for-hands-5u2p/HFAA1\np9277\nsVview_tag\np9278\ng36\nsa(dp9279\nValt_view_tags\np9280\n(lp9281\nsVbody\np9282\nVObama adviser David Axelrod appeared on Piers Morgan Tonight Monday and struggled to expl\np9283\nsVimage_hash\np9284\nVc0dfc2b22eb8f884490dd27c41e0a7ed\np9285\nsVname\np9286\nVDavid Axelrod Struggle a\np9287\nsVtitle\np9288\nVDavid Axelrod Struggle a\np9289\nsVcreative_id\np9290\nV6005131104765\np9291\nsVpreview_url\np9292\nVhttp://www.facebook.com/ads/api/creative_preview.php?cid=6005131104765\np9293\nsVid\np9294\nV6005131104765\np9295\nsVimage_url\np9296\nVhttps://fbcdn-creative-a.akamaihd.net/hads-ak-ash3/s110x80/708199_6006845210565_46566_n.jpg\np9297\nsVcount_current_adgroups\np9298\nI0\nsVrun_status\np9299\nI1\nsVtype\np9300\nI1\nsVlink_url\np9301\nVhttp://buzzfeed.com/ht/andrewkaczynski/david-axelrod-struggles-to-explain-president-obama/HFAA1\np9302\nsVview_tag\np9303\ng36\nsa(dp9304\nValt_view_tags\np9305\n(lp9306\nsVbody\np9307\nVBro, your game is weak. Not to worry  We're here to help. Watch for what to do when you're trying to close.\np9308\nsVimage_hash\np9309\nV121f8c7443887e2be0336406cee0e9ec\np9310\nsVname\np9311\nVFreshifying Your Game\np9312\nsVtitle\np9313\nVFreshifying Your Game\np9314\nsVcreative_id\np9315\nV6003949212965\np9316\nsVpreview_url\np9317\nVhttp://www.facebook.com/ads/api/creative_preview.php?cid=6003949212965\np9318\nsVid\np9319\nV6003949212965\np9320\nsVimage_url\np9321\nVhttps://fbcdn-creative-a.akamaihd.net/hads-ak-prn1/s110x80/708168_6006844163965_24944_n.jpg\np9322\nsVcount_current_adgroups\np9323\nI0\nsVrun_status\np9324\nI1\nsVtype\np9325\nI1\nsVlink_url\np9326\nVhttp://buzzfeed.com/ht/kennethcole/freshifying-your-game-1-49vl/HFAA1\np9327\nsVview_tag\n"
p6
sS'hash'
p7
S'98c50fae031082bcefb8333b295e5e1623895049'
p8
sS'stack'
p9
S''
s.