(dp1
S'args'
p2
S''
sS'methodname'
p3
S''
sS'packet_num'
p4
I21
sS'returnval'
p5
S'ent_adgroups\np2731\nI1\nsVrun_status\np2732\nI1\nsVtype\np2733\nI1\nsVlink_url\np2734\nVhttp://www.slate.com/blogs/browbeat/2011/12/07/christmas_movies_the_five_worst_ever_made.html#bfsrc=HFBA2\np2735\nsVview_tag\np2736\ng36\nsa(dp2737\nValt_view_tags\np2738\n(lp2739\nsVbody\np2740\nVCheck out "The Guide To Acting Rich When You\'re Actually Poor" to get tips on how to make your friends think your living the life!\np2741\nsVimage_hash\np2742\nV216ed471821eb5c242da07f7ed361e7b\np2743\nsVname\np2744\nVGuide To Acting Rich-00\np2745\nsVtitle\np2746\nVGuide To Acting Rich\np2747\nsVcreative_id\np2748\nV6004134102165\np2749\nsVpreview_url\np2750\nVhttp://www.facebook.com/ads/api/creative_preview.php?cid=6004134102165\np2751\nsVid\np2752\nV6004134102165\np2753\nsVimage_url\np2754\nVhttps://fbcdn-creative-a.akamaihd.net/hads-ak-prn1/s110x80/708159_6006844257765_58974_n.jpg\np2755\nsVcount_current_adgroups\np2756\nI0\nsVrun_status\np2757\nI1\nsVtype\np2758\nI1\nsVlink_url\np2759\nVhttp://www.buzzfeed.com/h1/fba/freecreditscore/the-guide-to-acting-rich-when-youre-actually\np2760\nsVview_tag\np2761\ng36\nsa(dp2762\nValt_view_tags\np2763\n(lp2764\nsVbody\np2765\nVThe amount of information our smartphone gather about us is frightening.  Get the full story in Slate\'s "Fear Your Smartphone"\np2766\nsVimage_hash\np2767\nV7ff274d9729207ffa325a69ed9d6c487\np2768\nsVname\np2769\nVSmartphone Spying On You?\np2770\nsVtitle\np2771\nVSmartphone Spying On You?\np2772\nsVcreative_id\np2773\nV6004111123765\np2774\nsVpreview_url\np2775\nVhttp://www.facebook.com/ads/api/creative_preview.php?cid=6004111123765\np2776\nsVid\np2777\nV6004111123765\np2778\nsVimage_url\np2779\nVhttps://fbcdn-creative-a.akamaihd.net/hads-ak-ash3/s110x80/708160_6006844816365_24694_n.jpg\np2780\nsVcount_current_adgroups\np2781\nI0\nsVrun_status\np2782\nI1\nsVtype\np2783\nI1\nsVlink_url\np2784\nVhttp://www.slate.com/articles/technology/technology/2011/12/carrier_iq_it_s_totally_rational_to_worry_that_our_phones_are_tracking_everything_we_do_.html#bfsrc=HFBA2\np2785\nsVview_tag\np2786\ng36\nsa(dp2787\nValt_view_tags\np2788\n(lp2789\nsVbody\np2790\nVThink FOOD when choosing a college. See why UCLA and other schools are among "The Best Fed Colleges In The US"\np2791\nsVimage_hash\np2792\nVd437ebb89135e3a86eeaacd771a95f80\np2793\nsVname\np2794\nVBest Fed Colleges Of USA!-00\np2795\nsVtitle\np2796\nVBest Fed Colleges Of USA!\np2797\nsVcreative_id\np2798\nV6004100146965\np2799\nsVpreview_url\np2800\nVhttp://www.facebook.com/ads/api/creative_preview.php?cid=6004100146965\np2801\nsVid\np2802\nV6004100146965\np2803\nsVimage_url\np2804\nVhttps://fbcdn-creative-a.akamaihd.net/hads-ak-prn1/s110x80/708189_6006845318365_21017_n.jpg\np2805\nsVcount_current_adgroups\np2806\nI1\nsVrun_status\np2807\nI1\nsVtype\np2808\nI1\nsVlink_url\np2809\nVhttp://www.buzzfeed.com/h1/fba/capitalone/the-best-fed-colleges-in-the-us-3pqf\np2810\nsVview_tag\np2811\ng36\nsa(dp2812\nValt_view_tags\np2813\n(lp2814\nsVbody\np2815\nVIf your running out of gift ideas, check out "How To Give Good Gift" by Slate to find out what good gift giving is all about!\np2816\nsVimage_hash\np2817\nV11519d25972572ac2b3a727465fe58f4\np2818\nsVname\np2819\nVChoosing The Perfect Gift\np2820\nsVtitle\np2821\nVChoosing The Perfect Gift\np2822\nsVcreative_id\np2823\nV6004100097365\np2824\nsVpreview_url\np2825\nVhttp://www.facebook.com/ads/api/creative_preview.php?cid=6004100097365\np2826\nsVid\np2827\nV6004100097365\np2828\nsVimage_url\np2829\nVhttps://fbcdn-creative-a.akamaihd.net/hads-ak-ash3/s110x80/708177_6006844156765_41412_n.jpg\np2830\nsVcount_current_adgroups\np2831\nI0\nsVrun_status\np2832\nI1\nsVtype\np2833\nI1\nsVlink_url\np2834\nVhttp://www.slate.com/articles/double_x/doublex/2011/11/thanks_to_asperger_s_i_used_to_give_my_wife_terrible_gifts_here_s_how_i_learned_to_pick_good_ones_.html#bfsrc=HFBA2\np2835\nsVview_tag\np2836\ng36\nsa(dp2837\nValt_view_tags\np2838\n(lp2839\nsVbody\np2840\nVIs it more dangerous to drive drunk or stoned? Results of a new study may surprise you. Check out this interesting article on Slate.\np2841\nsVimage_hash\np2842\nV1301e6f81e79a0fe526544e39f4d9062\np2843\nsVname\np2844\nVDWI vs. DW-High\np2845\nsVtitle\np2846\nVDWI vs. DW-High\np2847\nsVcreative_id\np2848\nV6004091462165\np2849\nsVpreview_url\np2850\nVhttp://www.facebook.com/ads/api/crea'
p6
sS'hash'
p7
S'98c50fae031082bcefb8333b295e5e1623895049'
p8
sS'stack'
p9
S''
s.