(dp1
S'args'
p2
S''
sS'methodname'
p3
S''
sS'packet_num'
p4
I84
sS'returnval'
p5
S'g\np10619\nsVcount_current_adgroups\np10620\nI0\nsVrun_status\np10621\nI1\nsVtype\np10622\nI1\nsVlink_url\np10623\nVhttp://bzfd.it/qAcgeB\np10624\nsVview_tag\np10625\ng36\nsa(dp10626\nValt_view_tags\np10627\n(lp10628\nsVname\np10629\nVDomain Story #6003643054165\np10630\nsVurl_tags\np10631\ng36\nsVcreative_id\np10632\nV6003643054165\np10633\nsVpreview_url\np10634\nVhttp://www.facebook.com/ads/api/creative_preview.php?cid=6003643054165\np10635\nsVobject_id\np10636\nV340717089822\np10637\nsVcount_current_adgroups\np10638\nI0\nsVrun_status\np10639\nI1\nsVtype\np10640\nI19\nsVid\np10641\nV6003643054165\np10642\nsVview_tag\np10643\ng36\nsa(dp10644\nValt_view_tags\np10645\n(lp10646\nsVbody\np10647\nVCheck out "The Coolest Musical Performances In Unusual Places" as these awesome artists as they jam in odd dwellings.\np10648\nsVimage_hash\np10649\nV7ddd744209f58e356d2dd5b2130525c4\np10650\nsVname\np10651\nVCool Music, Unusual Place\np10652\nsVtitle\np10653\nVCool Music, Unusual Place\np10654\nsVcreative_id\np10655\nV6003629236765\np10656\nsVpreview_url\np10657\nVhttp://www.facebook.com/ads/api/creative_preview.php?cid=6003629236765\np10658\nsVid\np10659\nV6003629236765\np10660\nsVimage_url\np10661\nVhttps://fbcdn-creative-a.akamaihd.net/hads-ak-prn1/s110x80/708186_6006844804565_39688_n.jpg\np10662\nsVcount_current_adgroups\np10663\nI0\nsVrun_status\np10664\nI1\nsVtype\np10665\nI1\nsVlink_url\np10666\nVhttp://bzfd.it/qv6Msb\np10667\nsVview_tag\np10668\ng36\nsa(dp10669\nValt_view_tags\np10670\n(lp10671\nsVbody\np10672\nVWant Your Cat To Love You Forever? Then check out these tips on Buzzfeed! \np10673\nsVimage_hash\np10674\nVd81d967d2bc8567559e8389a9da6ffbc\np10675\nsVname\np10676\nVHow To Treat Your Cat\np10677\nsVtitle\np10678\nVHow To Treat Your Cat\np10679\nsVcreative_id\np10680\nV6005583555965\np10681\nsVpreview_url\np10682\nVhttp://www.facebook.com/ads/api/creative_preview.php?cid=6005583555965\np10683\nsVid\np10684\nV6005583555965\np10685\nsVimage_url\np10686\nVhttps://fbcdn-creative-a.akamaihd.net/hads-ak-prn1/s110x80/708161_6006845341765_48070_n.jpg\np10687\nsVcount_current_adgroups\np10688\nI0\nsVrun_status\np10689\nI1\nsVtype\np10690\nI1\nsVlink_url\np10691\nVhttp://www.buzzfeed.com/h1/fbad/temptationscattreats/10-easy-steps-on-how-to-treat-your-cat\np10692\nsVview_tag\np10693\ng36\nsa(dp10694\nVrelated_fan_page\np10695\nI1\nsVname\np10696\nVSponsored story #6005583995565\np10697\nsVtitle\np10698\nV33 Things To Love About Men\'s Water\xc2 Polo\np10699\nsVcreative_id\np10700\nV6005583995565\np10701\nsVpreview_url\np10702\nVhttp://www.facebook.com/ads/api/creative_preview.php?cid=6005583995565\np10703\nsVaction_spec\np10704\n(dp10705\nVpost.object\np10706\nVhttp://www.buzzfeed.com/mjs538/things-to-love-about-mens-water-polo\np10707\nsVaction.type\np10708\nVpost\np10709\nssVcluster_id\np10710\nI6005583995365\nsVcount_current_adgroups\np10711\nI0\nsVrun_status\np10712\nI1\nsVtype\np10713\nI25\nsVid\np10714\nV6005583995565\np10715\nsa(dp10716\nValt_view_tags\np10717\n(lp10718\nsVbody\np10719\nVWe are bombarded by so much unfiltered trash content that sometimes we drown in mediocre information. See what this expert has to say.\np10720\nsVimage_hash\np10721\nV6feed5f646caf05f6ffb7746b1419126\np10722\nsVname\np10723\nVCultivate Inspiration\np10724\nsVtitle\np10725\nVCultivate Inspiration\np10726\nsVcreative_id\np10727\nV6003638786965\np10728\nsVpreview_url\np10729\nVhttp://www.facebook.com/ads/api/creative_preview.php?cid=6003638786965\np10730\nsVid\np10731\nV6003638786965\np10732\nsVimage_url\np10733\nVhttps://fbcdn-creative-a.akamaihd.net/hads-ak-ash3/s110x80/701899_6006844727765_26810_n.jpg\np10734\nsVcount_current_adgroups\np10735\nI0\nsVrun_status\np10736\nI1\nsVtype\np10737\nI1\nsVlink_url\np10738\nVhttp://bzfd.it/qfmp4d\np10739\nsVview_tag\np10740\ng36\nsa(dp10741\nValt_view_tags\np10742\n(lp10743\nsVbody\np10744\nVNot all of us are heroes, but sometimes it\'s just everyday people who surprise us! Check out our list of "10 Simple Ways To Be A Hero".\np10745\nsVimage_hash\np10746\nV94c2f06caf3fdc981c6c0dc9c52c5a60\np10747\nsVname\np10748\nVSimple Ways To Be A Hero\np10749\nsVtitle\np10750\nVSimple Ways To Be A Hero\np10751\nsVcreative_id\np10752\nV6003614340765\np10753\nsVpreview_url\np10754\nVhttp://www.facebook.com/ads/api/creative_preview.php?cid=6003614340765\np10755\nsVid\np10756\nV6003614340765\np10757\nsVi'
p6
sS'hash'
p7
S'98c50fae031082bcefb8333b295e5e1623895049'
p8
sS'stack'
p9
S''
s.