(dp1
S'args'
p2
S''
sS'methodname'
p3
S''
sS'packet_num'
p4
I42
sS'returnval'
p5
S'net/hads-ak-ash3/s110x80/708183_6006844704965_15726_n.jpg\np5173\nsVcount_current_adgroups\np5174\nI1\nsVrun_status\np5175\nI1\nsVtype\np5176\nI1\nsVlink_url\np5177\nVhttp://www.buzzfeed.com/h1/fbad/redstripe/19-reasons-why-work-will-rock-today-6phl\np5178\nsVview_tag\np5179\ng36\nsa(dp5180\nValt_view_tags\np5181\n(lp5182\nsVbody\np5183\nVCheck out BuzzFeed\'s "5 Amazing Secret Hideouts In TV And Movies".  Be on the lookout for these hideouts throughout your daily routine!\np5184\nsVimage_hash\np5185\nVfc92b0b775f6ad4c220184c61db81e25\np5186\nsVname\np5187\nV5 TV And Movie Hideouts!\np5188\nsVtitle\np5189\nV5 TV And Movie Hideouts!\np5190\nsVcreative_id\np5191\nV6003807525765\np5192\nsVpreview_url\np5193\nVhttp://www.facebook.com/ads/api/creative_preview.php?cid=6003807525765\np5194\nsVid\np5195\nV6003807525765\np5196\nsVimage_url\np5197\nVhttps://fbcdn-creative-a.akamaihd.net/hads-ak-prn1/s110x80/708187_6006845584365_12715_n.jpg\np5198\nsVcount_current_adgroups\np5199\nI0\nsVrun_status\np5200\nI1\nsVtype\np5201\nI1\nsVlink_url\np5202\nVhttp://www.buzzfeed.com/ht/thecw/5-amazing-secret-hideouts-in-tv-and-movies/HFBA1\np5203\nsVview_tag\np5204\ng36\nsa(dp5205\nValt_view_tags\np5206\n(lp5207\nsVbody\np5208\nVCheck out BuzzFeed\'s "5 Amazing Secret Hideouts In TV And Movies".  Be on the lookout for these hideouts throughout your daily routine!\np5209\nsVimage_hash\np5210\nV2bf314903091375e3d9fac3255f9efcf\np5211\nsVname\np5212\nV5 TV And Movie Hideouts!-00\np5213\nsVtitle\np5214\nV5 TV And Movie Hideouts!\np5215\nsVcreative_id\np5216\nV6003807528365\np5217\nsVpreview_url\np5218\nVhttp://www.facebook.com/ads/api/creative_preview.php?cid=6003807528365\np5219\nsVid\np5220\nV6003807528365\np5221\nsVimage_url\np5222\nVhttps://fbcdn-creative-a.akamaihd.net/hads-ak-prn1/s110x80/708181_6006844315165_48387_n.jpg\np5223\nsVcount_current_adgroups\np5224\nI0\nsVrun_status\np5225\nI1\nsVtype\np5226\nI1\nsVlink_url\np5227\nVhttp://www.buzzfeed.com/ht/thecw/5-amazing-secret-hideouts-in-tv-and-movies/HFBA1\np5228\nsVview_tag\np5229\ng36\nsa(dp5230\nValt_view_tags\np5231\n(lp5232\nsVbody\np5233\nVCheck out "The Hottest Witches In Hollywood" - these ladies are hot! Remember to "Like" our page for more great stuff.\np5234\nsVimage_hash\np5235\nV6c64436293a3f66057c4f7b6516c2c52\np5236\nsVname\np5237\nVBuzzFeed Partner-21\np5238\nsVtitle\np5239\ng36\nsVcreative_id\np5240\nV6003807476165\np5241\nsVpreview_url\np5242\nVhttp://www.facebook.com/ads/api/creative_preview.php?cid=6003807476165\np5243\nsVobject_id\np5244\nI238205562866018\nsVid\np5245\nV6003807476165\np5246\nsVimage_url\np5247\nVhttps://fbcdn-creative-a.akamaihd.net/hads-ak-snc7/s110x80/701901_6006844709365_3776_n.jpg\np5248\nsVcount_current_adgroups\np5249\nI0\nsVrun_status\np5250\nI1\nsVtype\np5251\nI2\nsVlink_url\np5252\nVhttp://www.facebook.com/BuzzFeedPartner?sk=wall\np5253\nsVview_tag\np5254\ng36\nsa(dp5255\nValt_view_tags\np5256\n(lp5257\nsVbody\np5258\nVCheck out "The Hottest Witches In Hollywood" - these ladies are hot! Remember to "Like" our page for more great stuff.\np5259\nsVimage_hash\np5260\nV289b3b861b061e55f8600581d144d76a\np5261\nsVname\np5262\nVBuzzFeed Partner-22\np5263\nsVtitle\np5264\ng36\nsVcreative_id\np5265\nV6003807483565\np5266\nsVpreview_url\np5267\nVhttp://www.facebook.com/ads/api/creative_preview.php?cid=6003807483565\np5268\nsVobject_id\np5269\nI238205562866018\nsVid\np5270\nV6003807483565\np5271\nsVimage_url\np5272\nVhttps://fbcdn-creative-a.akamaihd.net/hads-ak-prn1/s110x80/708161_6006844300365_38460_n.jpg\np5273\nsVcount_current_adgroups\np5274\nI0\nsVrun_status\np5275\nI1\nsVtype\np5276\nI2\nsVlink_url\np5277\nVhttp://www.facebook.com/BuzzFeedPartner?sk=wall\np5278\nsVview_tag\np5279\ng36\nsa(dp5280\nValt_view_tags\np5281\n(lp5282\nsVbody\np5283\nVCheck out these "20 Awesome Sailor Jerry Tattoos". Have a better one? Let us know!  Remember to "Like" our page for more great stuff.\np5284\nsVimage_hash\np5285\nV5b684605f938bf93261da2cdf95d79a0\np5286\nsVname\np5287\nVBuzzFeed Partner-29\np5288\nsVtitle\np5289\ng36\nsVcreative_id\np5290\nV6003837799765\np5291\nsVpreview_url\np5292\nVhttp://www.facebook.com/ads/api/creative_preview.php?cid=6003837799765\np5293\nsVobject_id\np5294\nI238205562866018\nsVid\np5295\nV6003837799765\np5296\nsVimage_url\np5297\nVhttps://fbcdn-creative-a.akamaihd.net/hads-ak-prn1/s110x80/708187'
p6
sS'hash'
p7
S'98c50fae031082bcefb8333b295e5e1623895049'
p8
sS'stack'
p9
S''
s.