(dp1
S'args'
p2
S''
sS'methodname'
p3
S''
sS'packet_num'
p4
I25
sS'returnval'
p5
S'FBA2\np3210\nsVview_tag\np3211\ng36\nsa(dp3212\nValt_view_tags\np3213\n(lp3214\nsVbody\np3215\nVDwight Arrington Myers a.k.a. "Heavy D" died yesterday. Learn about his life and influence on the music world in this Slate Exclusive!\np3216\nsVimage_hash\np3217\nV4733492e4a48e6130c51582fd7fe07e7\np3218\nsVname\np3219\nVR.I.P. Heavy D-00\np3220\nsVtitle\np3221\nVR.I.P. Heavy D\np3222\nsVcreative_id\np3223\nV6004005459365\np3224\nsVpreview_url\np3225\nVhttp://www.facebook.com/ads/api/creative_preview.php?cid=6004005459365\np3226\nsVid\np3227\nV6004005459365\np3228\nsVimage_url\np3229\nVhttps://fbcdn-creative-a.akamaihd.net/hads-ak-ash3/s110x80/708181_6006844483165_33804_n.jpg\np3230\nsVcount_current_adgroups\np3231\nI0\nsVrun_status\np3232\nI1\nsVtype\np3233\nI1\nsVlink_url\np3234\nVhttp://www.slate.com/blogs/browbeat/2011/11/09/heavy_d_how_he_changed_the_way_we_see_fat_rappers.html#bfsrc=HFBA2\np3235\nsVview_tag\np3236\ng36\nsa(dp3237\nValt_view_tags\np3238\n(lp3239\nsVbody\np3240\nVDragee try\'s his best to make you (and animals) feel good.  Check out "Dragee\'s Daily Affirmations" to get the positive Mentos vibe!\np3241\nsVimage_hash\np3242\nV93573de6252b09fd70031dc78758763d\np3243\nsVname\np3244\nVFeel Good by Mentos!\np3245\nsVtitle\np3246\nVFeel Good by Mentos!\np3247\nsVcreative_id\np3248\nV6004005393165\np3249\nsVpreview_url\np3250\nVhttp://www.facebook.com/ads/api/creative_preview.php?cid=6004005393165\np3251\nsVid\np3252\nV6004005393165\np3253\nsVimage_url\np3254\nVhttps://fbcdn-creative-a.akamaihd.net/hads-ak-ash3/s110x80/708176_6006844928965_45889_n.jpg\np3255\nsVcount_current_adgroups\np3256\nI0\nsVrun_status\np3257\nI1\nsVtype\np3258\nI1\nsVlink_url\np3259\nVhttp://www.buzzfeed.com/h1/fba/mentos/dragees-daily-affirmations\np3260\nsVview_tag\np3261\ng36\nsa(dp3262\nValt_view_tags\np3263\n(lp3264\nsVbody\np3265\nVDragee try\'s his best to make you (and animals) feel good.  Check out "Dragee\'s Daily Affirmations" to get the positive Mentos vibe!\np3266\nsVimage_hash\np3267\nV93573de6252b09fd70031dc78758763d\np3268\nsVname\np3269\nVFeel Good by Mentos! -00\np3270\nsVtitle\np3271\nVFeel Good by Mentos! \np3272\nsVcreative_id\np3273\nV6004005974965\np3274\nsVpreview_url\np3275\nVhttp://www.facebook.com/ads/api/creative_preview.php?cid=6004005974965\np3276\nsVid\np3277\nV6004005974965\np3278\nsVimage_url\np3279\nVhttps://fbcdn-creative-a.akamaihd.net/hads-ak-ash3/s110x80/708176_6006844928965_45889_n.jpg\np3280\nsVcount_current_adgroups\np3281\nI1\nsVrun_status\np3282\nI1\nsVtype\np3283\nI1\nsVlink_url\np3284\nVhttp://www.buzzfeed.com/h1/fba/mentos/dragees-daily-affirmations\np3285\nsVview_tag\np3286\ng36\nsa(dp3287\nVname\np3288\nVAd from a Page post #6005865759765\np3289\nsVauto_update\np3290\nI00\nsVstory_id\np3291\nV366099876797516\np3292\nsVcreative_id\np3293\nV6005865759765\np3294\nsVpreview_url\np3295\nVhttp://www.facebook.com/ads/api/creative_preview.php?cid=6005865759765\np3296\nsVaction_t\np3297\nVBgABAQcIAAZQXF2pCgAJAAB1NNHpZWoKABAAANiljfVJYg0AGgYKAAAADQEKAAAAAAAAAFAAuAABTPdFG9xMALkAAAAAAAAAZAC6AAELgGlROTECIwAAAAAAAAAAAMMAAABZVybCrQG7AAAAAAAAAGoACgAAdTTR6WVqAcoAAUz3RRvcTAEeAAAAAC+O564AAQABTPdFG9xMAbYAAAAAUFxdqQHkAAFM90Ub3EwNABsGCwAAAAFAAwAAAQVodHRwOi8vYnpmZC5pdC9QWnpXNG4gb29vb28gTGV04oCZcyBBc2sgQSBTdXJnZW9uIOKAlCBXaGF04oCZcyBSZWFsbHkgR29pbmcgT24gV2l0aCBNYW1hIEVsc2EgUGF0dG9u4oCYcyBGYWNlPyBvb29vbyBXb3VsZG7igJl0IHlvdSBsaWtlIHRvIGdvIGludG8gdG9uaWdodOKAmXMgUmVhbCBIb3VzZXdpdmVzIG9mIE1pYW1pIGVwaXNvZGUgbWVkaWNhbGx5IGluZm9ybWVkIGFzIHRvIHdoYXQgaXMgZ29pbmcgb24gd2l0aCBFbHNhIFBhdHRvbuKAmXMgZmFjZT8KABwAAUz3RRvcTAA=\np3298\nsVaction_spec\np3299\nNsVobject_id\np3300\nV238205562866018\np3301\nsVcount_current_adgroups\np3302\nI0\nsVrun_status\np3303\nI1\nsVtype\np3304\nI27\nsVid\np3305\nV6005865759765\np3306\nsa(dp3307\nVname\np3308\nVSponsored story #6005865768165\np3309\nsVstory_id\np3310\nV366099876797516\np3311\nsVcreative_id\np3312\nV6005865768165\np3313\nsVpreview_url\np3314\nVhttp://www.facebook.com/ads/api/creative_preview.php?cid=6005865768165\np3315\nsVobject_id\np3316\nV238205562866018\np3317\nsVaction_spec\np3318\n(dp3319\nVpost\np3320\nV366099876797516\np3321\nsVaction.type\np3322\nVlike\np3323\nssVcluster_id\np3324\nI6005865766965\nsVcount_current_adgroups\np3325\nI0\nsVrun_status\np3326\nI1\nsVtype\np3327\nI25\nsVid\np3328\nV6005865768165\np3329\nsa(dp3330\nValt_'
p6
sS'hash'
p7
S'98c50fae031082bcefb8333b295e5e1623895049'
p8
sS'stack'
p9
S''
s.