(dp1
S'args'
p2
S''
sS'methodname'
p3
S''
sS'packet_num'
p4
I9
sS'returnval'
p5
S'7_n.jpg\np1205\nsVcount_current_adgroups\np1206\nI0\nsVrun_status\np1207\nI1\nsVtype\np1208\nI1\nsVlink_url\np1209\nVhttp://www.buzzfeed.com/h1/FBAD/microsofthotmail/where-does-your-graymail-come-from\np1210\nsVview_tag\np1211\ng36\nsa(dp1212\nValt_view_tags\np1213\n(lp1214\nsVbody\np1215\nVYup - Us too!  See how BuzzFeeders tracked their emails and made them face off.\np1216\nsVimage_hash\np1217\nVe2416ad558c00c71fa4816c0552f4352\np1218\nsVname\np1219\nVTon of Email Alerts?-00\np1220\nsVtitle\np1221\nVTon of Email Alerts?\np1222\nsVcreative_id\np1223\nV6004800102565\np1224\nsVpreview_url\np1225\nVhttp://www.facebook.com/ads/api/creative_preview.php?cid=6004800102565\np1226\nsVid\np1227\nV6004800102565\np1228\nsVimage_url\np1229\nVhttps://fbcdn-creative-a.akamaihd.net/hads-ak-prn1/s110x80/708157_6006845412965_40982_n.jpg\np1230\nsVcount_current_adgroups\np1231\nI0\nsVrun_status\np1232\nI1\nsVtype\np1233\nI1\nsVlink_url\np1234\nVhttp://www.buzzfeed.com/h1/FBAD/microsofthotmail/where-does-your-graymail-come-from\np1235\nsVview_tag\np1236\ng36\nsa(dp1237\nValt_view_tags\np1238\n(lp1239\nsVbody\np1240\nVNick Swardson tells his craziest house party story. Check out the video clip on BuzzFeed!\np1241\nsVimage_hash\np1242\nV9d86facfcd5bcbfcc3af67b685470b98\np1243\nsVname\np1244\nVCrazy House Party!\np1245\nsVtitle\np1246\nVCrazy House Party!\np1247\nsVcreative_id\np1248\nV6004750800565\np1249\nsVpreview_url\np1250\nVhttp://www.facebook.com/ads/api/creative_preview.php?cid=6004750800565\np1251\nsVid\np1252\nV6004750800565\np1253\nsVimage_url\np1254\nVhttps://fbcdn-creative-a.akamaihd.net/hads-ak-prn1/s110x80/708195_6006844990165_52965_n.jpg\np1255\nsVcount_current_adgroups\np1256\nI0\nsVrun_status\np1257\nI1\nsVtype\np1258\nI1\nsVlink_url\np1259\nVhttp://www.buzzfeed.com/h1/FBAD/projectx/when-tyler-the-creator-almost-got-macheted\np1260\nsVview_tag\np1261\ng36\nsa(dp1262\nValt_view_tags\np1263\n(lp1264\nsVbody\np1265\nVGoldie Hawn & Kurt Russell made BuzzFeed\'s list of "10 Power Couples That Still Got It". Did your favorite couple make it?\np1266\nsVimage_hash\np1267\nV472e121a21ca8b3203107d0e039ec930\np1268\nsVname\np1269\nV10 Power Couples! -00\np1270\nsVtitle\np1271\nV10 Power Couples! \np1272\nsVcreative_id\np1273\nV6004735500565\np1274\nsVpreview_url\np1275\nVhttp://www.facebook.com/ads/api/creative_preview.php?cid=6004735500565\np1276\nsVid\np1277\nV6004735500565\np1278\nsVimage_url\np1279\nVhttps://fbcdn-creative-a.akamaihd.net/hads-ak-prn1/s110x80/701889_6006844479365_37317_n.jpg\np1280\nsVcount_current_adgroups\np1281\nI0\nsVrun_status\np1282\nI1\nsVtype\np1283\nI1\nsVlink_url\np1284\nVhttp://www.buzzfeed.com/h1/FBAD/kydatenight/10-power-couples-that-still-got-it\np1285\nsVview_tag\np1286\ng36\nsa(dp1287\nValt_view_tags\np1288\n(lp1289\nsVbody\np1290\nVChris Farley and David Spade made BuzzFeed\'s list of "10 Funny Comedic Duos Throughout History". See the rest!\np1291\nsVimage_hash\np1292\nVdb0aed8fae411643d2f6feceff9e690a\np1293\nsVname\np1294\nV10 Funny Comedic Duos\np1295\nsVtitle\np1296\nV10 Funny Comedic Duos\np1297\nsVcreative_id\np1298\nV6004709146165\np1299\nsVpreview_url\np1300\nVhttp://www.facebook.com/ads/api/creative_preview.php?cid=6004709146165\np1301\nsVid\np1302\nV6004709146165\np1303\nsVimage_url\np1304\nVhttps://fbcdn-creative-a.akamaihd.net/hads-ak-ash3/s110x80/701906_6006845361165_25362_n.jpg\np1305\nsVcount_current_adgroups\np1306\nI0\nsVrun_status\np1307\nI1\nsVtype\np1308\nI1\nsVlink_url\np1309\nVhttp://www.buzzfeed.com/h1/FBA/keyandpeele/10-funny-comedic-duos-throughout-history\np1310\nsVview_tag\np1311\ng36\nsa(dp1312\nValt_view_tags\np1313\n(lp1314\nsVbody\np1315\nVKenan & Kel made BuzzFeed\'s list of "10 Funny Comedic Duos Throughout History". See the rest!\np1316\nsVimage_hash\np1317\nV223f9e7592dbd0998ba2fadd84ac6d3e\np1318\nsVname\np1319\nV10 Funny Comedic Duos-00\np1320\nsVtitle\np1321\nV10 Funny Comedic Duos\np1322\nsVcreative_id\np1323\nV6004709148165\np1324\nsVpreview_url\np1325\nVhttp://www.facebook.com/ads/api/creative_preview.php?cid=6004709148165\np1326\nsVid\np1327\nV6004709148165\np1328\nsVimage_url\np1329\nVhttps://fbcdn-creative-a.akamaihd.net/hads-ak-prn1/s110x80/708180_6006844265765_3853_n.jpg\np1330\nsVcount_current_adgroups\np1331\nI0\nsVrun_status\np1332\nI1\nsVtype\np1333\nI1\nsVlink_url\np1334\nVhttp://www.buzzfeed.com/h1/FBA/keyandpeele/10'
p6
sS'hash'
p7
S'98c50fae031082bcefb8333b295e5e1623895049'
p8
sS'stack'
p9
S''
s.