(dp1
S'args'
p2
S''
sS'methodname'
p3
S''
sS'packet_num'
p4
I45
sS'returnval'
p5
S'api/creative_preview.php?cid=6003795580365\np5544\nsVid\np5545\nV6003795580365\np5546\nsVimage_url\np5547\nVhttps://fbcdn-creative-a.akamaihd.net/hads-ak-prn1/s110x80/708174_6006844467565_38220_n.jpg\np5548\nsVcount_current_adgroups\np5549\nI0\nsVrun_status\np5550\nI1\nsVtype\np5551\nI1\nsVlink_url\np5552\nVhttp://www.buzzfeed.com/ht/abcmodernfamily/claire-dunphys-top-5-moments-on-modern-family/HFBA1?utm_source=Facebook&utm_medium=Seed&utm_campaign=Modern_Family&utm_content=Claire_Dunphy\np5553\nsVview_tag\np5554\ng36\nsa(dp5555\nValt_view_tags\np5556\n(lp5557\nsVbody\np5558\nVCome check out "Claire Dunphy\'s Top 5 Moments on Modern Family" a\\u000aBuzzFeed Exclisive on Claire\'s most memorable rants!\np5559\nsVimage_hash\np5560\nV44c76add5431877cc5b37efd460f6d9e\np5561\nsVname\np5562\nVClaire on Modern Family!-00\np5563\nsVtitle\np5564\nVClaire on Modern Family!\np5565\nsVcreative_id\np5566\nV6003796153965\np5567\nsVpreview_url\np5568\nVhttp://www.facebook.com/ads/api/creative_preview.php?cid=6003796153965\np5569\nsVid\np5570\nV6003796153965\np5571\nsVimage_url\np5572\nVhttps://fbcdn-creative-a.akamaihd.net/hads-ak-prn1/s110x80/708174_6006844467565_38220_n.jpg\np5573\nsVcount_current_adgroups\np5574\nI0\nsVrun_status\np5575\nI1\nsVtype\np5576\nI1\nsVlink_url\np5577\nVhttp://www.buzzfeed.com/ht/abcmodernfamily/claire-dunphys-top-5-moments-on-modern-family/HFBA1?utm_source=Facebook&utm_medium=Seed&utm_campaign=Modern_Family&utm_content=Claire_Dunphy\np5578\nsVview_tag\np5579\ng36\nsa(dp5580\nValt_view_tags\np5581\n(lp5582\nsVbody\np5583\nVWhat would a baby godfather equivalent say? Check out these 12 examples exclusively @ BuzzFeed! I would NOT mess with this kid!\np5584\nsVimage_hash\np5585\nV34aafd9560c6029dfe4e291a78f0279f\np5586\nsVname\np5587\nVBaby Godfather Examples!\np5588\nsVtitle\np5589\nVBaby Godfather Examples!\np5590\nsVcreative_id\np5591\nV6003792381565\np5592\nsVpreview_url\np5593\nVhttp://www.facebook.com/ads/api/creative_preview.php?cid=6003792381565\np5594\nsVid\np5595\nV6003792381565\np5596\nsVimage_url\np5597\nVhttps://fbcdn-creative-a.akamaihd.net/hads-ak-prn1/s110x80/708161_6006844359165_14212_n.jpg\np5598\nsVcount_current_adgroups\np5599\nI0\nsVrun_status\np5600\nI1\nsVtype\np5601\nI1\nsVlink_url\np5602\nVhttp://www.buzzfeed.com/h1/fbk/jpmoore/meme-alert-12-examples-of-baby-godfather\np5603\nsVview_tag\np5604\ng36\nsa(dp5605\nValt_view_tags\np5606\n(lp5607\nsVbody\np5608\nVCheck out BuzzFeed\'s collection of 40 powerful images taken at the 9/11 Memorial. We will never forget!\np5609\nsVimage_hash\np5610\nVae22d58b9a63bed26a6217969c6819e6\np5611\nsVname\np5612\nV9/11 Memorial Images\np5613\nsVtitle\np5614\nV9/11 Memorial Images\np5615\nsVcreative_id\np5616\nV6003792376965\np5617\nsVpreview_url\np5618\nVhttp://www.facebook.com/ads/api/creative_preview.php?cid=6003792376965\np5619\nsVid\np5620\nV6003792376965\np5621\nsVimage_url\np5622\nVhttps://fbcdn-creative-a.akamaihd.net/hads-ak-prn1/s110x80/708196_6006845097565_53500_n.jpg\np5623\nsVcount_current_adgroups\np5624\nI0\nsVrun_status\np5625\nI1\nsVtype\np5626\nI1\nsVlink_url\np5627\nVhttp://www.buzzfeed.com/h1/fbk/mjs538/powerful-images-from-the-911-memorial\np5628\nsVview_tag\np5629\ng36\nsa(dp5630\nValt_view_tags\np5631\n(lp5632\nsVbody\np5633\nVCheck Out BuzzFeed\'s Top 25 ridiculous and Un-American reactions to the 9/11 Anniversary.  Its amazing how stupid people can be!\np5634\nsVimage_hash\np5635\nV4579599832c3f4df6af4ad75ad438200\np5636\nsVname\np5637\nV9/11 Ridiculous Reactions\np5638\nsVtitle\np5639\nV9/11 Ridiculous Reactions\np5640\nsVcreative_id\np5641\nV6003792111365\np5642\nsVpreview_url\np5643\nVhttp://www.facebook.com/ads/api/creative_preview.php?cid=6003792111365\np5644\nsVid\np5645\nV6003792111365\np5646\nsVimage_url\np5647\nVhttps://fbcdn-creative-a.akamaihd.net/hads-ak-prn1/s110x80/701889_6006844474565_36108_n.jpg\np5648\nsVcount_current_adgroups\np5649\nI0\nsVrun_status\np5650\nI1\nsVtype\np5651\nI1\nsVlink_url\np5652\nVhttp://www.buzzfeed.com/ht/mjs538/the-25-most-un-american-reactions-to-the-911-anni/HFBA1\np5653\nsVview_tag\np5654\ng36\nsa(dp5655\nValt_view_tags\np5656\n(lp5657\nsVbody\np5658\nVCheck out BuzzFeed\'s "Top 5 Reason Why Being The New Girl Sucks" & See why your favorite \'new girl\' has an extremely rough time!\np5659\nsVimage_hash\np5660\nV591493efe0f9691bd0bcd'
p6
sS'hash'
p7
S'98c50fae031082bcefb8333b295e5e1623895049'
p8
sS'stack'
p9
S''
s.