(dp1
S'args'
p2
S''
sS'methodname'
p3
S''
sS'packet_num'
p4
I46
sS'returnval'
p5
S'2c30ee29c64\np5661\nsVname\np5662\nVBeing The New Girl Sucks!\np5663\nsVtitle\np5664\nVBeing The New Girl Sucks!\np5665\nsVcreative_id\np5666\nV6003792047965\np5667\nsVpreview_url\np5668\nVhttp://www.facebook.com/ads/api/creative_preview.php?cid=6003792047965\np5669\nsVid\np5670\nV6003792047965\np5671\nsVimage_url\np5672\nVhttps://fbcdn-creative-a.akamaihd.net/hads-ak-prn1/s110x80/708167_6006844602165_249_n.jpg\np5673\nsVcount_current_adgroups\np5674\nI0\nsVrun_status\np5675\nI1\nsVtype\np5676\nI1\nsVlink_url\np5677\nVhttp://www.buzzfeed.com/ht/thecw/5-reasons-why-being-the-new-girl-sucks/HFBA1\np5678\nsVview_tag\np5679\ng36\nsa(dp5680\nValt_view_tags\np5681\n(lp5682\nsVbody\np5683\nVCheck out BuzzFeed\'s "Top 5 Reason Why Being The New Girl Sucks" & See why your favorite \'new girl\' has an extremely rough time!\np5684\nsVimage_hash\np5685\nVa356cbc4aca2e4fd242ec04783707cfd\np5686\nsVname\np5687\nVBeing The New Girl Sucks!-00\np5688\nsVtitle\np5689\nVBeing The New Girl Sucks!\np5690\nsVcreative_id\np5691\nV6003792058965\np5692\nsVpreview_url\np5693\nVhttp://www.facebook.com/ads/api/creative_preview.php?cid=6003792058965\np5694\nsVid\np5695\nV6003792058965\np5696\nsVimage_url\np5697\nVhttps://fbcdn-creative-a.akamaihd.net/hads-ak-prn1/s110x80/708199_6006845032365_50356_n.jpg\np5698\nsVcount_current_adgroups\np5699\nI0\nsVrun_status\np5700\nI1\nsVtype\np5701\nI1\nsVlink_url\np5702\nVhttp://www.buzzfeed.com/ht/thecw/5-reasons-why-being-the-new-girl-sucks/HFBA1\np5703\nsVview_tag\np5704\ng36\nsa(dp5705\nValt_view_tags\np5706\n(lp5707\nsVbody\np5708\nVCheck out BuzzFeed\'s "Top 5 Reason Why Being The New Girl Sucks" & See why your favorite \'new girl\' has an extremely rough time!\np5709\nsVimage_hash\np5710\nVc5437acaaaa71e864dd55e9c8816535d\np5711\nsVname\np5712\nVBeing The New Girl Sucks!-01\np5713\nsVtitle\np5714\nVBeing The New Girl Sucks!\np5715\nsVcreative_id\np5716\nV6003792064165\np5717\nsVpreview_url\np5718\nVhttp://www.facebook.com/ads/api/creative_preview.php?cid=6003792064165\np5719\nsVid\np5720\nV6003792064165\np5721\nsVimage_url\np5722\nVhttps://fbcdn-creative-a.akamaihd.net/hads-ak-ash3/s110x80/701897_6006845235565_23623_n.jpg\np5723\nsVcount_current_adgroups\np5724\nI0\nsVrun_status\np5725\nI1\nsVtype\np5726\nI1\nsVlink_url\np5727\nVhttp://www.buzzfeed.com/ht/thecw/5-reasons-why-being-the-new-girl-sucks/HFBA1\np5728\nsVview_tag\np5729\ng36\nsa(dp5730\nValt_view_tags\np5731\n(lp5732\nsVbody\np5733\nVWant a good laugh? Come check out "The Best Lines From It\\u2019s Always Sunny in Philadelphia" brought to you by FX Networks and BuzzFeed.\np5734\nsVimage_hash\np5735\nV5217e92fdadd59f9ced6ae11d1c77874\np5736\nsVname\np5737\nVBuzzFeed Exclusive-01\np5738\nsVtitle\np5739\nVBuzzFeed Exclusive\np5740\nsVcreative_id\np5741\nV6003791782565\np5742\nsVpreview_url\np5743\nVhttp://www.facebook.com/ads/api/creative_preview.php?cid=6003791782565\np5744\nsVid\np5745\nV6003791782565\np5746\nsVimage_url\np5747\nVhttps://fbcdn-creative-a.akamaihd.net/hads-ak-ash3/s110x80/701899_6006844567165_55243_n.jpg\np5748\nsVcount_current_adgroups\np5749\nI0\nsVrun_status\np5750\nI1\nsVtype\np5751\nI1\nsVlink_url\np5752\nVhttp://www.buzzfeed.com/ht/fxnetwork/the-best-lines-from-its-always-sunny/HFBA1\np5753\nsVview_tag\np5754\ng36\nsa(dp5755\nValt_view_tags\np5756\n(lp5757\nsVbody\np5758\nVCheck out BuzzFeed\'s "TV Show Explanations On Why Teenage Life Is So Hard" & See why your favorite TV show character\'s life sucks.\np5759\nsVimage_hash\np5760\nV2001ccc946062298ee8b333c66a39ddf\np5761\nsVname\np5762\nVWhy Teenage Life is Hard\np5763\nsVtitle\np5764\nVWhy Teenage Life is Hard\np5765\nsVcreative_id\np5766\nV6003789596765\np5767\nsVpreview_url\np5768\nVhttp://www.facebook.com/ads/api/creative_preview.php?cid=6003789596765\np5769\nsVid\np5770\nV6003789596765\np5771\nsVimage_url\np5772\nVhttps://fbcdn-creative-a.akamaihd.net/hads-ak-ash3/s110x80/708205_6006844247965_3209_n.jpg\np5773\nsVcount_current_adgroups\np5774\nI0\nsVrun_status\np5775\nI1\nsVtype\np5776\nI1\nsVlink_url\np5777\nVhttp://www.buzzfeed.com/ht/thecw/tv-show-explanations-on-why-teenage-life-is-so-har/HFBA1\np5778\nsVview_tag\np5779\ng36\nsa(dp5780\nValt_view_tags\np5781\n(lp5782\nsVbody\np5783\nVCheck out BuzzFeed\'s "TV Show Explanations On Why Teenage Life Is So Hard" & See why your favorite TV show character\'s life sucks.\np5784\nsVim'
p6
sS'hash'
p7
S'98c50fae031082bcefb8333b295e5e1623895049'
p8
sS'stack'
p9
S''
s.