(dp1
S'args'
p2
S''
sS'methodname'
p3
S''
sS'packet_num'
p4
I35
sS'returnval'
p5
S'4299\nI0\nsVrun_status\np4300\nI1\nsVtype\np4301\nI1\nsVlink_url\np4302\nVhttp://t.cpmadvisors.com/click?cr=7476&bl=1000001319&sl=4726&se=1&pu=151032&v=214748360&ci=blank&so=facebook&prc=1.00&verbdir=http://www.buzzfeed.com/ht/sailorjerryrum/10-drinks-named-after-famous-people/HFB1510321\np4303\nsVview_tag\np4304\ng36\nsa(dp4305\nValt_view_tags\np4306\n(lp4307\nsVbody\np4308\nVSchick Xtreme3 and BuzzFeed have partnered up for a fun contest. Submit your best Razorbombing pic for a chance to win $10,000!\np4309\nsVimage_hash\np4310\nVcdbfabb6f9acc8c1a356763cf1e74a5e\np4311\nsVname\np4312\nVShave The World, Win $10K\np4313\nsVtitle\np4314\nVShave The World, Win $10K\np4315\nsVcreative_id\np4316\nV6003833556365\np4317\nsVpreview_url\np4318\nVhttp://www.facebook.com/ads/api/creative_preview.php?cid=6003833556365\np4319\nsVid\np4320\nV6003833556365\np4321\nsVimage_url\np4322\nVhttps://fbcdn-creative-a.akamaihd.net/hads-ak-prn1/s110x80/701894_6006845282765_59870_n.jpg\np4323\nsVcount_current_adgroups\np4324\nI0\nsVrun_status\np4325\nI1\nsVtype\np4326\nI1\nsVlink_url\np4327\nVhttp://www.buzzfeed.com/contests/shavetheworld?utm_source=facebook&utm_medium=burst&utm_campaign=schick\np4328\nsVview_tag\np4329\ng36\nsa(dp4330\nValt_view_tags\np4331\n(lp4332\nsVbody\np4333\nVSchick Xtreme3 and BuzzFeed have partnered up for a fun contest. Submit your best Razorbombing pic for a chance to win $10,000!\np4334\nsVimage_hash\np4335\nV7d15b51f92720fcb511a90fe683e9c47\np4336\nsVname\np4337\nVShave The World, Win $10K-00\np4338\nsVtitle\np4339\nVShave The World, Win $10K\np4340\nsVcreative_id\np4341\nV6003833606165\np4342\nsVpreview_url\np4343\nVhttp://www.facebook.com/ads/api/creative_preview.php?cid=6003833606165\np4344\nsVid\np4345\nV6003833606165\np4346\nsVimage_url\np4347\nVhttps://fbcdn-creative-a.akamaihd.net/hads-ak-ash3/s110x80/708182_6006844799165_30229_n.jpg\np4348\nsVcount_current_adgroups\np4349\nI0\nsVrun_status\np4350\nI1\nsVtype\np4351\nI1\nsVlink_url\np4352\nVhttp://www.buzzfeed.com/contests/shavetheworld?utm_source=facebook&utm_medium=burst&utm_campaign=schick\np4353\nsVview_tag\np4354\ng36\nsa(dp4355\nValt_view_tags\np4356\n(lp4357\nsVbody\np4358\nVSchick Xtreme3 and BuzzFeed have partnered up for a fun contest. Submit your best Razorbombing pic for a chance to win $10,000!\np4359\nsVimage_hash\np4360\nV4faed831aa94fe34d68e11d2ff65929e\np4361\nsVname\np4362\nVShave The World, Win $10K-01\np4363\nsVtitle\np4364\nVShave The World, Win $10K\np4365\nsVcreative_id\np4366\nV6003833607965\np4367\nsVpreview_url\np4368\nVhttp://www.facebook.com/ads/api/creative_preview.php?cid=6003833607965\np4369\nsVid\np4370\nV6003833607965\np4371\nsVimage_url\np4372\nVhttps://fbcdn-creative-a.akamaihd.net/hads-ak-prn1/s110x80/708192_6006844548365_57191_n.jpg\np4373\nsVcount_current_adgroups\np4374\nI0\nsVrun_status\np4375\nI1\nsVtype\np4376\nI1\nsVlink_url\np4377\nVhttp://www.buzzfeed.com/contests/shavetheworld?utm_source=facebook&utm_medium=burst&utm_campaign=schick\np4378\nsVview_tag\np4379\ng36\nsa(dp4380\nValt_view_tags\np4381\n(lp4382\nsVbody\np4383\nVCalling all photography & art students, do you have a good eye? Submit your best "Razorbombing" pic for a chance to win $10K!\np4384\nsVimage_hash\np4385\nV7d15b51f92720fcb511a90fe683e9c47\np4386\nsVname\np4387\nVPhoto Majors - Win $10K!\np4388\nsVtitle\np4389\nVPhoto Majors - Win $10K!\np4390\nsVcreative_id\np4391\nV6003833838565\np4392\nsVpreview_url\np4393\nVhttp://www.facebook.com/ads/api/creative_preview.php?cid=6003833838565\np4394\nsVid\np4395\nV6003833838565\np4396\nsVimage_url\np4397\nVhttps://fbcdn-creative-a.akamaihd.net/hads-ak-ash3/s110x80/708182_6006844799165_30229_n.jpg\np4398\nsVcount_current_adgroups\np4399\nI0\nsVrun_status\np4400\nI1\nsVtype\np4401\nI1\nsVlink_url\np4402\nVhttp://www.buzzfeed.com/contests/shavetheworld?utm_source=facebook&utm_medium=burst&utm_campaign=schick\np4403\nsVview_tag\np4404\ng36\nsa(dp4405\nValt_view_tags\np4406\n(lp4407\nsVbody\np4408\nVCalling all photography & art students, how creative can you get with "Razorbombing" ? Submit your best pics for a chance to win $10K!\np4409\nsVimage_hash\np4410\nV7d15b51f92720fcb511a90fe683e9c47\np4411\nsVname\np4412\nVCreativity Wins $10K!\np4413\nsVtitle\np4414\nVCreativity Wins $10K!\np4415\nsVcreative_id\np4416\nV6003833840565\np4417\nsVpreview_url\np44'
p6
sS'hash'
p7
S'98c50fae031082bcefb8333b295e5e1623895049'
p8
sS'stack'
p9
S''
s.