(dp1
S'args'
p2
S''
sS'methodname'
p3
S''
sS'packet_num'
p4
I6
sS'returnval'
p5
S'ot.\np816\nsVimage_hash\np817\nV9daefd4f72f92d580c8679a1d3511985\np818\nsVname\np819\nVYoung & Broke In NYC\np820\nsVtitle\np821\nVYoung & Broke In NYC\np822\nsVcreative_id\np823\nV6004945295565\np824\nsVpreview_url\np825\nVhttp://www.facebook.com/ads/api/creative_preview.php?cid=6004945295565\np826\nsVid\np827\nV6004945295565\np828\nsVimage_url\np829\nVhttps://fbcdn-creative-a.akamaihd.net/hads-ak-ash3/s110x80/701899_6006844994565_967_n.jpg\np830\nsVcount_current_adgroups\np831\nI0\nsVrun_status\np832\nI1\nsVtype\np833\nI1\nsVlink_url\np834\nVhttp://www.buzzfeed.com/donttrusttheb/a-young-broke-persons-guide-to-nyc-infographic-5h77\np835\nsVview_tag\np836\ng36\nsa(dp837\nValt_view_tags\np838\n(lp839\nsVbody\np840\nVMoving to NYC promises a life of luxury and decadence, right?  Check out BuzzFeed\'s take on the world\'s most glamorous city.\np841\nsVimage_hash\np842\nVbb977a7fb67b1501363ab4336c24fce3\np843\nsVname\np844\nVLife In New York City\np845\nsVtitle\np846\nVLife In New York City\np847\nsVcreative_id\np848\nV6004945284765\np849\nsVpreview_url\np850\nVhttp://www.facebook.com/ads/api/creative_preview.php?cid=6004945284765\np851\nsVid\np852\nV6004945284765\np853\nsVimage_url\np854\nVhttps://fbcdn-creative-a.akamaihd.net/hads-ak-prn1/s110x80/708201_6006845176965_41307_n.jpg\np855\nsVcount_current_adgroups\np856\nI0\nsVrun_status\np857\nI1\nsVtype\np858\nI1\nsVlink_url\np859\nVhttp://www.buzzfeed.com/donttrusttheb/moving-to-nyc-expectations-vs-reality-5h77\np860\nsVview_tag\np861\ng36\nsa(dp862\nValt_view_tags\np863\n(lp864\nsVbody\np865\nVIt\'s one of the "13 Internet Terms You Probably Didn\\u2019t Know Existed". Check them all out on BuzzFeed!\np866\nsVimage_hash\np867\nVd4398fd3e99d5fa6622d33096bef8ef2\np868\nsVname\np869\nVHeard of ThreadJacking?\np870\nsVtitle\np871\nVHeard of ThreadJacking?\np872\nsVcreative_id\np873\nV6004863269365\np874\nsVpreview_url\np875\nVhttp://www.facebook.com/ads/api/creative_preview.php?cid=6004863269365\np876\nsVid\np877\nV6004863269365\np878\nsVimage_url\np879\nVhttps://fbcdn-creative-a.akamaihd.net/hads-ak-ash3/s110x80/708189_6006845318765_12886_n.jpg\np880\nsVcount_current_adgroups\np881\nI0\nsVrun_status\np882\nI1\nsVtype\np883\nI1\nsVlink_url\np884\nVhttp://www.buzzfeed.com/h1/FBAD/microsofthotmail/13-internet-terms-you-probably-didnt-know-exist-4iv0\np885\nsVview_tag\np886\ng36\nsa(dp887\nValt_view_tags\np888\n(lp889\nsVbody\np890\nVIt\'s one of the "13 Internet Terms You Probably Didn\\u2019t Know Existed". Check them all out on BuzzFeed!\np891\nsVimage_hash\np892\nVa5545fdea858fc22cdc7a3890eaf33e5\np893\nsVname\np894\nVHeard of ThreadJacking?-00\np895\nsVtitle\np896\nVHeard of ThreadJacking?\np897\nsVcreative_id\np898\nV6004863271565\np899\nsVpreview_url\np900\nVhttp://www.facebook.com/ads/api/creative_preview.php?cid=6004863271565\np901\nsVid\np902\nV6004863271565\np903\nsVimage_url\np904\nVhttps://fbcdn-creative-a.akamaihd.net/hads-ak-snc7/s110x80/701888_6006845043365_40299_n.jpg\np905\nsVcount_current_adgroups\np906\nI0\nsVrun_status\np907\nI1\nsVtype\np908\nI1\nsVlink_url\np909\nVhttp://www.buzzfeed.com/h1/FBAD/microsofthotmail/13-internet-terms-you-probably-didnt-know-exist-4iv0\np910\nsVview_tag\np911\ng36\nsa(dp912\nValt_view_tags\np913\n(lp914\nsVbody\np915\nVIf email subject lines were people - What would they look like? We put together a pretty good list. Check it out on BuzzFeed!\\u000a\np916\nsVimage_hash\np917\nV8c5af1a63db5fc4d6570f75297d6959b\np918\nsVname\np919\nVDid You Ever Wonder?\np920\nsVtitle\np921\nVDid You Ever Wonder?\np922\nsVcreative_id\np923\nV6004847452765\np924\nsVpreview_url\np925\nVhttp://www.facebook.com/ads/api/creative_preview.php?cid=6004847452765\np926\nsVid\np927\nV6004847452765\np928\nsVimage_url\np929\nVhttps://fbcdn-creative-a.akamaihd.net/hads-ak-prn1/s110x80/708171_6006844889365_49719_n.jpg\np930\nsVcount_current_adgroups\np931\nI0\nsVrun_status\np932\nI1\nsVtype\np933\nI1\nsVlink_url\np934\nVhttp://www.buzzfeed.com/h1/FBAD/microsofthotmail/if-graymail-subject-lines-were-people\np935\nsVview_tag\np936\ng36\nsa(dp937\nValt_view_tags\np938\n(lp939\nsVbody\np940\nVIf email subject lines were people - What would they look like? We put together a pretty good list. Check it out on BuzzFeed!\\u000a\np941\nsVimage_hash\np942\nV555a21472a5a805d8d58d8f4a5f17dd2\np943\nsVname\np944\nVDid You Ever Wonder?-00\np945\nsVt'
p6
sS'hash'
p7
S'98c50fae031082bcefb8333b295e5e1623895049'
p8
sS'stack'
p9
S''
s.