(dp1
S'args'
p2
S''
sS'methodname'
p3
S''
sS'packet_num'
p4
I31
sS'returnval'
p5
S'75\nI1\nsVtype\np3876\nI1\nsVlink_url\np3877\nVhttp://t.cpmadvisors.com/click?cr=7476&bl=1000001319&sl=4726&se=1&pu=151056&v=214748360&ci=blank&so=facebook&prc=1.00&verbdir=http://www.buzzfeed.com/ht/sailorjerryrum/10-drinks-named-after-famous-people/HFB1510561\np3878\nsVview_tag\np3879\ng36\nsa(dp3880\nValt_view_tags\np3881\n(lp3882\nsVbody\np3883\nVCheck out this list of star inspired cocktails brought to you by BuzzFeed. \\u000a Along with Sailor Jerry, check out these popular drinks!\np3884\nsVimage_hash\np3885\nV9db6f80b0c5e67b3324f69fc0e242b7c\np3886\nsVname\np3887\nV10 Star Inspired Drinks!-04\np3888\nsVtitle\np3889\nV10 Star Inspired Drinks!\np3890\nsVcreative_id\np3891\nV6003853206565\np3892\nsVpreview_url\np3893\nVhttp://www.facebook.com/ads/api/creative_preview.php?cid=6003853206565\np3894\nsVid\np3895\nV6003853206565\np3896\nsVimage_url\np3897\nVhttps://fbcdn-creative-a.akamaihd.net/hads-ak-snc7/s110x80/701899_6006844994965_51633_n.jpg\np3898\nsVcount_current_adgroups\np3899\nI0\nsVrun_status\np3900\nI1\nsVtype\np3901\nI1\nsVlink_url\np3902\nVhttp://t.cpmadvisors.com/click?cr=7474&bl=1000001319&sl=4726&se=1&pu=151040&v=214748360&ci=blank&so=facebook&prc=1.00&verbdir=http://www.buzzfeed.com/ht/sailorjerryrum/10-drinks-named-after-famous-people/HFB1510401\np3903\nsVview_tag\np3904\ng36\nsa(dp3905\nValt_view_tags\np3906\n(lp3907\nsVbody\np3908\nVCheck out this list of star inspired cocktails brought to you by BuzzFeed. \\u000a Along with Sailor Jerry, check out these popular drinks!\np3909\nsVimage_hash\np3910\nV6ab1076196f0fdac183588e3ac830e6a\np3911\nsVname\np3912\nVBuzzFeed Exclusive-09\np3913\nsVtitle\np3914\nVBuzzFeed Exclusive\np3915\nsVcreative_id\np3916\nV6003853206965\np3917\nsVpreview_url\np3918\nVhttp://www.facebook.com/ads/api/creative_preview.php?cid=6003853206965\np3919\nsVid\np3920\nV6003853206965\np3921\nsVimage_url\np3922\nVhttps://fbcdn-creative-a.akamaihd.net/hads-ak-prn1/s110x80/708195_6006844694965_4658_n.jpg\np3923\nsVcount_current_adgroups\np3924\nI0\nsVrun_status\np3925\nI1\nsVtype\np3926\nI1\nsVlink_url\np3927\nVhttp://t.cpmadvisors.com/click?cr=7475&bl=1000001319&sl=4726&se=1&pu=151050&v=214748360&ci=blank&so=facebook&prc=1.00&verbdir=http://www.buzzfeed.com/ht/sailorjerryrum/10-drinks-named-after-famous-people/HFB1510501\np3928\nsVview_tag\np3929\ng36\nsa(dp3930\nValt_view_tags\np3931\n(lp3932\nsVbody\np3933\nVCheck out this list of star inspired cocktails brought to you by BuzzFeed. \\u000a Along with Sailor Jerry, check out these popular drinks!\np3934\nsVimage_hash\np3935\nV745f56f8dd02e0dbb99dc5ebe7a8042a\np3936\nsVname\np3937\nVDrinks From Famous People-07\np3938\nsVtitle\np3939\nVDrinks From Famous People\np3940\nsVcreative_id\np3941\nV6003853208365\np3942\nsVpreview_url\np3943\nVhttp://www.facebook.com/ads/api/creative_preview.php?cid=6003853208365\np3944\nsVid\np3945\nV6003853208365\np3946\nsVimage_url\np3947\nVhttps://fbcdn-creative-a.akamaihd.net/hads-ak-ash3/s110x80/701898_6006844752965_36688_n.jpg\np3948\nsVcount_current_adgroups\np3949\nI0\nsVrun_status\np3950\nI1\nsVtype\np3951\nI1\nsVlink_url\np3952\nVhttp://t.cpmadvisors.com/click?cr=7476&bl=1000001319&sl=4726&se=1&pu=151034&v=214748360&ci=blank&so=facebook&prc=1.00&verbdir=http://www.buzzfeed.com/ht/sailorjerryrum/10-drinks-named-after-famous-people/HFB1510341\np3953\nsVview_tag\np3954\ng36\nsa(dp3955\nValt_view_tags\np3956\n(lp3957\nsVbody\np3958\nVCheck out "10 Drinks Named After Famous People" - a BuzzFeed Exclusive! \\u000a Success means having a cocktail named after you, right?\np3959\nsVimage_hash\np3960\nV9db6f80b0c5e67b3324f69fc0e242b7c\np3961\nsVname\np3962\nVBuzzFeed Exclusive-10\np3963\nsVtitle\np3964\nVBuzzFeed Exclusive\np3965\nsVcreative_id\np3966\nV6003853212165\np3967\nsVpreview_url\np3968\nVhttp://www.facebook.com/ads/api/creative_preview.php?cid=6003853212165\np3969\nsVid\np3970\nV6003853212165\np3971\nsVimage_url\np3972\nVhttps://fbcdn-creative-a.akamaihd.net/hads-ak-snc7/s110x80/701899_6006844994965_51633_n.jpg\np3973\nsVcount_current_adgroups\np3974\nI0\nsVrun_status\np3975\nI1\nsVtype\np3976\nI1\nsVlink_url\np3977\nVhttp://t.cpmadvisors.com/click?cr=7474&bl=1000001319&sl=4726&se=1&pu=151043&v=214748360&ci=blank&so=facebook&prc=1.00&verbdir=http://www.buzzfeed.com/ht/sailorjerryrum/10-drinks-named-after-famous-pe'
p6
sS'hash'
p7
S'98c50fae031082bcefb8333b295e5e1623895049'
p8
sS'stack'
p9
S''
s.