(dp1
S'args'
p2
S''
sS'methodname'
p3
S''
sS'packet_num'
p4
I4
sS'returnval'
p5
S'VClown Fish\np547\nsVcreative_id\np548\nV6004980821965\np549\nsVpreview_url\np550\nVhttp://www.facebook.com/ads/api/creative_preview.php?cid=6004980821965\np551\nsVid\np552\nV6004980821965\np553\nsVimage_url\np554\nVhttps://fbcdn-creative-a.akamaihd.net/hads-ak-snc7/s110x80/701899_6006844770765_63794_n.jpg\np555\nsVcount_current_adgroups\np556\nI0\nsVrun_status\np557\nI1\nsVtype\np558\nI1\nsVlink_url\np559\nVhttp://www.buzzfeed.com/H1/FBAD/tanked/the-most-beautiful-fish-in-the-world\np560\nsVview_tag\np561\ng36\nsa(dp562\nValt_view_tags\np563\n(lp564\nsVbody\np565\nVThis is one of "The Most Beautiful Fish In The World". Did your favorite make the list? Se\np566\nsVimage_hash\np567\nV772c13f3bfeec4249950dea3a3d3332f\np568\nsVname\np569\nVClown Fish-00\np570\nsVtitle\np571\nVClown Fish\np572\nsVcreative_id\np573\nV6004996765365\np574\nsVpreview_url\np575\nVhttp://www.facebook.com/ads/api/creative_preview.php?cid=6004996765365\np576\nsVid\np577\nV6004996765365\np578\nsVimage_url\np579\nVhttps://fbcdn-creative-a.akamaihd.net/hads-ak-snc7/s110x80/701899_6006844770765_63794_n.jpg\np580\nsVcount_current_adgroups\np581\nI1\nsVrun_status\np582\nI1\nsVtype\np583\nI1\nsVlink_url\np584\nVhttp://www.buzzfeed.com/H1/FBAD/tanked/the-most-beautiful-fish-in-the-world\np585\nsVview_tag\np586\ng36\nsa(dp587\nValt_view_tags\np588\n(lp589\nsVbody\np590\nVThis is one of "The Most Beautiful Fish In The World". Did your favorite make the list? Se\np591\nsVimage_hash\np592\nV9d7d2b3f8b7224bbb2bb4921897cb85d\np593\nsVname\np594\nVLion Fish-00\np595\nsVtitle\np596\nVLion Fish\np597\nsVcreative_id\np598\nV6004996769165\np599\nsVpreview_url\np600\nVhttp://www.facebook.com/ads/api/creative_preview.php?cid=6004996769165\np601\nsVid\np602\nV6004996769165\np603\nsVimage_url\np604\nVhttps://fbcdn-creative-a.akamaihd.net/hads-ak-prn1/s110x80/708195_6006844989965_7970_n.jpg\np605\nsVcount_current_adgroups\np606\nI1\nsVrun_status\np607\nI1\nsVtype\np608\nI1\nsVlink_url\np609\nVhttp://www.buzzfeed.com/H1/FBAD/tanked/the-most-beautiful-fish-in-the-world\np610\nsVview_tag\np611\ng36\nsa(dp612\nValt_view_tags\np613\n(lp614\nsVbody\np615\nVMake our list of "10 Weird Foods You Should Actually Try" check out the rest on BuzzFeed.com\np616\nsVimage_hash\np617\nV8f2f1482879cf59dd61328adcc3971e9\np618\nsVname\np619\nVRocky Mountain Oysters \np620\nsVtitle\np621\nVRocky Mountain Oysters \np622\nsVcreative_id\np623\nV6004970539765\np624\nsVpreview_url\np625\nVhttp://www.facebook.com/ads/api/creative_preview.php?cid=6004970539765\np626\nsVid\np627\nV6004970539765\np628\nsVimage_url\np629\nVhttps://fbcdn-creative-a.akamaihd.net/hads-ak-snc7/s110x80/701904_6006844901765_59511_n.jpg\np630\nsVcount_current_adgroups\np631\nI3\nsVrun_status\np632\nI1\nsVtype\np633\nI1\nsVlink_url\np634\nVhttp://www.buzzfeed.com/bbcamerica/10-weird-foods-you-should-actually-try-2rld#HFBPP2\np635\nsVview_tag\np636\ng36\nsa(dp637\nValt_view_tags\np638\n(lp639\nsVbody\np640\nVThis chief goes this distance. Check out "How To Hunt A Giant Tree Rat" on BuzzFeed.com\np641\nsVimage_hash\np642\nVe2765d2f7fb13f1218a4bc76ead474b3\np643\nsVname\np644\nVExtreme Cooking Challenge\np645\nsVtitle\np646\nVExtreme Cooking Challenge\np647\nsVcreative_id\np648\nV6004970415765\np649\nsVpreview_url\np650\nVhttp://www.facebook.com/ads/api/creative_preview.php?cid=6004970415765\np651\nsVid\np652\nV6004970415765\np653\nsVimage_url\np654\nVhttps://fbcdn-creative-a.akamaihd.net/hads-ak-prn1/s110x80/708157_6006845413765_18668_n.jpg\np655\nsVcount_current_adgroups\np656\nI0\nsVrun_status\np657\nI1\nsVtype\np658\nI1\nsVlink_url\np659\nVhttp://www.buzzfeed.com/H1/FBAD/bbcamerica/how-to-hunt-a-giant-tree-rat\np660\nsVview_tag\np661\ng36\nsa(dp662\nValt_view_tags\np663\n(lp664\nsVbody\np665\nVZorbing makes our list of "10 Things You Haven\'t Tried But Probably Should" Check out the \np666\nsVimage_hash\np667\nV1a45072bd3147809f39198b2980e3745\np668\nsVname\np669\nVYou Gotta  to try This!\np670\nsVtitle\np671\nVYou Gotta  to try This!\np672\nsVcreative_id\np673\nV6005047607365\np674\nsVpreview_url\np675\nVhttp://www.facebook.com/ads/api/creative_preview.php?cid=6005047607365\np676\nsVid\np677\nV6005047607365\np678\nsVimage_url\np679\nVhttps://fbcdn-creative-a.akamaihd.net/hads-ak-ash3/s110x80/701891_6006844214565_20919_n.jpg\np680\nsVcount_current_adgroups\np681\nI0\nsVrun_status\np682\nI1\nsVtype\np683\nI1\n'
p6
sS'hash'
p7
S'98c50fae031082bcefb8333b295e5e1623895049'
p8
sS'stack'
p9
S''
s.