(dp1
S'args'
p2
S''
sS'methodname'
p3
S''
sS'packet_num'
p4
I60
sS'returnval'
p5
S"62010765\np7494\nsVid\np7495\nV6003662010765\np7496\nsVimage_url\np7497\nVhttps://fbcdn-creative-a.akamaihd.net/hads-ak-prn1/s110x80/708182_6006845351365_23312_n.jpg\np7498\nsVcount_current_adgroups\np7499\nI0\nsVrun_status\np7500\nI1\nsVtype\np7501\nI1\nsVlink_url\np7502\nVhttp://bzfd.it/oILuTC\np7503\nsVview_tag\np7504\ng36\nsa(dp7505\nValt_view_tags\np7506\n(lp7507\nsVbody\np7508\nVWe are the creative team! Now the opinions of people are taken into consideration when brands need to send a message. Read More Now!\np7509\nsVimage_hash\np7510\nVe53145e3018e37b06f371d9b3c38b319\np7511\nsVname\np7512\nVCreativity Redefined\np7513\nsVtitle\np7514\nVCreativity Redefined\np7515\nsVcreative_id\np7516\nV6003668630365\np7517\nsVpreview_url\np7518\nVhttp://www.facebook.com/ads/api/creative_preview.php?cid=6003668630365\np7519\nsVid\np7520\nV6003668630365\np7521\nsVimage_url\np7522\nVhttps://fbcdn-creative-a.akamaihd.net/hads-ak-prn1/s110x80/708185_6006845432165_4492_n.jpg\np7523\nsVcount_current_adgroups\np7524\nI0\nsVrun_status\np7525\nI1\nsVtype\np7526\nI1\nsVlink_url\np7527\nVhttp://bzfd.it/nzarCk\np7528\nsVview_tag\np7529\ng36\nsa(dp7530\nValt_view_tags\np7531\n(lp7532\nsVbody\np7533\nVWe are the creative team! Now the opinions of people are taken into consideration when brands need to send a message. Read More Now!\np7534\nsVimage_hash\np7535\nV2a7379d47862ac542ed888087a587096\np7536\nsVname\np7537\nVOur Brains and Creativity\np7538\nsVtitle\np7539\nVOur Brains and Creativity\np7540\nsVcreative_id\np7541\nV6003668633365\np7542\nsVpreview_url\np7543\nVhttp://www.facebook.com/ads/api/creative_preview.php?cid=6003668633365\np7544\nsVid\np7545\nV6003668633365\np7546\nsVimage_url\np7547\nVhttps://fbcdn-creative-a.akamaihd.net/hads-ak-prn1/s110x80/708172_6006844307765_25021_n.jpg\np7548\nsVcount_current_adgroups\np7549\nI0\nsVrun_status\np7550\nI1\nsVtype\np7551\nI1\nsVlink_url\np7552\nVhttp://bzfd.it/nzarCk\np7553\nsVview_tag\np7554\ng36\nsa(dp7555\nValt_view_tags\np7556\n(lp7557\nsVbody\np7558\nVEver loose something and can't remember where you left it? Although embarrassing, you might want to check out these places.  Good luck!\np7559\nsVimage_hash\np7560\nVeb18dac19a0f023eb3305a852eed1d38\np7561\nsVname\np7562\nVLost Something? Look Here\np7563\nsVtitle\np7564\nVLost Something? Look Here\np7565\nsVcreative_id\np7566\nV6003671995765\np7567\nsVpreview_url\np7568\nVhttp://www.facebook.com/ads/api/creative_preview.php?cid=6003671995765\np7569\nsVid\np7570\nV6003671995765\np7571\nsVimage_url\np7572\nVhttps://fbcdn-creative-a.akamaihd.net/hads-ak-prn1/s110x80/708164_6006845472965_23013_n.jpg\np7573\nsVcount_current_adgroups\np7574\nI0\nsVrun_status\np7575\nI1\nsVtype\np7576\nI1\nsVlink_url\np7577\nVhttp://bzfd.it/neLE8s\np7578\nsVview_tag\np7579\ng36\nsa(dp7580\nValt_view_tags\np7581\n(lp7582\nsVbody\np7583\nVLoose something recently? Think you looked everywhere?  Think again! There are several embarrassing places that you might not think of.\np7584\nsVimage_hash\np7585\nVf54a953fd3e587d0dc12efec43c5af5f\np7586\nsVname\np7587\nVI Looked Everywhere!\np7588\nsVtitle\np7589\nVI Looked Everywhere!\np7590\nsVcreative_id\np7591\nV6003672016765\np7592\nsVpreview_url\np7593\nVhttp://www.facebook.com/ads/api/creative_preview.php?cid=6003672016765\np7594\nsVid\np7595\nV6003672016765\np7596\nsVimage_url\np7597\nVhttps://fbcdn-creative-a.akamaihd.net/hads-ak-prn1/s110x80/708186_6006845533965_43874_n.jpg\np7598\nsVcount_current_adgroups\np7599\nI0\nsVrun_status\np7600\nI1\nsVtype\np7601\nI1\nsVlink_url\np7602\nVhttp://bzfd.it/neLE8s\np7603\nsVview_tag\np7604\ng36\nsa(dp7605\nValt_view_tags\np7606\n(lp7607\nsVbody\np7608\nVRan out of things to do at the office? Relax, have fun, and play a little! See how we take care of work and play hard at the same time!\np7609\nsVimage_hash\np7610\nV6fb5e96b3f64cf52f3432890bb4ea188\np7611\nsVname\np7612\nVWork Hard, Play Harder!\np7613\nsVtitle\np7614\nVWork Hard, Play Harder!\np7615\nsVcreative_id\np7616\nV6003674292565\np7617\nsVpreview_url\np7618\nVhttp://www.facebook.com/ads/api/creative_preview.php?cid=6003674292565\np7619\nsVid\np7620\nV6003674292565\np7621\nsVimage_url\np7622\nVhttps://fbcdn-creative-a.akamaihd.net/hads-ak-ash3/s110x80/701899_6006844726765_57118_n.jpg\np7623\nsVcount_current_adgroups\np7624\nI0\nsVrun_status\np7625\nI1\nsVtype\np7626\nI1\nsVlink_url\np7627\nVhtt"
p6
sS'hash'
p7
S'98c50fae031082bcefb8333b295e5e1623895049'
p8
sS'stack'
p9
S''
s.