(dp1
S'args'
p2
S''
sS'methodname'
p3
S''
sS'packet_num'
p4
I72
sS'returnval'
p5
S"t/hads-ak-prn1/s110x80/708205_6006844246965_19005_n.jpg\np9072\nsVcount_current_adgroups\np9073\nI0\nsVrun_status\np9074\nI1\nsVtype\np9075\nI1\nsVlink_url\np9076\nVhttp://buzzfeed.com/ht/viralvideochart/the-pen-ready-project-from-olympus-26x3/HFAA1\np9077\nsVview_tag\np9078\ng36\nsa(dp9079\nValt_view_tags\np9080\n(lp9081\nsVbody\np9082\nVWe've rounded up stories of people who remind us of the originality, dedication, and passion for the work that Jerry inspired\np9083\nsVimage_hash\np9084\nV180dd957280020402e9aaa4536618e38\np9085\nsVname\np9086\nVHold Fast w Sailor Jerry\np9087\nsVtitle\np9088\nVHold Fast w Sailor Jerry\np9089\nsVcreative_id\np9090\nV6004338350765\np9091\nsVpreview_url\np9092\nVhttp://www.facebook.com/ads/api/creative_preview.php?cid=6004338350765\np9093\nsVid\np9094\nV6004338350765\np9095\nsVimage_url\np9096\nVhttps://fbcdn-creative-a.akamaihd.net/hads-ak-prn1/s110x80/708175_6006844201165_9924_n.jpg\np9097\nsVcount_current_adgroups\np9098\nI0\nsVrun_status\np9099\nI1\nsVtype\np9100\nI1\nsVlink_url\np9101\nVhttp://buzzfeed.com/ht/viralvideochart/hold-fast-with-sailor-jerry-26x3/HFAA1\np9102\nsVview_tag\np9103\ng36\nsa(dp9104\nValt_view_tags\np9105\n(lp9106\nsVbody\np9107\nVYour photos and videos are more than just data. They're your life.\np9108\nsVimage_hash\np9109\nV697d4ea751ad800f99de438aec52920f\np9110\nsVname\np9111\nVYou Won't Find a Cuter K\np9112\nsVtitle\np9113\nVYou Won't Find a Cuter K\np9114\nsVcreative_id\np9115\nV6004338355765\np9116\nsVpreview_url\np9117\nVhttp://www.facebook.com/ads/api/creative_preview.php?cid=6004338355765\np9118\nsVid\np9119\nV6004338355765\np9120\nsVimage_url\np9121\nVhttps://fbcdn-creative-a.akamaihd.net/hads-ak-prn1/s110x80/708195_6006844691765_46106_n.jpg\np9122\nsVcount_current_adgroups\np9123\nI0\nsVrun_status\np9124\nI1\nsVtype\np9125\nI1\nsVlink_url\np9126\nVhttp://buzzfeed.com/ht/viralvideochart/dare-you-to-find-a-cuter-kid-26x3/HFAA1\np9127\nsVview_tag\np9128\ng36\nsa(dp9129\nValt_view_tags\np9130\n(lp9131\nsVbody\np9132\nVYour photos and videos are more than just data. They're your life.\np9133\nsVimage_hash\np9134\nV5ce91d25042ac322b053baf27071fec7\np9135\nsVname\np9136\nVGrandma Was a Hottie\np9137\nsVtitle\np9138\nVGrandma Was a Hottie\np9139\nsVcreative_id\np9140\nV6004338358165\np9141\nsVpreview_url\np9142\nVhttp://www.facebook.com/ads/api/creative_preview.php?cid=6004338358165\np9143\nsVid\np9144\nV6004338358165\np9145\nsVimage_url\np9146\nVhttps://fbcdn-creative-a.akamaihd.net/hads-ak-ash3/s110x80/708195_6006844624565_61315_n.jpg\np9147\nsVcount_current_adgroups\np9148\nI0\nsVrun_status\np9149\nI1\nsVtype\np9150\nI1\nsVlink_url\np9151\nVhttp://buzzfeed.com/ht/viralvideochart/grandma-was-a-hottie-26x3/HFAA1\np9152\nsVview_tag\np9153\ng36\nsa(dp9154\nValt_view_tags\np9155\n(lp9156\nsVbody\np9157\nVBruce's latest ideas for his favorite vodka. Keep in mind that some of the ideas still have a few bugs, but hey, it's Bruce Willis.\np9158\nsVimage_hash\np9159\nVccadcef79aca6137dad69e01a77786fc\np9160\nsVname\np9161\nVBruce Willis amp Sobie\np9162\nsVtitle\np9163\nVBruce Willis amp Sobie\np9164\nsVcreative_id\np9165\nV6004338671365\np9166\nsVpreview_url\np9167\nVhttp://www.facebook.com/ads/api/creative_preview.php?cid=6004338671365\np9168\nsVid\np9169\nV6004338671365\np9170\nsVimage_url\np9171\nVhttps://fbcdn-creative-a.akamaihd.net/hads-ak-ash3/s110x80/701894_6006845280365_65490_n.jpg\np9172\nsVcount_current_adgroups\np9173\nI0\nsVrun_status\np9174\nI1\nsVtype\np9175\nI1\nsVlink_url\np9176\nVhttp://buzzfeed.com/ht/viralvideochart/bruce-willis-sobieski-cookie-cutter-26x3/HFAA1\np9177\nsVview_tag\np9178\ng36\nsa(dp9179\nValt_view_tags\np9180\n(lp9181\nsVbody\np9182\nVCheck out some of Bruce's latest ideas for his favorite vodka. Keep in mind that some of these might have bugs needing to be worked out\np9183\nsVimage_hash\np9184\nV6cd32d44e058754805c78e90d5f56d92\np9185\nsVname\np9186\nVBruce Willis Nut Cracker\np9187\nsVtitle\np9188\nVBruce Willis Nut Cracker\np9189\nsVcreative_id\np9190\nV6004339292965\np9191\nsVpreview_url\np9192\nVhttp://www.facebook.com/ads/api/creative_preview.php?cid=6004339292965\np9193\nsVid\np9194\nV6004339292965\np9195\nsVimage_url\np9196\nVhttps://fbcdn-creative-a.akamaihd.net/hads-ak-ash3/s110x80/701901_6006844711965_50074_n.jpg\np9197\nsVcount_current_adgroups\np9198\nI0\nsVrun_status\np91"
p6
sS'hash'
p7
S'98c50fae031082bcefb8333b295e5e1623895049'
p8
sS'stack'
p9
S''
s.