(dp1
S'args'
p2
S''
sS'methodname'
p3
S''
sS'packet_num'
p4
I47
sS'returnval'
p5
S'age_hash\np5785\nV611b61b801c0a914ce6f33137034c101\np5786\nsVname\np5787\nVWhy Teenage Life is Hard-00\np5788\nsVtitle\np5789\nVWhy Teenage Life is Hard\np5790\nsVcreative_id\np5791\nV6003791519765\np5792\nsVpreview_url\np5793\nVhttp://www.facebook.com/ads/api/creative_preview.php?cid=6003791519765\np5794\nsVid\np5795\nV6003791519765\np5796\nsVimage_url\np5797\nVhttps://fbcdn-creative-a.akamaihd.net/hads-ak-snc7/s110x80/701903_6006844644165_12749_n.jpg\np5798\nsVcount_current_adgroups\np5799\nI0\nsVrun_status\np5800\nI1\nsVtype\np5801\nI1\nsVlink_url\np5802\nVhttp://www.buzzfeed.com/ht/thecw/tv-show-explanations-on-why-teenage-life-is-so-har/HFBA1\np5803\nsVview_tag\np5804\ng36\nsa(dp5805\nValt_view_tags\np5806\n(lp5807\nsVbody\np5808\nVCheck out BuzzFeed\'s "TV Show Explanations On Why Teenage Life Is So Hard" & See why your favorite TV show character\'s life sucks.\np5809\nsVimage_hash\np5810\nV5b2a20f78e67a3b8f8e4e813b08cfbf7\np5811\nsVname\np5812\nVWhy Teenage Life is Hard-01\np5813\nsVtitle\np5814\nVWhy Teenage Life is Hard\np5815\nsVcreative_id\np5816\nV6003791767765\np5817\nsVpreview_url\np5818\nVhttp://www.facebook.com/ads/api/creative_preview.php?cid=6003791767765\np5819\nsVid\np5820\nV6003791767765\np5821\nsVimage_url\np5822\nVhttps://fbcdn-creative-a.akamaihd.net/hads-ak-prn1/s110x80/708187_6006844614965_18552_n.jpg\np5823\nsVcount_current_adgroups\np5824\nI0\nsVrun_status\np5825\nI1\nsVtype\np5826\nI1\nsVlink_url\np5827\nVhttp://www.buzzfeed.com/ht/thecw/tv-show-explanations-on-why-teenage-life-is-so-har/HFBA1\np5828\nsVview_tag\np5829\ng36\nsa(dp5830\nValt_view_tags\np5831\n(lp5832\nsVbody\np5833\nVCheck out "The Most Outrageous Moments From It\\u2019s Always Sunny in Philadelphia" brought to you by FX Networks and BuzzFeed.\np5834\nsVimage_hash\np5835\nV055c46344b640dd1a85cf417babd06e7\np5836\nsVname\np5837\nVBuzzFeed Exclusive-00\np5838\nsVtitle\np5839\nVBuzzFeed Exclusive\np5840\nsVcreative_id\np5841\nV6003784423565\np5842\nsVpreview_url\np5843\nVhttp://www.facebook.com/ads/api/creative_preview.php?cid=6003784423565\np5844\nsVid\np5845\nV6003784423565\np5846\nsVimage_url\np5847\nVhttps://fbcdn-creative-a.akamaihd.net/hads-ak-prn1/s110x80/708186_6006844076765_29466_n.jpg\np5848\nsVcount_current_adgroups\np5849\nI0\nsVrun_status\np5850\nI1\nsVtype\np5851\nI1\nsVlink_url\np5852\nVhttp://www.buzzfeed.com/ht/fxnetwork/the-most-outrageous-moments-from-its-always-sunny/HFBA1\np5853\nsVview_tag\np5854\ng36\nsa(dp5855\nValt_view_tags\np5856\n(lp5857\nsVbody\np5858\nVBuck teeth are the hot look in Hollywood this season. Check out our list of "Celebrities with Bucky Larson\'s Teeth".\np5859\nsVimage_hash\np5860\nV25580207497e7c3d9888a675a3cc785a\np5861\nsVname\np5862\nVCelebs w. Bucky\'s Teeth\np5863\nsVtitle\np5864\nVCelebs w. Bucky\'s Teeth\np5865\nsVcreative_id\np5866\nV6003781905365\np5867\nsVpreview_url\np5868\nVhttp://www.facebook.com/ads/api/creative_preview.php?cid=6003781905365\np5869\nsVid\np5870\nV6003781905365\np5871\nsVimage_url\np5872\nVhttps://fbcdn-creative-a.akamaihd.net/hads-ak-prn1/s110x80/701895_6006844282965_38275_n.jpg\np5873\nsVcount_current_adgroups\np5874\nI0\nsVrun_status\np5875\nI1\nsVtype\np5876\nI1\nsVlink_url\np5877\nVhttp://www.buzzfeed.com/ht/buckylarson/celebrities-with-bucky-larsons-teeth/HFBA1\np5878\nsVview_tag\np5879\ng36\nsa(dp5880\nValt_view_tags\np5881\n(lp5882\nsVbody\np5883\nVBuck teeth are the hot look in Hollywood this season. Check out our list of "Celebrities with Bucky Larson\'s Teeth".\np5884\nsVimage_hash\np5885\nV16d1c5da4efd52125077155d3385b496\np5886\nsVname\np5887\nVCelebs w. Bucky\'s Teeth-00\np5888\nsVtitle\np5889\nVCelebs w. Bucky\'s Teeth\np5890\nsVcreative_id\np5891\nV6003781908765\np5892\nsVpreview_url\np5893\nVhttp://www.facebook.com/ads/api/creative_preview.php?cid=6003781908765\np5894\nsVid\np5895\nV6003781908765\np5896\nsVimage_url\np5897\nVhttps://fbcdn-creative-a.akamaihd.net/hads-ak-prn1/s110x80/708166_6006844192365_13165_n.jpg\np5898\nsVcount_current_adgroups\np5899\nI0\nsVrun_status\np5900\nI1\nsVtype\np5901\nI1\nsVlink_url\np5902\nVhttp://www.buzzfeed.com/ht/buckylarson/celebrities-with-bucky-larsons-teeth/HFBA1\np5903\nsVview_tag\np5904\ng36\nsa(dp5905\nValt_view_tags\np5906\n(lp5907\nsVbody\np5908\nVCameron Tucker always have people laughing.  Some of things he says are a riot.  Click here to check out our t'
p6
sS'hash'
p7
S'98c50fae031082bcefb8333b295e5e1623895049'
p8
sS'stack'
p9
S''
s.