(dp1
S'args'
p2
S''
sS'methodname'
p3
S''
sS'packet_num'
p4
I30
sS'returnval'
p5
S'?cid=6003853197565\np3769\nsVid\np3770\nV6003853197565\np3771\nsVimage_url\np3772\nVhttps://fbcdn-creative-a.akamaihd.net/hads-ak-ash3/s110x80/701898_6006844752965_36688_n.jpg\np3773\nsVcount_current_adgroups\np3774\nI0\nsVrun_status\np3775\nI1\nsVtype\np3776\nI1\nsVlink_url\np3777\nVhttp://t.cpmadvisors.com/click?cr=7476&bl=1000001319&sl=4726&se=1&pu=151033&v=214748360&ci=blank&so=facebook&prc=1.00&verbdir=http://www.buzzfeed.com/ht/sailorjerryrum/10-drinks-named-after-famous-people/HFB1510331\np3778\nsVview_tag\np3779\ng36\nsa(dp3780\nValt_view_tags\np3781\n(lp3782\nsVbody\np3783\nVCheck out "10 Drinks Named After Famous People" - a BuzzFeed Exclusive! \\u000a Along with Sailor Jerry, check out these popular drinks!\np3784\nsVimage_hash\np3785\nV6ab1076196f0fdac183588e3ac830e6a\np3786\nsVname\np3787\nV10 Star Inspired Drinks!-01\np3788\nsVtitle\np3789\nV10 Star Inspired Drinks!\np3790\nsVcreative_id\np3791\nV6003853199165\np3792\nsVpreview_url\np3793\nVhttp://www.facebook.com/ads/api/creative_preview.php?cid=6003853199165\np3794\nsVid\np3795\nV6003853199165\np3796\nsVimage_url\np3797\nVhttps://fbcdn-creative-a.akamaihd.net/hads-ak-prn1/s110x80/708195_6006844694965_4658_n.jpg\np3798\nsVcount_current_adgroups\np3799\nI0\nsVrun_status\np3800\nI1\nsVtype\np3801\nI1\nsVlink_url\np3802\nVhttp://t.cpmadvisors.com/click?cr=7475&bl=1000001319&sl=4726&se=1&pu=151029&v=214748360&ci=blank&so=facebook&prc=1.00&verbdir=http://www.buzzfeed.com/ht/sailorjerryrum/10-drinks-named-after-famous-people/HFB1510291\np3803\nsVview_tag\np3804\ng36\nsa(dp3805\nValt_view_tags\np3806\n(lp3807\nsVbody\np3808\nVCheck out "10 Drinks Named After Famous People" - a BuzzFeed Exclusive! \\u000a Along with Sailor Jerry, check out these popular drinks!\np3809\nsVimage_hash\np3810\nV9db6f80b0c5e67b3324f69fc0e242b7c\np3811\nsVname\np3812\nV10 Star Inspired Drinks!-02\np3813\nsVtitle\np3814\nV10 Star Inspired Drinks!\np3815\nsVcreative_id\np3816\nV6003853199365\np3817\nsVpreview_url\np3818\nVhttp://www.facebook.com/ads/api/creative_preview.php?cid=6003853199365\np3819\nsVid\np3820\nV6003853199365\np3821\nsVimage_url\np3822\nVhttps://fbcdn-creative-a.akamaihd.net/hads-ak-snc7/s110x80/701899_6006844994965_51633_n.jpg\np3823\nsVcount_current_adgroups\np3824\nI0\nsVrun_status\np3825\nI1\nsVtype\np3826\nI1\nsVlink_url\np3827\nVhttp://t.cpmadvisors.com/click?cr=7474&bl=1000001319&sl=4726&se=1&pu=151026&v=214748360&ci=blank&so=facebook&prc=1.00&verbdir=http://www.buzzfeed.com/ht/sailorjerryrum/10-drinks-named-after-famous-people/HFB1510261\np3828\nsVview_tag\np3829\ng36\nsa(dp3830\nValt_view_tags\np3831\n(lp3832\nsVbody\np3833\nVCheck out "10 Drinks Named After Famous People" - a BuzzFeed Exclusive! \\u000a Along with Sailor Jerry, check out these popular drinks!\np3834\nsVimage_hash\np3835\nV745f56f8dd02e0dbb99dc5ebe7a8042a\np3836\nsVname\np3837\nVDrinks From Famous People-06\np3838\nsVtitle\np3839\nVDrinks From Famous People\np3840\nsVcreative_id\np3841\nV6003853202165\np3842\nsVpreview_url\np3843\nVhttp://www.facebook.com/ads/api/creative_preview.php?cid=6003853202165\np3844\nsVid\np3845\nV6003853202165\np3846\nsVimage_url\np3847\nVhttps://fbcdn-creative-a.akamaihd.net/hads-ak-ash3/s110x80/701898_6006844752965_36688_n.jpg\np3848\nsVcount_current_adgroups\np3849\nI0\nsVrun_status\np3850\nI1\nsVtype\np3851\nI1\nsVlink_url\np3852\nVhttp://t.cpmadvisors.com/click?cr=7476&bl=1000001319&sl=4726&se=1&pu=151027&v=214748360&ci=blank&so=facebook&prc=1.00&verbdir=http://www.buzzfeed.com/ht/sailorjerryrum/10-drinks-named-after-famous-people/HFB1510271\np3853\nsVview_tag\np3854\ng36\nsa(dp3855\nValt_view_tags\np3856\n(lp3857\nsVbody\np3858\nVCheck out "10 Drinks Named After Famous People" - a BuzzFeed Exclusive! \\u000a Success means having a cocktail named after you, right?\np3859\nsVimage_hash\np3860\nV745f56f8dd02e0dbb99dc5ebe7a8042a\np3861\nsVname\np3862\nV10 Star Inspired Drinks!-03\np3863\nsVtitle\np3864\nV10 Star Inspired Drinks!\np3865\nsVcreative_id\np3866\nV6003853204765\np3867\nsVpreview_url\np3868\nVhttp://www.facebook.com/ads/api/creative_preview.php?cid=6003853204765\np3869\nsVid\np3870\nV6003853204765\np3871\nsVimage_url\np3872\nVhttps://fbcdn-creative-a.akamaihd.net/hads-ak-ash3/s110x80/701898_6006844752965_36688_n.jpg\np3873\nsVcount_current_adgroups\np3874\nI0\nsVrun_status\np38'
p6
sS'hash'
p7
S'98c50fae031082bcefb8333b295e5e1623895049'
p8
sS'stack'
p9
S''
s.