(dp1
S'args'
p2
S''
sS'methodname'
p3
S''
sS'packet_num'
p4
I62
sS'returnval'
p5
S'_hash\np7760\nV91b9d5739afc54a43f033f767224009f\np7761\nsVname\np7762\nVSurprising Music Samples-00\np7763\nsVtitle\np7764\nVSurprising Music Samples\np7765\nsVcreative_id\np7766\nV6005740908165\np7767\nsVpreview_url\np7768\nVhttp://www.facebook.com/ads/api/creative_preview.php?cid=6005740908165\np7769\nsVid\np7770\nV6005740908165\np7771\nsVimage_url\np7772\nVhttps://fbcdn-creative-a.akamaihd.net/hads-ak-ash3/s110x80/708185_6006844917565_59212_n.jpg\np7773\nsVcount_current_adgroups\np7774\nI0\nsVrun_status\np7775\nI1\nsVtype\np7776\nI1\nsVlink_url\np7777\nVhttp://www.buzzfeed.com/h1/fbad/virginmobilelive/10-surprising-music-samples-that-turned-into-hit-s-5l87\np7778\nsVview_tag\np7779\ng36\nsa(dp7780\nValt_view_tags\np7781\n(lp7782\nsVbody\np7783\nVHow songs you might not know made the songs you love. Check out more here!\np7784\nsVimage_hash\np7785\nV91b9d5739afc54a43f033f767224009f\np7786\nsVname\np7787\nVSurprising Music Samples-00-00\np7788\nsVtitle\np7789\nVSurprising Music Samples\np7790\nsVcreative_id\np7791\nV6005741513365\np7792\nsVpreview_url\np7793\nVhttp://www.facebook.com/ads/api/creative_preview.php?cid=6005741513365\np7794\nsVid\np7795\nV6005741513365\np7796\nsVimage_url\np7797\nVhttps://fbcdn-creative-a.akamaihd.net/hads-ak-ash3/s110x80/708185_6006844917565_59212_n.jpg\np7798\nsVcount_current_adgroups\np7799\nI1\nsVrun_status\np7800\nI1\nsVtype\np7801\nI1\nsVlink_url\np7802\nVhttp://www.buzzfeed.com/h1/fbad/virginmobilelive/10-surprising-music-samples-that-turned-into-hit-s-5l87\np7803\nsVview_tag\np7804\ng36\nsa(dp7805\nValt_view_tags\np7806\n(lp7807\nsVbody\np7808\nVWhat\'s sexier than adopting a dog? Check out\\u000a20 Celebs And Their Dogs on BuzzFeed!\np7809\nsVimage_hash\np7810\nVed7cfb2ad676d4ce7d00a861145c7aeb\np7811\nsVname\np7812\nVRyan Gosling & His Pup\np7813\nsVtitle\np7814\nVRyan Gosling & His Pup\np7815\nsVcreative_id\np7816\nV6005741597165\np7817\nsVpreview_url\np7818\nVhttp://www.facebook.com/ads/api/creative_preview.php?cid=6005741597165\np7819\nsVid\np7820\nV6005741597165\np7821\nsVimage_url\np7822\nVhttps://fbcdn-creative-a.akamaihd.net/hads-ak-prn1/s110x80/708169_6006845489365_56779_n.jpg\np7823\nsVcount_current_adgroups\np7824\nI1\nsVrun_status\np7825\nI1\nsVtype\np7826\nI1\nsVlink_url\np7827\nVhttp://www.buzzfeed.com/h1/fbad/pedigree/20-celebs-and-their-adorable-adopted-pups-6fjy\np7828\nsVview_tag\np7829\ng36\nsa(dp7830\nValt_view_tags\np7831\n(lp7832\nsVbody\np7833\nVWhen will these guys learn? Check out "10 People Who Desperately Need A New Laptop" here!\np7834\nsVimage_hash\np7835\nVd14db692cb7c8f3cb2955b06b80c63d9\np7836\nsVname\np7837\nVYou\'re Doing It Wrong-01\np7838\nsVtitle\np7839\nVYou\'re Doing It Wrong\np7840\nsVcreative_id\np7841\nV6005742038165\np7842\nsVpreview_url\np7843\nVhttp://www.facebook.com/ads/api/creative_preview.php?cid=6005742038165\np7844\nsVid\np7845\nV6005742038165\np7846\nsVimage_url\np7847\nVhttps://fbcdn-creative-a.akamaihd.net/hads-ak-prn1/s110x80/708192_6006845300965_2207_n.jpg\np7848\nsVcount_current_adgroups\np7849\nI2\nsVrun_status\np7850\nI1\nsVtype\np7851\nI1\nsVlink_url\np7852\nVhttp://www.buzzfeed.com/h1/fbad/samsungs9/10-people-who-desperately-need-a-new-laptop-6g87\np7853\nsVview_tag\np7854\ng36\nsa(dp7855\nValt_view_tags\np7856\n(lp7857\nsVbody\np7858\nVRemember Britney and Madonna\'s kiss? Check out more outrageous VMA moments on Buzzfeed!\np7859\nsVimage_hash\np7860\nV99b2189daa934b0154a60f17df016de6\np7861\nsVname\np7862\nV"Im\'ma Let You Finish"-00\np7863\nsVtitle\np7864\nVWhat A Kiss!\np7865\nsVcreative_id\np7866\nV6005735011565\np7867\nsVpreview_url\np7868\nVhttp://www.facebook.com/ads/api/creative_preview.php?cid=6005735011565\np7869\nsVid\np7870\nV6005735011565\np7871\nsVimage_url\np7872\nVhttps://fbcdn-creative-a.akamaihd.net/hads-ak-prn1/s110x80/708163_6006844968965_52720_n.jpg\np7873\nsVcount_current_adgroups\np7874\nI1\nsVrun_status\np7875\nI1\nsVtype\np7876\nI1\nsVlink_url\np7877\nVhttp://www.buzzfeed.com/h1/fbad/mtvvmas/the-11-most-outrageous-moments-from-the-vmas-in-g\np7878\nsVview_tag\np7879\ng36\nsa(dp7880\nValt_view_tags\np7881\n(lp7882\nsVbody\np7883\nVWhat\'s sexier than adopting a dog? Check out\\u000a20 Celebs And Their Dogs on BuzzFeed!\np7884\nsVimage_hash\np7885\nVc3d48d546cbbad00378502a96cefd9fd\np7886\nsVname\np7887\nVRyan Gosling & His Pup-00\np7888\nsVtitle\np7889\nVRyan Reynolds &'
p6
sS'hash'
p7
S'98c50fae031082bcefb8333b295e5e1623895049'
p8
sS'stack'
p9
S''
s.