(dp1
S'args'
p2
S''
sS'methodname'
p3
S''
sS'packet_num'
p4
I10
sS'returnval'
p5
S'-funny-comedic-duos-throughout-history\np1335\nsVview_tag\np1336\ng36\nsa(dp1337\nValt_view_tags\np1338\n(lp1339\nsVbody\np1340\nVHere are "8 Reasons Why You Never Want Barack Obama To Get Angry". See them all on BuzzFeed.\np1341\nsVimage_hash\np1342\nV39060f3de5fa22b9d694065dff21113b\np1343\nsVname\np1344\nVDon\'t Upset The Pres!\np1345\nsVtitle\np1346\nVDon\'t Upset The Pres!\np1347\nsVcreative_id\np1348\nV6004685012765\np1349\nsVpreview_url\np1350\nVhttp://www.facebook.com/ads/api/creative_preview.php?cid=6004685012765\np1351\nsVid\np1352\nV6004685012765\np1353\nsVimage_url\np1354\nVhttps://fbcdn-creative-a.akamaihd.net/hads-ak-ash3/s110x80/701904_6006844383965_23305_n.jpg\np1355\nsVcount_current_adgroups\np1356\nI0\nsVrun_status\np1357\nI1\nsVtype\np1358\nI1\nsVlink_url\np1359\nVhttp://www.buzzfeed.com/h2/fba/keyandpeele/8-reasons-why-you-never-want-barack-obama-to-get-a\np1360\nsVview_tag\np1361\ng36\nsa(dp1362\nValt_view_tags\np1363\n(lp1364\nsVbody\np1365\nVHere are "8 Reasons Why You Never Want Barack Obama To Get Angry". See them all on BuzzFeed.\np1366\nsVimage_hash\np1367\nV57693c13d6d92545adf1d345ae999a49\np1368\nsVname\np1369\nVDon\'t Upset The Pres!-00\np1370\nsVtitle\np1371\nVDon\'t Upset The Pres!\np1372\nsVcreative_id\np1373\nV6004685033165\np1374\nsVpreview_url\np1375\nVhttp://www.facebook.com/ads/api/creative_preview.php?cid=6004685033165\np1376\nsVid\np1377\nV6004685033165\np1378\nsVimage_url\np1379\nVhttps://fbcdn-creative-a.akamaihd.net/hads-ak-ash3/s110x80/708176_6006844593565_2841_n.jpg\np1380\nsVcount_current_adgroups\np1381\nI0\nsVrun_status\np1382\nI1\nsVtype\np1383\nI1\nsVlink_url\np1384\nVhttp://www.buzzfeed.com/h2/fba/keyandpeele/8-reasons-why-you-never-want-barack-obama-to-get-a\np1385\nsVview_tag\np1386\ng36\nsa(dp1387\nValt_view_tags\np1388\n(lp1389\nsVbody\np1390\nVThis is one of "Tosh.0\'s Top 10 Most Redeeming Web Redemptions".  Check out BuzzFeed to see the rest!\np1391\nsVimage_hash\np1392\nV08912bb7bec6c429752b2979a704d6cd\np1393\nsVname\np1394\nVLeave Britney Alone!\np1395\nsVtitle\np1396\nVLeave Britney Alone!\np1397\nsVcreative_id\np1398\nV6004667096365\np1399\nsVpreview_url\np1400\nVhttp://www.facebook.com/ads/api/creative_preview.php?cid=6004667096365\np1401\nsVid\np1402\nV6004667096365\np1403\nsVimage_url\np1404\nVhttps://fbcdn-creative-a.akamaihd.net/hads-ak-ash3/s110x80/701897_6006844099365_16946_n.jpg\np1405\nsVcount_current_adgroups\np1406\nI1\nsVrun_status\np1407\nI1\nsVtype\np1408\nI1\nsVlink_url\np1409\nVhttp://www.buzzfeed.com/h1/fba/tosh.0/tosh0s-top-10-most-redeeming-web-redemptions\np1410\nsVview_tag\np1411\ng36\nsa(dp1412\nValt_view_tags\np1413\n(lp1414\nsVbody\np1415\nVCheck out this list of "Tosh.0\'s Top 10 Most Redeeming Web Redemptions" on BuzzFeed.  The new season starts 1.31!\np1416\nsVimage_hash\np1417\nV360e14dac7f82e9306434279ef73cae1\np1418\nsVname\np1419\nVTosh.0 Web Redemptions\np1420\nsVtitle\np1421\nVTosh.0 Web Redemptions\np1422\nsVcreative_id\np1423\nV6004667086365\np1424\nsVpreview_url\np1425\nVhttp://www.facebook.com/ads/api/creative_preview.php?cid=6004667086365\np1426\nsVid\np1427\nV6004667086365\np1428\nsVimage_url\np1429\nVhttps://fbcdn-creative-a.akamaihd.net/hads-ak-prn1/s110x80/708191_6006844367565_37203_n.jpg\np1430\nsVcount_current_adgroups\np1431\nI0\nsVrun_status\np1432\nI1\nsVtype\np1433\nI1\nsVlink_url\np1434\nVhttp://www.buzzfeed.com/h1/fba/tosh.0/tosh0s-top-10-most-redeeming-web-redemptions\np1435\nsVview_tag\np1436\ng36\nsa(dp1437\nValt_view_tags\np1438\n(lp1439\nsVbody\np1440\nVThink you can guess what Daniel Tosh will be wearing this season? Check out the five that we picked!\np1441\nsVimage_hash\np1442\nV25f12d9e3930ff5187de5495259aa85b\np1443\nsVname\np1444\nVTosh.0 New Season!\np1445\nsVtitle\np1446\nVTosh.0 New Season!\np1447\nsVcreative_id\np1448\nV6004663649965\np1449\nsVpreview_url\np1450\nVhttp://www.facebook.com/ads/api/creative_preview.php?cid=6004663649965\np1451\nsVid\np1452\nV6004663649965\np1453\nsVimage_url\np1454\nVhttps://fbcdn-creative-a.akamaihd.net/hads-ak-ash3/s110x80/701890_6006844288765_9974_n.jpg\np1455\nsVcount_current_adgroups\np1456\nI0\nsVrun_status\np1457\nI1\nsVtype\np1458\nI1\nsVlink_url\np1459\nVhttp://www.buzzfeed.com/h1/fba/tosh.0/viral-videos-you-should-know-about-ri9\np1460\nsVview_tag\np1461\ng36\nsa(dp1462\nValt_view_tags\np1463\n(lp1464\nsVbody\np1465\nVThink yo'
p6
sS'hash'
p7
S'98c50fae031082bcefb8333b295e5e1623895049'
p8
sS'stack'
p9
S''
s.