(dp1
S'args'
p2
S''
sS'methodname'
p3
S''
sS'packet_num'
p4
I182
sS'returnval'
p5
S'cd9ee5988846f83e436f\np23665\nsVname\np23666\nVBuzzFeed-35\np23667\nsVtitle\np23668\ng37\nsVcreative_id\np23669\nV6004330595365\np23670\nsVpreview_url\np23671\nVhttp://www.facebook.com/ads/api/creative_preview.php?cid=6004330595365\np23672\nsVobject_id\np23673\nI21898300328\nsVid\np23674\nV6004330595365\np23675\nsVimage_url\np23676\nVhttps://fbcdn-creative-a.akamaihd.net/hads-ak-ash3/s110x80/708190_6006844734965_59513_n.jpg\np23677\nsVcount_current_adgroups\np23678\nI1\nsVrun_status\np23679\nI1\nsVtype\np23680\nI2\nsVlink_url\np23681\nVhttp://www.facebook.com/BuzzFeed?sk=wall\np23682\nsVview_tag\np23683\ng37\nsa(dp23684\nValt_view_tags\np23685\n(lp23686\nsVbody\np23687\nVCheck out some of the best New Year\'s Eve parties from past. Don\'t you wish you could have attended?\np23688\nsVimage_hash\np23689\nVa9629ee3c62f42d6f3332b72ce74b42e\np23690\nsVname\np23691\nVNew Year\'s Eve Parties!\np23692\nsVtitle\np23693\nVNew Year\'s Eve Parties!\np23694\nsVcreative_id\np23695\nV6004329341365\np23696\nsVpreview_url\np23697\nVhttp://www.facebook.com/ads/api/creative_preview.php?cid=6004329341365\np23698\nsVid\np23699\nV6004329341365\np23700\nsVimage_url\np23701\nVhttps://fbcdn-creative-a.akamaihd.net/hads-ak-prn1/s110x80/708187_6006845069965_39337_n.jpg\np23702\nsVcount_current_adgroups\np23703\nI1\nsVrun_status\np23704\nI1\nsVtype\np23705\nI1\nsVlink_url\np23706\nVhttp://www.buzzfeed.com/h1/fba/freecreditscore/the-top-5-new-years-eve-parties-you-wish-you-atte\np23707\nsVview_tag\np23708\ng37\nsa(dp23709\nValt_view_tags\np23710\n(lp23711\nsVbody\np23712\nVCheck out some of the best New Year\'s Eve parties from past. Don\'t you wish you could have attended?\np23713\nsVimage_hash\np23714\nV3b9cfcf86cbfe41aa25256380b4148e6\np23715\nsVname\np23716\nVNew Year\'s Eve Parties!-00\np23717\nsVtitle\np23718\nVNew Year\'s Eve Parties!\np23719\nsVcreative_id\np23720\nV6004329463765\np23721\nsVpreview_url\np23722\nVhttp://www.facebook.com/ads/api/creative_preview.php?cid=6004329463765\np23723\nsVid\np23724\nV6004329463765\np23725\nsVimage_url\np23726\nVhttps://fbcdn-creative-a.akamaihd.net/hads-ak-prn1/s110x80/701890_6006844401765_17034_n.jpg\np23727\nsVcount_current_adgroups\np23728\nI1\nsVrun_status\np23729\nI1\nsVtype\np23730\nI1\nsVlink_url\np23731\nVhttp://www.buzzfeed.com/h1/fba/freecreditscore/the-top-5-new-years-eve-parties-you-wish-you-atte\np23732\nsVview_tag\np23733\ng37\nsa(dp23734\nValt_view_tags\np23735\n(lp23736\nsVbody\np23737\nVCheck out BuzzFeed\'s list of "The Top 5 New Year\'s Eve Parties You Wish You Attended". Kim and Rob\'s party is one of them!\np23738\nsVimage_hash\np23739\nVa9629ee3c62f42d6f3332b72ce74b42e\np23740\nsVname\np23741\nVTop 5 NYE Parties!\np23742\nsVtitle\np23743\nVTop 5 NYE Parties!\np23744\nsVcreative_id\np23745\nV6004329555765\np23746\nsVpreview_url\np23747\nVhttp://www.facebook.com/ads/api/creative_preview.php?cid=6004329555765\np23748\nsVid\np23749\nV6004329555765\np23750\nsVimage_url\np23751\nVhttps://fbcdn-creative-a.akamaihd.net/hads-ak-prn1/s110x80/708187_6006845069965_39337_n.jpg\np23752\nsVcount_current_adgroups\np23753\nI1\nsVrun_status\np23754\nI1\nsVtype\np23755\nI1\nsVlink_url\np23756\nVhttp://www.buzzfeed.com/h1/fba/freecreditscore/the-top-5-new-years-eve-parties-you-wish-you-atte\np23757\nsVview_tag\np23758\ng37\nsa(dp23759\nValt_view_tags\np23760\n(lp23761\nsVbody\np23762\nVCheck out BuzzFeed\'s list of "The Top 5 New Year\'s Eve Parties You Wish You Attended". Jay-Z, Kanye & Rihanna\'s party is one of them!\np23763\nsVimage_hash\np23764\nV3b9cfcf86cbfe41aa25256380b4148e6\np23765\nsVname\np23766\nVTop 5 NYE Parties!-00\np23767\nsVtitle\np23768\nVTop 5 NYE Parties!\np23769\nsVcreative_id\np23770\nV6004329558165\np23771\nsVpreview_url\np23772\nVhttp://www.facebook.com/ads/api/creative_preview.php?cid=6004329558165\np23773\nsVid\np23774\nV6004329558165\np23775\nsVimage_url\np23776\nVhttps://fbcdn-creative-a.akamaihd.net/hads-ak-prn1/s110x80/701890_6006844401765_17034_n.jpg\np23777\nsVcount_current_adgroups\np23778\nI1\nsVrun_status\np23779\nI1\nsVtype\np23780\nI1\nsVlink_url\np23781\nVhttp://www.buzzfeed.com/h1/fba/freecreditscore/the-top-5-new-years-eve-parties-you-wish-you-atte\np23782\nsVview_tag\np23783\ng37\nsa(dp23784\nValt_view_tags\np23785\n(lp23786\nsVbody\np23787\nVCheck out BuzzFeed\'s list of "The 10 Most Tattooed Cities In America". Can you guess '
p6
sS'hash'
p7
S'9caabe288fa7581ae0402db2c930408638923a09'
p8
sS'stack'
p9
S''
s.