(dp1
S'args'
p2
S''
sS'methodname'
p3
S''
sS'packet_num'
p4
I45
sS'returnval'
p5
S'74\nI1\nsVrun_status\np6075\nI1\nsVtype\np6076\nI25\nsVid\np6077\nV6005854043365\np6078\nsa(dp6079\nValt_view_tags\np6080\n(lp6081\nsVbody\np6082\nVCheck Out "21 Pictures That Will Make You Wish You Lived During The Jet Age" on BuzzFeed!\np6083\nsVimage_hash\np6084\nVed27cff541ce00c0e9d61c29c6fb6343\np6085\nsVname\np6086\nVJet-Setting Fashion\np6087\nsVtitle\np6088\nVJet-Setting Fashion\np6089\nsVcreative_id\np6090\nV6005835111165\np6091\nsVpreview_url\np6092\nVhttp://www.facebook.com/ads/api/creative_preview.php?cid=6005835111165\np6093\nsVid\np6094\nV6005835111165\np6095\nsVimage_url\np6096\nVhttps://fbcdn-creative-a.akamaihd.net/hads-ak-ash3/s110x80/708195_6006845484165_7574_n.jpg\np6097\nsVcount_current_adgroups\np6098\nI1\nsVrun_status\np6099\nI1\nsVtype\np6100\nI1\nsVlink_url\np6101\nVhttp://www.buzzfeed.com/h1/fbad/generalelectric/21-pictures-that-will-make-you-wish-you-lived-duri-6ieg\np6102\nsVview_tag\np6103\ng37\nsa(dp6104\nValt_view_tags\np6105\n(lp6106\nsVbody\np6107\nVCheck Out "21 Pictures That Will Make You Wish You Lived During The Jet Age" on BuzzFeed!\np6108\nsVimage_hash\np6109\nV1c4faaeef63761ccbf66dfbb330e8946\np6110\nsVname\np6111\nVJet-Setting Fashion-00\np6112\nsVtitle\np6113\nVIn-Flight Cocktail Party!\np6114\nsVcreative_id\np6115\nV6005835125765\np6116\nsVpreview_url\np6117\nVhttp://www.facebook.com/ads/api/creative_preview.php?cid=6005835125765\np6118\nsVid\np6119\nV6005835125765\np6120\nsVimage_url\np6121\nVhttps://fbcdn-creative-a.akamaihd.net/hads-ak-ash3/s110x80/701889_6006844228965_34280_n.jpg\np6122\nsVcount_current_adgroups\np6123\nI1\nsVrun_status\np6124\nI1\nsVtype\np6125\nI1\nsVlink_url\np6126\nVhttp://www.buzzfeed.com/h1/fbad/generalelectric/21-pictures-that-will-make-you-wish-you-lived-duri-6ieg\np6127\nsVview_tag\np6128\ng37\nsa(dp6129\nValt_view_tags\np6130\n(lp6131\nsVbody\np6132\nVJust One of the "10 Reasons Why Flying In The Jet Age Was Better Than Today" on BuzzFeed!\np6133\nsVimage_hash\np6134\nVf8cf858f64ce90d93cd7d8963d94de0f\np6135\nsVname\np6136\nVRoyalty Service?\np6137\nsVtitle\np6138\nVRoyalty Service?\np6139\nsVcreative_id\np6140\nV6005852450565\np6141\nsVpreview_url\np6142\nVhttp://www.facebook.com/ads/api/creative_preview.php?cid=6005852450565\np6143\nsVid\np6144\nV6005852450565\np6145\nsVimage_url\np6146\nVhttps://fbcdn-creative-a.akamaihd.net/hads-ak-prn1/s110x80/708189_6006845558565_63382_n.jpg\np6147\nsVcount_current_adgroups\np6148\nI1\nsVrun_status\np6149\nI1\nsVtype\np6150\nI1\nsVlink_url\np6151\nVhttp://www.buzzfeed.com/h1/fbad/generalelectric/10-reasons-why-flying-in-the-jet-age-was-better-th-6ieg\np6152\nsVview_tag\np6153\ng37\nsa(dp6154\nValt_view_tags\np6155\n(lp6156\nsVbody\np6157\nVJust One of the "10 Reasons Why Flying In The Jet Age Was Better Than Today" on BuzzFeed!\np6158\nsVimage_hash\np6159\nV512e8c6d820436ccc2eedc3c9e2415b9\np6160\nsVname\np6161\nVRoyalty Service?-00\np6162\nsVtitle\np6163\nVRoyalty Service?\np6164\nsVcreative_id\np6165\nV6005852579965\np6166\nsVpreview_url\np6167\nVhttp://www.facebook.com/ads/api/creative_preview.php?cid=6005852579965\np6168\nsVid\np6169\nV6005852579965\np6170\nsVimage_url\np6171\nVhttps://fbcdn-creative-a.akamaihd.net/hads-ak-prn1/s110x80/708195_6006844559565_119_n.jpg\np6172\nsVcount_current_adgroups\np6173\nI1\nsVrun_status\np6174\nI1\nsVtype\np6175\nI1\nsVlink_url\np6176\nVhttp://www.buzzfeed.com/h1/fbad/generalelectric/10-reasons-why-flying-in-the-jet-age-was-better-th-6ieg\np6177\nsVview_tag\np6178\ng37\nsa(dp6179\nValt_view_tags\np6180\n(lp6181\nsVbody\np6182\nVIt made the list of the "15 Kick Ass Kippahs." Check out the rest on Buzzfeed!\np6183\nsVimage_hash\np6184\nVb3d8b43e16d7c534688e37b23d267005\np6185\nsVname\np6186\nVGeorge Bluth\'s Kippah\np6187\nsVtitle\np6188\nVGeorge Bluth\'s Kippah\np6189\nsVcreative_id\np6190\nV6005836136165\np6191\nsVpreview_url\np6192\nVhttp://www.facebook.com/ads/api/creative_preview.php?cid=6005836136165\np6193\nsVid\np6194\nV6005836136165\np6195\nsVimage_url\np6196\nVhttps://fbcdn-creative-a.akamaihd.net/hads-ak-prn1/s110x80/708188_6006845132365_44490_n.jpg\np6197\nsVcount_current_adgroups\np6198\nI1\nsVrun_status\np6199\nI1\nsVtype\np6200\nI1\nsVlink_url\np6201\nVhttp://www.buzzfeed.com/h1/fbad/virginmobilelive/15-kick-ass-kippahs-5l87\np6202\nsVview_tag\np6203\ng37\nsa(dp6204\nValt_view_tags\np6205\n(lp6206\nsVbody\np6207\nVIt made the list'
p6
sS'hash'
p7
S'9caabe288fa7581ae0402db2c930408638923a09'
p8
sS'stack'
p9
S''
s.