(dp1
S'args'
p2
S''
sS'methodname'
p3
S''
sS'packet_num'
p4
I96
sS'returnval'
p5
S'From Boy Bands In The 90s". See the rest!\np12695\nsVimage_hash\np12696\nV4905b07e066935f619c8c6a119ac1f5e\np12697\nsVname\np12698\nVAs Long As You Love Me-00\np12699\nsVtitle\np12700\nVNKOTB - "Step by Step"\np12701\nsVcreative_id\np12702\nV6005335511765\np12703\nsVpreview_url\np12704\nVhttp://www.facebook.com/ads/api/creative_preview.php?cid=6005335511765\np12705\nsVid\np12706\nV6005335511765\np12707\nsVimage_url\np12708\nVhttps://fbcdn-creative-a.akamaihd.net/hads-ak-ash3/s110x80/708187_6006844492965_3941_n.jpg\np12709\nsVcount_current_adgroups\np12710\nI1\nsVrun_status\np12711\nI1\nsVtype\np12712\nI1\nsVlink_url\np12713\nVhttp://www.buzzfeed.com/h1/fbad/oldnavy/the-best-music-videos-from-boy-bands-in-the-90s-6clx\np12714\nsVview_tag\np12715\ng37\nsa(dp12716\nValt_view_tags\np12717\n(lp12718\nsVbody\np12719\nVThis N*SYNC hit is one of "The Best Music Videos From Boy Bands In The 90s". See the rest!\np12720\nsVimage_hash\np12721\nVd717373a77e5b115f77ddfb14c9d6e9f\np12722\nsVname\np12723\nVAs Long As You Love Me-00-00\np12724\nsVtitle\np12725\nVN*SYNC - I Want You Back!\np12726\nsVcreative_id\np12727\nV6005335514165\np12728\nsVpreview_url\np12729\nVhttp://www.facebook.com/ads/api/creative_preview.php?cid=6005335514165\np12730\nsVid\np12731\nV6005335514165\np12732\nsVimage_url\np12733\nVhttps://fbcdn-creative-a.akamaihd.net/hads-ak-prn1/s110x80/708189_6006845334165_6565_n.jpg\np12734\nsVcount_current_adgroups\np12735\nI1\nsVrun_status\np12736\nI1\nsVtype\np12737\nI1\nsVlink_url\np12738\nVhttp://www.buzzfeed.com/h1/fbad/oldnavy/the-best-music-videos-from-boy-bands-in-the-90s-6clx\np12739\nsVview_tag\np12740\ng37\nsa(dp12741\nValt_view_tags\np12742\n(lp12743\nsVbody\np12744\nVIt\'s one of the songs on your iPod that you shouldn\'t be embarassed of! See the rest!\np12745\nsVimage_hash\np12746\nV90c696e51e464f8ef902ba8ce5cb80d5\np12747\nsVname\np12748\nVNKOTB - "Step by Step"\np12749\nsVtitle\np12750\nVNKOTB - "Step by Step"\np12751\nsVcreative_id\np12752\nV6005335415365\np12753\nsVpreview_url\np12754\nVhttp://www.facebook.com/ads/api/creative_preview.php?cid=6005335415365\np12755\nsVid\np12756\nV6005335415365\np12757\nsVimage_url\np12758\nVhttps://fbcdn-creative-a.akamaihd.net/hads-ak-ash3/s110x80/708189_6006844910565_64453_n.jpg\np12759\nsVcount_current_adgroups\np12760\nI1\nsVrun_status\np12761\nI1\nsVtype\np12762\nI1\nsVlink_url\np12763\nVhttp://www.buzzfeed.com/h1/fbad/oldnavy/songs-from-the-90s-you-shouldnt-be-embarrassed-to-6clx\np12764\nsVview_tag\np12765\ng37\nsa(dp12766\nValt_view_tags\np12767\n(lp12768\nsVbody\np12769\nVIt\'s one of the songs on your iPod that you shouldn\'t be embarassed of! See the rest!\np12770\nsVimage_hash\np12771\nVd717373a77e5b115f77ddfb14c9d6e9f\np12772\nsVname\np12773\nVNKOTB - "Step by Step"-00\np12774\nsVtitle\np12775\nVN*SYNC - I Want You Back\np12776\nsVcreative_id\np12777\nV6005335418365\np12778\nsVpreview_url\np12779\nVhttp://www.facebook.com/ads/api/creative_preview.php?cid=6005335418365\np12780\nsVid\np12781\nV6005335418365\np12782\nsVimage_url\np12783\nVhttps://fbcdn-creative-a.akamaihd.net/hads-ak-prn1/s110x80/708189_6006845334165_6565_n.jpg\np12784\nsVcount_current_adgroups\np12785\nI1\nsVrun_status\np12786\nI1\nsVtype\np12787\nI1\nsVlink_url\np12788\nVhttp://www.buzzfeed.com/h1/fbad/oldnavy/songs-from-the-90s-you-shouldnt-be-embarrassed-to-6clx\np12789\nsVview_tag\np12790\ng37\nsa(dp12791\nValt_view_tags\np12792\n(lp12793\nsVbody\np12794\nVIt\'s one of the songs on your iPod that you shouldn\'t be embarassed of! See the rest!\np12795\nsVimage_hash\np12796\nV4905b07e066935f619c8c6a119ac1f5e\np12797\nsVname\np12798\nVNKOTB - "Step by Step"-00-00-00\np12799\nsVtitle\np12800\nVBSB - I Want It That Way\np12801\nsVcreative_id\np12802\nV6005335436565\np12803\nsVpreview_url\np12804\nVhttp://www.facebook.com/ads/api/creative_preview.php?cid=6005335436565\np12805\nsVid\np12806\nV6005335436565\np12807\nsVimage_url\np12808\nVhttps://fbcdn-creative-a.akamaihd.net/hads-ak-ash3/s110x80/708187_6006844492965_3941_n.jpg\np12809\nsVcount_current_adgroups\np12810\nI1\nsVrun_status\np12811\nI1\nsVtype\np12812\nI1\nsVlink_url\np12813\nVhttp://www.buzzfeed.com/h1/fbad/oldnavy/songs-from-the-90s-you-shouldnt-be-embarrassed-to-6clx\np12814\nsVview_tag\np12815\ng37\nsa(dp12816\nValt_view_tags\np12817\n(lp12818\nsVbody\np12819\nVMakes our list of most anticpated s'
p6
sS'hash'
p7
S'9caabe288fa7581ae0402db2c930408638923a09'
p8
sS'stack'
p9
S''
s.