(dp1
S'args'
p2
S''
sS'methodname'
p3
S''
sS'packet_num'
p4
I88
sS'returnval'
p5
S'0x80/708157_6006844420365_56822_n.jpg\np11664\nsVcount_current_adgroups\np11665\nI1\nsVrun_status\np11666\nI1\nsVtype\np11667\nI1\nsVlink_url\np11668\nVhttp://www.buzzfeed.com/h1/fbad/smalltownsecurity/the-10-coolest-fictional-security-guards-6iyz\np11669\nsVview_tag\np11670\ng37\nsa(dp11671\nVrelated_fan_page\np11672\nI1\nsVname\np11673\nVSponsored story #6005468952765\np11674\nsVtitle\np11675\nV25 Best Pieces of Breaking Bad Fan Art\np11676\nsVurl_tags\np11677\ng37\nsVcreative_id\np11678\nV6005468952765\np11679\nsVpreview_url\np11680\nVhttp://www.facebook.com/ads/api/creative_preview.php?cid=6005468952765\np11681\nsVaction_spec\np11682\n(dp11683\nVobject\np11684\nVhttp://www.buzzfeed.com/h1/fbss/breakingbad/25-best-pieces-of-breaking-bad-fan-art-61z6\np11685\nsVaction.type\np11686\nVlike\np11687\nssVcluster_id\np11688\nI6005468952565\nsVcount_current_adgroups\np11689\nI1\nsVrun_status\np11690\nI1\nsVtype\np11691\nI25\nsVid\np11692\nV6005468952765\np11693\nsa(dp11694\nVrelated_fan_page\np11695\nI1\nsVname\np11696\nVSponsored story #6005468445965\np11697\nsVtitle\np11698\nVStories That Prove Animals Have Souls\np11699\nsVurl_tags\np11700\ng37\nsVcreative_id\np11701\nV6005468445965\np11702\nsVpreview_url\np11703\nVhttp://www.facebook.com/ads/api/creative_preview.php?cid=6005468445965\np11704\nsVaction_spec\np11705\n(dp11706\nVobject\np11707\nVhttp://www.buzzfeed.com/h1/fbss/expresident/stories-that-prove-animals-have-souls\np11708\nsVaction.type\np11709\nVlike\np11710\nssVcluster_id\np11711\nI6005468445765\nsVcount_current_adgroups\np11712\nI1\nsVrun_status\np11713\nI1\nsVtype\np11714\nI25\nsVid\np11715\nV6005468445965\np11716\nsa(dp11717\nValt_view_tags\np11718\n(lp11719\nsVbody\np11720\nVShe\'s one of "The World\'s Most Inspirational Female Athletes". See the rest on BuzzFeed!\np11721\nsVimage_hash\np11722\nVdb9b07ba3e8e34200936eb357152f731\np11723\nsVname\np11724\nVLisa Leslie\np11725\nsVtitle\np11726\nVLisa Leslie\np11727\nsVcreative_id\np11728\nV6005458297765\np11729\nsVpreview_url\np11730\nVhttp://www.facebook.com/ads/api/creative_preview.php?cid=6005458297765\np11731\nsVid\np11732\nV6005458297765\np11733\nsVimage_url\np11734\nVhttps://fbcdn-creative-a.akamaihd.net/hads-ak-prn1/s110x80/708191_6006845365965_26564_n.jpg\np11735\nsVcount_current_adgroups\np11736\nI1\nsVrun_status\np11737\nI1\nsVtype\np11738\nI1\nsVlink_url\np11739\nVhttp://www.buzzfeed.com/h1/fbad/jordanriseabove/10-of-the-worlds-most-inspirational-female-athlet-6peo\np11740\nsVview_tag\np11741\ng37\nsa(dp11742\nValt_view_tags\np11743\n(lp11744\nsVbody\np11745\nVShe\'s one of "The World\'s Most Inspirational Female Athletes". See the rest on BuzzFeed!\np11746\nsVimage_hash\np11747\nVbbf7312d98b5823dd42986ac8674593a\np11748\nsVname\np11749\nVLisa Leslie-00\np11750\nsVtitle\np11751\nVBethany Hamilton\np11752\nsVcreative_id\np11753\nV6005458304765\np11754\nsVpreview_url\np11755\nVhttp://www.facebook.com/ads/api/creative_preview.php?cid=6005458304765\np11756\nsVid\np11757\nV6005458304765\np11758\nsVimage_url\np11759\nVhttps://fbcdn-creative-a.akamaihd.net/hads-ak-ash3/s110x80/708201_6006845177765_49367_n.jpg\np11760\nsVcount_current_adgroups\np11761\nI1\nsVrun_status\np11762\nI1\nsVtype\np11763\nI1\nsVlink_url\np11764\nVhttp://www.buzzfeed.com/h1/fbad/jordanriseabove/10-of-the-worlds-most-inspirational-female-athlet-6peo\np11765\nsVview_tag\np11766\ng37\nsa(dp11767\nValt_view_tags\np11768\n(lp11769\nsVbody\np11770\nVShe\'s one of "The World\'s Most Inspirational Female Athletes". See the rest on BuzzFeed!\np11771\nsVimage_hash\np11772\nVf55ded8c9a4d99eb24a542c82ea1f2b8\np11773\nsVname\np11774\nVLisa Leslie-00-00\np11775\nsVtitle\np11776\nVSerena Williams\np11777\nsVcreative_id\np11778\nV6005458308965\np11779\nsVpreview_url\np11780\nVhttp://www.facebook.com/ads/api/creative_preview.php?cid=6005458308965\np11781\nsVid\np11782\nV6005458308965\np11783\nsVimage_url\np11784\nVhttps://fbcdn-creative-a.akamaihd.net/hads-ak-prn1/s110x80/708186_6006845534365_9957_n.jpg\np11785\nsVcount_current_adgroups\np11786\nI1\nsVrun_status\np11787\nI1\nsVtype\np11788\nI1\nsVlink_url\np11789\nVhttp://www.buzzfeed.com/h1/fbad/jordanriseabove/10-of-the-worlds-most-inspirational-female-athlet-6peo\np11790\nsVview_tag\np11791\ng37\nsa(dp11792\nValt_view_tags\np11793\n(lp11794\nsVbody\np11795\nVShe\'s one of "The World\'s Most Inspirational Female Athletes". See the'
p6
sS'hash'
p7
S'9caabe288fa7581ae0402db2c930408638923a09'
p8
sS'stack'
p9
S''
s.