(dp1
S'args'
p2
S''
sS'methodname'
p3
S''
sS'packet_num'
p4
I191
sS'returnval'
p5
S'ing Rich-01\np24767\nsVtitle\np24768\nVGuide To Acting Rich\np24769\nsVcreative_id\np24770\nV6004134135365\np24771\nsVpreview_url\np24772\nVhttp://www.facebook.com/ads/api/creative_preview.php?cid=6004134135365\np24773\nsVid\np24774\nV6004134135365\np24775\nsVimage_url\np24776\nVhttps://fbcdn-creative-a.akamaihd.net/hads-ak-prn1/s110x80/708159_6006844257765_58974_n.jpg\np24777\nsVcount_current_adgroups\np24778\nI1\nsVrun_status\np24779\nI1\nsVtype\np24780\nI1\nsVlink_url\np24781\nVhttp://www.buzzfeed.com/h1/fba/freecreditscore/the-guide-to-acting-rich-when-youre-actually\np24782\nsVview_tag\np24783\ng37\nsa(dp24784\nValt_view_tags\np24785\n(lp24786\nsVbody\np24787\nVRead the full story of Uggie, the very talented Jack Russell Terrier, in Slate\'s "The Case Against Uggie The Dog"\np24788\nsVimage_hash\np24789\nVfd56f676b3787570459feea2d133aa80\np24790\nsVname\np24791\nVHollywood\'s Top Dog!\np24792\nsVtitle\np24793\nVHollywood\'s Top Dog!\np24794\nsVcreative_id\np24795\nV6004128245765\np24796\nsVpreview_url\np24797\nVhttp://www.facebook.com/ads/api/creative_preview.php?cid=6004128245765\np24798\nsVid\np24799\nV6004128245765\np24800\nsVimage_url\np24801\nVhttps://fbcdn-creative-a.akamaihd.net/hads-ak-prn1/s110x80/708187_6006845586565_10506_n.jpg\np24802\nsVcount_current_adgroups\np24803\nI1\nsVrun_status\np24804\nI1\nsVtype\np24805\nI1\nsVlink_url\np24806\nVhttp://www.slate.com/blogs/browbeat/2011/12/05/the_artist_s_canine_costar_uggie_is_little_more_than_a_hound_for_attention.html#bfsrc=HFBA2\np24807\nsVview_tag\np24808\ng37\nsa(dp24809\nValt_view_tags\np24810\n(lp24811\nsVbody\np24812\nVTake a look at the inspiration behind old school pin-up tattoos in Sailor Jerry\'s "Top 50 Hottest Vintage Pin-Ups"\np24813\nsVimage_hash\np24814\nVe23fa4a5d123fc2f67c5c16cb01dd879\np24815\nsVname\np24816\nVVintage Pin-Up Tattoos!-00\np24817\nsVtitle\np24818\nVVintage Pin-Up Tattoos!\np24819\nsVcreative_id\np24820\nV6004121641765\np24821\nsVpreview_url\np24822\nVhttp://www.facebook.com/ads/api/creative_preview.php?cid=6004121641765\np24823\nsVid\np24824\nV6004121641765\np24825\nsVimage_url\np24826\nVhttps://fbcdn-creative-a.akamaihd.net/hads-ak-ash3/s110x80/708157_6006845412765_60556_n.jpg\np24827\nsVcount_current_adgroups\np24828\nI1\nsVrun_status\np24829\nI1\nsVtype\np24830\nI1\nsVlink_url\np24831\nVhttp://www.buzzfeed.com/h1/fba/sailorjerryrum/top-50-hottest-vintage-pin-ups-3bh6\np24832\nsVview_tag\np24833\ng37\nsasVoffset\np24834\nV1000\np24835\ns.'
p6
sS'hash'
p7
S'9caabe288fa7581ae0402db2c930408638923a09'
p8
sS'stack'
p9
S'__json_response /home/orozco/development/django/buzzfeed/local/lib/python2.7/site-packages/caliendo/facade.py cache /home/orozco/development/django/buzzfeed/pyfacebook/pyfacebook/__init__.py get /home/orozco/development/django/buzzfeed/pyfacebook/pyfacebook/__init__.py get_all /home/orozco/development/django/buzzfeed/pyfacebook/pyfacebook/__init__.py get_list_from_fb /home/orozco/development/django/buzzfeed/pyfacebook/pyfacebook/api/adcreative.py find_by_adaccount_id /home/orozco/development/django/buzzfeed/pyfacebook/test/adcreative_test.py test_find_by_adaccount_id /home/orozco/development/django/buzzfeed/local/lib/python2.7/site-packages/nose/case.py runTest /usr/lib/python2.7/unittest/case.py run /usr/lib/python2.7/unittest/case.py __call__ /home/orozco/development/django/buzzfeed/local/lib/python2.7/site-packages/nose/case.py runTest /home/orozco/development/django/buzzfeed/local/lib/python2.7/site-packages/nose/case.py run /home/orozco/development/django/buzzfeed/local/lib/python2.7/site-packages/nose/case.py __call__ /home/orozco/development/django/buzzfeed/local/lib/python2.7/site-packages/nose/suite.py run /home/orozco/development/django/buzzfeed/local/lib/python2.7/site-packages/nose/suite.py __call__ /home/orozco/development/django/buzzfeed/local/lib/python2.7/site-packages/nose/suite.py run /home/orozco/development/django/buzzfeed/local/lib/python2.7/site-packages/nose/suite.py __call__ /home/orozco/development/django/buzzfeed/local/lib/python2.7/site-packages/nose/suite.py run /home/orozco/development/django/buzzfeed/local/lib/python2.7/site-packages/nose/suite.py __call__ /home/orozco/development/django/buzzfeed/local/lib/python2.7/site-packages/nose/suite.py run /home/orozco/development/django/buzzfeed/local/lib/python2.7/s'
p10
s.