(dp1
S'args'
p2
S''
sS'methodname'
p3
S''
sS'packet_num'
p4
I118
sS'returnval'
p5
S'630\nVThis and more in "10 Decadent Foods That Will Make You Salivate" See them on BuzzFeed!\np15631\nsVimage_hash\np15632\nVbf6bca716377bdac547809ceb4605cde\np15633\nsVname\np15634\nVThe Turbaconducken!\np15635\nsVtitle\np15636\nVThe Turbaconducken!\np15637\nsVcreative_id\np15638\nV6005227988165\np15639\nsVpreview_url\np15640\nVhttp://www.facebook.com/ads/api/creative_preview.php?cid=6005227988165\np15641\nsVid\np15642\nV6005227988165\np15643\nsVimage_url\np15644\nVhttps://fbcdn-creative-a.akamaihd.net/hads-ak-prn1/s110x80/708192_6006845201165_31090_n.jpg\np15645\nsVcount_current_adgroups\np15646\nI1\nsVrun_status\np15647\nI1\nsVtype\np15648\nI1\nsVlink_url\np15649\nVhttp://www.buzzfeed.com/h1/fbad/freal/10-decadent-foods-that-will-make-you-salivate-5k2r\np15650\nsVview_tag\np15651\ng37\nsa(dp15652\nValt_view_tags\np15653\n(lp15654\nsVbody\np15655\nVCheck out "The Craziest Award Show Drama Of All Time" for more memorable moments.\np15656\nsVimage_hash\np15657\nV4ce2d5799cdd9ac338369af5c04107b2\np15658\nsVname\np15659\nVRemember Kanye\'s Robbery?\np15660\nsVtitle\np15661\nVRemember Kanye\'s Robbery?\np15662\nsVcreative_id\np15663\nV6005227586365\np15664\nsVpreview_url\np15665\nVhttp://www.facebook.com/ads/api/creative_preview.php?cid=6005227586365\np15666\nsVid\np15667\nV6005227586365\np15668\nsVimage_url\np15669\nVhttps://fbcdn-creative-a.akamaihd.net/hads-ak-ash3/s110x80/701895_6006844525365_30622_n.jpg\np15670\nsVcount_current_adgroups\np15671\nI1\nsVrun_status\np15672\nI1\nsVtype\np15673\nI1\nsVlink_url\np15674\nVhttp://www.buzzfeed.com/h1/fbad/mtvmovieawards/the-craziest-award-show-drama-of-all-time-69vw\np15675\nsVview_tag\np15676\ng37\nsa(dp15677\nValt_view_tags\np15678\n(lp15679\nsVbody\np15680\nVCheck out "The Craziest Award Show Drama Of All Time" for more of these memorable moments.\np15681\nsVimage_hash\np15682\nVc457bbc11238e5410475cdbe42af669a\np15683\nsVname\np15684\nVAdele Flips Off @ Awards-00\np15685\nsVtitle\np15686\nVAdele Flips Off @ Awards\np15687\nsVcreative_id\np15688\nV6005227876965\np15689\nsVpreview_url\np15690\nVhttp://www.facebook.com/ads/api/creative_preview.php?cid=6005227876965\np15691\nsVid\np15692\nV6005227876965\np15693\nsVimage_url\np15694\nVhttps://fbcdn-creative-a.akamaihd.net/hads-ak-snc7/s110x80/701899_6006845229165_33630_n.jpg\np15695\nsVcount_current_adgroups\np15696\nI1\nsVrun_status\np15697\nI1\nsVtype\np15698\nI1\nsVlink_url\np15699\nVhttp://www.buzzfeed.com/h1/fbad/mtvmovieawards/the-craziest-award-show-drama-of-all-time-69vw\np15700\nsVview_tag\np15701\ng37\nsa(dp15702\nValt_view_tags\np15703\n(lp15704\nsVbody\np15705\nV15 Strange Sightings That Will Make You Say WTF! See the rest on BuzzFeed!\np15706\nsVimage_hash\np15707\nV425383b82378c16842bf07cbe6dd05aa\np15708\nsVname\np15709\nVNo Way - Check this out!\np15710\nsVtitle\np15711\nVNo Way - Check this out!\np15712\nsVcreative_id\np15713\nV6005227001365\np15714\nsVpreview_url\np15715\nVhttp://www.facebook.com/ads/api/creative_preview.php?cid=6005227001365\np15716\nsVid\np15717\nV6005227001365\np15718\nsVimage_url\np15719\nVhttps://fbcdn-creative-a.akamaihd.net/hads-ak-prn1/s110x80/708205_6006844451165_46484_n.jpg\np15720\nsVcount_current_adgroups\np15721\nI1\nsVrun_status\np15722\nI1\nsVtype\np15723\nI1\nsVlink_url\np15724\nVhttp://www.buzzfeed.com/h1/fbad/tosh529/15-strange-sightings-that-will-make-you-say-wtf\np15725\nsVview_tag\np15726\ng37\nsa(dp15727\nValt_view_tags\np15728\n(lp15729\nsVbody\np15730\nVCheck out all these throwback looks - including JT\'s bedazzled shirt and corn rows.\np15731\nsVimage_hash\np15732\nV4ce9cac89b927ace38f1316070f956c0\np15733\nsVname\np15734\nVThe Throwback JT\np15735\nsVtitle\np15736\nVThe Throwback JT\np15737\nsVcreative_id\np15738\nV6005220656765\np15739\nsVpreview_url\np15740\nVhttp://www.facebook.com/ads/api/creative_preview.php?cid=6005220656765\np15741\nsVid\np15742\nV6005220656765\np15743\nsVimage_url\np15744\nVhttps://fbcdn-creative-a.akamaihd.net/hads-ak-prn1/s110x80/701895_6006844525565_37555_n.jpg\np15745\nsVcount_current_adgroups\np15746\nI2\nsVrun_status\np15747\nI1\nsVtype\np15748\nI1\nsVlink_url\np15749\nVhttp://www.buzzfeed.com/h1/fbad/mtvmovieawards/throwbacks-from-the-movie-awards-that-will-make-yo-69vw\np15750\nsVview_tag\np15751\ng37\nsa(dp15752\nValt_view_tags\np15753\n(lp15754\nsVbody\np15755\nVCheck out the rest of these ce'
p6
sS'hash'
p7
S'9caabe288fa7581ae0402db2c930408638923a09'
p8
sS'stack'
p9
S''
s.