(dp1
S'args'
p2
S''
sS'methodname'
p3
S''
sS'packet_num'
p4
I6
sS'returnval'
p5
S'y\np811\nVAmerican Horror Story returns this month. Check out some pictures to get in the mood!\np812\nsVimage_hash\np813\nVeacef83b5aabf66c5e2ca1a68ca70b9e\np814\nsVname\np815\nVAbandoned Asylums-00\np816\nsVtitle\np817\nVAbandoned Asylums\np818\nsVcreative_id\np819\nV6005957931565\np820\nsVpreview_url\np821\nVhttp://www.facebook.com/ads/api/creative_preview.php?cid=6005957931565\np822\nsVid\np823\nV6005957931565\np824\nsVimage_url\np825\nVhttps://fbcdn-creative-a.akamaihd.net/hads-ak-prn1/s110x80/708164_6006845471565_58602_n.jpg\np826\nsVcount_current_adgroups\np827\nI1\nsVrun_status\np828\nI1\nsVtype\np829\nI1\nsVlink_url\np830\nVhttp://www.buzzfeed.com/h1/fbad/americanhorrorstory/20-haunting-pictures-of-abandoned-asylums\np831\nsVview_tag\np832\ng37\nsa(dp833\nValt_view_tags\np834\n(lp835\nsVbody\np836\nVCheck out the best of the "10 Airplane Seat-To-Seat Chat Pickup Lines!"\np837\nsVimage_hash\np838\nV0045344c91f501bc56c87e437d962cc5\np839\nsVname\np840\nVThe Mile High Club?\np841\nsVtitle\np842\nVThe Mile High Club?\np843\nsVcreative_id\np844\nV6005958111965\np845\nsVpreview_url\np846\nVhttp://www.facebook.com/ads/api/creative_preview.php?cid=6005958111965\np847\nsVid\np848\nV6005958111965\np849\nsVimage_url\np850\nVhttps://fbcdn-creative-a.akamaihd.net/hads-ak-prn1/s110x80/708174_6006844054565_48172_n.jpg\np851\nsVcount_current_adgroups\np852\nI2\nsVrun_status\np853\nI1\nsVtype\np854\nI1\nsVlink_url\np855\nVhttp://www.buzzfeed.com/h1/fbad/virginamerica/10-airplane-seat-to-seat-chat-pickup-lines\np856\nsVview_tag\np857\ng37\nsa(dp858\nValt_view_tags\np859\n(lp860\nsVbody\np861\nVIf you don\'t, then you\'re not worthy. See if you have what it takes to be in "The League!"\np862\nsVimage_hash\np863\nV5a725f80a1f82b999ac29f3270686203\np864\nsVname\np865\nVDo You Pray For Wins?\np866\nsVtitle\np867\nVDo You Pray For Wins?\np868\nsVcreative_id\np869\nV6005957690165\np870\nsVpreview_url\np871\nVhttp://www.facebook.com/ads/api/creative_preview.php?cid=6005957690165\np872\nsVid\np873\nV6005957690165\np874\nsVimage_url\np875\nVhttps://fbcdn-creative-a.akamaihd.net/hads-ak-ash3/s110x80/708164_6006844610165_341_n.jpg\np876\nsVcount_current_adgroups\np877\nI1\nsVrun_status\np878\nI1\nsVtype\np879\nI1\nsVlink_url\np880\nVhttp://www.buzzfeed.com/h1/fbad/theleague/do-you-have-what-it-takes-to-be-in-the-league\np881\nsVview_tag\np882\ng37\nsa(dp883\nValt_view_tags\np884\n(lp885\nsVbody\np886\nVTest yourself and find out if you have what it takes to be in "The League!"\np887\nsVimage_hash\np888\nVc489e30fde5249ae0cf179da29d47a1a\np889\nsVname\np890\nVDo You Pray For Wins?-00\np891\nsVtitle\np892\nVThe League \np893\nsVcreative_id\np894\nV6005966880765\np895\nsVpreview_url\np896\nVhttp://www.facebook.com/ads/api/creative_preview.php?cid=6005966880765\np897\nsVid\np898\nV6005966880765\np899\nsVimage_url\np900\nVhttps://fbcdn-creative-a.akamaihd.net/hads-ak-ash3/s110x80/701899_6006845229565_54902_n.jpg\np901\nsVcount_current_adgroups\np902\nI1\nsVrun_status\np903\nI1\nsVtype\np904\nI1\nsVlink_url\np905\nVhttp://www.buzzfeed.com/h1/fbad/theleague/do-you-have-what-it-takes-to-be-in-the-league\np906\nsVview_tag\np907\ng37\nsa(dp908\nValt_view_tags\np909\n(lp910\nsVbody\np911\nVCheck Out "The Ultimate Collection Of Tim Burton GIFs" on BuzzFeed!\\u000a\np912\nsVimage_hash\np913\nV20988e0f309540c6becdc7e16723e5d8\np914\nsVname\np915\nVEdward Scissorhands GIF-00\np916\nsVtitle\np917\nVWilly Wonka GIF\np918\nsVcreative_id\np919\nV6005889669765\np920\nsVpreview_url\np921\nVhttp://www.facebook.com/ads/api/creative_preview.php?cid=6005889669765\np922\nsVid\np923\nV6005889669765\np924\nsVimage_url\np925\nVhttps://fbcdn-creative-a.akamaihd.net/hads-ak-ash3/s110x80/708205_6006844248965_5776_n.jpg\np926\nsVcount_current_adgroups\np927\nI1\nsVrun_status\np928\nI1\nsVtype\np929\nI1\nsVlink_url\np930\nVhttp://www.buzzfeed.com/h1/fbad/frankenweenie/the-ultimate-collection-of-tim-burton-gifs\np931\nsVview_tag\np932\ng37\nsa(dp933\nValt_view_tags\np934\n(lp935\nsVbody\np936\nVCheck out "The Ultimate Collection Of Tim Burton GIFs" on BuzzFeed!\np937\nsVimage_hash\np938\nV88d498fd1b2df1c177973980579eb922\np939\nsVname\np940\nVEdward Scissorhands GIF-00-00\np941\nsVtitle\np942\nVJack Nicholson as Joker\np943\nsVcreative_id\np944\nV6005889678365\np945\nsVpreview_url\np946\nVhttp://www.facebook.com/ads/api/creative_preview.php?cid=600588967'
p6
sS'hash'
p7
S'9caabe288fa7581ae0402db2c930408638923a09'
p8
sS'stack'
p9
S''
s.