(dp1
S'args'
p2
S''
sS'methodname'
p3
S''
sS'packet_num'
p4
I61
sS'returnval'
p5
S'3ef3db71cf4e5c9cf25a465122b95db9\np8157\nsVname\np8158\nVSix Degrees Of Seperation-00-00-00-00\np8159\nsVtitle\np8160\nVSix Degrees Of Separation\np8161\nsVcreative_id\np8162\nV6005709040765\np8163\nsVpreview_url\np8164\nVhttp://www.facebook.com/ads/api/creative_preview.php?cid=6005709040765\np8165\nsVid\np8166\nV6005709040765\np8167\nsVimage_url\np8168\nVhttps://fbcdn-creative-a.akamaihd.net/hads-ak-prn1/s110x80/708157_6006844419765_49044_n.jpg\np8169\nsVcount_current_adgroups\np8170\nI1\nsVrun_status\np8171\nI1\nsVtype\np8172\nI1\nsVlink_url\np8173\nVhttp://www.buzzfeed.com/h1/fbad/childrensntsf/the-interconnected-comedy-world-of-rob-corddry-and-6xt7\np8174\nsVview_tag\np8175\ng37\nsa(dp8176\nValt_view_tags\np8177\n(lp8178\nsVbody\np8179\nVJust one of the "22 Kick A$S Women We Want To Be Like." Check out more on BuzzFeed!\np8180\nsVimage_hash\np8181\nV6cd174c4460830af8e8bb833a9367ef6\np8182\nsVname\np8183\nVMcKayla...Unimpressed-01\np8184\nsVtitle\np8185\nVMcKayla...Unimpressed\np8186\nsVcreative_id\np8187\nV6005680649565\np8188\nsVpreview_url\np8189\nVhttp://www.facebook.com/ads/api/creative_preview.php?cid=6005680649565\np8190\nsVid\np8191\nV6005680649565\np8192\nsVimage_url\np8193\nVhttps://fbcdn-creative-a.akamaihd.net/hads-ak-ash3/s110x80/701901_6006844711565_60085_n.jpg\np8194\nsVcount_current_adgroups\np8195\nI1\nsVrun_status\np8196\nI1\nsVtype\np8197\nI1\nsVlink_url\np8198\nVhttp://www.buzzfeed.com/h1/fbad/juicycouture/22-kick-ass-women-we-want-to-be-like\np8199\nsVview_tag\np8200\ng37\nsa(dp8201\nVrelated_fan_page\np8202\nI1\nsVname\np8203\nVSponsored story #6005675642565\np8204\nsVtitle\np8205\nVAd Title\np8206\nsVurl_tags\np8207\nVfb_ref%3dhfbss1\np8208\nsVcreative_id\np8209\nV6005675642565\np8210\nsVpreview_url\np8211\nVhttp://www.facebook.com/ads/api/creative_preview.php?cid=6005675642565\np8212\nsVaction_spec\np8213\n(dp8214\nVobject\np8215\nVhttp://www.buzzfeed.com/theinbetweeners/the-hottest-milfs-on-tv-today-701f\np8216\nsVaction.type\np8217\nVlike\np8218\nssVcluster_id\np8219\nI6005675642365\nsVcount_current_adgroups\np8220\nI1\nsVrun_status\np8221\nI1\nsVtype\np8222\nI25\nsVid\np8223\nV6005675642565\np8224\nsa(dp8225\nVrelated_fan_page\np8226\nI1\nsVname\np8227\nVSponsored story #6005675633165\np8228\nsVtitle\np8229\nVAd Title\np8230\nsVurl_tags\np8231\nVfb_ref%3dhfbss1\np8232\nsVcreative_id\np8233\nV6005675633165\np8234\nsVpreview_url\np8235\nVhttp://www.facebook.com/ads/api/creative_preview.php?cid=6005675633165\np8236\nsVaction_spec\np8237\n(dp8238\nVobject\np8239\nVhttp://www.buzzfeed.com/theinbetweeners/the-dos-and-donts-of-losing-your-virginity\np8240\nsVaction.type\np8241\nVlike\np8242\nssVcluster_id\np8243\nI6005675632965\nsVcount_current_adgroups\np8244\nI1\nsVrun_status\np8245\nI1\nsVtype\np8246\nI25\nsVid\np8247\nV6005675633165\np8248\nsa(dp8249\nValt_view_tags\np8250\n(lp8251\nsVbody\np8252\nVIt made our list of "10 Badass Spy Gadgets That Are Almost Too Cool To Believe." See more!\np8253\nsVimage_hash\np8254\nV617894b3b554e95f53af071b650a8868\np8255\nsVname\np8256\nVFace Scanning Glasses?\np8257\nsVtitle\np8258\nVFace Scanning Glasses?\np8259\nsVcreative_id\np8260\nV6005669952765\np8261\nsVpreview_url\np8262\nVhttp://www.facebook.com/ads/api/creative_preview.php?cid=6005669952765\np8263\nsVid\np8264\nV6005669952765\np8265\nsVimage_url\np8266\nVhttps://fbcdn-creative-a.akamaihd.net/hads-ak-ash3/s110x80/701903_6006844645565_40243_n.jpg\np8267\nsVcount_current_adgroups\np8268\nI2\nsVrun_status\np8269\nI1\nsVtype\np8270\nI1\nsVlink_url\np8271\nVhttp://www.buzzfeed.com/h1/fbad/daybreak/10-badass-spy-gadgets-that-are-almost-too-cool-to\np8272\nsVview_tag\np8273\ng37\nsa(dp8274\nValt_view_tags\np8275\n(lp8276\nsVbody\np8277\nVThe boys deliver an acoustic version of the Oasis classic - "Wonderwall".  Must watch!\np8278\nsVimage_hash\np8279\nV5db3143c998d65b680cdba2c3b24d0a9\np8280\nsVname\np8281\nVOne Direction-Wonderwall!\np8282\nsVtitle\np8283\nVOne Direction-Wonderwall!\np8284\nsVcreative_id\np8285\nV6005668853165\np8286\nsVpreview_url\np8287\nVhttp://www.facebook.com/ads/api/creative_preview.php?cid=6005668853165\np8288\nsVid\np8289\nV6005668853165\np8290\nsVimage_url\np8291\nVhttps://fbcdn-creative-a.akamaihd.net/hads-ak-prn1/s110x80/708195_6006844627765_23313_n.jpg\np8292\nsVcount_current_adgroups\np8293\nI1\nsVrun_status\np8294\nI1\nsVtype\np8295\nI1\nsVlink_url\np8296\nVhttp:/'
p6
sS'hash'
p7
S'9caabe288fa7581ae0402db2c930408638923a09'
p8
sS'stack'
p9
S''
s.