(dp1
S'args'
p2
S''
sS'methodname'
p3
S''
sS'packet_num'
p4
I24
sS'returnval'
p5
S"/fbcdn-creative-a.akamaihd.net/hads-ak-prn1/s110x80/708205_6006844866165_54988_n.jpg\np3147\nsVcount_current_adgroups\np3148\nI1\nsVrun_status\np3149\nI1\nsVtype\np3150\nI1\nsVlink_url\np3151\nVhttp://www.buzzfeed.com/h1/fbad/beautyandthebeast/the-most-inspiring-love-stories-of-all-time-793j\np3152\nsVview_tag\np3153\ng37\nsa(dp3154\nValt_view_tags\np3155\n(lp3156\nsVbody\np3157\nVThe Asylum opens in October. Check out these teaser videos if you aren't afraid already!\np3158\nsVimage_hash\np3159\nVee1d5c2e5a6bddc151598ee6cbad809c\np3160\nsVname\np3161\nVAmerican Horror Story -00\np3162\nsVtitle\np3163\nVAmerican Horror Story \np3164\nsVcreative_id\np3165\nV6005923347965\np3166\nsVpreview_url\np3167\nVhttp://www.facebook.com/ads/api/creative_preview.php?cid=6005923347965\np3168\nsVid\np3169\nV6005923347965\np3170\nsVimage_url\np3171\nVhttps://fbcdn-creative-a.akamaihd.net/hads-ak-ash3/s110x80/708169_6006845491565_9756_n.jpg\np3172\nsVcount_current_adgroups\np3173\nI1\nsVrun_status\np3174\nI1\nsVtype\np3175\nI1\nsVlink_url\np3176\nVhttp://www.buzzfeed.com/h1/fbad/americanhorrorstory/more-foreboding-teasers-released-for-american-h\np3177\nsVview_tag\np3178\ng37\nsa(dp3179\nValt_view_tags\np3180\n(lp3181\nsVbody\np3182\nVThe Asylum opens in October. Check out some teaser videos if you aren't already afraid!\np3183\nsVimage_hash\np3184\nV8bf893ade405cf6800017c058a693fab\np3185\nsVname\np3186\nVThe Horror Returns!-00\np3187\nsVtitle\np3188\nVThe Horror Returns!\np3189\nsVcreative_id\np3190\nV6005923327165\np3191\nsVpreview_url\np3192\nVhttp://www.facebook.com/ads/api/creative_preview.php?cid=6005923327165\np3193\nsVid\np3194\nV6005923327165\np3195\nsVimage_url\np3196\nVhttps://fbcdn-creative-a.akamaihd.net/hads-ak-ash3/s110x80/708199_6006844884365_21223_n.jpg\np3197\nsVcount_current_adgroups\np3198\nI1\nsVrun_status\np3199\nI1\nsVtype\np3200\nI1\nsVlink_url\np3201\nVhttp://www.buzzfeed.com/h1/fbad/americanhorrorstory/final-7-american-horror-story-asylum-teaser\np3202\nsVview_tag\np3203\ng37\nsa(dp3204\nVname\np3205\nVAd from a Page post #6,005,911,629,365\np3206\nsVauto_update\np3207\nI00\nsVstory_id\np3208\nV461321143889589\np3209\nsVcreative_id\np3210\nV6005911629365\np3211\nsVpreview_url\np3212\nVhttp://www.facebook.com/ads/api/creative_preview.php?cid=6005911629365\np3213\nsVaction_t\np3214\nVBgABAQcIAAZQYijGCgAJAAAAAImt0MwKABAAANiljfVJYg0AGgYKAAAADQEKAAAAAAAAAFAAuAABo5Gy6K61ALkAAAAAAAAAZAC6AAFcHk7bEWwCIwAAAAAAAAAIAMMAAABPVFI0HgG7AAAAAAAAAGoACgAAAACJrdDMAcoAAaORsuiutQEeAAAAAKQFpKgAAQABo5Gy6K61AbYAAAAAUGIoxgHkAAGjkbLorrUNABsGCwAAAAFAAwAAAPJEbyB5b3UgbG92ZSBjYXRzPyBUaGVuIHlvdSB3aWxsIGxvdmUgdGhlc2UgUGludGVyZXN0IGJvYXJkcy4gaHR0cDovL2J6ZmQuaXQvUGxlZEIzIG9vb29vIFRoZSAxNCBCZXN0IFBpbnRlcmVzdCBCb2FyZHMgRm9yIENyYXp5IENhdCBMYWRpZXMgb29vb28gQ2F0cywgY2F0cyBjYXRzIGNhdHMgY2F0cy4gQ2F0cyBjYXRzIGNhdHMgY2F0cyEgQ2F0cyBjYXRzLCBjYXRzIGNhdHMgY2F0cy4gICBDYXRzIC0gVmlyZ2luIE1vYmlsZQoAHAABo5Gy6K61AA==\np3215\nsVaction_spec\np3216\nNsVobject_id\np3217\nV238205562866018\np3218\nsVcount_current_adgroups\np3219\nI2\nsVrun_status\np3220\nI1\nsVtype\np3221\nI27\nsVid\np3222\nV6005911629365\np3223\nsa(dp3224\nVrelated_fan_page\np3225\nI1\nsVname\np3226\nVSponsored story #6005723975365\np3227\nsVtitle\np3228\nVAd Title\np3229\nsVurl_tags\np3230\nVfb_ref%3dhfbss\np3231\nsVcreative_id\np3232\nV6005723975365\np3233\nsVpreview_url\np3234\nVhttp://www.facebook.com/ads/api/creative_preview.php?cid=6005723975365\np3235\nsVaction_spec\np3236\n(dp3237\nVpost.object\np3238\nVhttp://www.buzzfeed.com/virginmobilelive/15-amazing-hashtags-from-your-first-week-at-colleg-5l87\np3239\nsVaction.type\np3240\nVpost\np3241\nssVcluster_id\np3242\nI6005723975165\nsVcount_current_adgroups\np3243\nI1\nsVrun_status\np3244\nI1\nsVtype\np3245\nI25\nsVid\np3246\nV6005723975365\np3247\nsa(dp3248\nVrelated_fan_page\np3249\nI1\nsVname\np3250\nVSponsored story #6005723967365\np3251\nsVtitle\np3252\nVAd Title\np3253\nsVurl_tags\np3254\nVfb_ref%3dhfbss\np3255\nsVcreative_id\np3256\nV6005723967365\np3257\nsVpreview_url\np3258\nVhttp://www.facebook.com/ads/api/creative_preview.php?cid=6005723967365\np3259\nsVaction_spec\np3260\n(dp3261\nVobject\np3262\nVhttp://www.buzzfeed.com/virginmobilelive/15-amazing-hashtags-from-your-first-week-at-colleg-5l87\np3263\nsVaction.type\np3264\nVlike\np3265\nssVcluster_id\np3266\nI6005675851565\nsVcount_curren"
p6
sS'hash'
p7
S'9caabe288fa7581ae0402db2c930408638923a09'
p8
sS'stack'
p9
S''
s.