(dp1
S'args'
p2
S''
sS'methodname'
p3
S''
sS'packet_num'
p4
I41
sS'returnval'
p5
S'd.net/hads-ak-ash3/s110x80/708175_6006844585365_15025_n.jpg\np5455\nsVcount_current_adgroups\np5456\nI1\nsVrun_status\np5457\nI1\nsVtype\np5458\nI1\nsVlink_url\np5459\nVhttp://www.buzzfeed.com/h1/fbad/starbucks/25-things-you-never-knew-about-coffee-78m6\np5460\nsVview_tag\np5461\ng37\nsa(dp5462\nVrelated_fan_page\np5463\nI1\nsVname\np5464\nVSponsored story #6005832896365\np5465\nsVtitle\np5466\nVAd Title\np5467\nsVurl_tags\np5468\nVfb_ref%3dhfbss1\np5469\nsVcreative_id\np5470\nV6005832896365\np5471\nsVpreview_url\np5472\nVhttp://www.facebook.com/ads/api/creative_preview.php?cid=6005832896365\np5473\nsVaction_spec\np5474\n(lp5475\n(dp5476\nVobject\np5477\nVhttp://www.buzzfeed.com/internetexplorer9/11-of-the-geekiest-tributes-to-retro-games\np5478\nsVaction.type\np5479\nVpost\np5480\nsa(dp5481\nVpost.object\np5482\nVhttp://www.buzzfeed.com/internetexplorer9/11-of-the-geekiest-tributes-to-retro-games\np5483\nsVaction.type\np5484\nVpost\np5485\nsasVcluster_id\np5486\nI6005832896165\nsVcount_current_adgroups\np5487\nI1\nsVrun_status\np5488\nI1\nsVtype\np5489\nI25\nsVid\np5490\nV6005832896365\np5491\nsa(dp5492\nVrelated_fan_page\np5493\nI1\nsVname\np5494\nVSponsored story #6005783866765\np5495\nsVtitle\np5496\nVAd Title\np5497\nsVurl_tags\np5498\nVfb_ref%3dhfbapiss\np5499\nsVcreative_id\np5500\nV6005783866765\np5501\nsVpreview_url\np5502\nVhttp://www.facebook.com/ads/api/creative_preview.php?cid=6005783866765\np5503\nsVaction_spec\np5504\n(dp5505\nVpost.object\np5506\nVhttp://www.buzzfeed.com/virginmobilelive/18-mind-boggling-text-fails-5l87\np5507\nsVaction.type\np5508\nVpost\np5509\nssVcluster_id\np5510\nI6005783866565\nsVcount_current_adgroups\np5511\nI1\nsVrun_status\np5512\nI1\nsVtype\np5513\nI25\nsVid\np5514\nV6005783866765\np5515\nsa(dp5516\nValt_view_tags\np5517\n(lp5518\nsVbody\np5519\nVBuzzFeed\'s "MySpace Yourself" tool creates a retro-MySpace profile for you. Check it out!\np5520\nsVimage_hash\np5521\nV97783143bc3a124d8b10c19e0608dd72\np5522\nsVname\np5523\nVDid You Love MySpace?\np5524\nsVtitle\np5525\nVDid You Love MySpace?\np5526\nsVcreative_id\np5527\nV6005866845365\np5528\nsVpreview_url\np5529\nVhttp://www.facebook.com/ads/api/creative_preview.php?cid=6005866845365\np5530\nsVid\np5531\nV6005866845365\np5532\nsVimage_url\np5533\nVhttps://fbcdn-creative-a.akamaihd.net/hads-ak-prn1/s110x80/708172_6006844954365_53357_n.jpg\np5534\nsVcount_current_adgroups\np5535\nI1\nsVrun_status\np5536\nI1\nsVtype\np5537\nI1\nsVlink_url\np5538\nVhttp://myspace.buzzfeed.com/\np5539\nsVview_tag\np5540\ng37\nsa(dp5541\nValt_view_tags\np5542\n(lp5543\nsVbody\np5544\nVBuzzFeed\'s "Geocities Yourself" tool creates a retro-Geocities page for you. Check it out!\np5545\nsVimage_hash\np5546\nV4e5c07c3ec418d0dfe486ef889de8e84\np5547\nsVname\np5548\nVDid You Love Geocities?\np5549\nsVtitle\np5550\nVDid You Love Geocities?\np5551\nsVcreative_id\np5552\nV6005866882765\np5553\nsVpreview_url\np5554\nVhttp://www.facebook.com/ads/api/creative_preview.php?cid=6005866882765\np5555\nsVid\np5556\nV6005866882765\np5557\nsVimage_url\np5558\nVhttps://fbcdn-creative-a.akamaihd.net/hads-ak-ash3/s110x80/708171_6006844533365_5733_n.jpg\np5559\nsVcount_current_adgroups\np5560\nI1\nsVrun_status\np5561\nI1\nsVtype\np5562\nI1\nsVlink_url\np5563\nVhttp://geocities.buzzfeed.com/\np5564\nsVview_tag\np5565\ng37\nsa(dp5566\nVrelated_fan_page\np5567\nI1\nsVname\np5568\nVSponsored story #6005805103965\np5569\nsVtitle\np5570\nVAd Title\np5571\nsVurl_tags\np5572\nVfb_ref%3dhfbss1\np5573\nsVcreative_id\np5574\nV6005805103965\np5575\nsVpreview_url\np5576\nVhttp://www.facebook.com/ads/api/creative_preview.php?cid=6005805103965\np5577\nsVaction_spec\np5578\n(lp5579\n(dp5580\nVobject\np5581\nVhttp://www.buzzfeed.com/animalpractice/15-sweet-animalhuman-friendships\np5582\nsVaction.type\np5583\nVpost\np5584\nsa(dp5585\nVpost.object\np5586\nVhttp://www.buzzfeed.com/animalpractice/15-sweet-animalhuman-friendships\np5587\nsVaction.type\np5588\nVpost\np5589\nsasVcluster_id\np5590\nI6005805103765\nsVcount_current_adgroups\np5591\nI1\nsVrun_status\np5592\nI1\nsVtype\np5593\nI25\nsVid\np5594\nV6005805103965\np5595\nsa(dp5596\nVrelated_fan_page\np5597\nI1\nsVname\np5598\nVSponsored story #6005806017565\np5599\nsVtitle\np5600\nVAd Title\np5601\nsVurl_tags\np5602\nV fb_ref%3dhfbss1\np5603\nsVcreative_id\np5604\nV6005806017565\np5605\nsVpreview_url\np5606\nVhttp://www.facebook.com/ads/api/creative_pre'
p6
sS'hash'
p7
S'9caabe288fa7581ae0402db2c930408638923a09'
p8
sS'stack'
p9
S''
s.