(dp1
S'args'
p2
S''
sS'methodname'
p3
S''
sS'packet_num'
p4
I52
sS'returnval'
p5
S'65\np6992\nsVimage_url\np6993\nVhttps://fbcdn-creative-a.akamaihd.net/hads-ak-snc7/s110x80/701888_6006845043765_12192_n.jpg\np6994\nsVcount_current_adgroups\np6995\nI1\nsVrun_status\np6996\nI1\nsVtype\np6997\nI1\nsVlink_url\np6998\nVhttp://www.buzzfeed.com/h1/fbad/generalelectric/the-evolution-of-10-edison-inventions-we-still-use-6ieg\np6999\nsVview_tag\np7000\ng37\nsa(dp7001\nValt_view_tags\np7002\n(lp7003\nsVbody\np7004\nVBet you didn\'t consider that! Check out more things you probably haven\'t considered here!\np7005\nsVimage_hash\np7006\nVa9c41b2b41895051b1f28870aeb64d3a\np7007\nsVname\np7008\nVCardboard Bodykit?\np7009\nsVtitle\np7010\nVCardboard Bodykit?\np7011\nsVcreative_id\np7012\nV6005780132965\np7013\nsVpreview_url\np7014\nVhttp://www.facebook.com/ads/api/creative_preview.php?cid=6005780132965\np7015\nsVid\np7016\nV6005780132965\np7017\nsVimage_url\np7018\nVhttps://fbcdn-creative-a.akamaihd.net/hads-ak-prn1/s110x80/708187_6006845070765_6497_n.jpg\np7019\nsVcount_current_adgroups\np7020\nI1\nsVrun_status\np7021\nI1\nsVtype\np7022\nI1\nsVlink_url\np7023\nVhttp://www.buzzfeed.com/h1/fbad/microsoftbing/24-things-you-havent-considered-but-probably-sho\np7024\nsVview_tag\np7025\ng37\nsa(dp7026\nValt_view_tags\np7027\n(lp7028\nsVbody\np7029\nVBet you didn\'t consider that! Check out more things you probably haven\'t considered here!\np7030\nsVimage_hash\np7031\nV159d7f1d183db5a457dc2d0b7c54c11b\np7032\nsVname\np7033\nVCardboard Bodykit?-00\np7034\nsVtitle\np7035\nVPart Scooter, Part Bike?\np7036\nsVcreative_id\np7037\nV6005780198965\np7038\nsVpreview_url\np7039\nVhttp://www.facebook.com/ads/api/creative_preview.php?cid=6005780198965\np7040\nsVid\np7041\nV6005780198965\np7042\nsVimage_url\np7043\nVhttps://fbcdn-creative-a.akamaihd.net/hads-ak-prn1/s110x80/708170_6006844185365_53697_n.jpg\np7044\nsVcount_current_adgroups\np7045\nI1\nsVrun_status\np7046\nI1\nsVtype\np7047\nI1\nsVlink_url\np7048\nVhttp://www.buzzfeed.com/h1/fbad/microsoftbing/24-things-you-havent-considered-but-probably-sho\np7049\nsVview_tag\np7050\ng37\nsa(dp7051\nValt_view_tags\np7052\n(lp7053\nsVbody\np7054\nVEven before "Mad Men" - Check Out "Timeless GE Ads Through The Years" on BuzzFeed!\np7055\nsVimage_hash\np7056\nV4b8500513e38ab44d1663ea06446bced\np7057\nsVname\np7058\nVOld-School Advertising-00-00\np7059\nsVtitle\np7060\nVOld-School Advertising\np7061\nsVcreative_id\np7062\nV6005775229965\np7063\nsVpreview_url\np7064\nVhttp://www.facebook.com/ads/api/creative_preview.php?cid=6005775229965\np7065\nsVid\np7066\nV6005775229965\np7067\nsVimage_url\np7068\nVhttps://fbcdn-creative-a.akamaihd.net/hads-ak-ash3/s110x80/708166_6006844509765_2432_n.jpg\np7069\nsVcount_current_adgroups\np7070\nI1\nsVrun_status\np7071\nI1\nsVtype\np7072\nI1\nsVlink_url\np7073\nVhttp://www.buzzfeed.com/h1/fbad/generalelectric/timeless-ge-ads-through-the-years-6ieg\np7074\nsVview_tag\np7075\ng37\nsa(dp7076\nValt_view_tags\np7077\n(lp7078\nsVbody\np7079\nVEven before "Mad Men" - Check Out "Timeless GE Ads Through The Years" on BuzzFeed!\np7080\nsVimage_hash\np7081\nV86528cd29d5d543b205374bd9841ec01\np7082\nsVname\np7083\nVOld-School Advertising-01\np7084\nsVtitle\np7085\nVOld-School Advertising\np7086\nsVcreative_id\np7087\nV6005775231165\np7088\nsVpreview_url\np7089\nVhttp://www.facebook.com/ads/api/creative_preview.php?cid=6005775231165\np7090\nsVid\np7091\nV6005775231165\np7092\nsVimage_url\np7093\nVhttps://fbcdn-creative-a.akamaihd.net/hads-ak-prn1/s110x80/708180_6006844855365_34317_n.jpg\np7094\nsVcount_current_adgroups\np7095\nI1\nsVrun_status\np7096\nI1\nsVtype\np7097\nI1\nsVlink_url\np7098\nVhttp://www.buzzfeed.com/h1/fbad/generalelectric/timeless-ge-ads-through-the-years-6ieg\np7099\nsVview_tag\np7100\ng37\nsa(dp7101\nValt_view_tags\np7102\n(lp7103\nsVbody\np7104\nVCheck out "20 Pictures Where Instagram Actually Makes Sense" on BuzzFeed!\np7105\nsVimage_hash\np7106\nV8f0b8d4240ca6b3c588d58dfdcd74876\np7107\nsVname\np7108\nVTrue Vintage Photos\np7109\nsVtitle\np7110\nVTrue Vintage Photos\np7111\nsVcreative_id\np7112\nV6005775040565\np7113\nsVpreview_url\np7114\nVhttp://www.facebook.com/ads/api/creative_preview.php?cid=6005775040565\np7115\nsVid\np7116\nV6005775040565\np7117\nsVimage_url\np7118\nVhttps://fbcdn-creative-a.akamaihd.net/hads-ak-snc7/s110x80/701904_6006844900965_21470_n.jpg\np7119\nsVcount_current_adgroups\np7120\nI1\nsVru'
p6
sS'hash'
p7
S'9caabe288fa7581ae0402db2c930408638923a09'
p8
sS'stack'
p9
S''
s.