(dp1
S'args'
p2
S''
sS'methodname'
p3
S''
sS'packet_num'
p4
I77
sS'returnval'
p5
S'ne Secret Ingredient."  Get the recipe!\np10248\nsVimage_hash\np10249\nV3c497505df9e5fbe2b56adf7d1951ebc\np10250\nsVname\np10251\nVPineapple Bacon Burger!-00\np10252\nsVtitle\np10253\nVJamaican Jerk Burger!\np10254\nsVcreative_id\np10255\nV6005567331365\np10256\nsVpreview_url\np10257\nVhttp://www.facebook.com/ads/api/creative_preview.php?cid=6005567331365\np10258\nsVid\np10259\nV6005567331365\np10260\nsVimage_url\np10261\nVhttps://fbcdn-creative-a.akamaihd.net/hads-ak-ash3/s110x80/701890_6006844404565_4294_n.jpg\np10262\nsVcount_current_adgroups\np10263\nI1\nsVrun_status\np10264\nI1\nsVtype\np10265\nI1\nsVlink_url\np10266\nVhttp://www.buzzfeed.com/h1/fbad/hiddenvalleyranch/10-burgers-made-better-with-one-secret-ingredient\np10267\nsVview_tag\np10268\ng37\nsa(dp10269\nValt_view_tags\np10270\n(lp10271\nsVbody\np10272\nVIt\'s one of the "10 Burgers Made Better With One Secret Ingredient."  Get the recipe!\np10273\nsVimage_hash\np10274\nVd8bf68f4e843f7736ddc27ad7c3d615e\np10275\nsVname\np10276\nVPineapple Bacon Burger!-01\np10277\nsVtitle\np10278\nVPineapple Bacon Burger!\np10279\nsVcreative_id\np10280\nV6005567334165\np10281\nsVpreview_url\np10282\nVhttp://www.facebook.com/ads/api/creative_preview.php?cid=6005567334165\np10283\nsVid\np10284\nV6005567334165\np10285\nsVimage_url\np10286\nVhttps://fbcdn-creative-a.akamaihd.net/hads-ak-prn1/s110x80/708182_6006845348365_61275_n.jpg\np10287\nsVcount_current_adgroups\np10288\nI1\nsVrun_status\np10289\nI1\nsVtype\np10290\nI1\nsVlink_url\np10291\nVhttp://www.buzzfeed.com/h1/fbad/hiddenvalleyranch/10-burgers-made-better-with-one-secret-ingredient\np10292\nsVview_tag\np10293\ng37\nsa(dp10294\nValt_view_tags\np10295\n(lp10296\nsVbody\np10297\nVYou\'ve Seen the rich kids, here are the middle class kids of Instagram. So True! \np10298\nsVimage_hash\np10299\nV46fb4deae30c47b5f1ed8201d25e5c15\np10300\nsVname\np10301\nVThe 99%  Instagrammed!\np10302\nsVtitle\np10303\nVThe 99%  Instagrammed!\np10304\nsVcreative_id\np10305\nV6005562200365\np10306\nsVpreview_url\np10307\nVhttp://www.facebook.com/ads/api/creative_preview.php?cid=6005562200365\np10308\nsVid\np10309\nV6005562200365\np10310\nsVimage_url\np10311\nVhttps://fbcdn-creative-a.akamaihd.net/hads-ak-ash3/s110x80/701889_6006844477965_5729_n.jpg\np10312\nsVcount_current_adgroups\np10313\nI1\nsVrun_status\np10314\nI1\nsVtype\np10315\nI1\nsVlink_url\np10316\nVhttp://www.buzzfeed.com/h1/fbad/virginmobilelive/the-middle-class-kids-of-instagram-5l87\np10317\nsVview_tag\np10318\ng37\nsa(dp10319\nValt_view_tags\np10320\n(lp10321\nsVbody\np10322\nVThe fear of being nude, also known as Gymnophobia, is real. See more phobias here!\np10323\nsVimage_hash\np10324\nV9a131d02f0ed56fa5932f61209e27de0\np10325\nsVname\np10326\nVDid you know?-06\np10327\nsVtitle\np10328\nVDid you know?\np10329\nsVcreative_id\np10330\nV6005558996165\np10331\nsVpreview_url\np10332\nVhttp://www.facebook.com/ads/api/creative_preview.php?cid=6005558996165\np10333\nsVid\np10334\nV6005558996165\np10335\nsVimage_url\np10336\nVhttps://fbcdn-creative-a.akamaihd.net/hads-ak-prn1/s110x80/708163_6006844970165_5912_n.jpg\np10337\nsVcount_current_adgroups\np10338\nI1\nsVrun_status\np10339\nI1\nsVtype\np10340\nI1\nsVlink_url\np10341\nVhttp://www.buzzfeed.com/h1/fbad/virginmobilelive/11-ridiculous-real-paralyzing-phobias-5l87\np10342\nsVview_tag\np10343\ng37\nsa(dp10344\nValt_view_tags\np10345\n(lp10346\nsVbody\np10347\nVAre you sick of cliche timelines? Check out this round up on BuzzFeed!\np10348\nsVimage_hash\np10349\nV329d913b116ae33e790bbd5e12e57ff1\np10350\nsVname\np10351\nVThe Best Timeline Fails\np10352\nsVtitle\np10353\nVThe Best Timeline Fails\np10354\nsVcreative_id\np10355\nV6005558885365\np10356\nsVpreview_url\np10357\nVhttp://www.facebook.com/ads/api/creative_preview.php?cid=6005558885365\np10358\nsVid\np10359\nV6005558885365\np10360\nsVimage_url\np10361\nVhttps://fbcdn-creative-a.akamaihd.net/hads-ak-prn1/s110x80/708164_6006844349965_14574_n.jpg\np10362\nsVcount_current_adgroups\np10363\nI1\nsVrun_status\np10364\nI1\nsVtype\np10365\nI1\nsVlink_url\np10366\nVhttp://www.buzzfeed.com/h1/fbad/virginmobilelive/20-timeline-cover-photo-cliches-were-already-sick-5l87\np10367\nsVview_tag\np10368\ng37\nsa(dp10369\nValt_view_tags\np10370\n(lp10371\nsVbody\np10372\nVCheck out this "Idiot\'s Guide To The 2012 Olympics" on BuzzFeed!\\u000a\np10373\nsVim'
p6
sS'hash'
p7
S'9caabe288fa7581ae0402db2c930408638923a09'
p8
sS'stack'
p9
S''
s.