(dp1
S'args'
p2
S''
sS'methodname'
p3
S''
sS'packet_num'
p4
I79
sS'returnval'
p5
S'-00\np10502\nsVtitle\np10503\nVCheck it out Belieber\'s\np10504\nsVcreative_id\np10505\nV6005574185565\np10506\nsVpreview_url\np10507\nVhttp://www.facebook.com/ads/api/creative_preview.php?cid=6005574185565\np10508\nsVid\np10509\nV6005574185565\np10510\nsVimage_url\np10511\nVhttps://fbcdn-creative-a.akamaihd.net/hads-ak-prn1/s110x80/701889_6006844476165_16151_n.jpg\np10512\nsVcount_current_adgroups\np10513\nI1\nsVrun_status\np10514\nI1\nsVtype\np10515\nI1\nsVlink_url\np10516\nVhttp://bzfd.it/MGTJE0\np10517\nsVview_tag\np10518\ng37\nsa(dp10519\nVrelated_fan_page\np10520\nI1\nsVname\np10521\nVSponsored story #6005552654965\np10522\nsVurl_tags\np10523\nVfb_ref=HFBSS1\np10524\nsVcreative_id\np10525\nV6005552654965\np10526\nsVpreview_url\np10527\nVhttp://www.facebook.com/ads/api/creative_preview.php?cid=6005552654965\np10528\nsVaction_spec\np10529\n(lp10530\n(dp10531\nVobject\np10532\nVhttp://www.buzzfeed.com/chrisgeidner/first-female-us-astronaut-sally-ride-comes-out\np10533\nsVaction.type\np10534\nVlike\np10535\nsasVcluster_id\np10536\nI6005552654765\nsVcount_current_adgroups\np10537\nI1\nsVrun_status\np10538\nI1\nsVtype\np10539\nI25\nsVid\np10540\nV6005552654965\np10541\nsa(dp10542\nVrelated_fan_page\np10543\nI1\nsVname\np10544\nVSponsored story #6005552657165\np10545\nsVurl_tags\np10546\nVfb_ref=HFBSS1\np10547\nsVcreative_id\np10548\nV6005552657165\np10549\nsVpreview_url\np10550\nVhttp://www.facebook.com/ads/api/creative_preview.php?cid=6005552657165\np10551\nsVaction_spec\np10552\n(lp10553\n(dp10554\nVpost.object\np10555\nVhttp://www.buzzfeed.com/chrisgeidner/first-female-us-astronaut-sally-ride-comes-out\np10556\nsVaction.type\np10557\nVpost\np10558\nsasVcluster_id\np10559\nI6005552656965\nsVcount_current_adgroups\np10560\nI1\nsVrun_status\np10561\nI1\nsVtype\np10562\nI25\nsVid\np10563\nV6005552657165\np10564\nsa(dp10565\nVrelated_fan_page\np10566\nI1\nsVname\np10567\nVSponsored story #6005552661765\np10568\nsVurl_tags\np10569\nVfb_ref=HFBSS1\np10570\nsVcreative_id\np10571\nV6005552661765\np10572\nsVpreview_url\np10573\nVhttp://www.facebook.com/ads/api/creative_preview.php?cid=6005552661765\np10574\nsVaction_spec\np10575\n(lp10576\n(dp10577\nVobject\np10578\nVhttp://www.buzzfeed.com/chrisgeidner/first-female-us-astronaut-sally-ride-comes-out\np10579\nsVaction.type\np10580\nVlike\np10581\nsa(dp10582\nVpost.object\np10583\nVhttp://www.buzzfeed.com/chrisgeidner/first-female-us-astronaut-sally-ride-comes-out\np10584\nsVaction.type\np10585\nVpost\np10586\nsasVcluster_id\np10587\nI6005552661565\nsVcount_current_adgroups\np10588\nI1\nsVrun_status\np10589\nI1\nsVtype\np10590\nI25\nsVid\np10591\nV6005552661765\np10592\nsa(dp10593\nValt_view_tags\np10594\n(lp10595\nsVbody\np10596\nVIt\'s one of the "10 Little-Known Condiments From Around The World." See more on BuzzFeed!\np10597\nsVimage_hash\np10598\nVf84a77ea1466c916490addf2b93fa305\np10599\nsVname\np10600\nVWhat\'s Shichimi?\np10601\nsVtitle\np10602\nVWhat\'s Shichimi?\np10603\nsVcreative_id\np10604\nV6005549522965\np10605\nsVpreview_url\np10606\nVhttp://www.facebook.com/ads/api/creative_preview.php?cid=6005549522965\np10607\nsVid\np10608\nV6005549522965\np10609\nsVimage_url\np10610\nVhttps://fbcdn-creative-a.akamaihd.net/hads-ak-ash3/s110x80/708162_6006845553365_43430_n.jpg\np10611\nsVcount_current_adgroups\np10612\nI1\nsVrun_status\np10613\nI1\nsVtype\np10614\nI1\nsVlink_url\np10615\nVhttp://www.buzzfeed.com/h1/fbad/hiddenvalleyranch/10-little-known-condiments-from-around-the-world-6abr\np10616\nsVview_tag\np10617\ng37\nsa(dp10618\nValt_view_tags\np10619\n(lp10620\nsVbody\np10621\nVIt\'s one of the "10 Little-Known Condiments From Around The World." See more on BuzzFeed!\np10622\nsVimage_hash\np10623\nV5c2535cffbcc6bcf5e097733ae8d20fe\np10624\nsVname\np10625\nVWhat\'s Shichimi?-00\np10626\nsVtitle\np10627\nVWhat\'s Speculoos?\np10628\nsVcreative_id\np10629\nV6005549734965\np10630\nsVpreview_url\np10631\nVhttp://www.facebook.com/ads/api/creative_preview.php?cid=6005549734965\np10632\nsVid\np10633\nV6005549734965\np10634\nsVimage_url\np10635\nVhttps://fbcdn-creative-a.akamaihd.net/hads-ak-ash3/s110x80/708187_6006844618565_11017_n.jpg\np10636\nsVcount_current_adgroups\np10637\nI1\nsVrun_status\np10638\nI1\nsVtype\np10639\nI1\nsVlink_url\np10640\nVhttp://www.buzzfeed.com/h1/fbad/hiddenvalleyranch/10-little-known-condiments-from-around-the-world-6abr\np10641\nsVview_tag\np1'
p6
sS'hash'
p7
S'9caabe288fa7581ae0402db2c930408638923a09'
p8
sS'stack'
p9
S''
s.