(dp1
S'args'
p2
S''
sS'methodname'
p3
S''
sS'packet_num'
p4
I38
sS'returnval'
p5
S'atus\np5057\nI1\nsVtype\np5058\nI1\nsVlink_url\np5059\nVhttp://www.buzzfeed.com/h1/fbad/starbucks/10-celebrities-you-never-knew-had-a-twin-78m6\np5060\nsVview_tag\np5061\ng37\nsa(dp5062\nValt_view_tags\np5063\n(lp5064\nsVbody\np5065\nVCheck out "10 Celebrities You Never Knew Had A Twin" on BuzzFeed!\\u000a\np5066\nsVimage_hash\np5067\nV4b6873c593b19a5da9a5c0e36a19cf75\np5068\nsVname\np5069\nVAshton & His Twin?-00-00-01-00\np5070\nsVtitle\np5071\nVJon Heder\'s Twin?\np5072\nsVcreative_id\np5073\nV6005858696165\np5074\nsVpreview_url\np5075\nVhttp://www.facebook.com/ads/api/creative_preview.php?cid=6005858696165\np5076\nsVid\np5077\nV6005858696165\np5078\nsVimage_url\np5079\nVhttps://fbcdn-creative-a.akamaihd.net/hads-ak-prn1/s110x80/708167_6006844505165_978_n.jpg\np5080\nsVcount_current_adgroups\np5081\nI1\nsVrun_status\np5082\nI1\nsVtype\np5083\nI1\nsVlink_url\np5084\nVhttp://www.buzzfeed.com/h1/fbad/starbucks/10-celebrities-you-never-knew-had-a-twin-78m6\np5085\nsVview_tag\np5086\ng37\nsa(dp5087\nValt_view_tags\np5088\n(lp5089\nsVbody\np5090\nVJust One of the "12 Reasons Everyone Loves a Comeback" on BuzzFeed!\np5091\nsVimage_hash\np5092\nVea40776abbd0b37012b5b564a8048b4a\np5093\nsVname\np5094\nVSpice Girls Comeback?-00-00\np5095\nsVtitle\np5096\nVThe Triumph of Iron Man\np5097\nsVcreative_id\np5098\nV6005889394565\np5099\nsVpreview_url\np5100\nVhttp://www.facebook.com/ads/api/creative_preview.php?cid=6005889394565\np5101\nsVid\np5102\nV6005889394565\np5103\nsVimage_url\np5104\nVhttps://fbcdn-creative-a.akamaihd.net/hads-ak-prn1/s110x80/708199_6006845465565_61503_n.jpg\np5105\nsVcount_current_adgroups\np5106\nI1\nsVrun_status\np5107\nI1\nsVtype\np5108\nI1\nsVlink_url\np5109\nVhttp://www.buzzfeed.com/h1/fbad/browseryoulovedtohate/12-reasons-everyone-loves-a-comeback-77kk?utm_source=facebook&utm_medium=seed&utm_campaign=msftie\np5110\nsVview_tag\np5111\ng37\nsa(dp5112\nValt_view_tags\np5113\n(lp5114\nsVbody\np5115\nVJust One of the "12 Reasons Everyone Loves A Comeback" on BuzzFeed!\np5116\nsVimage_hash\np5117\nV2d4f4397e00c26cea0dde16addcc7438\np5118\nsVname\np5119\nVSpice Girls Comeback?\np5120\nsVtitle\np5121\nVSpice Girls Comeback?\np5122\nsVcreative_id\np5123\nV6005889375165\np5124\nsVpreview_url\np5125\nVhttp://www.facebook.com/ads/api/creative_preview.php?cid=6005889375165\np5126\nsVid\np5127\nV6005889375165\np5128\nsVimage_url\np5129\nVhttps://fbcdn-creative-a.akamaihd.net/hads-ak-ash3/s110x80/708194_6006844325765_60004_n.jpg\np5130\nsVcount_current_adgroups\np5131\nI1\nsVrun_status\np5132\nI1\nsVtype\np5133\nI1\nsVlink_url\np5134\nVhttp://www.buzzfeed.com/h1/fbad/browseryoulovedtohate/12-reasons-everyone-loves-a-comeback-77kk?utm_source=facebook&utm_medium=seed&utm_campaign=msftie\np5135\nsVview_tag\np5136\ng37\nsa(dp5137\nValt_view_tags\np5138\n(lp5139\nsVbody\np5140\nVRub Your Way Through History with GE Rubbable Gifs - Only on BuzzFeed!\np5141\nsVimage_hash\np5142\nVb355f2cc2fe06e05039bdc6de85d8666\np5143\nsVname\np5144\nVRubbable GIFs!-00-00\np5145\nsVtitle\np5146\nVRubbable GIFs!\np5147\nsVcreative_id\np5148\nV6005888029565\np5149\nsVpreview_url\np5150\nVhttp://www.facebook.com/ads/api/creative_preview.php?cid=6005888029565\np5151\nsVid\np5152\nV6005888029565\np5153\nsVimage_url\np5154\nVhttps://fbcdn-creative-a.akamaihd.net/hads-ak-ash3/s110x80/708188_6006845130965_42095_n.jpg\np5155\nsVcount_current_adgroups\np5156\nI1\nsVrun_status\np5157\nI1\nsVtype\np5158\nI1\nsVlink_url\np5159\nVhttp://www.buzzfeed.com/h1/fbad/generalelectric/rub-your-way-through-history-with-ge-rubbable-gifs-6ieg\np5160\nsVview_tag\np5161\ng37\nsa(dp5162\nValt_view_tags\np5163\n(lp5164\nsVbody\np5165\nVUnbelievable right? Check out "11 Of The Most Amazing Celebrity Transformations" here!\np5166\nsVimage_hash\np5167\nV471eadebeb5db0bc9efa1fe463c60bf1\np5168\nsVname\np5169\nVThat\'s Gary Oldman?-00\np5170\nsVtitle\np5171\nVChristian Bale Transforms\np5172\nsVcreative_id\np5173\nV6005804924565\np5174\nsVpreview_url\np5175\nVhttp://www.facebook.com/ads/api/creative_preview.php?cid=6005804924565\np5176\nsVid\np5177\nV6005804924565\np5178\nsVimage_url\np5179\nVhttps://fbcdn-creative-a.akamaihd.net/hads-ak-ash3/s110x80/701889_6006844478565_29954_n.jpg\np5180\nsVcount_current_adgroups\np5181\nI1\nsVrun_status\np5182\nI1\nsVtype\np5183\nI1\nsVlink_url\np5184\nVhttp://www.buzzfeed.com/h1/fbad/inteltoshiba/11-of'
p6
sS'hash'
p7
S'9caabe288fa7581ae0402db2c930408638923a09'
p8
sS'stack'
p9
S''
s.