(dp1
S'args'
p2
S''
sS'methodname'
p3
S''
sS'packet_num'
p4
I31
sS'returnval'
p5
S'\np4129\nVhttp://www.buzzfeed.com/h1/fbad/freal/20-crazy-events-you-wont-believe-are-freal-5k2r\np4130\nsVview_tag\np4131\ng37\nsa(dp4132\nValt_view_tags\np4133\n(lp4134\nsVbody\np4135\nVHis determination made the list of "10 Surprising Moments Of Victory." Check out the rest!\np4136\nsVimage_hash\np4137\nV4031c56cd533b6f06854b9befd64ec98\np4138\nsVname\np4139\nV100 Year Old Marathoner? \np4140\nsVtitle\np4141\nV100 Year Old Marathoner? \np4142\nsVcreative_id\np4143\nV6005838861165\np4144\nsVpreview_url\np4145\nVhttp://www.facebook.com/ads/api/creative_preview.php?cid=6005838861165\np4146\nsVid\np4147\nV6005838861165\np4148\nsVimage_url\np4149\nVhttps://fbcdn-creative-a.akamaihd.net/hads-ak-ash3/s110x80/708192_6006844427965_8506_n.jpg\np4150\nsVcount_current_adgroups\np4151\nI1\nsVrun_status\np4152\nI1\nsVtype\np4153\nI1\nsVlink_url\np4154\nVhttp://www.buzzfeed.com/h1/fbad/microsoftbing/10-surprising-moments-of-victory\np4155\nsVview_tag\np4156\ng37\nsa(dp4157\nValt_view_tags\np4158\n(lp4159\nsVbody\np4160\nVJames Braddock\'s victory over Max Baer was a shocker. Check out more surprising victories!\np4161\nsVimage_hash\np4162\nVcaa95faa7d6eb75bcf1f8036e697d366\np4163\nsVname\np4164\nV100 Year Old Marathoner? -00\np4165\nsVtitle\np4166\nVThe Cinderella Man\np4167\nsVcreative_id\np4168\nV6005838881565\np4169\nsVpreview_url\np4170\nVhttp://www.facebook.com/ads/api/creative_preview.php?cid=6005838881565\np4171\nsVid\np4172\nV6005838881565\np4173\nsVimage_url\np4174\nVhttps://fbcdn-creative-a.akamaihd.net/hads-ak-ash3/s110x80/701898_6006845264165_44563_n.jpg\np4175\nsVcount_current_adgroups\np4176\nI1\nsVrun_status\np4177\nI1\nsVtype\np4178\nI1\nsVlink_url\np4179\nVhttp://www.buzzfeed.com/h1/fbad/microsoftbing/10-surprising-moments-of-victory\np4180\nsVview_tag\np4181\ng37\nsa(dp4182\nValt_view_tags\np4183\n(lp4184\nsVbody\np4185\nVCan\'t believe that\'s him in Star Trek: Nemesis. See more celebrity transformations here!\np4186\nsVimage_hash\np4187\nV1e521bad26ac2bf90b61448a5977cfd0\np4188\nsVname\np4189\nVTom Hardy Transforms\np4190\nsVtitle\np4191\nVTom Hardy Transforms\np4192\nsVcreative_id\np4193\nV6005903001165\np4194\nsVpreview_url\np4195\nVhttp://www.facebook.com/ads/api/creative_preview.php?cid=6005903001165\np4196\nsVid\np4197\nV6005903001165\np4198\nsVimage_url\np4199\nVhttps://fbcdn-creative-a.akamaihd.net/hads-ak-ash3/s110x80/701889_6006844238565_50349_n.jpg\np4200\nsVcount_current_adgroups\np4201\nI1\nsVrun_status\np4202\nI1\nsVtype\np4203\nI1\nsVlink_url\np4204\nVhttp://www.buzzfeed.com/h1/fbad/loopermovie/the-10-best-actor-transformations\np4205\nsVview_tag\np4206\ng37\nsa(dp4207\nValt_view_tags\np4208\n(lp4209\nsVbody\np4210\nVIt\'s almost like he enjoys being emaciated. See more celebrity transformations here!\np4211\nsVimage_hash\np4212\nVf3f20c386d34d0fc947691362b966bd7\np4213\nsVname\np4214\nVTom Hardy Transforms-00\np4215\nsVtitle\np4216\nVChristian Bale Transforms\np4217\nsVcreative_id\np4218\nV6005903014765\np4219\nsVpreview_url\np4220\nVhttp://www.facebook.com/ads/api/creative_preview.php?cid=6005903014765\np4221\nsVid\np4222\nV6005903014765\np4223\nsVimage_url\np4224\nVhttps://fbcdn-creative-a.akamaihd.net/hads-ak-ash3/s110x80/701891_6006845525165_54192_n.jpg\np4225\nsVcount_current_adgroups\np4226\nI1\nsVrun_status\np4227\nI1\nsVtype\np4228\nI1\nsVlink_url\np4229\nVhttp://www.buzzfeed.com/h1/fbad/loopermovie/the-10-best-actor-transformations\np4230\nsVview_tag\np4231\ng37\nsa(dp4232\nValt_view_tags\np4233\n(lp4234\nsVbody\np4235\nVThese guys would flood your mailbox. See more "Computer First\'s That\'ll Take You Back!"\np4236\nsVimage_hash\np4237\nV3059b5b3dcd6ae96331f5490f6098f28\np4238\nsVname\np4239\nVRemember AOL Discs?\np4240\nsVtitle\np4241\nVRemember AOL Discs?\np4242\nsVcreative_id\np4243\nV6005888923165\np4244\nsVpreview_url\np4245\nVhttp://www.facebook.com/ads/api/creative_preview.php?cid=6005888923165\np4246\nsVid\np4247\nV6005888923165\np4248\nsVimage_url\np4249\nVhttps://fbcdn-creative-a.akamaihd.net/hads-ak-ash3/s110x80/708176_6006844335565_21653_n.jpg\np4250\nsVcount_current_adgroups\np4251\nI1\nsVrun_status\np4252\nI1\nsVtype\np4253\nI1\nsVlink_url\np4254\nVhttp://www.buzzfeed.com/h1/fbad/samsungs9/20-computer-firsts-thatll-take-you-back-6g87\np4255\nsVview_tag\np4256\ng37\nsa(dp4257\nValt_view_tags\np4258\n(lp4259\nsVbody\np4260\nVTalk about a close call! S'
p6
sS'hash'
p7
S'9caabe288fa7581ae0402db2c930408638923a09'
p8
sS'stack'
p9
S''
s.