(dp1
S'args'
p2
S''
sS'methodname'
p3
S''
sS'packet_num'
p4
I140
sS'returnval'
p5
S' other things Cellphones have made Irrelevant. See it on BuzzFeed now!\np18431\nsVimage_hash\np18432\nVcdf3b0d1f9904a782c0817d26d442114\np18433\nsVname\np18434\nVWhere Did Pay Phones Go?\np18435\nsVtitle\np18436\nVWhere Did Pay Phones Go?\np18437\nsVcreative_id\np18438\nV6004981245965\np18439\nsVpreview_url\np18440\nVhttp://www.facebook.com/ads/api/creative_preview.php?cid=6004981245965\np18441\nsVid\np18442\nV6004981245965\np18443\nsVimage_url\np18444\nVhttps://fbcdn-creative-a.akamaihd.net/hads-ak-ash3/s110x80/701894_6006845283365_30207_n.jpg\np18445\nsVcount_current_adgroups\np18446\nI1\nsVrun_status\np18447\nI1\nsVtype\np18448\nI1\nsVlink_url\np18449\nVhttp://www.buzzfeed.com/virginmobilelive/10-things-cellphones-have-made-irrelevant-5l87\np18450\nsVview_tag\np18451\ng37\nsa(dp18452\nValt_view_tags\np18453\n(lp18454\nsVbody\np18455\nVChad OchoCinco is one of the "Celebrities With Amazing Fish Tanks". Check them all out on BuzzFeed!\np18456\nsVimage_hash\np18457\nV17b96679590e8368243fe6912066045c\np18458\nsVname\np18459\nVOchoCinco\'s Fishtank Bed\np18460\nsVtitle\np18461\nVOchoCinco\'s Fishtank Bed\np18462\nsVcreative_id\np18463\nV6004980851365\np18464\nsVpreview_url\np18465\nVhttp://www.facebook.com/ads/api/creative_preview.php?cid=6004980851365\np18466\nsVid\np18467\nV6004980851365\np18468\nsVimage_url\np18469\nVhttps://fbcdn-creative-a.akamaihd.net/hads-ak-prn1/s110x80/708175_6006844199165_62732_n.jpg\np18470\nsVcount_current_adgroups\np18471\nI1\nsVrun_status\np18472\nI1\nsVtype\np18473\nI1\nsVlink_url\np18474\nVhttp://www.buzzfeed.com/H1/FBAD/tanked/celebrities-with-amazing-fish-tanks\np18475\nsVview_tag\np18476\ng37\nsa(dp18477\nValt_view_tags\np18478\n(lp18479\nsVbody\np18480\nVKanye West is one of the "Celebrities With Amazing Fish Tanks". Check them all out on BuzzFeed!\np18481\nsVimage_hash\np18482\nV7878068631f7c6f74fa704f36ee25905\np18483\nsVname\np18484\nVKanye\'s Bathtub Tank\np18485\nsVtitle\np18486\nVKanye\'s Bathtub Tank\np18487\nsVcreative_id\np18488\nV6004980853365\np18489\nsVpreview_url\np18490\nVhttp://www.facebook.com/ads/api/creative_preview.php?cid=6004980853365\np18491\nsVid\np18492\nV6004980853365\np18493\nsVimage_url\np18494\nVhttps://fbcdn-creative-a.akamaihd.net/hads-ak-prn1/s110x80/708170_6006844778965_9889_n.jpg\np18495\nsVcount_current_adgroups\np18496\nI1\nsVrun_status\np18497\nI1\nsVtype\np18498\nI1\nsVlink_url\np18499\nVhttp://www.buzzfeed.com/H1/FBAD/tanked/celebrities-with-amazing-fish-tanks\np18500\nsVview_tag\np18501\ng37\nsa(dp18502\nValt_view_tags\np18503\n(lp18504\nsVbody\np18505\nVThis made our list of "10 Crazy And Outrageous Aquariums". See them all on BuzzFeed!\np18506\nsVimage_hash\np18507\nVa3054b1a41a97c63815c403d304420c4\np18508\nsVname\np18509\nVGumball Machine Tank\np18510\nsVtitle\np18511\nVGumball Machine Tank\np18512\nsVcreative_id\np18513\nV6004980840165\np18514\nsVpreview_url\np18515\nVhttp://www.facebook.com/ads/api/creative_preview.php?cid=6004980840165\np18516\nsVid\np18517\nV6004980840165\np18518\nsVimage_url\np18519\nVhttps://fbcdn-creative-a.akamaihd.net/hads-ak-prn1/s110x80/708199_6006845030965_44997_n.jpg\np18520\nsVcount_current_adgroups\np18521\nI1\nsVrun_status\np18522\nI1\nsVtype\np18523\nI1\nsVlink_url\np18524\nVhttp://www.buzzfeed.com/H1/FBAD/tanked/10-crazy-and-outrageous-aquariums\np18525\nsVview_tag\np18526\ng37\nsa(dp18527\nValt_view_tags\np18528\n(lp18529\nsVbody\np18530\nVThis made our list of "10 Crazy And Outrageous Aquariums". See them all on BuzzFeed!\np18531\nsVimage_hash\np18532\nVf1e31774d194199b0407f95ab3bdf25a\np18533\nsVname\np18534\nVThe Keg Aquarium\np18535\nsVtitle\np18536\nVThe Keg Aquarium\np18537\nsVcreative_id\np18538\nV6004980842365\np18539\nsVpreview_url\np18540\nVhttp://www.facebook.com/ads/api/creative_preview.php?cid=6004980842365\np18541\nsVid\np18542\nV6004980842365\np18543\nsVimage_url\np18544\nVhttps://fbcdn-creative-a.akamaihd.net/hads-ak-ash3/s110x80/701894_6006845516565_52636_n.jpg\np18545\nsVcount_current_adgroups\np18546\nI1\nsVrun_status\np18547\nI1\nsVtype\np18548\nI1\nsVlink_url\np18549\nVhttp://www.buzzfeed.com/H1/FBAD/tanked/10-crazy-and-outrageous-aquariums\np18550\nsVview_tag\np18551\ng37\nsa(dp18552\nValt_view_tags\np18553\n(lp18554\nsVbody\np18555\nVThis made our list of "10 Crazy And Outrageous Aquariums". See them all on BuzzFeed!\np18556\nsVimage_hash\np18557\nV'
p6
sS'hash'
p7
S'9caabe288fa7581ae0402db2c930408638923a09'
p8
sS'stack'
p9
S''
s.