(dp1
S'args'
p2
S''
sS'methodname'
p3
S''
sS'packet_num'
p4
I85
sS'returnval'
p5
S'81\nsVcreative_id\np11282\nV6005512608165\np11283\nsVpreview_url\np11284\nVhttp://www.facebook.com/ads/api/creative_preview.php?cid=6005512608165\np11285\nsVid\np11286\nV6005512608165\np11287\nsVimage_url\np11288\nVhttps://fbcdn-creative-a.akamaihd.net/hads-ak-prn1/s110x80/708195_6006844558165_3804_n.jpg\np11289\nsVcount_current_adgroups\np11290\nI2\nsVrun_status\np11291\nI1\nsVtype\np11292\nI1\nsVlink_url\np11293\nVhttp://www.buzzfeed.com/h1/fbad/cfm/15-instagram-feeds-that-you-have-to-follow-6rc8\np11294\nsVview_tag\np11295\ng37\nsa(dp11296\nValt_view_tags\np11297\n(lp11298\nsVbody\np11299\nVFind out the answer in "The Evolution Of Internet Connectivity" only on BuzzFeed.\np11300\nsVimage_hash\np11301\nV3bdeeadd438ba70fe10c1593e41f68d6\np11302\nsVname\np11303\nVWhat Was The 1st Dot Com?\np11304\nsVtitle\np11305\nVWhat Was The 1st Dot Com?\np11306\nsVcreative_id\np11307\nV6005494815365\np11308\nsVpreview_url\np11309\nVhttp://www.facebook.com/ads/api/creative_preview.php?cid=6005494815365\np11310\nsVid\np11311\nV6005494815365\np11312\nsVimage_url\np11313\nVhttps://fbcdn-creative-a.akamaihd.net/hads-ak-ash3/s110x80/701890_6006844402565_34365_n.jpg\np11314\nsVcount_current_adgroups\np11315\nI2\nsVrun_status\np11316\nI1\nsVtype\np11317\nI1\nsVlink_url\np11318\nVhttp://www.buzzfeed.com/h1/fbad/verizonfios/the-evolution-of-internet-connectivity\np11319\nsVview_tag\np11320\ng37\nsa(dp11321\nValt_view_tags\np11322\n(lp11323\nsVbody\np11324\nVSee this and more of the craziest sunburns of all time! \\u000a\np11325\nsVimage_hash\np11326\nVaf3102f83a7dc96ef27f50fc417f1009\np11327\nsVname\np11328\nVNice Tan Dude!\np11329\nsVtitle\np11330\nVNice Tan Dude!\np11331\nsVcreative_id\np11332\nV6005494777965\np11333\nsVpreview_url\np11334\nVhttp://www.facebook.com/ads/api/creative_preview.php?cid=6005494777965\np11335\nsVid\np11336\nV6005494777965\np11337\nsVimage_url\np11338\nVhttps://fbcdn-creative-a.akamaihd.net/hads-ak-ash3/s110x80/708189_6006845105365_64414_n.jpg\np11339\nsVcount_current_adgroups\np11340\nI1\nsVrun_status\np11341\nI1\nsVtype\np11342\nI1\nsVlink_url\np11343\nVhttp://www.buzzfeed.com/h1/fbad/virginmobilelive/20-reasons-to-reapply-sunscreen-5l87\np11344\nsVview_tag\np11345\ng37\nsa(dp11346\nValt_view_tags\np11347\n(lp11348\nsVbody\np11349\nVCheck out these "9 People Totally Obsessed With Airplanes" only on BuzzFeed!\np11350\nsVimage_hash\np11351\nV55fdba72cf5af7267533ef4dabf3dc88\np11352\nsVname\np11353\nVThink your obessed?-00-00-00-00-00\np11354\nsVtitle\np11355\nVNo Way Airplane Art!\np11356\nsVcreative_id\np11357\nV6005527177965\np11358\nsVpreview_url\np11359\nVhttp://www.facebook.com/ads/api/creative_preview.php?cid=6005527177965\np11360\nsVid\np11361\nV6005527177965\np11362\nsVimage_url\np11363\nVhttps://fbcdn-creative-a.akamaihd.net/hads-ak-prn1/s110x80/708176_6006844589565_12056_n.jpg\np11364\nsVcount_current_adgroups\np11365\nI1\nsVrun_status\np11366\nI1\nsVtype\np11367\nI1\nsVlink_url\np11368\nVhttp://www.buzzfeed.com/h1/fbad/cfm/9-people-totally-obsessed-with-airplanes-6rc8\np11369\nsVview_tag\np11370\ng37\nsa(dp11371\nValt_view_tags\np11372\n(lp11373\nsVbody\np11374\nVCheck out these "30 Amazing Summer Sunsets To Help You Feel Zen" Only on BuzzFeed!\np11375\nsVimage_hash\np11376\nV42d835a20017fe1df4c978daa1a60fec\np11377\nsVname\np11378\nVThe Most Amazing Sunsets -00\np11379\nsVtitle\np11380\nVThe Most Amazing Sunsets \np11381\nsVcreative_id\np11382\nV6005498817965\np11383\nsVpreview_url\np11384\nVhttp://www.facebook.com/ads/api/creative_preview.php?cid=6005498817965\np11385\nsVid\np11386\nV6005498817965\np11387\nsVimage_url\np11388\nVhttps://fbcdn-creative-a.akamaihd.net/hads-ak-prn1/s110x80/708205_6006844454365_30332_n.jpg\np11389\nsVcount_current_adgroups\np11390\nI2\nsVrun_status\np11391\nI1\nsVtype\np11392\nI1\nsVlink_url\np11393\nVhttp://www.buzzfeed.com/h1/fbad/canon/30-amazing-summer-sunsets-to-help-you-feel-zen-5u1t\np11394\nsVview_tag\np11395\ng37\nsa(dp11396\nValt_view_tags\np11397\n(lp11398\nsVbody\np11399\nVCan you guess her favorite childhood toy? Find out on BuzzFeed!\\u000a\np11400\nsVimage_hash\np11401\nV1725086c2f46d5e42be6331780753cd3\np11402\nsVname\np11403\nVFavorite Childhood Toy?-00\np11404\nsVtitle\np11405\nVLove Zooey?\np11406\nsVcreative_id\np11407\nV6005493878965\np11408\nsVpreview_url\np11409\nVhttp://www.facebook.com/ads/api/creative_preview.php'
p6
sS'hash'
p7
S'9caabe288fa7581ae0402db2c930408638923a09'
p8
sS'stack'
p9
S''
s.