(dp1
S'args'
p2
S''
sS'methodname'
p3
S''
sS'packet_num'
p4
I119
sS'returnval'
p5
S"lebrity throwbacks that will make you feel old!\np15756\nsVimage_hash\np15757\nVabb1f78a9d5302093dd102893c380458\np15758\nsVname\np15759\nVThrowback Ryan Gosling\np15760\nsVtitle\np15761\nVThrowback Ryan Gosling\np15762\nsVcreative_id\np15763\nV6005220693965\np15764\nsVpreview_url\np15765\nVhttp://www.facebook.com/ads/api/creative_preview.php?cid=6005220693965\np15766\nsVid\np15767\nV6005220693965\np15768\nsVimage_url\np15769\nVhttps://fbcdn-creative-a.akamaihd.net/hads-ak-ash3/s110x80/708189_6006845084965_18753_n.jpg\np15770\nsVcount_current_adgroups\np15771\nI2\nsVrun_status\np15772\nI1\nsVtype\np15773\nI1\nsVlink_url\np15774\nVhttp://www.buzzfeed.com/h1/fbad/mtvmovieawards/throwbacks-from-the-movie-awards-that-will-make-yo-69vw\np15775\nsVview_tag\np15776\ng37\nsa(dp15777\nValt_view_tags\np15778\n(lp15779\nsVbody\np15780\nVFind this and other status updates that will lose your organ donor status on Facebook!\np15781\nsVimage_hash\np15782\nVf8f4a10b5bb789f7085bd739ba238f79\np15783\nsVname\np15784\nVThat's a big burger\np15785\nsVtitle\np15786\nVThat's a big burger\np15787\nsVcreative_id\np15788\nV6005216448365\np15789\nsVpreview_url\np15790\nVhttp://www.facebook.com/ads/api/creative_preview.php?cid=6005216448365\np15791\nsVid\np15792\nV6005216448365\np15793\nsVimage_url\np15794\nVhttps://fbcdn-creative-a.akamaihd.net/hads-ak-ash3/s110x80/708189_6006845560365_15346_n.jpg\np15795\nsVcount_current_adgroups\np15796\nI1\nsVrun_status\np15797\nI1\nsVtype\np15798\nI1\nsVlink_url\np15799\nVhttp://www.buzzfeed.com/h1/fbad/virginmobilelive/10-ways-to-lose-your-organ-donor-status-on-faceboo-5l87\np15800\nsVview_tag\np15801\ng37\nsa(dp15802\nValt_view_tags\np15803\n(lp15804\nsVbody\np15805\nVCan you guess what he's reacting to? Check it out on BuzzFeed!\np15806\nsVimage_hash\np15807\nV34ca44cb07d016e57346f97cdc44d548\np15808\nsVname\np15809\nVAwesome Ron Swanson GIF\np15810\nsVtitle\np15811\nVAwesome Ron Swanson GIF\np15812\nsVcreative_id\np15813\nV6005213650165\np15814\nsVpreview_url\np15815\nVhttp://www.facebook.com/ads/api/creative_preview.php?cid=6005213650165\np15816\nsVid\np15817\nV6005213650165\np15818\nsVimage_url\np15819\nVhttps://fbcdn-creative-a.akamaihd.net/hads-ak-prn1/s110x80/708161_6006844359765_59691_n.jpg\np15820\nsVcount_current_adgroups\np15821\nI1\nsVrun_status\np15822\nI1\nsVtype\np15823\nI1\nsVlink_url\np15824\nVhttp://www.buzzfeed.com/h1/fbad/virginmobilelive/15-totally-appropriate-reactions-to-sexting-the-wr-5l87\np15825\nsVview_tag\np15826\ng37\nsa(dp15827\nValt_view_tags\np15828\n(lp15829\nsVbody\np15830\nVCan you guess what he's reacting to? Check it out on BuzzFeed!\np15831\nsVimage_hash\np15832\nV34ca44cb07d016e57346f97cdc44d548\np15833\nsVname\np15834\nVRon Swanson 2012\np15835\nsVtitle\np15836\nVRon Swanson 2012\np15837\nsVcreative_id\np15838\nV6005222815165\np15839\nsVpreview_url\np15840\nVhttp://www.facebook.com/ads/api/creative_preview.php?cid=6005222815165\np15841\nsVid\np15842\nV6005222815165\np15843\nsVimage_url\np15844\nVhttps://fbcdn-creative-a.akamaihd.net/hads-ak-prn1/s110x80/708161_6006844359765_59691_n.jpg\np15845\nsVcount_current_adgroups\np15846\nI1\nsVrun_status\np15847\nI1\nsVtype\np15848\nI1\nsVlink_url\np15849\nVhttp://www.buzzfeed.com/h1/fbad/virginmobilelive/15-totally-appropriate-reactions-to-sexting-the-wr-5l87\np15850\nsVview_tag\np15851\ng37\nsa(dp15852\nValt_view_tags\np15853\n(lp15854\nsVbody\np15855\nVCan you guess what he's reacting to? Check it out on BuzzFeed!\np15856\nsVimage_hash\np15857\nV9ab1de6126cfe7b194c874d39b80cf50\np15858\nsVname\np15859\nVThe Freshest Prince\np15860\nsVtitle\np15861\nVThe Freshest Prince\np15862\nsVcreative_id\np15863\nV6005222821365\np15864\nsVpreview_url\np15865\nVhttp://www.facebook.com/ads/api/creative_preview.php?cid=6005222821365\np15866\nsVid\np15867\nV6005222821365\np15868\nsVimage_url\np15869\nVhttps://fbcdn-creative-a.akamaihd.net/hads-ak-prn1/s110x80/708163_6006844972565_10989_n.jpg\np15870\nsVcount_current_adgroups\np15871\nI1\nsVrun_status\np15872\nI1\nsVtype\np15873\nI1\nsVlink_url\np15874\nVhttp://www.buzzfeed.com/h1/fbad/virginmobilelive/15-totally-appropriate-reactions-to-sexting-the-wr-5l87\np15875\nsVview_tag\np15876\ng37\nsa(dp15877\nValt_view_tags\np15878\n(lp15879\nsVbody\np15880\nVMakes our list of most unique and delicious drinks for summer. See the full list on here. \np1588"
p6
sS'hash'
p7
S'9caabe288fa7581ae0402db2c930408638923a09'
p8
sS'stack'
p9
S''
s.