(dp1
S'args'
p2
S''
sS'methodname'
p3
S''
sS'packet_num'
p4
I150
sS'returnval'
p5
S'9678\nI1\nsVrun_status\np19679\nI1\nsVtype\np19680\nI1\nsVlink_url\np19681\nVhttp://www.buzzfeed.com/H1/FBAD/punkd/the-faces-of-punkd-55rv\np19682\nsVview_tag\np19683\ng37\nsa(dp19684\nValt_view_tags\np19685\n(lp19686\nsVbody\np19687\nVDon\'t you love the facial expressions of people getting "Punk\'d" ? So do we!  BuzzFeed has a whole collection of them. Check it out!\np19688\nsVimage_hash\np19689\nV9866ef0a55bea21984214806d0293759\np19690\nsVname\np19691\nVThe Faces Of \\u201cPunk\'d\\u201d-01\np19692\nsVtitle\np19693\nVThe Faces Of \\u201cPunk\'d\\u201d\np19694\nsVcreative_id\np19695\nV6004933265365\np19696\nsVpreview_url\np19697\nVhttp://www.facebook.com/ads/api/creative_preview.php?cid=6004933265365\np19698\nsVid\np19699\nV6004933265365\np19700\nsVimage_url\np19701\nVhttps://fbcdn-creative-a.akamaihd.net/hads-ak-ash3/s110x80/708176_6006844961565_4336_n.jpg\np19702\nsVcount_current_adgroups\np19703\nI1\nsVrun_status\np19704\nI1\nsVtype\np19705\nI1\nsVlink_url\np19706\nVhttp://www.buzzfeed.com/H1/FBAD/punkd/the-faces-of-punkd-55rv\np19707\nsVview_tag\np19708\ng37\nsa(dp19709\nValt_view_tags\np19710\n(lp19711\nsVbody\np19712\nVThey\'re one of the "10 Things That Are Smarter Than You\'d Expect". Check out BuzzFeed to see why!\np19713\nsVimage_hash\np19714\nV5c9727d5d3828a7d131bc02d8609a360\np19715\nsVname\np19716\nVAre Toilets Smart?\np19717\nsVtitle\np19718\nVAre Toilets Smart?\np19719\nsVcreative_id\np19720\nV6004920402765\np19721\nsVpreview_url\np19722\nVhttp://www.facebook.com/ads/api/creative_preview.php?cid=6004920402765\np19723\nsVid\np19724\nV6004920402765\np19725\nsVimage_url\np19726\nVhttps://fbcdn-creative-a.akamaihd.net/hads-ak-prn1/s110x80/708187_6006844619965_34449_n.jpg\np19727\nsVcount_current_adgroups\np19728\nI1\nsVrun_status\np19729\nI1\nsVtype\np19730\nI1\nsVlink_url\np19731\nVhttp://www.buzzfeed.com/h1/FBAD/microsofthotmail/10-things-that-are-smarter-than-youd-expect-4iv0\np19732\nsVview_tag\np19733\ng37\nsa(dp19734\nValt_view_tags\np19735\n(lp19736\nsVbody\np19737\nVThey\'re one of the "10 Things That Are Smarter Than You\'d Expect". Check out BuzzFeed to see why!\np19738\nsVimage_hash\np19739\nVa0814c3a98ff59279918d1ad3f34514b\np19740\nsVname\np19741\nVAre Bracelets Smart?\np19742\nsVtitle\np19743\nVAre Bracelets Smart?\np19744\nsVcreative_id\np19745\nV6004920563365\np19746\nsVpreview_url\np19747\nVhttp://www.facebook.com/ads/api/creative_preview.php?cid=6004920563365\np19748\nsVid\np19749\nV6004920563365\np19750\nsVimage_url\np19751\nVhttps://fbcdn-creative-a.akamaihd.net/hads-ak-prn1/s110x80/701896_6006845013965_43366_n.jpg\np19752\nsVcount_current_adgroups\np19753\nI1\nsVrun_status\np19754\nI1\nsVtype\np19755\nI1\nsVlink_url\np19756\nVhttp://www.buzzfeed.com/h1/FBAD/microsofthotmail/10-things-that-are-smarter-than-youd-expect-4iv0\np19757\nsVview_tag\np19758\ng37\nsa(dp19759\nValt_view_tags\np19760\n(lp19761\nsVbody\np19762\nVThey\'re one of the "10 Things That Are Smarter Than You\'d Expect". Check out BuzzFeed to see why!\np19763\nsVimage_hash\np19764\nV25e77db32e50f10943c5c887e1d8b292\np19765\nsVname\np19766\nVAre Coffee Mugs Smart?\np19767\nsVtitle\np19768\nVAre Coffee Mugs Smart?\np19769\nsVcreative_id\np19770\nV6004920567365\np19771\nsVpreview_url\np19772\nVhttp://www.facebook.com/ads/api/creative_preview.php?cid=6004920567365\np19773\nsVid\np19774\nV6004920567365\np19775\nsVimage_url\np19776\nVhttps://fbcdn-creative-a.akamaihd.net/hads-ak-ash3/s110x80/701895_6006844284565_62840_n.jpg\np19777\nsVcount_current_adgroups\np19778\nI1\nsVrun_status\np19779\nI1\nsVtype\np19780\nI1\nsVlink_url\np19781\nVhttp://www.buzzfeed.com/h1/FBAD/microsofthotmail/10-things-that-are-smarter-than-youd-expect-4iv0\np19782\nsVview_tag\np19783\ng37\nsa(dp19784\nValt_view_tags\np19785\n(lp19786\nsVbody\np19787\nVBilly Mays made our list of "The Most Energized Spokesmen Of Our Time". Check out BuzzFeed to see the rest!\np19788\nsVimage_hash\np19789\nV3ccdeabac87f44e6bac7597212e9da79\np19790\nsVname\np19791\nVMost Energized Spokesmen\np19792\nsVtitle\np19793\nVMost Energized Spokesmen\np19794\nsVcreative_id\np19795\nV6004898418365\np19796\nsVpreview_url\np19797\nVhttp://www.facebook.com/ads/api/creative_preview.php?cid=6004898418365\np19798\nsVid\np19799\nV6004898418365\np19800\nsVimage_url\np19801\nVhttps://fbcdn-creative-a.akamaihd.net/hads-ak-prn1/s110x80/708161_6006844410365_24'
p6
sS'hash'
p7
S'9caabe288fa7581ae0402db2c930408638923a09'
p8
sS'stack'
p9
S''
s.