(dp1
S'args'
p2
S''
sS'methodname'
p3
S''
sS'packet_num'
p4
I174
sS'returnval'
p5
S'2680\nI1\nsVlink_url\np22681\nVhttp://www.buzzfeed.com/h1/fba/tosh.0/people-who-deserve-a-chance-at-web-redemption\np22682\nsVview_tag\np22683\ng37\nsa(dp22684\nValt_view_tags\np22685\n(lp22686\nsVbody\np22687\nVCheck out some of the best fan tributes to your favorite spy show and don\'t forget to tune in to the season premiere on 1/19 only on FX\np22688\nsVimage_hash\np22689\nV662125d30cc1dde6220611e98c1b7ea8\np22690\nsVname\np22691\nVAre You An Archer Fan?\np22692\nsVtitle\np22693\nVAre You An Archer Fan?\np22694\nsVcreative_id\np22695\nV6004565642365\np22696\nsVpreview_url\np22697\nVhttp://www.facebook.com/ads/api/creative_preview.php?cid=6004565642365\np22698\nsVid\np22699\nV6004565642365\np22700\nsVimage_url\np22701\nVhttps://fbcdn-creative-a.akamaihd.net/hads-ak-prn1/s110x80/708166_6006844669565_45670_n.jpg\np22702\nsVcount_current_adgroups\np22703\nI1\nsVrun_status\np22704\nI1\nsVtype\np22705\nI1\nsVlink_url\np22706\nVhttp://www.buzzfeed.com/h1/fba/archer/the-best-archer-fan-tributes-4vas\np22707\nsVview_tag\np22708\ng37\nsa(dp22709\nValt_view_tags\np22710\n(lp22711\nsVbody\np22712\nVFind out what the top 10 most important spy skills are. "A Mastery Of Spy Toys" is one of them.\np22713\nsVimage_hash\np22714\nV3c128ff1277c3b6622145ac8ab5ff203\np22715\nsVname\np22716\nVArcher\'s Spy Skills\np22717\nsVtitle\np22718\nVArcher\'s Spy Skills\np22719\nsVcreative_id\np22720\nV6004473898165\np22721\nsVpreview_url\np22722\nVhttp://www.facebook.com/ads/api/creative_preview.php?cid=6004473898165\np22723\nsVid\np22724\nV6004473898165\np22725\nsVimage_url\np22726\nVhttps://fbcdn-creative-a.akamaihd.net/hads-ak-ash3/s110x80/701890_6006844403765_25771_n.jpg\np22727\nsVcount_current_adgroups\np22728\nI1\nsVrun_status\np22729\nI1\nsVtype\np22730\nI1\nsVlink_url\np22731\nVhttp://www.buzzfeed.com/h1/fba/archer/the-top-10-most-important-spy-skills-4vas\np22732\nsVview_tag\np22733\ng37\nsa(dp22734\nValt_view_tags\np22735\n(lp22736\nsVbody\np22737\nVFind out what the top 10 most important spy skills are. "Sex Appeal" is one of them.\np22738\nsVimage_hash\np22739\nV787149441a896874ff965cade15a8cb7\np22740\nsVname\np22741\nVArcher\'s Spy Skills-01\np22742\nsVtitle\np22743\nVArcher\'s Spy Skills\np22744\nsVcreative_id\np22745\nV6004473902565\np22746\nsVpreview_url\np22747\nVhttp://www.facebook.com/ads/api/creative_preview.php?cid=6004473902565\np22748\nsVid\np22749\nV6004473902565\np22750\nsVimage_url\np22751\nVhttps://fbcdn-creative-a.akamaihd.net/hads-ak-prn1/s110x80/708170_6006844778565_50619_n.jpg\np22752\nsVcount_current_adgroups\np22753\nI1\nsVrun_status\np22754\nI1\nsVtype\np22755\nI1\nsVlink_url\np22756\nVhttp://www.buzzfeed.com/h1/fba/archer/the-top-10-most-important-spy-skills-4vas\np22757\nsVview_tag\np22758\ng37\nsa(dp22759\nValt_view_tags\np22760\n(lp22761\nsVbody\np22762\nVCheck out BuzzFeed\'s "Most Extreme Super Bowl Party Recipes" for some hot new ideas!\np22763\nsVimage_hash\np22764\nV7b024e5759222f6d9e5d730c0b0df794\np22765\nsVname\np22766\nVSuper Bowl Snacks\np22767\nsVtitle\np22768\nVSuper Bowl Snacks\np22769\nsVcreative_id\np22770\nV6004473889165\np22771\nsVpreview_url\np22772\nVhttp://www.facebook.com/ads/api/creative_preview.php?cid=6004473889165\np22773\nsVid\np22774\nV6004473889165\np22775\nsVimage_url\np22776\nVhttps://fbcdn-creative-a.akamaihd.net/hads-ak-prn1/s110x80/708196_6006844789165_29588_n.jpg\np22777\nsVcount_current_adgroups\np22778\nI1\nsVrun_status\np22779\nI1\nsVtype\np22780\nI1\nsVlink_url\np22781\nVhttp://www.buzzfeed.com/h1/fba/crashthesuperbowl/the-most-extreme-super-bowl-party-recipes\np22782\nsVview_tag\np22783\ng37\nsa(dp22784\nValt_view_tags\np22785\n(lp22786\nsVbody\np22787\nVCheck out the "Chocolate Guinness Cupcake" recipe and click here to see more great ideas for your Super Bowl party.\np22788\nsVimage_hash\np22789\nVc682678996e687635eeb052aedba25ff\np22790\nsVname\np22791\nVExtreme Food Recipes\np22792\nsVtitle\np22793\nVExtreme Food Recipes\np22794\nsVcreative_id\np22795\nV6004473891565\np22796\nsVpreview_url\np22797\nVhttp://www.facebook.com/ads/api/creative_preview.php?cid=6004473891565\np22798\nsVid\np22799\nV6004473891565\np22800\nsVimage_url\np22801\nVhttps://fbcdn-creative-a.akamaihd.net/hads-ak-ash3/s110x80/701897_6006845239965_41459_n.jpg\np22802\nsVcount_current_adgroups\np22803\nI1\nsVrun_status\np22804\nI1\nsVtype\np22805\nI1\nsVlink_url\n'
p6
sS'hash'
p7
S'9caabe288fa7581ae0402db2c930408638923a09'
p8
sS'stack'
p9
S''
s.