(dp1
S'args'
p2
S''
sS'methodname'
p3
S''
sS'packet_num'
p4
I149
sS'returnval'
p5
S'ttp://www.buzzfeed.com/H1/FBAD/punkd/what-you-didnt-know-about-the-new-hosts-of-p-55rv\np19557\nsVview_tag\np19558\ng37\nsa(dp19559\nValt_view_tags\np19560\n(lp19561\nsVbody\np19562\nVKim Kardashian is one of the "Celebrities We\'d Like To See Get Punk\'d". See the full list on BuzzFeed.\np19563\nsVimage_hash\np19564\nV145f3d5e94ae89474ff1fdfb9fac7bed\np19565\nsVname\np19566\nVWho to "Punk" Next?\np19567\nsVtitle\np19568\nVWho to "Punk" Next?\np19569\nsVcreative_id\np19570\nV6004936378965\np19571\nsVpreview_url\np19572\nVhttp://www.facebook.com/ads/api/creative_preview.php?cid=6004936378965\np19573\nsVid\np19574\nV6004936378965\np19575\nsVimage_url\np19576\nVhttps://fbcdn-creative-a.akamaihd.net/hads-ak-ash3/s110x80/708194_6006844175565_47335_n.jpg\np19577\nsVcount_current_adgroups\np19578\nI1\nsVrun_status\np19579\nI1\nsVtype\np19580\nI1\nsVlink_url\np19581\nVhttp://www.buzzfeed.com/H1/FBAD/punkd/celebrities-wed-like-to-see-get-punkd-55rv\np19582\nsVview_tag\np19583\ng37\nsa(dp19584\nValt_view_tags\np19585\n(lp19586\nsVbody\np19587\nVAshton Kutcher is one of the "Celebrities We\'d Like To See Get Punk\'d". See the full list on BuzzFeed.\np19588\nsVimage_hash\np19589\nV36f0698a32eda6e1b5a763d6ce74db1b\np19590\nsVname\np19591\nVWho to "Punk" Next?-00\np19592\nsVtitle\np19593\nVWho to "Punk" Next?\np19594\nsVcreative_id\np19595\nV6004936381365\np19596\nsVpreview_url\np19597\nVhttp://www.facebook.com/ads/api/creative_preview.php?cid=6004936381365\np19598\nsVid\np19599\nV6004936381365\np19600\nsVimage_url\np19601\nVhttps://fbcdn-creative-a.akamaihd.net/hads-ak-prn1/s110x80/708191_6006844370565_11365_n.jpg\np19602\nsVcount_current_adgroups\np19603\nI1\nsVrun_status\np19604\nI1\nsVtype\np19605\nI1\nsVlink_url\np19606\nVhttp://www.buzzfeed.com/H1/FBAD/punkd/celebrities-wed-like-to-see-get-punkd-55rv\np19607\nsVview_tag\np19608\ng37\nsa(dp19609\nValt_view_tags\np19610\n(lp19611\nsVbody\np19612\nVMike Tyson is one of the "Celebrities We\'d Like To See Get Punk\'d". See the full list on BuzzFeed.\np19613\nsVimage_hash\np19614\nVbb27c82e7377142139fd27ec617c093d\np19615\nsVname\np19616\nVWho to "Punk" Next?-01\np19617\nsVtitle\np19618\nVWho to "Punk" Next?\np19619\nsVcreative_id\np19620\nV6004936383365\np19621\nsVpreview_url\np19622\nVhttp://www.facebook.com/ads/api/creative_preview.php?cid=6004936383365\np19623\nsVid\np19624\nV6004936383365\np19625\nsVimage_url\np19626\nVhttps://fbcdn-creative-a.akamaihd.net/hads-ak-ash3/s110x80/708201_6006845174765_278_n.jpg\np19627\nsVcount_current_adgroups\np19628\nI1\nsVrun_status\np19629\nI1\nsVtype\np19630\nI1\nsVlink_url\np19631\nVhttp://www.buzzfeed.com/H1/FBAD/punkd/celebrities-wed-like-to-see-get-punkd-55rv\np19632\nsVview_tag\np19633\ng37\nsa(dp19634\nValt_view_tags\np19635\n(lp19636\nsVbody\np19637\nVDon\'t you love the facial expressions of people getting "Punk\'d" ? So do we!  BuzzFeed has a whole collection of them. Check it out!\np19638\nsVimage_hash\np19639\nV4c46db2fed06b02b4413e8f301f5e9b4\np19640\nsVname\np19641\nVThe Faces Of \\u201cPunk\'d\\u201d\np19642\nsVtitle\np19643\nVThe Faces Of \\u201cPunk\'d\\u201d\np19644\nsVcreative_id\np19645\nV6004933260565\np19646\nsVpreview_url\np19647\nVhttp://www.facebook.com/ads/api/creative_preview.php?cid=6004933260565\np19648\nsVid\np19649\nV6004933260565\np19650\nsVimage_url\np19651\nVhttps://fbcdn-creative-a.akamaihd.net/hads-ak-prn1/s110x80/708166_6006844513765_59843_n.jpg\np19652\nsVcount_current_adgroups\np19653\nI1\nsVrun_status\np19654\nI1\nsVtype\np19655\nI1\nsVlink_url\np19656\nVhttp://www.buzzfeed.com/H1/FBAD/punkd/the-faces-of-punkd-55rv\np19657\nsVview_tag\np19658\ng37\nsa(dp19659\nValt_view_tags\np19660\n(lp19661\nsVbody\np19662\nVDon\'t you love the facial expressions of people getting "Punk\'d" ? So do we!  BuzzFeed has a whole collection of them. Check it out!\np19663\nsVimage_hash\np19664\nVabd932a15bf0c248f37aaa45ae0a501e\np19665\nsVname\np19666\nVThe Faces Of \\u201cPunk\'d\\u201d-00\np19667\nsVtitle\np19668\nVThe Faces Of \\u201cPunk\'d\\u201d\np19669\nsVcreative_id\np19670\nV6004933262765\np19671\nsVpreview_url\np19672\nVhttp://www.facebook.com/ads/api/creative_preview.php?cid=6004933262765\np19673\nsVid\np19674\nV6004933262765\np19675\nsVimage_url\np19676\nVhttps://fbcdn-creative-a.akamaihd.net/hads-ak-ash3/s110x80/708189_6006845085765_47835_n.jpg\np19677\nsVcount_current_adgroups\np1'
p6
sS'hash'
p7
S'9caabe288fa7581ae0402db2c930408638923a09'
p8
sS'stack'
p9
S''
s.