(dp1
S'args'
p2
S''
sS'methodname'
p3
S''
sS'packet_num'
p4
I184
sS'returnval'
p5
S' Smile!\np23919\nsVcreative_id\np23920\nV6004295261365\np23921\nsVpreview_url\np23922\nVhttp://www.facebook.com/ads/api/creative_preview.php?cid=6004295261365\np23923\nsVid\np23924\nV6004295261365\np23925\nsVimage_url\np23926\nVhttps://fbcdn-creative-a.akamaihd.net/hads-ak-ash3/s110x80/708169_6006845395565_45967_n.jpg\np23927\nsVcount_current_adgroups\np23928\nI1\nsVrun_status\np23929\nI1\nsVtype\np23930\nI1\nsVlink_url\np23931\nVhttp://www.buzzfeed.com/h1/fba/mentos/20-pictures-that-will-give-you-holiday-cheer\np23932\nsVview_tag\np23933\ng37\nsa(dp23934\nValt_view_tags\np23935\n(lp23936\nsVbody\np23937\nVCheck out "20 Pictures That Will Give You Holiday Cheer" by BuzzFeed.  These pictures are bound to put a smile on your face!\np23938\nsVimage_hash\np23939\nV3b17a28715e781d17b233147ce74581a\np23940\nsVname\np23941\nV20 Reasons To Smile!-01\np23942\nsVtitle\np23943\nV20 Reasons To Smile!\np23944\nsVcreative_id\np23945\nV6004295263765\np23946\nsVpreview_url\np23947\nVhttp://www.facebook.com/ads/api/creative_preview.php?cid=6004295263765\np23948\nsVid\np23949\nV6004295263765\np23950\nsVimage_url\np23951\nVhttps://fbcdn-creative-a.akamaihd.net/hads-ak-prn1/s110x80/708206_6006844395365_33159_n.jpg\np23952\nsVcount_current_adgroups\np23953\nI1\nsVrun_status\np23954\nI1\nsVtype\np23955\nI1\nsVlink_url\np23956\nVhttp://www.buzzfeed.com/h1/fba/mentos/20-pictures-that-will-give-you-holiday-cheer\np23957\nsVview_tag\np23958\ng37\nsa(dp23959\nValt_view_tags\np23960\n(lp23961\nsVbody\np23962\nVCheck out BuzzFeed\'s list of "The 10 Best Things To Come Out Of Australia". Koalas are on the list - What\'s your pick?\np23963\nsVimage_hash\np23964\nV11c3f3ae066851d9385444b2696a09e2\np23965\nsVname\np23966\nVBuzzFeed-22\np23967\nsVtitle\np23968\ng37\nsVcreative_id\np23969\nV6004290015965\np23970\nsVpreview_url\np23971\nVhttp://www.facebook.com/ads/api/creative_preview.php?cid=6004290015965\np23972\nsVobject_id\np23973\nI21898300328\nsVid\np23974\nV6004290015965\np23975\nsVimage_url\np23976\nVhttps://fbcdn-creative-a.akamaihd.net/hads-ak-prn1/s110x80/708177_6006844158165_37983_n.jpg\np23977\nsVcount_current_adgroups\np23978\nI1\nsVrun_status\np23979\nI1\nsVtype\np23980\nI2\nsVlink_url\np23981\nVhttp://www.facebook.com/BuzzFeed?sk=wall\np23982\nsVview_tag\np23983\ng37\nsa(dp23984\nValt_view_tags\np23985\n(lp23986\nsVbody\np23987\nVCheck out BuzzFeed\'s list of "The 10 Best Things To Come Out Of Australia". AC/DC is #8 on the list - What\'s your pick?\np23988\nsVimage_hash\np23989\nVd8254f97514687da7fd5eb8f90b887e4\np23990\nsVname\np23991\nVBuzzFeed-23\np23992\nsVtitle\np23993\ng37\nsVcreative_id\np23994\nV6004290020165\np23995\nsVpreview_url\np23996\nVhttp://www.facebook.com/ads/api/creative_preview.php?cid=6004290020165\np23997\nsVobject_id\np23998\nI21898300328\nsVid\np23999\nV6004290020165\np24000\nsVimage_url\np24001\nVhttps://fbcdn-creative-a.akamaihd.net/hads-ak-ash3/s110x80/708161_6006845342165_25654_n.jpg\np24002\nsVcount_current_adgroups\np24003\nI1\nsVrun_status\np24004\nI1\nsVtype\np24005\nI2\nsVlink_url\np24006\nVhttp://www.facebook.com/BuzzFeed?sk=wall\np24007\nsVview_tag\np24008\ng37\nsa(dp24009\nValt_view_tags\np24010\n(lp24011\nsVbody\np24012\nVCheck out BuzzFeed\'s list of "The 10 Best Things To Come Out Of Australia". Heath Ledger is # 3 on the list - What\'s your pick?\np24013\nsVimage_hash\np24014\nV964f9b1461a3e26424b6bed9ca3c002c\np24015\nsVname\np24016\nVBuzzFeed-24\np24017\nsVtitle\np24018\ng37\nsVcreative_id\np24019\nV6004290024165\np24020\nsVpreview_url\np24021\nVhttp://www.facebook.com/ads/api/creative_preview.php?cid=6004290024165\np24022\nsVobject_id\np24023\nI21898300328\nsVid\np24024\nV6004290024165\np24025\nsVimage_url\np24026\nVhttps://fbcdn-creative-a.akamaihd.net/hads-ak-prn1/s110x80/708172_6006844950365_62443_n.jpg\np24027\nsVcount_current_adgroups\np24028\nI1\nsVrun_status\np24029\nI1\nsVtype\np24030\nI2\nsVlink_url\np24031\nVhttp://www.facebook.com/BuzzFeed?sk=wall\np24032\nsVview_tag\np24033\ng37\nsa(dp24034\nValt_view_tags\np24035\n(lp24036\nsVbody\np24037\nVCheck out BuzzFeed\'s list of "The 10 Best Things To Come Out Of Australia". Heath Ledger is on the list - What\'s your pick?\np24038\nsVimage_hash\np24039\nV964f9b1461a3e26424b6bed9ca3c002c\np24040\nsVname\np24041\nVBuzzFeed-25\np24042\nsVtitle\np24043\ng37\nsVcreative_id\np24044\nV6004290026165\np24045\nsVpreview_url\np'
p6
sS'hash'
p7
S'9caabe288fa7581ae0402db2c930408638923a09'
p8
sS'stack'
p9
S''
s.