(dp1
S'args'
p2
S''
sS'methodname'
p3
S''
sS'packet_num'
p4
I19
sS'returnval'
p5
S'oACgAAAACJrdDMAcoAAUmJvGr9tAEeAAAAAKmCtAAAAQABSYm8av20AbYAAAAAUGYNXQHkAAFJibxq/bQNABsGCwAAAAFAAwAAAMpIb21lIGRlY29yIGZvciB0aGUgaW5uZXIgbmVyZCBpbiBhbGwgb2YgdXMuLi5odHRwOi8vYnpmZC5pdC9TaVRWWUQgb29vb28gMzAgR2Vla3kgV2F5cyBUbyBTcHJ1Y2UgVXAgWW91ciBOZXJkIFBhZCBvb29vbyBIb21lIGRlY29yIGZvciB0aGUgaW5uZXIgbmVyZCBpbiBhbGwgb2YgdXMuICBMaXZlIGxvbmcgYW5kIHByb3NwZXIgLSBWaXJnaW4gTW9iaWxlCgAcAAFJibxq/bQA\np2516\nsVpreview_url\np2517\nVhttp://www.facebook.com/ads/api/creative_preview.php?cid=6005942461165\np2518\nsVobject_id\np2519\nV238205562866018\np2520\nsVaction_spec\np2521\nNsVcount_current_adgroups\np2522\nI1\nsVstory_id\np2523\nV362330897186228\np2524\nsVrun_status\np2525\nI1\nsVtype\np2526\nI27\nsVid\np2527\nV6005942461165\np2528\nsVlink_type\np2529\ng37\nsa(dp2530\nVrelated_fan_page\np2531\nI1\nsVimage_hash\np2532\ng37\nsVname\np2533\nVAd from a Page post #6,005,933,850,365\np2534\nsVauto_update\np2535\nI00\nsVurl_tags\np2536\ng37\nsVcreative_id\np2537\nV6005933850365\np2538\nsVcount_current_adgroups\np2539\nI1\nsVpreview_url\np2540\nVhttp://www.facebook.com/ads/api/creative_preview.php?cid=6005933850365\np2541\nsVobject_id\np2542\nV238205562866018\np2543\nsVaction_t\np2544\nVBgABAQcIAAZQZg1dCgAJAAAAAImt0MwKABAAANiljfVJYg0AGgYKAAAADQEKAAAAAAAAAFAAuAABSYm8av20ALkAAAAAAAAAZAC6AACNGbihiv4CIwAAAAAAAAAIAMMAAABPVFI0HgG7AAAAAAAAAGoACgAAAACJrdDMAcoAAUmJvGr9tAEeAAAAAKmCtAAAAQABSYm8av20AbYAAAAAUGYNXQHkAAFJibxq/bQNABsGCwAAAAFAAwAAAMpIb21lIGRlY29yIGZvciB0aGUgaW5uZXIgbmVyZCBpbiBhbGwgb2YgdXMuLi5odHRwOi8vYnpmZC5pdC9TaVRWWUQgb29vb28gMzAgR2Vla3kgV2F5cyBUbyBTcHJ1Y2UgVXAgWW91ciBOZXJkIFBhZCBvb29vbyBIb21lIGRlY29yIGZvciB0aGUgaW5uZXIgbmVyZCBpbiBhbGwgb2YgdXMuICBMaXZlIGxvbmcgYW5kIHByb3NwZXIgLSBWaXJnaW4gTW9iaWxlCgAcAAFJibxq/bQA\np2545\nsVlink_type\np2546\ng37\nsVstory_id\np2547\nV362330897186228\np2548\nsVrun_status\np2549\nI1\nsVtype\np2550\nI27\nsVid\np2551\nV6005933850365\np2552\nsVtracking_pixel_url\np2553\ng37\nsa(dp2554\nValt_view_tags\np2555\n(lp2556\nsVbody\np2557\nVCheck Out More "Dogs Who Can\'t Wait To Show Off Their Halloween Costumes" on BuzzFeed!\np2558\nsVimage_hash\np2559\nVf7bc5dc86e6bd0d1ae1ab17986bd045e\np2560\nsVname\np2561\nVIs That a Thor-gi?-00\np2562\nsVtitle\np2563\nVPug Dressed as a Gnome?\np2564\nsVcreative_id\np2565\nV6005931513565\np2566\nsVpreview_url\np2567\nVhttp://www.facebook.com/ads/api/creative_preview.php?cid=6005931513565\np2568\nsVid\np2569\nV6005931513565\np2570\nsVimage_url\np2571\nVhttps://fbcdn-creative-a.akamaihd.net/hads-ak-prn1/s110x80/708162_6006845550965_29461_n.jpg\np2572\nsVcount_current_adgroups\np2573\nI1\nsVrun_status\np2574\nI1\nsVtype\np2575\nI1\nsVlink_url\np2576\nVhttp://www.buzzfeed.com/h1/fbad/frankenweenie/25-dogs-who-cant-wait-to-show-off-their-halloween\np2577\nsVview_tag\np2578\ng37\nsa(dp2579\nValt_view_tags\np2580\n(lp2581\nsVbody\np2582\nVCheck Out More "Surprising Cartoon Cameos You Probably Missed" on BuzzFeed!\np2583\nsVimage_hash\np2584\nV0655d0862b9c303e362447825fc05a64\np2585\nsVname\np2586\nVHomer vs. Peter-00-00-00-01\np2587\nsVtitle\np2588\nVMeryl Streep on Simpsons?\np2589\nsVcreative_id\np2590\nV6005924750165\np2591\nsVpreview_url\np2592\nVhttp://www.facebook.com/ads/api/creative_preview.php?cid=6005924750165\np2593\nsVid\np2594\nV6005924750165\np2595\nsVimage_url\np2596\nVhttps://fbcdn-creative-a.akamaihd.net/hads-ak-prn1/s110x80/701892_6006844084965_50025_n.jpg\np2597\nsVcount_current_adgroups\np2598\nI1\nsVrun_status\np2599\nI1\nsVtype\np2600\nI1\nsVlink_url\np2601\nVhttp://www.buzzfeed.com/h1/fbad/animationdomination/family-guys-vs-the-simpsons-who-did-it-best-7f8p\np2602\nsVview_tag\np2603\ng37\nsa(dp2604\nValt_view_tags\np2605\n(lp2606\nsVbody\np2607\nVCheck Out More "Dogs Who Can\'t Wait To Show Off Their Halloween Costumes" on BuzzFeed!\np2608\nsVimage_hash\np2609\nVfc6009c46efbba8543f2f619e158f4e3\np2610\nsVname\np2611\nVIs That a Thor-gi?\np2612\nsVtitle\np2613\nVIs That a Thor-gi?\np2614\nsVcreative_id\np2615\nV6005931446965\np2616\nsVpreview_url\np2617\nVhttp://www.facebook.com/ads/api/creative_preview.php?cid=6005931446965\np2618\nsVid\np2619\nV6005931446965\np2620\nsVimage_url\np2621\nVhttps://fbcdn-creative-a.akamaihd.net/hads-ak-prn1/s110x80/708202_6006845579365_30672_n.jpg\np2622\nsVcount_current_adgroups\np2623\nI1\nsVrun_status\np2624\nI1\nsVtype\np2625\nI1\nsVlink_url\np2626\nVhttp://www.buzzfeed.com'
p6
sS'hash'
p7
S'9caabe288fa7581ae0402db2c930408638923a09'
p8
sS'stack'
p9
S''
s.