(dp1
S'args'
p2
S''
sS'methodname'
p3
S''
sS'packet_num'
p4
I13
sS'returnval'
p5
S'Did you know he rescued two girls? See More "Unbelievable Celebrity Rescue Stories!"\np1737\nsVimage_hash\np1738\nVa21df00b43be67a82b477d141410429e\np1739\nsVname\np1740\nVRyan, Our Hero!-00\np1741\nsVtitle\np1742\nVPrince William, Our Hero!\np1743\nsVcreative_id\np1744\nV6005957629565\np1745\nsVpreview_url\np1746\nVhttp://www.facebook.com/ads/api/creative_preview.php?cid=6005957629565\np1747\nsVid\np1748\nV6005957629565\np1749\nsVimage_url\np1750\nVhttps://fbcdn-creative-a.akamaihd.net/hads-ak-ash3/s110x80/701898_6006845022965_57632_n.jpg\np1751\nsVcount_current_adgroups\np1752\nI1\nsVrun_status\np1753\nI1\nsVtype\np1754\nI1\nsVlink_url\np1755\nVhttp://www.buzzfeed.com/h1/fbad/theweatherchannel/10-unbelievable-celebrity-rescue-stories\np1756\nsVview_tag\np1757\ng37\nsa(dp1758\nValt_view_tags\np1759\n(lp1760\nsVbody\np1761\nVDid you know he rescued passengers on a sinking ship? See More "Celebrity Rescue Stories!"\np1762\nsVimage_hash\np1763\nVb2b81309a565a81f7f3fde788c2aa1e2\np1764\nsVname\np1765\nVRyan, Our Hero!-00-00\np1766\nsVtitle\np1767\nVSimon Cowell, A Hero?\np1768\nsVcreative_id\np1769\nV6005957642965\np1770\nsVpreview_url\np1771\nVhttp://www.facebook.com/ads/api/creative_preview.php?cid=6005957642965\np1772\nsVid\np1773\nV6005957642965\np1774\nsVimage_url\np1775\nVhttps://fbcdn-creative-a.akamaihd.net/hads-ak-prn1/s110x80/708188_6006845128965_22133_n.jpg\np1776\nsVcount_current_adgroups\np1777\nI1\nsVrun_status\np1778\nI1\nsVtype\np1779\nI1\nsVlink_url\np1780\nVhttp://www.buzzfeed.com/h1/fbad/theweatherchannel/10-unbelievable-celebrity-rescue-stories\np1781\nsVview_tag\np1782\ng37\nsa(dp1783\nValt_view_tags\np1784\n(lp1785\nsVbody\np1786\nVCheck Out More "Yuk Or Wow! Celebrity Beauty Looks From This Year" on BuzzFeed!\np1787\nsVimage_hash\np1788\nVed81489abed71ac26f93e257409954b4\np1789\nsVname\np1790\nVKim Kardashian the Clown?-00-00\np1791\nsVtitle\np1792\nVNicki\'s Neon Look\np1793\nsVcreative_id\np1794\nV6005836504165\np1795\nsVpreview_url\np1796\nVhttp://www.facebook.com/ads/api/creative_preview.php?cid=6005836504165\np1797\nsVid\np1798\nV6005836504165\np1799\nsVimage_url\np1800\nVhttps://fbcdn-creative-a.akamaihd.net/hads-ak-ash3/s110x80/708169_6006845489565_4233_n.jpg\np1801\nsVcount_current_adgroups\np1802\nI1\nsVrun_status\np1803\nI1\nsVtype\np1804\nI1\nsVlink_url\np1805\nVhttp://www.buzzfeed.com/h1/fbad/benefitcosmetics/yuk-or-wow-celebrity-beauty-looks-from-this-year-7dgb\np1806\nsVview_tag\np1807\ng37\nsa(dp1808\nValt_view_tags\np1809\n(lp1810\nsVbody\np1811\nVCheck Out the Best Arnold Schwarzenegger Gifs - Only on BuzzFeed!\np1812\nsVimage_hash\np1813\nV1b0551051fd399b597d8111ddb796e19\np1814\nsVname\np1815\nVArnold Going Mad!\np1816\nsVtitle\np1817\nVArnold Going Mad!\np1818\nsVcreative_id\np1819\nV6005913235965\np1820\nsVpreview_url\np1821\nVhttp://www.facebook.com/ads/api/creative_preview.php?cid=6005913235965\np1822\nsVid\np1823\nV6005913235965\np1824\nsVimage_url\np1825\nVhttps://fbcdn-creative-a.akamaihd.net/hads-ak-prn1/s110x80/701896_6006844221365_56274_n.jpg\np1826\nsVcount_current_adgroups\np1827\nI1\nsVrun_status\np1828\nI1\nsVtype\np1829\nI1\nsVlink_url\np1830\nVhttp://www.buzzfeed.com/h1/fbad/totalrecall/18-of-the-best-gifs-from-arnold-schwarzeneggers-b-7etv\np1831\nsVview_tag\np1832\ng37\nsa(dp1833\nValt_view_tags\np1834\n(lp1835\nsVbody\np1836\nVJust one of the signs that you might be a Zombie. Check out the rest before it\'s too late!\np1837\nsVimage_hash\np1838\nV905e3294a4b92a05207ad4e39a50c036\np1839\nsVname\np1840\nVLike Slow Moving Crowds?\np1841\nsVtitle\np1842\nVLike Slow Moving Crowds?\np1843\nsVcreative_id\np1844\nV6005955592965\np1845\nsVpreview_url\np1846\nVhttp://www.facebook.com/ads/api/creative_preview.php?cid=6005955592965\np1847\nsVid\np1848\nV6005955592965\np1849\nsVimage_url\np1850\nVhttps://fbcdn-creative-a.akamaihd.net/hads-ak-prn1/s110x80/708189_6006844909165_57930_n.jpg\np1851\nsVcount_current_adgroups\np1852\nI1\nsVrun_status\np1853\nI1\nsVtype\np1854\nI1\nsVlink_url\np1855\nVhttp://www.buzzfeed.com/h1/fbad/walkingdead/8-signs-that-youre-definitely-turning-into-a-zomb-7fk1\np1856\nsVview_tag\np1857\ng37\nsa(dp1858\nValt_view_tags\np1859\n(lp1860\nsVbody\np1861\nVCheck out more "Things You Probably Never Knew You Could Do On The Internet!"\np1862\nsVimage_hash\np1863\nV428effadd214ea0acebe2738bc040935\np1864\nsVname\np1865\n'
p6
sS'hash'
p7
S'9caabe288fa7581ae0402db2c930408638923a09'
p8
sS'stack'
p9
S''
s.