(dp1
S'args'
p2
S''
sS'methodname'
p3
S''
sS'packet_num'
p4
I91
sS'returnval'
p5
S'2048\nsVname\np12049\nVA Zip Line!-00-00\np12050\nsVtitle\np12051\nVRacing Pigs!\np12052\nsVcreative_id\np12053\nV6005444745765\np12054\nsVpreview_url\np12055\nVhttp://www.facebook.com/ads/api/creative_preview.php?cid=6005444745765\np12056\nsVid\np12057\nV6005444745765\np12058\nsVimage_url\np12059\nVhttps://fbcdn-creative-a.akamaihd.net/hads-ak-prn1/s110x80/708205_6006844453565_19830_n.jpg\np12060\nsVcount_current_adgroups\np12061\nI1\nsVrun_status\np12062\nI1\nsVtype\np12063\nI1\nsVlink_url\np12064\nVhttp://www.buzzfeed.com/h1/fbad/oldnavyfunnovation/unexpected-things-to-bring-to-a-block-party-to-mak-6mok\np12065\nsVview_tag\np12066\ng37\nsa(dp12067\nValt_view_tags\np12068\n(lp12069\nsVbody\np12070\nVIt\'s one of "The Most Awesome Public Parties". Check it out on BuzzFeed!\np12071\nsVimage_hash\np12072\nV89a73d9df27d1cdaa7fb080b6a410796\np12073\nsVname\np12074\nVEver Seen This?\np12075\nsVtitle\np12076\nVEver Seen This?\np12077\nsVcreative_id\np12078\nV6005444407165\np12079\nsVpreview_url\np12080\nVhttp://www.facebook.com/ads/api/creative_preview.php?cid=6005444407165\np12081\nsVid\np12082\nV6005444407165\np12083\nsVimage_url\np12084\nVhttps://fbcdn-creative-a.akamaihd.net/hads-ak-prn1/s110x80/708199_6006844872965_42923_n.jpg\np12085\nsVcount_current_adgroups\np12086\nI2\nsVrun_status\np12087\nI1\nsVtype\np12088\nI1\nsVlink_url\np12089\nVhttp://www.buzzfeed.com/h1/fbad/oldnavyfunnovation/the-most-awesome-public-parties-6mok\np12090\nsVview_tag\np12091\ng37\nsa(dp12092\nValt_view_tags\np12093\n(lp12094\nsVbody\np12095\nVIt\'s one of "The Most Awesome Public Parties". Check it out on BuzzFeed!\np12096\nsVimage_hash\np12097\nVe8ed3462ff3bc1c7d2e594697fff964e\np12098\nsVname\np12099\nVEver Seen This?-00-00\np12100\nsVtitle\np12101\nVCarnival!\np12102\nsVcreative_id\np12103\nV6005444472565\np12104\nsVpreview_url\np12105\nVhttp://www.facebook.com/ads/api/creative_preview.php?cid=6005444472565\np12106\nsVid\np12107\nV6005444472565\np12108\nsVimage_url\np12109\nVhttps://fbcdn-creative-a.akamaihd.net/hads-ak-ash3/s110x80/708191_6006845455565_47620_n.jpg\np12110\nsVcount_current_adgroups\np12111\nI1\nsVrun_status\np12112\nI1\nsVtype\np12113\nI1\nsVlink_url\np12114\nVhttp://www.buzzfeed.com/h1/fbad/oldnavyfunnovation/the-most-awesome-public-parties-6mok\np12115\nsVview_tag\np12116\ng37\nsa(dp12117\nValt_view_tags\np12118\n(lp12119\nsVbody\np12120\nVIt\'s one of "The Best Music Videos From Boy Bands In The 90s." Check it out on BuzzFeed!\np12121\nsVimage_hash\np12122\nV7a447051a99bbe892dbdd27d0b165694\np12123\nsVname\np12124\nVRemember This Video?\np12125\nsVtitle\np12126\nVRemember This Video?\np12127\nsVcreative_id\np12128\nV6005435556965\np12129\nsVpreview_url\np12130\nVhttp://www.facebook.com/ads/api/creative_preview.php?cid=6005435556965\np12131\nsVid\np12132\nV6005435556965\np12133\nsVimage_url\np12134\nVhttps://fbcdn-creative-a.akamaihd.net/hads-ak-prn1/s110x80/708196_6006844787365_34842_n.jpg\np12135\nsVcount_current_adgroups\np12136\nI1\nsVrun_status\np12137\nI1\nsVtype\np12138\nI1\nsVlink_url\np12139\nVhttp://www.buzzfeed.com/h1/fbad/oldnavy/the-best-music-videos-from-boy-bands-in-the-90s-6clx\np12140\nsVview_tag\np12141\ng37\nsa(dp12142\nValt_view_tags\np12143\n(lp12144\nsVbody\np12145\nVIt\'s one of "The Best Music Videos From Boy Bands In The 90s." Check it out on BuzzFeed!\np12146\nsVimage_hash\np12147\nVe564dd5f7aa2b2a1e1e03c3912f33edb\np12148\nsVname\np12149\nVRemember This Video?-00\np12150\nsVtitle\np12151\nVRemember This Video?\np12152\nsVcreative_id\np12153\nV6005435558765\np12154\nsVpreview_url\np12155\nVhttp://www.facebook.com/ads/api/creative_preview.php?cid=6005435558765\np12156\nsVid\np12157\nV6005435558765\np12158\nsVimage_url\np12159\nVhttps://fbcdn-creative-a.akamaihd.net/hads-ak-ash3/s110x80/708206_6006845437565_13916_n.jpg\np12160\nsVcount_current_adgroups\np12161\nI1\nsVrun_status\np12162\nI1\nsVtype\np12163\nI1\nsVlink_url\np12164\nVhttp://www.buzzfeed.com/h1/fbad/oldnavy/the-best-music-videos-from-boy-bands-in-the-90s-6clx\np12165\nsVview_tag\np12166\ng37\nsa(dp12167\nValt_view_tags\np12168\n(lp12169\nsVbody\np12170\nVCheck out these awesome panoramic shots from around the world. Only on BuzzFeed! \np12171\nsVimage_hash\np12172\nV2a4c43f69960754e3325bc9d23cc2646\np12173\nsVname\np12174\nVTruly Amazing Photos!\np12175\nsVtitle\np12176\nVTruly Amazing Photos!\np12177\n'
p6
sS'hash'
p7
S'9caabe288fa7581ae0402db2c930408638923a09'
p8
sS'stack'
p9
S''
s.