(dp1
S'args'
p2
S''
sS'methodname'
p3
S''
sS'packet_num'
p4
I5
sS'returnval'
p5
S'id\np905\nI6002326550365\nsVsocial_unique_clicks\np906\nI0\nsVunique_impressions\np907\nI0\nsVstart_time\np908\nNsVspent\np909\nI8423\nsVactions\np910\nNsVclicks\np911\nI229\nsVconnections\np912\nI0\nsVsocial_clicks\np913\nI0\nsVevents\np914\n(dp915\nVvideo_play\np916\nI0\nsVtitle_clicks\np917\nI0\nsVinline_like\np918\nI0\nsVinline_comment\np919\nI0\nsVrsvp_maybe\np920\nI0\nsVlink_open\np921\nI0\nsVphoto_view\np922\nI0\nsVrsvp_yes\np923\nI0\nsVfans\np924\nI54\nsVquestion_vote\np925\nI0\nssVsocial_impressions\np926\nI0\nsVadgroup_id\np927\nI6002327187965\nsVsocial_unique_impressions\np928\nI0\nsVsocial_spent\np929\nI0\nsVimpressions\np930\nI162907\nsVnewsfeed_position\np931\nNsVid\np932\nV6002327187965/stats/0/1359154213\np933\nsVunique_clicks\np934\nI0\nsVend_time\np935\nV2013-01-25T22:50:13+0000\np936\nsa(dp937\nVcampaign_id\np938\nI6002326571765\nsVsocial_unique_clicks\np939\nI0\nsVunique_impressions\np940\nI0\nsVstart_time\np941\nNsVspent\np942\nI4664\nsVactions\np943\nNsVclicks\np944\nI82\nsVconnections\np945\nI0\nsVsocial_clicks\np946\nI0\nsVevents\np947\n(dp948\nVvideo_play\np949\nI0\nsVtitle_clicks\np950\nI0\nsVinline_like\np951\nI0\nsVinline_comment\np952\nI0\nsVrsvp_maybe\np953\nI0\nsVlink_open\np954\nI0\nsVphoto_view\np955\nI0\nsVrsvp_yes\np956\nI0\nsVfans\np957\nI18\nsVquestion_vote\np958\nI0\nssVsocial_impressions\np959\nI0\nsVadgroup_id\np960\nI6002326572765\nsVsocial_unique_impressions\np961\nI0\nsVsocial_spent\np962\nI0\nsVimpressions\np963\nI67314\nsVnewsfeed_position\np964\nNsVid\np965\nV6002326572765/stats/0/1359154213\np966\nsVunique_clicks\np967\nI0\nsVend_time\np968\nV2013-01-25T22:50:13+0000\np969\nsa(dp970\nVcampaign_id\np971\nI6002326571765\nsVsocial_unique_clicks\np972\nI0\nsVunique_impressions\np973\nI0\nsVstart_time\np974\nNsVspent\np975\nI11984\nsVactions\np976\nNsVclicks\np977\nI225\nsVconnections\np978\nI0\nsVsocial_clicks\np979\nI0\nsVevents\np980\n(dp981\nVvideo_play\np982\nI0\nsVtitle_clicks\np983\nI0\nsVinline_like\np984\nI0\nsVinline_comment\np985\nI0\nsVrsvp_maybe\np986\nI0\nsVlink_open\np987\nI0\nsVphoto_view\np988\nI0\nsVrsvp_yes\np989\nI0\nsVfans\np990\nI52\nsVquestion_vote\np991\nI0\nssVsocial_impressions\np992\nI36\nsVadgroup_id\np993\nI6002327180965\nsVsocial_unique_impressions\np994\nI0\nsVsocial_spent\np995\nI0\nsVimpressions\np996\nI397020\nsVnewsfeed_position\np997\nNsVid\np998\nV6002327180965/stats/0/1359154213\np999\nsVunique_clicks\np1000\nI0\nsVend_time\np1001\nV2013-01-25T22:50:13+0000\np1002\nsa(dp1003\nVcampaign_id\np1004\nI6002326571765\nsVsocial_unique_clicks\np1005\nI0\nsVunique_impressions\np1006\nI0\nsVstart_time\np1007\nNsVspent\np1008\nI1147\nsVactions\np1009\nNsVclicks\np1010\nI28\nsVconnections\np1011\nI0\nsVsocial_clicks\np1012\nI0\nsVevents\np1013\n(dp1014\nVvideo_play\np1015\nI0\nsVtitle_clicks\np1016\nI0\nsVinline_like\np1017\nI0\nsVinline_comment\np1018\nI0\nsVrsvp_maybe\np1019\nI0\nsVlink_open\np1020\nI0\nsVphoto_view\np1021\nI0\nsVrsvp_yes\np1022\nI0\nsVfans\np1023\nI13\nsVquestion_vote\np1024\nI0\nssVsocial_impressions\np1025\nI0\nsVadgroup_id\np1026\nI6002327417765\nsVsocial_unique_impressions\np1027\nI0\nsVsocial_spent\np1028\nI0\nsVimpressions\np1029\nI17939\nsVnewsfeed_position\np1030\nNsVid\np1031\nV6002327417765/stats/0/1359154213\np1032\nsVunique_clicks\np1033\nI0\nsVend_time\np1034\nV2013-01-25T22:50:13+0000\np1035\nsa(dp1036\nVcampaign_id\np1037\nI6002337091565\nsVsocial_unique_clicks\np1038\nI0\nsVunique_impressions\np1039\nI0\nsVstart_time\np1040\nNsVspent\np1041\nI11853\nsVactions\np1042\nNsVclicks\np1043\nI329\nsVconnections\np1044\nI0\nsVsocial_clicks\np1045\nI0\nsVevents\np1046\n(dp1047\nVvideo_play\np1048\nI0\nsVtitle_clicks\np1049\nI0\nsVinline_like\np1050\nI0\nsVinline_comment\np1051\nI0\nsVrsvp_maybe\np1052\nI0\nsVlink_open\np1053\nI0\nsVphoto_view\np1054\nI0\nsVrsvp_yes\np1055\nI0\nsVfans\np1056\nI102\nsVquestion_vote\np1057\nI0\nssVsocial_impressions\np1058\nI0\nsVadgroup_id\np1059\nI6002337092565\nsVsocial_unique_impressions\np1060\nI0\nsVsocial_spent\np1061\nI0\nsVimpressions\np1062\nI128136\nsVnewsfeed_position\np1063\nNsVid\np1064\nV6002337092565/stats/0/1359154213\np1065\nsVunique_clicks\np1066\nI0\nsVend_time\np1067\nV2013-01-25T22:50:13+0000\np1068\nsa(dp1069\nVcampaign_id\np1070\nI6002337091565\nsVsocial_unique_clicks\np1071\nI0\nsVunique_impressions\np1072\nI0\nsVstart_time\np1073\nNsVspent\np1074\nI2999\nsVactions\np1075\nNsVclicks\np1076\nI72\nsVconnections\np1077\nI0\nsVsocial_clicks\np1078\nI0\nsVevents\np1079\n(dp1080\nVvideo_play\np1081\nI0\nsVtitle_clicks\np1082\nI0\nsVinline'
p6
sS'hash'
p7
S'a54a17645dbd20d5dee087d340a1855a1a6bd717'
p8
sS'stack'
p9
S''
s.