(dp1
S'args'
p2
S''
sS'methodname'
p3
S''
sS'packet_num'
p4
I13
sS'returnval'
p5
S'ment\np2305\nI0\nsVrsvp_maybe\np2306\nI0\nsVlink_open\np2307\nI0\nsVphoto_view\np2308\nI0\nsVrsvp_yes\np2309\nI0\nsVfans\np2310\nI0\nsVquestion_vote\np2311\nI0\nssVsocial_impressions\np2312\nI0\nsVadgroup_id\np2313\nI6002877927965\nsVsocial_unique_impressions\np2314\nI0\nsVsocial_spent\np2315\nI0\nsVimpressions\np2316\nI0\nsVnewsfeed_position\np2317\nNsVid\np2318\nV6002877927965/stats/0/1359154213\np2319\nsVunique_clicks\np2320\nI0\nsVend_time\np2321\nV2013-01-25T22:50:13+0000\np2322\nsa(dp2323\nVcampaign_id\np2324\nI6002877914565\nsVsocial_unique_clicks\np2325\nI0\nsVunique_impressions\np2326\nI0\nsVstart_time\np2327\nNsVspent\np2328\nI0\nsVactions\np2329\nNsVclicks\np2330\nI0\nsVconnections\np2331\nI0\nsVsocial_clicks\np2332\nI0\nsVevents\np2333\n(dp2334\nVvideo_play\np2335\nI0\nsVtitle_clicks\np2336\nI0\nsVinline_like\np2337\nI0\nsVinline_comment\np2338\nI0\nsVrsvp_maybe\np2339\nI0\nsVlink_open\np2340\nI0\nsVphoto_view\np2341\nI0\nsVrsvp_yes\np2342\nI0\nsVfans\np2343\nI0\nsVquestion_vote\np2344\nI0\nssVsocial_impressions\np2345\nI0\nsVadgroup_id\np2346\nI6002877930565\nsVsocial_unique_impressions\np2347\nI0\nsVsocial_spent\np2348\nI0\nsVimpressions\np2349\nI0\nsVnewsfeed_position\np2350\nNsVid\np2351\nV6002877930565/stats/0/1359154213\np2352\nsVunique_clicks\np2353\nI0\nsVend_time\np2354\nV2013-01-25T22:50:13+0000\np2355\nsa(dp2356\nVcampaign_id\np2357\nI6002877914565\nsVsocial_unique_clicks\np2358\nI0\nsVunique_impressions\np2359\nI0\nsVstart_time\np2360\nNsVspent\np2361\nI0\nsVactions\np2362\nNsVclicks\np2363\nI0\nsVconnections\np2364\nI0\nsVsocial_clicks\np2365\nI0\nsVevents\np2366\n(dp2367\nVvideo_play\np2368\nI0\nsVtitle_clicks\np2369\nI0\nsVinline_like\np2370\nI0\nsVinline_comment\np2371\nI0\nsVrsvp_maybe\np2372\nI0\nsVlink_open\np2373\nI0\nsVphoto_view\np2374\nI0\nsVrsvp_yes\np2375\nI0\nsVfans\np2376\nI0\nsVquestion_vote\np2377\nI0\nssVsocial_impressions\np2378\nI0\nsVadgroup_id\np2379\nI6002877940765\nsVsocial_unique_impressions\np2380\nI0\nsVsocial_spent\np2381\nI0\nsVimpressions\np2382\nI0\nsVnewsfeed_position\np2383\nNsVid\np2384\nV6002877940765/stats/0/1359154213\np2385\nsVunique_clicks\np2386\nI0\nsVend_time\np2387\nV2013-01-25T22:50:13+0000\np2388\nsa(dp2389\nVcampaign_id\np2390\nI6002877914565\nsVsocial_unique_clicks\np2391\nI0\nsVunique_impressions\np2392\nI0\nsVstart_time\np2393\nNsVspent\np2394\nI0\nsVactions\np2395\nNsVclicks\np2396\nI0\nsVconnections\np2397\nI0\nsVsocial_clicks\np2398\nI0\nsVevents\np2399\n(dp2400\nVvideo_play\np2401\nI0\nsVtitle_clicks\np2402\nI0\nsVinline_like\np2403\nI0\nsVinline_comment\np2404\nI0\nsVrsvp_maybe\np2405\nI0\nsVlink_open\np2406\nI0\nsVphoto_view\np2407\nI0\nsVrsvp_yes\np2408\nI0\nsVfans\np2409\nI0\nsVquestion_vote\np2410\nI0\nssVsocial_impressions\np2411\nI0\nsVadgroup_id\np2412\nI6002877942565\nsVsocial_unique_impressions\np2413\nI0\nsVsocial_spent\np2414\nI0\nsVimpressions\np2415\nI0\nsVnewsfeed_position\np2416\nNsVid\np2417\nV6002877942565/stats/0/1359154213\np2418\nsVunique_clicks\np2419\nI0\nsVend_time\np2420\nV2013-01-25T22:50:13+0000\np2421\nsa(dp2422\nVcampaign_id\np2423\nI6002877944365\nsVsocial_unique_clicks\np2424\nI0\nsVunique_impressions\np2425\nI0\nsVstart_time\np2426\nNsVspent\np2427\nI0\nsVactions\np2428\nNsVclicks\np2429\nI0\nsVconnections\np2430\nI0\nsVsocial_clicks\np2431\nI0\nsVevents\np2432\n(dp2433\nVvideo_play\np2434\nI0\nsVtitle_clicks\np2435\nI0\nsVinline_like\np2436\nI0\nsVinline_comment\np2437\nI0\nsVrsvp_maybe\np2438\nI0\nsVlink_open\np2439\nI0\nsVphoto_view\np2440\nI0\nsVrsvp_yes\np2441\nI0\nsVfans\np2442\nI0\nsVquestion_vote\np2443\nI0\nssVsocial_impressions\np2444\nI0\nsVadgroup_id\np2445\nI6002877945365\nsVsocial_unique_impressions\np2446\nI0\nsVsocial_spent\np2447\nI0\nsVimpressions\np2448\nI0\nsVnewsfeed_position\np2449\nNsVid\np2450\nV6002877945365/stats/0/1359154213\np2451\nsVunique_clicks\np2452\nI0\nsVend_time\np2453\nV2013-01-25T22:50:13+0000\np2454\nsa(dp2455\nVcampaign_id\np2456\nI6002877944365\nsVsocial_unique_clicks\np2457\nI0\nsVunique_impressions\np2458\nI0\nsVstart_time\np2459\nNsVspent\np2460\nI0\nsVactions\np2461\nNsVclicks\np2462\nI0\nsVconnections\np2463\nI0\nsVsocial_clicks\np2464\nI0\nsVevents\np2465\n(dp2466\nVvideo_play\np2467\nI0\nsVtitle_clicks\np2468\nI0\nsVinline_like\np2469\nI0\nsVinline_comment\np2470\nI0\nsVrsvp_maybe\np2471\nI0\nsVlink_open\np2472\nI0\nsVphoto_view\np2473\nI0\nsVrsvp_yes\np2474\nI0\nsVfans\np2475\nI0\nsVquestion_vote\np2476\nI0\nssVsocial_impressions\np2477\nI0\nsVadgroup_id\np2478\nI6002877947165\nsVsocial_unique_impressions\np2479\nI0\nsVso'
p6
sS'hash'
p7
S'a54a17645dbd20d5dee087d340a1855a1a6bd717'
p8
sS'stack'
p9
S''
s.