(dp1
S'args'
p2
S''
sS'methodname'
p3
S''
sS'packet_num'
p4
I45
sS'returnval'
p5
S'p8705\nI6006116621565\nsVaccount_id\np8706\nI40156177\nsVstart_time\np8707\nNsVlocations\np8708\n(lp8709\nI3\nasVadgroup_status\np8710\nI1\nsVad_status\np8711\nI1\nsVimpression_control_map\np8712\n(lp8713\n(dp8714\nVcontrol\np8715\n(dp8716\nVuser_impression_limit_period\np8717\nI24\nsVuser_impression_limit\np8718\nI6\nsVuser_impression_limit_period_unit\np8719\nI0\nsVimpression_control_type\np8720\nI2\nssVlocation\np8721\nI3\nsasVcreative_ids\np8722\n(lp8723\nI6006116621165\nasVtracking_pixel_ids\np8724\n(lp8725\nsVbid_type\np8726\nI1\nsVname\np8727\nVhttp://ad.doubleclick.net/clk;264449531;90094300;c - Ad\np8728\nsVupdated_time\np8729\nV2012-10-25T20:59:54+0000\np8730\nsVend_time\np8731\nNsa(dp8732\nVbid_info\np8733\n(dp8734\nV1\np8735\nV65\np8736\nssVcampaign_id\np8737\nI6006116620565\nsVcreated_time\np8738\nV2012-10-25T19:46:07+0000\np8739\nsVconversion_specs\np8740\n(lp8741\nsVadgroup_id\np8742\nI6006116664965\nsVtargeting\np8743\n(dp8744\nVkeywords\np8745\n(lp8746\nV#Bill Maher\np8747\naV#The Colbert Report\np8748\naV#Late Night with Jimmy Fallon\np8749\naV#The Daily Show\np8750\naV#TLC (TV channel)\np8751\naV#Toddlers & Tiaras\np8752\naV#Weekend Update\np8753\naV#Jay Leno\np8754\nasVage_max\np8755\nI65\nsVcountries\np8756\n(lp8757\nVUS\np8758\nasVbroad_age\np8759\nI1\nsVage_min\np8760\nI13\nssVid\np8761\nV6006116664965\np8762\nsVobjective\np8763\nI2\nsVmax_bid\np8764\nV65\np8765\nsVad_id\np8766\nI6006116664965\nsVaccount_id\np8767\nI40156177\nsVstart_time\np8768\nNsVlocations\np8769\n(lp8770\nI3\nasVadgroup_status\np8771\nI1\nsVad_status\np8772\nI1\nsVimpression_control_map\np8773\n(lp8774\n(dp8775\nVcontrol\np8776\n(dp8777\nVuser_impression_limit_period\np8778\nI24\nsVuser_impression_limit\np8779\nI6\nsVuser_impression_limit_period_unit\np8780\nI0\nsVimpression_control_type\np8781\nI2\nssVlocation\np8782\nI3\nsasVcreative_ids\np8783\n(lp8784\nI6006116664565\nasVtracking_pixel_ids\np8785\n(lp8786\nsVbid_type\np8787\nI1\nsVname\np8788\nVhttp://ad.doubleclick.net/clk;264449531;90094300;c - Ad 1\np8789\nsVupdated_time\np8790\nV2012-10-25T21:25:31+0000\np8791\nsVend_time\np8792\nNsa(dp8793\nVbid_info\np8794\n(dp8795\nV1\np8796\nV65\np8797\nssVcampaign_id\np8798\nI6006116983965\nsVcreated_time\np8799\nV2012-10-25T21:18:36+0000\np8800\nsVconversion_specs\np8801\n(lp8802\nsVadgroup_id\np8803\nI6006116984965\nsVtargeting\np8804\n(dp8805\nVkeywords\np8806\n(lp8807\nV#Nikon\np8808\naV#Casio\np8809\naV#Digital photography\np8810\naV#Canon PowerShot\np8811\naV#Olympus Corporation\np8812\naV#Smartphone\np8813\naV#HTC Desire\np8814\naV#Fujifilm\np8815\naV#Flickr\np8816\naV#Street photography\np8817\naV#Canon (company)\np8818\naV#Android (operating system)\np8819\naV#Instagram\np8820\naV#AT&T\np8821\naV#HTC\np8822\nasVage_max\np8823\nI65\nsVcountries\np8824\n(lp8825\nVUS\np8826\nasVbroad_age\np8827\nI1\nsVage_min\np8828\nI13\nssVid\np8829\nV6006116984965\np8830\nsVobjective\np8831\nI2\nsVmax_bid\np8832\nV65\np8833\nsVad_id\np8834\nI6006116984965\nsVaccount_id\np8835\nI40156177\nsVstart_time\np8836\nNsVlocations\np8837\n(lp8838\nI3\nasVadgroup_status\np8839\nI1\nsVad_status\np8840\nI1\nsVimpression_control_map\np8841\n(lp8842\n(dp8843\nVcontrol\np8844\n(dp8845\nVuser_impression_limit_period\np8846\nI24\nsVuser_impression_limit\np8847\nI3\nsVuser_impression_limit_period_unit\np8848\nI0\nsVimpression_control_type\np8849\nI2\nssVlocation\np8850\nI3\nsasVcreative_ids\np8851\n(lp8852\nI6006116984565\nasVtracking_pixel_ids\np8853\n(lp8854\nsVbid_type\np8855\nI1\nsVname\np8856\nVPan 1\np8857\nsVupdated_time\np8858\nV2012-10-25T21:18:49+0000\np8859\nsVend_time\np8860\nNsa(dp8861\nVbid_info\np8862\n(dp8863\nV1\np8864\nV65\np8865\nssVcampaign_id\np8866\nI6006116983965\nsVcreated_time\np8867\nV2012-10-25T21:19:18+0000\np8868\nsVconversion_specs\np8869\n(lp8870\nsVadgroup_id\np8871\nI6006117005965\nsVtargeting\np8872\n(dp8873\nVkeywords\np8874\n(lp8875\nV#Nikon\np8876\naV#Casio\np8877\naV#Digital photography\np8878\naV#Canon PowerShot\np8879\naV#Olympus Corporation\np8880\naV#Smartphone\np8881\naV#HTC Desire\np8882\naV#Fujifilm\np8883\naV#Flickr\np8884\naV#Street photography\np8885\naV#Canon (company)\np8886\naV#Android (operating system)\np8887\naV#Instagram\np8888\naV#AT&T\np8889\naV#HTC\np8890\nasVage_max\np8891\nI65\nsVcountries\np8892\n(lp8893\nVUS\np8894\nasVbroad_age\np8895\nI1\nsVage_min\np8896\nI13\nssVid\np8897\nV6006117005965\np8898\nsVobjective\np8899\nI2\nsVmax_bid\np8900\nV65\np8901\nsVad_id\np8902\nI6006117005965\nsVaccount_id\np8903\n'
p6
sS'hash'
p7
S'a6ce9f3b2b1c5cf388b351d4ff1a5ec04eb65ec4'
p8
sS'stack'
p9
S''
s.