(dp1
S'args'
p2
S''
sS'methodname'
p3
S''
sS'packet_num'
p4
I11
sS'returnval'
p5
S'ating\np2125\naV#Virgin Mobile\np2126\naV#Halloween\np2127\naV#Pumpkin Patch\np2128\naV#October\np2129\naV#Autumn\np2130\naV#Pumpkin\np2131\naV#Halloween costume\np2132\naV#Costume party\np2133\nasVage_max\np2134\nI65\nsVcountries\np2135\n(lp2136\nVUS\np2137\nasVbroad_age\np2138\nI1\nsVage_min\np2139\nI13\nssVid\np2140\nV6006043790165\np2141\nsVobjective\np2142\nI2\nsVmax_bid\np2143\nV65\np2144\nsVad_id\np2145\nI6006043790165\nsVaccount_id\np2146\nI40156177\nsVstart_time\np2147\nNsVlocations\np2148\n(lp2149\nI3\nasVadgroup_status\np2150\nI1\nsVad_status\np2151\nI1\nsVimpression_control_map\np2152\n(lp2153\n(dp2154\nVcontrol\np2155\n(dp2156\nVuser_impression_limit_period\np2157\nI24\nsVuser_impression_limit\np2158\nI6\nsVuser_impression_limit_period_unit\np2159\nI0\nsVimpression_control_type\np2160\nI2\nssVlocation\np2161\nI3\nsasVcreative_ids\np2162\n(lp2163\nI6006043789765\nasVtracking_pixel_ids\np2164\n(lp2165\nsVbid_type\np2166\nI1\nsVname\np2167\nVhttp://www.buzzfeed.com/h1/fbad/virginmobilelive/15-pumpkins-that-know-how-to-party-5l87 - Ad\np2168\nsVupdated_time\np2169\nV2012-10-17T18:10:58+0000\np2170\nsVend_time\np2171\nNsa(dp2172\nVbid_info\np2173\n(dp2174\nV1\np2175\nV65\np2176\nssVcampaign_id\np2177\nI6006046439165\nsVlast_updated_by_app_id\np2178\nI6802152230\nsVcreated_time\np2179\nV2012-10-18T13:31:31+0000\np2180\nsVconversion_specs\np2181\n(lp2182\nsVadgroup_id\np2183\nI6006046453165\nsVtargeting\np2184\n(dp2185\nVkeywords\np2186\n(lp2187\nV#Sweden\np2188\naV#Stockholm\np2189\naV#Orbitz\np2190\naV#Kayak\np2191\naV#Priceline.com\np2192\naV#Flickr\np2193\naV#Canon (company)\np2194\naV#Kodak\np2195\naV#Travel\np2196\nasVage_max\np2197\nI65\nsVcountries\np2198\n(lp2199\nVUS\np2200\nasVbroad_age\np2201\nI1\nsVage_min\np2202\nI13\nssVid\np2203\nV6006046453165\np2204\nsVobjective\np2205\nI2\nsVmax_bid\np2206\nV65\np2207\nsVad_id\np2208\nI6006046453165\nsVaccount_id\np2209\nI40156177\nsVstart_time\np2210\nNsVlocations\np2211\n(lp2212\nI3\nasVadgroup_status\np2213\nI1\nsVad_status\np2214\nI1\nsVimpression_control_map\np2215\n(lp2216\n(dp2217\nVcontrol\np2218\n(dp2219\nVuser_impression_limit_period\np2220\nI24\nsVuser_impression_limit\np2221\nI6\nsVuser_impression_limit_period_unit\np2222\nI0\nsVimpression_control_type\np2223\nI2\nssVlocation\np2224\nI3\nsasVcreative_ids\np2225\n(lp2226\nI6006052978365\nasVtracking_pixel_ids\np2227\n(lp2228\nsVbid_type\np2229\nI1\nsVname\np2230\nVStockholm\np2231\nsVupdated_time\np2232\nV2012-10-19T17:11:30+0000\np2233\nsVend_time\np2234\nNsa(dp2235\nVbid_info\np2236\n(dp2237\nV1\np2238\nV65\np2239\nssVcampaign_id\np2240\nI6006046439165\nsVlast_updated_by_app_id\np2241\nI6802152230\nsVcreated_time\np2242\nV2012-10-18T13:34:42+0000\np2243\nsVconversion_specs\np2244\n(lp2245\nsVadgroup_id\np2246\nI6006046459365\nsVtargeting\np2247\n(dp2248\nVkeywords\np2249\n(lp2250\nV#Nikon\np2251\naVdslr club\np2252\naV#Landscape art\np2253\naV#Ukraine\np2254\naV#Orbitz\np2255\naV#Kayak\np2256\naV#Priceline.com\np2257\naV#Landscape photography\np2258\naV#Flickr\np2259\naV#Canon (company)\np2260\naV#Kodak\np2261\naV#Travel\np2262\nasVage_max\np2263\nI65\nsVcountries\np2264\n(lp2265\nVUS\np2266\nasVbroad_age\np2267\nI1\nsVage_min\np2268\nI13\nssVid\np2269\nV6006046459365\np2270\nsVobjective\np2271\nI2\nsVmax_bid\np2272\nV65\np2273\nsVad_id\np2274\nI6006046459365\nsVaccount_id\np2275\nI40156177\nsVstart_time\np2276\nNsVlocations\np2277\n(lp2278\nI3\nasVadgroup_status\np2279\nI1\nsVad_status\np2280\nI1\nsVimpression_control_map\np2281\n(lp2282\n(dp2283\nVcontrol\np2284\n(dp2285\nVuser_impression_limit_period\np2286\nI24\nsVuser_impression_limit\np2287\nI3\nsVuser_impression_limit_period_unit\np2288\nI0\nsVimpression_control_type\np2289\nI2\nssVlocation\np2290\nI3\nsasVcreative_ids\np2291\n(lp2292\nI6006046458965\nasVtracking_pixel_ids\np2293\n(lp2294\nsVbid_type\np2295\nI1\nsVname\np2296\nVTunnel of Love\np2297\nsVupdated_time\np2298\nV2012-10-19T17:11:32+0000\np2299\nsVend_time\np2300\nNsa(dp2301\nVbid_info\np2302\n(dp2303\nV1\np2304\nV65\np2305\nssVcampaign_id\np2306\nI6006046439165\nsVcreated_time\np2307\nV2012-10-19T13:34:43+0000\np2308\nsVconversion_specs\np2309\n(lp2310\nsVadgroup_id\np2311\nI6006053059165\nsVtargeting\np2312\n(dp2313\nVkeywords\np2314\n(lp2315\nV#Nikon\np2316\naV#Senegal\np2317\naV#Lake Retba\np2318\naVdslr club\np2319\naV#Landscape art\np2320\naV#Ukraine\np2321\naV#Orbitz\np2322\naV#Kayak\np2323\naV#Priceline.com\np2324\naV#Landscape photography\np2325\naV#Flickr\np2326\naV#Canon (company)\np2327\n'
p6
sS'hash'
p7
S'a6ce9f3b2b1c5cf388b351d4ff1a5ec04eb65ec4'
p8
sS'stack'
p9
S''
s.