(dp1
S'args'
p2
S''
sS'methodname'
p3
S''
sS'packet_num'
p4
I28
sS'returnval'
p5
S'sVcampaign_id\np5386\nI6006069161965\nsVlast_updated_by_app_id\np5387\nI6802152230\nsVcreated_time\np5388\nV2012-10-22T18:00:14+0000\np5389\nsVconversion_specs\np5390\n(lp5391\nsVadgroup_id\np5392\nI6006069162965\nsVtargeting\np5393\n(dp5394\nVcountries\np5395\n(lp5396\nVUS\np5397\nasVbroad_age\np5398\nI1\nsVradius\np5399\nV25\np5400\nsVage_min\np5401\nI13\nsVage_max\np5402\nI65\nsVcities\np5403\n(lp5404\n(dp5405\nVid\np5406\nV2490299\np5407\nsVname\np5408\nVNew York, NY\np5409\nsassVid\np5410\nV6006069162965\np5411\nsVobjective\np5412\nI2\nsVmax_bid\np5413\nV100\np5414\nsVad_id\np5415\nI6006069162965\nsVaccount_id\np5416\nI40156177\nsVstart_time\np5417\nNsVlocations\np5418\n(lp5419\nI3\nasVadgroup_status\np5420\nI9\nsVad_status\np5421\nI2\nsVimpression_control_map\np5422\n(lp5423\n(dp5424\nVcontrol\np5425\n(dp5426\nVuser_impression_limit_period\np5427\nI24\nsVuser_impression_limit\np5428\nI3\nsVuser_impression_limit_period_unit\np5429\nI0\nsVimpression_control_type\np5430\nI2\nssVlocation\np5431\nI3\nsasVcreative_ids\np5432\n(lp5433\nI6006069162565\nasVtracking_pixel_ids\np5434\n(lp5435\nsVbid_type\np5436\nI1\nsVname\np5437\nVhttp://ad.doubleclick.net/clk;263755293;89462797;h - Ad\np5438\nsVupdated_time\np5439\nV2012-10-29T15:42:03+0000\np5440\nsVend_time\np5441\nV2012-10-31T06:00:00+0000\np5442\nsa(dp5443\nVbid_info\np5444\n(dp5445\nV1\np5446\nV100\np5447\nssVcampaign_id\np5448\nI6006069161965\nsVlast_updated_by_app_id\np5449\nI6802152230\nsVcreated_time\np5450\nV2012-10-23T13:21:45+0000\np5451\nsVconversion_specs\np5452\n(lp5453\nsVadgroup_id\np5454\nI6006073869165\nsVtargeting\np5455\n(dp5456\nVcountries\np5457\n(lp5458\nVUS\np5459\nasVbroad_age\np5460\nI1\nsVradius\np5461\nV25\np5462\nsVage_min\np5463\nI13\nsVage_max\np5464\nI65\nsVcities\np5465\n(lp5466\n(dp5467\nVid\np5468\nV2490299\np5469\nsVname\np5470\nVNew York, NY\np5471\nsassVid\np5472\nV6006073869165\np5473\nsVobjective\np5474\nI2\nsVmax_bid\np5475\nV100\np5476\nsVad_id\np5477\nI6006073869165\nsVaccount_id\np5478\nI40156177\nsVstart_time\np5479\nNsVlocations\np5480\n(lp5481\nI3\nasVadgroup_status\np5482\nI9\nsVad_status\np5483\nI2\nsVimpression_control_map\np5484\n(lp5485\n(dp5486\nVcontrol\np5487\n(dp5488\nVuser_impression_limit_period\np5489\nI24\nsVuser_impression_limit\np5490\nI3\nsVuser_impression_limit_period_unit\np5491\nI0\nsVimpression_control_type\np5492\nI2\nssVlocation\np5493\nI3\nsasVcreative_ids\np5494\n(lp5495\nI6006073868765\nasVtracking_pixel_ids\np5496\n(lp5497\nsVbid_type\np5498\nI1\nsVname\np5499\nVhttp://ad.doubleclick.net/clk;263755293;89462797;h - Ad 1\np5500\nsVupdated_time\np5501\nV2012-10-29T15:42:03+0000\np5502\nsVend_time\np5503\nV2012-10-31T06:00:00+0000\np5504\nsa(dp5505\nVbid_info\np5506\n(dp5507\nV1\np5508\nV100\np5509\nssVcampaign_id\np5510\nI6006069161965\nsVlast_updated_by_app_id\np5511\nI6802152230\nsVcreated_time\np5512\nV2012-10-24T19:44:31+0000\np5513\nsVconversion_specs\np5514\n(lp5515\nsVadgroup_id\np5516\nI6006103688365\nsVtargeting\np5517\n(dp5518\nVcountries\np5519\n(lp5520\nVUS\np5521\nasVbroad_age\np5522\nI1\nsVradius\np5523\nV25\np5524\nsVage_min\np5525\nI13\nsVage_max\np5526\nI65\nsVcities\np5527\n(lp5528\n(dp5529\nVid\np5530\nV2490299\np5531\nsVname\np5532\nVNew York, NY\np5533\nsassVid\np5534\nV6006103688365\np5535\nsVobjective\np5536\nI2\nsVmax_bid\np5537\nV100\np5538\nsVad_id\np5539\nI6006103688365\nsVaccount_id\np5540\nI40156177\nsVstart_time\np5541\nNsVlocations\np5542\n(lp5543\nI3\nasVadgroup_status\np5544\nI9\nsVad_status\np5545\nI2\nsVimpression_control_map\np5546\n(lp5547\n(dp5548\nVcontrol\np5549\n(dp5550\nVuser_impression_limit_period\np5551\nI24\nsVuser_impression_limit\np5552\nI3\nsVuser_impression_limit_period_unit\np5553\nI0\nsVimpression_control_type\np5554\nI2\nssVlocation\np5555\nI3\nsasVcreative_ids\np5556\n(lp5557\nI6006069162565\nasVtracking_pixel_ids\np5558\n(lp5559\nsVbid_type\np5560\nI1\nsVname\np5561\nVhttp://ad.doubleclick.net/clk;263755293;89462797;h - Ad 2\np5562\nsVupdated_time\np5563\nV2012-10-29T15:42:13+0000\np5564\nsVend_time\np5565\nV2012-10-31T06:00:00+0000\np5566\nsa(dp5567\nVbid_info\np5568\n(dp5569\nV1\np5570\nV65\np5571\nssVcampaign_id\np5572\nI6006069180765\nsVcreated_time\np5573\nV2012-10-29T15:37:04+0000\np5574\nsVconversion_specs\np5575\n(lp5576\nsVadgroup_id\np5577\nI6006132860565\nsVtargeting\np5578\n(dp5579\nVkeywords\np5580\n(lp5581\nV#Aerobic exercise\np5582\naV#Crunch (exercise)\np5583\naV#P90X\np5584\naV#Infomercial\np5585\naV#Billy Mays\np5586\naV#Shake Weight\np5587\naV#'
p6
sS'hash'
p7
S'a6ce9f3b2b1c5cf388b351d4ff1a5ec04eb65ec4'
p8
sS'stack'
p9
S''
s.