(dp1
S'args'
p2
S''
sS'methodname'
p3
S''
sS'packet_num'
p4
I18
sS'returnval'
p5
S'6006053503365\np3451\nsVobjective\np3452\nI2\nsVmax_bid\np3453\nV65\np3454\nsVad_id\np3455\nI6006053503365\nsVaccount_id\np3456\nI40156177\nsVstart_time\np3457\nNsVlocations\np3458\n(lp3459\nI3\nasVadgroup_status\np3460\nI9\nsVad_status\np3461\nI2\nsVimpression_control_map\np3462\n(lp3463\n(dp3464\nVcontrol\np3465\n(dp3466\nVuser_impression_limit_period\np3467\nI24\nsVuser_impression_limit\np3468\nI6\nsVuser_impression_limit_period_unit\np3469\nI0\nsVimpression_control_type\np3470\nI2\nssVlocation\np3471\nI3\nsasVcreative_ids\np3472\n(lp3473\nI6006053502965\nasVtracking_pixel_ids\np3474\n(lp3475\nsVbid_type\np3476\nI1\nsVname\np3477\nVhttp://www.buzzfeed.com/h1/fbad/marriott/10-famous-visits-that-got-out-of-hand-7bu6 - Ad 1\np3478\nsVupdated_time\np3479\nV2012-10-22T16:04:04+0000\np3480\nsVend_time\np3481\nNsa(dp3482\nVbid_info\np3483\n(dp3484\nV1\np3485\nV65\np3486\nssVcampaign_id\np3487\nI6006053770765\nsVcreated_time\np3488\nV2012-10-19T15:32:51+0000\np3489\nsVconversion_specs\np3490\n(lp3491\nsVadgroup_id\np3492\nI6006053771565\nsVtargeting\np3493\n(dp3494\nVkeywords\np3495\n(lp3496\nV#Burning Man\np3497\naV#Music festival\np3498\naV#Black Rock Desert\np3499\naV#Photography\np3500\naV#Burning Man (film)\np3501\nasVage_max\np3502\nI65\nsVcountries\np3503\n(lp3504\nVUS\np3505\nasVbroad_age\np3506\nI1\nsVage_min\np3507\nI13\nssVid\np3508\nV6006053771565\np3509\nsVobjective\np3510\nI2\nsVmax_bid\np3511\nV65\np3512\nsVad_id\np3513\nI6006053771565\nsVaccount_id\np3514\nI40156177\nsVstart_time\np3515\nNsVlocations\np3516\n(lp3517\nI3\nasVadgroup_status\np3518\nI1\nsVad_status\np3519\nI1\nsVimpression_control_map\np3520\n(lp3521\n(dp3522\nVcontrol\np3523\n(dp3524\nVuser_impression_limit_period\np3525\nI24\nsVuser_impression_limit\np3526\nI3\nsVuser_impression_limit_period_unit\np3527\nI0\nsVimpression_control_type\np3528\nI2\nssVlocation\np3529\nI3\nsasVcreative_ids\np3530\n(lp3531\nI6005903290565\nasVtracking_pixel_ids\np3532\n(lp3533\nsVbid_type\np3534\nI1\nsVname\np3535\nVBurning Man\np3536\nsVupdated_time\np3537\nV2012-10-19T15:33:16+0000\np3538\nsVend_time\np3539\nNsa(dp3540\nVbid_info\np3541\n(dp3542\nV1\np3543\nV65\np3544\nssVcampaign_id\np3545\nI6006053770765\nsVcreated_time\np3546\nV2012-10-19T15:33:42+0000\np3547\nsVconversion_specs\np3548\n(lp3549\nsVadgroup_id\np3550\nI6006053776765\nsVtargeting\np3551\n(dp3552\nVkeywords\np3553\n(lp3554\nV#Expedia\np3555\naV#American Airlines\np3556\naV#Travelocity\np3557\naV#Southwest Airlines\np3558\naV#United Airlines\np3559\naV#Orbitz\np3560\naV#Virgin America\np3561\naV#General Electric\np3562\naV#Delta Air Lines\np3563\naV#Kayak\np3564\naV#CheapTickets\np3565\naV#JetBlue Airways\np3566\naV#Photography\np3567\naV#Hotwire.com\np3568\naV#Travel\np3569\nasVage_max\np3570\nI65\nsVcountries\np3571\n(lp3572\nVUS\np3573\nasVbroad_age\np3574\nI1\nsVage_min\np3575\nI13\nssVid\np3576\nV6006053776765\np3577\nsVobjective\np3578\nI2\nsVmax_bid\np3579\nV65\np3580\nsVad_id\np3581\nI6006053776765\nsVaccount_id\np3582\nI40156177\nsVstart_time\np3583\nNsVlocations\np3584\n(lp3585\nI3\nasVadgroup_status\np3586\nI1\nsVad_status\np3587\nI1\nsVimpression_control_map\np3588\n(lp3589\n(dp3590\nVcontrol\np3591\n(dp3592\nVuser_impression_limit_period\np3593\nI24\nsVuser_impression_limit\np3594\nI3\nsVuser_impression_limit_period_unit\np3595\nI0\nsVimpression_control_type\np3596\nI2\nssVlocation\np3597\nI3\nsasVcreative_ids\np3598\n(lp3599\nI6005903276965\nasVtracking_pixel_ids\np3600\n(lp3601\nsVbid_type\np3602\nI1\nsVname\np3603\nVBalloons\np3604\nsVupdated_time\np3605\nV2012-10-19T15:46:08+0000\np3606\nsVend_time\np3607\nNsa(dp3608\nVbid_info\np3609\n(dp3610\nV1\np3611\nV50\np3612\nssVcampaign_id\np3613\nI6006053868365\nsVcreated_time\np3614\nV2012-10-19T15:59:28+0000\np3615\nsVconversion_specs\np3616\n(lp3617\nsVadgroup_id\np3618\nI6006053869365\nsVtargeting\np3619\n(dp3620\nVkeywords\np3621\n(lp3622\nV#Banksy\np3623\naV#Red Bull Flugtag\np3624\naV#Aeronautics\np3625\naV#Blue Angels\np3626\naV#Street art\np3627\naV#OWN: Oprah Winfrey Network\np3628\naV#OuterSpace\np3629\naV#Oprah Winfrey\np3630\naV#Space\np3631\naV#Landscape photography\np3632\naV#The Oprah Winfrey Show\np3633\naV#Photography\np3634\naV#Oprah Winfrey Network (U.S. TV channel)\np3635\nasVage_max\np3636\nI65\nsVcountries\np3637\n(lp3638\nVUS\np3639\nasVbroad_age\np3640\nI1\nsVage_min\np3641\nI13\nssVid\np3642\nV6006053869365\np3643\nsVobjective\np3644\nI2\nsVmax_bid\np3645\nV50\np3646\nsVad_id\np3647\nI6006053869365\nsVaccount_id\np3648\nI'
p6
sS'hash'
p7
S'a6ce9f3b2b1c5cf388b351d4ff1a5ec04eb65ec4'
p8
sS'stack'
p9
S''
s.