(dp1
S'args'
p2
S''
sS'methodname'
p3
S''
sS'packet_num'
p4
I52
sS'returnval'
p5
S'd\np10049\nI6006133179165\nsVtargeting\np10050\n(dp10051\nVkeywords\np10052\n(lp10053\nV#James Bond (character)\np10054\naV#I Can Has Cheezburger?\np10055\naV#James Bond\np10056\naV#Puss in Boots (Shrek)\np10057\naV#Maru (cat)\np10058\naV#Stray Cats\np10059\naV#Kitten\np10060\naV#Hello Kitty\np10061\naV#Cat\np10062\naV#James Bond 007: Blood Stone\np10063\naV#Cuteness\np10064\naV#Garfield (character)\np10065\naV#Cats 101\np10066\naV#Meow Mix\np10067\naV#Puss in Boots (2011 film)\np10068\naV#Cats and Kittens\np10069\naV#James Bond (film series)\np10070\naV#Cheshire Cat\np10071\naV#James Bond in film\np10072\naV#Babies\np10073\naV#Puss in Boots\np10074\naV#Cats Protection\np10075\naV#Tom and Jerry\np10076\naV#The Cat in the Hat\np10077\naV#Daniel Craig\np10078\naV#Puss in Boots: The Three Diablos\np10079\nasVage_max\np10080\nI65\nsVcountries\np10081\n(lp10082\nVUS\np10083\nasVbroad_age\np10084\nI1\nsVage_min\np10085\nI13\nssVid\np10086\nV6006133179165\np10087\nsVobjective\np10088\nI2\nsVmax_bid\np10089\nV65\np10090\nsVad_id\np10091\nI6006133179165\nsVaccount_id\np10092\nI40156177\nsVstart_time\np10093\nNsVlocations\np10094\n(lp10095\nI3\nasVadgroup_status\np10096\nI9\nsVad_status\np10097\nI2\nsVimpression_control_map\np10098\n(lp10099\n(dp10100\nVcontrol\np10101\n(dp10102\nVuser_impression_limit_period\np10103\nI24\nsVuser_impression_limit\np10104\nI6\nsVuser_impression_limit_period_unit\np10105\nI0\nsVimpression_control_type\np10106\nI2\nssVlocation\np10107\nI3\nsasVcreative_ids\np10108\n(lp10109\nI6006133178765\nasVtracking_pixel_ids\np10110\n(lp10111\nsVbid_type\np10112\nI1\nsVname\np10113\nVDaniel Craig\np10114\nsVupdated_time\np10115\nV2012-10-31T15:37:47+0000\np10116\nsVend_time\np10117\nV2012-11-01T03:30:00+0000\np10118\nsa(dp10119\nVbid_info\np10120\n(dp10121\nV1\np10122\nV70\np10123\nssVcampaign_id\np10124\nI6006133254165\nsVlast_updated_by_app_id\np10125\nI6802152230\nsVcreated_time\np10126\nV2012-10-29T16:54:56+0000\np10127\nsVconversion_specs\np10128\n(lp10129\nsVadgroup_id\np10130\nI6006133255165\nsVtargeting\np10131\n(dp10132\nVkeywords\np10133\n(lp10134\nV#I Can Has Cheezburger?\np10135\naV#Nestl\xe9 Purina PetCare\np10136\naV#Purina ONE\np10137\naV#Puss in Boots (Shrek)\np10138\naV#Maru (cat)\np10139\naV#Stray Cats\np10140\naV#Kitten\np10141\naV#Hello Kitty\np10142\naV#Cat\np10143\naV#Cuteness\np10144\naV#Garfield (character)\np10145\naV#Cats 101\np10146\naV#Meow Mix\np10147\naV#Puss in Boots (2011 film)\np10148\naV#Tabby cat\np10149\naV#Cats and Kittens\np10150\naV#Cheshire Cat\np10151\naV#Siamese (cat)\np10152\naV#Friskies\np10153\naV#Babies\np10154\naV#Puss in Boots\np10155\naV#Cats Protection\np10156\naV#Tom and Jerry\np10157\naV#The Cat in the Hat\np10158\naV#Puss in Boots: The Three Diablos\np10159\nasVage_max\np10160\nI65\nsVcountries\np10161\n(lp10162\nVUS\np10163\nasVbroad_age\np10164\nI1\nsVage_min\np10165\nI13\nssVid\np10166\nV6006133255165\np10167\nsVobjective\np10168\nI2\nsVmax_bid\np10169\nV70\np10170\nsVad_id\np10171\nI6006133255165\nsVaccount_id\np10172\nI40156177\nsVstart_time\np10173\nNsVlocations\np10174\n(lp10175\nI3\nasVadgroup_status\np10176\nI1\nsVad_status\np10177\nI1\nsVimpression_control_map\np10178\n(lp10179\n(dp10180\nVcontrol\np10181\n(dp10182\nVuser_impression_limit_period\np10183\nI24\nsVuser_impression_limit\np10184\nI3\nsVuser_impression_limit_period_unit\np10185\nI0\nsVimpression_control_type\np10186\nI2\nssVlocation\np10187\nI3\nsasVcreative_ids\np10188\n(lp10189\nI6006133254765\nasVtracking_pixel_ids\np10190\n(lp10191\nsVbid_type\np10192\nI1\nsVname\np10193\nVNala\np10194\nsVupdated_time\np10195\nV2012-10-31T14:13:48+0000\np10196\nsVend_time\np10197\nNsa(dp10198\nVbid_info\np10199\n(dp10200\nV1\np10201\nV70\np10202\nssVcampaign_id\np10203\nI6006133254165\nsVlast_updated_by_app_id\np10204\nI6802152230\nsVcreated_time\np10205\nV2012-10-29T16:56:44+0000\np10206\nsVconversion_specs\np10207\n(lp10208\nsVadgroup_id\np10209\nI6006133269565\nsVtargeting\np10210\n(dp10211\nVkeywords\np10212\n(lp10213\nV#I Can Has Cheezburger?\np10214\naV#Nestl\xe9 Purina PetCare\np10215\naV#Purina ONE\np10216\naV#Puss in Boots (Shrek)\np10217\naV#Maru (cat)\np10218\naV#Stray Cats\np10219\naV#Kitten\np10220\naV#Hello Kitty\np10221\naV#Cat\np10222\naV#Cuteness\np10223\naV#Garfield (character)\np10224\naV#Cats 101\np10225\naV#Meow Mix\np10226\naV#Puss in Boots (2011 film)\np10227\naV#Tabby cat\np10228\naV#Cats and Kittens\np10229\naV#Cheshire Cat\np10230\naV#Siamese (cat)\np102'
p6
sS'hash'
p7
S'a6ce9f3b2b1c5cf388b351d4ff1a5ec04eb65ec4'
p8
sS'stack'
p9
S''
s.