(dp1
S'args'
p2
S''
sS'methodname'
p3
S''
sS'packet_num'
p4
I103
sS'returnval'
p5
S"l_type\np19464\nI2\nssVlocation\np19465\nI3\nsasVcreative_ids\np19466\n(lp19467\nI6006225724565\nasVtracking_pixel_ids\np19468\n(lp19469\nsVbid_type\np19470\nI1\nsVname\np19471\nVScience\np19472\nsVupdated_time\np19473\nV2012-12-12T23:01:46+0000\np19474\nsVend_time\np19475\nV2012-12-14T04:30:00+0000\np19476\nsa(dp19477\nVbid_info\np19478\n(dp19479\nV1\np19480\nV68\np19481\nssVcampaign_id\np19482\nI6006225723965\nsVlast_updated_by_app_id\np19483\nI6802152230\nsVcreated_time\np19484\nV2012-11-12T16:02:41+0000\np19485\nsVconversion_specs\np19486\n(lp19487\nsVadgroup_id\np19488\nI6006225749365\nsVtargeting\np19489\n(dp19490\nVkeywords\np19491\n(lp19492\nV#Harry Potter and the Deathly Hallows\np19493\naV#Harry Potter and the Deathly Hallows \\u2013 Part 2\np19494\naV#Harry Potter and the Half-Blood Prince (film)\np19495\naV#Dora the Explorer\np19496\naV#Harry Potter (film series)\np19497\naV#Harry Potter (character)\np19498\naV#Dora the Explorer: Journey to the Purple Planet\np19499\naV#Harry Potter\np19500\naV#Albus Dumbledore\np19501\naV#Dumbledore's Army\np19502\nasVage_max\np19503\nI65\nsVcountries\np19504\n(lp19505\nVUS\np19506\nasVbroad_age\np19507\nI1\nsVage_min\np19508\nI13\nssVid\np19509\nV6006225749365\np19510\nsVobjective\np19511\nI2\nsVmax_bid\np19512\nV68\np19513\nsVad_id\np19514\nI6006225749365\nsVaccount_id\np19515\nI40156177\nsVstart_time\np19516\nNsVlocations\np19517\n(lp19518\nI3\nasVadgroup_status\np19519\nI1\nsVad_status\np19520\nI1\nsVimpression_control_map\np19521\n(lp19522\n(dp19523\nVcontrol\np19524\n(dp19525\nVuser_impression_limit_period\np19526\nI24\nsVuser_impression_limit\np19527\nI3\nsVuser_impression_limit_period_unit\np19528\nI0\nsVimpression_control_type\np19529\nI2\nssVlocation\np19530\nI3\nsasVcreative_ids\np19531\n(lp19532\nI6006225748965\nasVtracking_pixel_ids\np19533\n(lp19534\nsVbid_type\np19535\nI1\nsVname\np19536\nVDumbleDora\np19537\nsVupdated_time\np19538\nV2012-12-12T23:01:43+0000\np19539\nsVend_time\np19540\nV2012-12-14T04:30:00+0000\np19541\nsa(dp19542\nVbid_info\np19543\n(dp19544\nV1\np19545\nV68\np19546\nssVcampaign_id\np19547\nI6006225723965\nsVlast_updated_by_app_id\np19548\nI6802152230\nsVcreated_time\np19549\nV2012-11-12T16:06:07+0000\np19550\nsVconversion_specs\np19551\n(lp19552\nsVadgroup_id\np19553\nI6006225774165\nsVtargeting\np19554\n(dp19555\nVkeywords\np19556\n(lp19557\nV#Batman: Arkham City\np19558\naV#Batman: Arkham Asylum\np19559\naV#Impressionism\np19560\naV#Batman Begins\np19561\naV#Pablo Picasso\np19562\naV#Christopher Nolan\np19563\naV#The Dark Knight Rises\np19564\naV#Christian Bale\np19565\naV#Post-Impressionism\np19566\naV#Batman (1989 film)\np19567\naV#The Dark Knight (film)\np19568\naV#The Starry Night\np19569\naV#Paul Gauguin\np19570\naV#Vincent van Gogh\np19571\naV#Claude Monet\np19572\naV#Batman\np19573\nasVage_max\np19574\nI65\nsVcountries\np19575\n(lp19576\nVUS\np19577\nasVbroad_age\np19578\nI1\nsVage_min\np19579\nI13\nssVid\np19580\nV6006225774165\np19581\nsVobjective\np19582\nI2\nsVmax_bid\np19583\nV68\np19584\nsVad_id\np19585\nI6006225774165\nsVaccount_id\np19586\nI40156177\nsVstart_time\np19587\nNsVlocations\np19588\n(lp19589\nI3\nasVadgroup_status\np19590\nI1\nsVad_status\np19591\nI1\nsVimpression_control_map\np19592\n(lp19593\n(dp19594\nVcontrol\np19595\n(dp19596\nVuser_impression_limit_period\np19597\nI24\nsVuser_impression_limit\np19598\nI3\nsVuser_impression_limit_period_unit\np19599\nI0\nsVimpression_control_type\np19600\nI2\nssVlocation\np19601\nI3\nsasVcreative_ids\np19602\n(lp19603\nI6006225773765\nasVtracking_pixel_ids\np19604\n(lp19605\nsVbid_type\np19606\nI1\nsVname\np19607\nVStarry Knight\np19608\nsVupdated_time\np19609\nV2012-12-12T22:09:04+0000\np19610\nsVend_time\np19611\nV2012-12-14T04:30:00+0000\np19612\nsa(dp19613\nVbid_info\np19614\n(dp19615\nV1\np19616\nV65\np19617\nssVcampaign_id\np19618\nI6006225798765\nsVcreated_time\np19619\nV2012-11-12T16:12:36+0000\np19620\nsVconversion_specs\np19621\n(lp19622\nsVadgroup_id\np19623\nI6006225799965\nsVtargeting\np19624\n(dp19625\nVkeywords\np19626\n(lp19627\nVman vs food is awesome\np19628\naV#Chopped (TV series)\np19629\naV#Food Network Challenge\np19630\naV#Food Network\np19631\naV#Man v. Food\np19632\naV#Andrew Zimmern\np19633\naV#Cupcake Wars\np19634\naV#Paula Deen\np19635\naV#Man v. Food Nation\np19636\naV#Ace of Cakes\np19637\naV#Adam Richman (actor)\np19638\naV#Anthony Bourdain: No Reservations\np19639\naV#Top Chef\np19640\naV#Bizarre Foods w"
p6
sS'hash'
p7
S'a6ce9f3b2b1c5cf388b351d4ff1a5ec04eb65ec4'
p8
sS'stack'
p9
S''
s.