(dp1
S'args'
p2
S''
sS'methodname'
p3
S''
sS'packet_num'
p4
I185
sS'returnval'
p5
S"34080\naV#HBO\np34081\naV#Tiny Furniture\np34082\naV#Sex and the City\np34083\naV#Music Hall of Williamsburg\np34084\naV#Sex and the City (film)\np34085\naV#Jessamine County, Kentucky\np34086\naV#Judd Apatow\np34087\naV#Lena Dunham\np34088\naV#Allison Williams (actress)\np34089\naV#Jemima Kirke\np34090\naV#Zosia Mamet\np34091\naV#Girls (TV series)\np34092\nasVage_max\np34093\nI65\nsVcountries\np34094\n(lp34095\nVUS\np34096\nasVbroad_age\np34097\nI1\nsVage_min\np34098\nI13\nssVid\np34099\nV6006572660965\np34100\nsVobjective\np34101\nI2\nsVmax_bid\np34102\nV66\np34103\nsVad_id\np34104\nI6006572660965\nsVaccount_id\np34105\nI40156177\nsVstart_time\np34106\nV2012-12-05T15:29:35+0000\np34107\nsVlocations\np34108\n(lp34109\nI3\nasVadgroup_status\np34110\nI1\nsVad_status\np34111\nI1\nsVimpression_control_map\np34112\n(lp34113\n(dp34114\nVcontrol\np34115\n(dp34116\nVuser_impression_limit_period\np34117\nI24\nsVuser_impression_limit\np34118\nI3\nsVuser_impression_limit_period_unit\np34119\nI0\nsVimpression_control_type\np34120\nI2\nssVlocation\np34121\nI3\nsasVcreative_ids\np34122\n(lp34123\nI6006572660565\nasVtracking_pixel_ids\np34124\n(lp34125\nsVbid_type\np34126\nI1\nsVname\np34127\nVParents\np34128\nsVupdated_time\np34129\nV2012-12-05T16:38:08+0000\np34130\nsVend_time\np34131\nNsa(dp34132\nVbid_info\np34133\n(dp34134\nV1\np34135\nV66\np34136\nssVcampaign_id\np34137\nI6006572640765\nsVlast_updated_by_app_id\np34138\nI6802152230\nsVcreated_time\np34139\nV2012-12-03T20:52:01+0000\np34140\nsVconversion_specs\np34141\n(lp34142\nsVadgroup_id\np34143\nI6006572720565\nsVtargeting\np34144\n(dp34145\nVage_max\np34146\nI65\nsVcountries\np34147\n(lp34148\nVUS\np34149\nasVbroad_age\np34150\nI1\nsVage_min\np34151\nI13\nsVkeywords\np34152\n(lp34153\nV#Williamsburg, Brooklyn\np34154\naV#Urban Outfitters\np34155\naV#Cosmopolitan (magazine)\np34156\naV#Just Jared\np34157\naV#Sex and the City 2\np34158\naV#Jezebel (website)\np34159\naV#H&M\np34160\naV#HBO\np34161\naV#Tiny Furniture\np34162\naV#Sex and the City\np34163\naV#Music Hall of Williamsburg\np34164\naV#Sex and the City (film)\np34165\naV#Jessamine County, Kentucky\np34166\naV#Judd Apatow\np34167\naV#Lena Dunham\np34168\naV#Allison Williams (actress)\np34169\naV#Jemima Kirke\np34170\naV#Zosia Mamet\np34171\naV#Girls (TV series)\np34172\nasVgenders\np34173\n(lp34174\nI2\nassVid\np34175\nV6006572720565\np34176\nsVobjective\np34177\nI2\nsVmax_bid\np34178\nV66\np34179\nsVad_id\np34180\nI6006572720565\nsVaccount_id\np34181\nI40156177\nsVstart_time\np34182\nV2012-12-05T15:29:35+0000\np34183\nsVlocations\np34184\n(lp34185\nI3\nasVadgroup_status\np34186\nI1\nsVad_status\np34187\nI1\nsVimpression_control_map\np34188\n(lp34189\n(dp34190\nVcontrol\np34191\n(dp34192\nVuser_impression_limit_period\np34193\nI24\nsVuser_impression_limit\np34194\nI3\nsVuser_impression_limit_period_unit\np34195\nI0\nsVimpression_control_type\np34196\nI2\nssVlocation\np34197\nI3\nsasVcreative_ids\np34198\n(lp34199\nI6006572720165\nasVtracking_pixel_ids\np34200\n(lp34201\nsVbid_type\np34202\nI1\nsVname\np34203\nVBFF\np34204\nsVupdated_time\np34205\nV2012-12-05T16:38:02+0000\np34206\nsVend_time\np34207\nNsa(dp34208\nVbid_info\np34209\n(dp34210\nV1\np34211\nV65\np34212\nssVcampaign_id\np34213\nI6006574752565\nsVlast_updated_by_app_id\np34214\nI6802152230\nsVcreated_time\np34215\nV2012-12-03T22:18:30+0000\np34216\nsVconversion_specs\np34217\n(lp34218\nsVadgroup_id\np34219\nI6006574753565\nsVtargeting\np34220\n(dp34221\nVkeywords\np34222\n(lp34223\nV#Final Fantasy VIII\np34224\naV#The Elder Scrolls\np34225\naV#The Legend of Zelda\np34226\naV#Chrono Trigger\np34227\naV#Chrono Cross\np34228\naV#The Elder Scrolls IV: Oblivion\np34229\naV#The Elder Scrolls V: Skyrim\np34230\naV#The Legend of Zelda: Majora's Mask\np34231\naV#Kingdom Hearts Birth by Sleep\np34232\naV#Capcom\np34233\naV#Dragon Age\np34234\naV#Final Fantasy VII\np34235\naV#Final Fantasy\np34236\naV#Dungeon crawl\np34237\naV#Final Fantasy (video game)\np34238\naV#Princess Zelda\np34239\naV#Link (The Legend of Zelda)\np34240\naV#Mario Kart Wii\np34241\naV#Nintendo 3DS\np34242\naV#Final Fantasy VII Advent Children\np34243\naV#Nintendo Entertainment System\np34244\naV#Super Smash Bros. Melee\np34245\naV#Kingdom Hearts\np34246\naV#Super Smash Bros. Brawl\np34247\naV#Final Fantasy IX\np34248\naV#The Legend of Zelda: Ocarina of Time\np34249\nasVage_max\np34250\nI65\nsVcountries\np34251\n(lp34252\nVUS\np34253\nasVbroad_age\np3425"
p6
sS'hash'
p7
S'a6ce9f3b2b1c5cf388b351d4ff1a5ec04eb65ec4'
p8
sS'stack'
p9
S''
s.