(dp1
S'args'
p2
S''
sS'methodname'
p3
S''
sS'packet_num'
p4
I155
sS'returnval'
p5
S'/fbad/campbellsgo/10-great-music-covers-that-are-so-close-to-the-rea - Ad\np28683\nsVupdated_time\np28684\nV2012-11-20T20:10:38+0000\np28685\nsVend_time\np28686\nNsa(dp28687\nVbid_info\np28688\n(dp28689\nV1\np28690\nV55\np28691\nssVcampaign_id\np28692\nI6006320338765\nsVlast_updated_by_app_id\np28693\nI207192552749284\nsVcreated_time\np28694\nV2012-11-20T20:18:58+0000\np28695\nsVconversion_specs\np28696\n(lp28697\nsVadgroup_id\np28698\nI6006320339965\nsVtargeting\np28699\n(dp28700\nVkeywords\np28701\n(lp28702\nV#Extreme sport\np28703\naV#Guinness World Records\np28704\naV#Red Bull\np28705\nasVage_max\np28706\nI65\nsVcountries\np28707\n(lp28708\nVUS\np28709\nasVbroad_age\np28710\nI1\nsVage_min\np28711\nI13\nssVid\np28712\nV6006320339965\np28713\nsVobjective\np28714\nI2\nsVmax_bid\np28715\nV55\np28716\nsVad_id\np28717\nI6006320339965\nsVaccount_id\np28718\nI40156177\nsVstart_time\np28719\nNsVlocations\np28720\n(lp28721\nI3\nasVadgroup_status\np28722\nI1\nsVad_status\np28723\nI1\nsVimpression_control_map\np28724\n(lp28725\n(dp28726\nVcontrol\np28727\n(dp28728\nVuser_impression_limit_period\np28729\nI24\nsVuser_impression_limit\np28730\nI6\nsVuser_impression_limit_period_unit\np28731\nI0\nsVimpression_control_type\np28732\nI2\nssVlocation\np28733\nI3\nsasVcreative_ids\np28734\n(lp28735\nI6006320339565\nasVtracking_pixel_ids\np28736\n(lp28737\nsVbid_type\np28738\nI1\nsVname\np28739\nVBuzzFeed Partner - Ad\np28740\nsVupdated_time\np28741\nV2012-11-23T23:50:04+0000\np28742\nsVend_time\np28743\nV2012-11-25T05:00:00+0000\np28744\nsa(dp28745\nVbid_info\np28746\n(dp28747\nV1\np28748\nV55\np28749\nssVcampaign_id\np28750\nI6006320338765\nsVlast_updated_by_app_id\np28751\nI207192552749284\nsVcreated_time\np28752\nV2012-11-20T20:18:58+0000\np28753\nsVconversion_specs\np28754\n(lp28755\nsVadgroup_id\np28756\nI6006320341765\nsVtargeting\np28757\n(dp28758\nVage_max\np28759\nI65\nsVcountries\np28760\n(lp28761\nVUS\np28762\nasVbroad_age\np28763\nI1\nsVage_min\np28764\nI13\nssVid\np28765\nV6006320341765\np28766\nsVobjective\np28767\nI2\nsVmax_bid\np28768\nV55\np28769\nsVad_id\np28770\nI6006320341765\nsVaccount_id\np28771\nI40156177\nsVstart_time\np28772\nNsVlocations\np28773\n(lp28774\nI3\nasVadgroup_status\np28775\nI1\nsVad_status\np28776\nI1\nsVimpression_control_map\np28777\n(lp28778\n(dp28779\nVcontrol\np28780\n(dp28781\nVuser_impression_limit_period\np28782\nI24\nsVuser_impression_limit\np28783\nI6\nsVuser_impression_limit_period_unit\np28784\nI0\nsVimpression_control_type\np28785\nI2\nssVlocation\np28786\nI3\nsasVcreative_ids\np28787\n(lp28788\nI6006320341365\nasVtracking_pixel_ids\np28789\n(lp28790\nsVbid_type\np28791\nI1\nsVname\np28792\nVBuzzFeed Partner - Sponsored Stories\np28793\nsVupdated_time\np28794\nV2012-11-23T23:50:04+0000\np28795\nsVend_time\np28796\nV2012-11-25T05:00:00+0000\np28797\nsa(dp28798\nVbid_info\np28799\n(dp28800\nV1\np28801\nV65\np28802\nssVcampaign_id\np28803\nI6006334113165\nsVlast_updated_by_app_id\np28804\nI6802152230\nsVcreated_time\np28805\nV2012-11-21T14:39:54+0000\np28806\nsVconversion_specs\np28807\n(lp28808\nsVadgroup_id\np28809\nI6006334114165\nsVtargeting\np28810\n(dp28811\nVkeywords\np28812\n(lp28813\nV#Spin (magazine)\np28814\naV#MTV\np28815\naV#Spotify\np28816\naV#Rhapsody (music)\np28817\naV#Stereogum\np28818\naV#Grooveshark\np28819\naV#Pitchfork Media\np28820\naV#Jango (website)\np28821\naV#Billboard (magazine)\np28822\naV#Last.fm\np28823\naV#Pandora Radio\np28824\naV#KCRW\np28825\naV#Rdio\np28826\naV#Lollapalooza\np28827\naV#Coachella Valley Music and Arts Festival\np28828\naV#Billboard Hot 100\np28829\naV#Rolling Stone\np28830\nasVage_max\np28831\nI65\nsVcountries\np28832\n(lp28833\nVUS\np28834\nasVbroad_age\np28835\nI1\nsVage_min\np28836\nI13\nssVid\np28837\nV6006334114165\np28838\nsVobjective\np28839\nI2\nsVmax_bid\np28840\nV65\np28841\nsVad_id\np28842\nI6006334114165\nsVaccount_id\np28843\nI40156177\nsVstart_time\np28844\nNsVlocations\np28845\n(lp28846\nI3\nasVadgroup_status\np28847\nI1\nsVad_status\np28848\nI1\nsVimpression_control_map\np28849\n(lp28850\n(dp28851\nVcontrol\np28852\n(dp28853\nVuser_impression_limit_period\np28854\nI24\nsVuser_impression_limit\np28855\nI3\nsVuser_impression_limit_period_unit\np28856\nI0\nsVimpression_control_type\np28857\nI2\nssVlocation\np28858\nI3\nsasVcreative_ids\np28859\n(lp28860\nI6006334113765\nasVtracking_pixel_ids\np28861\n(lp28862\nsVbid_type\np28863\nI1\nsVname\np28864\nVMusic General\np28865\nsVupdated_time\np28866\nV2012-11-23'
p6
sS'hash'
p7
S'a6ce9f3b2b1c5cf388b351d4ff1a5ec04eb65ec4'
p8
sS'stack'
p9
S''
s.