(dp1
S'args'
p2
S''
sS'methodname'
p3
S''
sS'packet_num'
p4
I38
sS'returnval'
p5
S'_max\np7334\nI65\nsVcountries\np7335\n(lp7336\nVUS\np7337\nasVbroad_age\np7338\nI1\nsVage_min\np7339\nI13\nssVid\np7340\nV6006103176565\np7341\nsVobjective\np7342\nI2\nsVmax_bid\np7343\nV65\np7344\nsVad_id\np7345\nI6006103176565\nsVaccount_id\np7346\nI40156177\nsVstart_time\np7347\nNsVlocations\np7348\n(lp7349\nI3\nasVadgroup_status\np7350\nI1\nsVad_status\np7351\nI1\nsVimpression_control_map\np7352\n(lp7353\n(dp7354\nVcontrol\np7355\n(dp7356\nVuser_impression_limit_period\np7357\nI24\nsVuser_impression_limit\np7358\nI6\nsVuser_impression_limit_period_unit\np7359\nI0\nsVimpression_control_type\np7360\nI2\nssVlocation\np7361\nI3\nsasVcreative_ids\np7362\n(lp7363\nI6006103176165\nasVtracking_pixel_ids\np7364\n(lp7365\nsVbid_type\np7366\nI1\nsVname\np7367\nVhttp://ad.doubleclick.net/clk;264393879;90045548;z - Ad\np7368\nsVupdated_time\np7369\nV2012-11-02T16:43:10+0000\np7370\nsVend_time\np7371\nV2012-11-03T06:30:00+0000\np7372\nsa(dp7373\nVbid_info\np7374\n(dp7375\nV1\np7376\nV65\np7377\nssVcampaign_id\np7378\nI6006103281365\nsVcreated_time\np7379\nV2012-10-24T19:06:07+0000\np7380\nsVconversion_specs\np7381\n(lp7382\nsVadgroup_id\np7383\nI6006103282365\nsVtargeting\np7384\n(dp7385\nVkeywords\np7386\n(lp7387\nV#Jeff Hardy\np7388\naV#Vince McMahon\np7389\naV#Professional wrestling attacks\np7390\naV#Mike Tyson\np7391\naV#WWE NXT\np7392\naV#Glossary of professional wrestling terms\np7393\naV#WWE Raw\np7394\naV#WWE\np7395\naV#Shawn Michaels\np7396\naV#Big Show (wrestler)\np7397\naV#Matt Hardy\np7398\naV#Triple H\np7399\naV#The Hangover\np7400\naV#Professional wrestling throws\np7401\naV#Kane (wrestler)\np7402\naV#Wrestling\np7403\naV#Randy Orton\np7404\naV#Professional wrestling aerial techniques\np7405\naV#WWE Tough Enough\np7406\naV#John Cena\np7407\naV#Hulk Hogan\np7408\naV#WWE SmackDown\np7409\naV#Face (professional wrestling)\np7410\naV#WWE Diva\np7411\naV#The Miz\np7412\naV#Rey Mysterio\np7413\naV#Christian (wrestler)\np7414\naVjr\np7415\naV#Ric Flair\np7416\naV#Edge (wrestler)\np7417\naV#WWE SmackDown! vs. Raw\np7418\naV#WWE SmackDown vs. Raw 2011\np7419\naV#John Morrison (wrestler)\np7420\naV#Professional wrestling\np7421\naV#The Undertaker\np7422\nasVage_max\np7423\nI65\nsVcountries\np7424\n(lp7425\nVUS\np7426\nasVbroad_age\np7427\nI1\nsVage_min\np7428\nI13\nssVid\np7429\nV6006103282365\np7430\nsVobjective\np7431\nI2\nsVmax_bid\np7432\nV65\np7433\nsVad_id\np7434\nI6006103282365\nsVaccount_id\np7435\nI40156177\nsVstart_time\np7436\nNsVlocations\np7437\n(lp7438\nI3\nasVadgroup_status\np7439\nI1\nsVad_status\np7440\nI1\nsVimpression_control_map\np7441\n(lp7442\n(dp7443\nVcontrol\np7444\n(dp7445\nVuser_impression_limit_period\np7446\nI24\nsVuser_impression_limit\np7447\nI6\nsVuser_impression_limit_period_unit\np7448\nI0\nsVimpression_control_type\np7449\nI2\nssVlocation\np7450\nI3\nsasVcreative_ids\np7451\n(lp7452\nI6006103281965\nasVtracking_pixel_ids\np7453\n(lp7454\nsVbid_type\np7455\nI1\nsVname\np7456\nVhttp://ad.doubleclick.net/clk;264393862;90045536;o - Ad\np7457\nsVupdated_time\np7458\nV2012-10-24T20:15:43+0000\np7459\nsVend_time\np7460\nNsa(dp7461\nVbid_info\np7462\n(dp7463\nV1\np7464\nV65\np7465\nssVcampaign_id\np7466\nI6006103329965\nsVcreated_time\np7467\nV2012-10-24T19:09:29+0000\np7468\nsVconversion_specs\np7469\n(lp7470\nsVadgroup_id\np7471\nI6006103331165\nsVtargeting\np7472\n(dp7473\nVkeywords\np7474\n(lp7475\nV#Jeff Hardy\np7476\naV#Vince McMahon\np7477\naV#Professional wrestling attacks\np7478\naV#WWE NXT\np7479\naV#Glossary of professional wrestling terms\np7480\naV#WWE Raw\np7481\naV#WWE\np7482\naV#Shawn Michaels\np7483\naV#Big Show (wrestler)\np7484\naV#Matt Hardy\np7485\naV#Triple H\np7486\naV#Dwayne Johnson\np7487\naV#Professional wrestling throws\np7488\naV#Kane (wrestler)\np7489\naV#Wrestling\np7490\naV#Randy Orton\np7491\naV#Professional wrestling aerial techniques\np7492\naV#WWE Tough Enough\np7493\naV#John Cena\np7494\naV#Hulk Hogan\np7495\naV#WWE SmackDown\np7496\naV#Face (professional wrestling)\np7497\naV#WWE Diva\np7498\naV#The Miz\np7499\naV#Rey Mysterio\np7500\naV#Christian (wrestler)\np7501\naVjr\np7502\naV#Ric Flair\np7503\naV#Edge (wrestler)\np7504\naV#WWE SmackDown! vs. Raw\np7505\naV#WWE SmackDown vs. Raw 2011\np7506\naV#John Morrison (wrestler)\np7507\naV#Professional wrestling\np7508\naV#The Undertaker\np7509\nasVage_max\np7510\nI65\nsVcountries\np7511\n(lp7512\nVUS\np7513\nasVbroad_age\np7514\nI1\nsVage_min\np7515\nI13\nssVid\np7516\nV6006103331165\np7517'
p6
sS'hash'
p7
S'a6ce9f3b2b1c5cf388b351d4ff1a5ec04eb65ec4'
p8
sS'stack'
p9
S''
s.