(dp1
S'args'
p2
S''
sS'methodname'
p3
S''
sS'packet_num'
p4
I90
sS'returnval'
p5
S'17078\nVManhattan\np17079\nsVupdated_time\np17080\nV2012-11-12T15:36:40+0000\np17081\nsVend_time\np17082\nNsa(dp17083\nVbid_info\np17084\n(dp17085\nV1\np17086\nV65\np17087\nssVcampaign_id\np17088\nI6006214147565\nsVcreated_time\np17089\nV2012-11-12T15:01:22+0000\np17090\nsVconversion_specs\np17091\n(lp17092\nsVadgroup_id\np17093\nI6006224971965\nsVtargeting\np17094\n(dp17095\nVkeywords\np17096\n(lp17097\nV#Time management\np17098\naV#Folder (computing)\np17099\naV#DIY Network\np17100\naV#Organizing\np17101\naV#Desk\np17102\naVorganizer\np17103\naV#Self-help\np17104\naV#Do it yourself\np17105\naV#Productivity\np17106\naV#Gizmodo\np17107\naV#Calendar\np17108\naV#Instagram\np17109\naV#Pinterest\np17110\nasVage_max\np17111\nI65\nsVcountries\np17112\n(lp17113\nVUS\np17114\nasVbroad_age\np17115\nI1\nsVage_min\np17116\nI13\nssVid\np17117\nV6006224971965\np17118\nsVobjective\np17119\nI2\nsVmax_bid\np17120\nV65\np17121\nsVad_id\np17122\nI6006224971965\nsVaccount_id\np17123\nI40156177\nsVstart_time\np17124\nNsVlocations\np17125\n(lp17126\nI3\nasVadgroup_status\np17127\nI1\nsVad_status\np17128\nI1\nsVimpression_control_map\np17129\n(lp17130\n(dp17131\nVcontrol\np17132\n(dp17133\nVuser_impression_limit_period\np17134\nI24\nsVuser_impression_limit\np17135\nI6\nsVuser_impression_limit_period_unit\np17136\nI0\nsVimpression_control_type\np17137\nI2\nssVlocation\np17138\nI3\nsasVcreative_ids\np17139\n(lp17140\nI6006214148165\nasVtracking_pixel_ids\np17141\n(lp17142\nsVbid_type\np17143\nI1\nsVname\np17144\nVhttp://ad.doubleclick.net/clk;264495462;89854573;e?http://www.buzzfeed.com/h1/fbad/lenovo/10 - Ad 1\np17145\nsVupdated_time\np17146\nV2012-11-12T15:02:07+0000\np17147\nsVend_time\np17148\nNsa(dp17149\nVbid_info\np17150\n(dp17151\nV1\np17152\nV65\np17153\nssVcampaign_id\np17154\nI6006214147565\nsVlast_updated_by_app_id\np17155\nI6802152230\nsVcreated_time\np17156\nV2012-11-09T15:33:23+0000\np17157\nsVconversion_specs\np17158\n(lp17159\nsVadgroup_id\np17160\nI6006214148565\nsVtargeting\np17161\n(dp17162\nVkeywords\np17163\n(lp17164\nV#Time management\np17165\naV#Folder (computing)\np17166\naV#DIY Network\np17167\naV#Organizing\np17168\naV#Desk\np17169\naVorganizer\np17170\naV#Self-help\np17171\naV#Do it yourself\np17172\naV#Productivity\np17173\naV#Gizmodo\np17174\naV#Calendar\np17175\nasVage_max\np17176\nI65\nsVcountries\np17177\n(lp17178\nVUS\np17179\nasVbroad_age\np17180\nI1\nsVage_min\np17181\nI13\nssVid\np17182\nV6006214148565\np17183\nsVobjective\np17184\nI2\nsVmax_bid\np17185\nV65\np17186\nsVad_id\np17187\nI6006214148565\nsVaccount_id\np17188\nI40156177\nsVstart_time\np17189\nNsVlocations\np17190\n(lp17191\nI3\nasVadgroup_status\np17192\nI9\nsVad_status\np17193\nI2\nsVimpression_control_map\np17194\n(lp17195\n(dp17196\nVcontrol\np17197\n(dp17198\nVuser_impression_limit_period\np17199\nI24\nsVuser_impression_limit\np17200\nI3\nsVuser_impression_limit_period_unit\np17201\nI0\nsVimpression_control_type\np17202\nI2\nssVlocation\np17203\nI3\nsasVcreative_ids\np17204\n(lp17205\nI6006214148165\nasVtracking_pixel_ids\np17206\n(lp17207\nsVbid_type\np17208\nI1\nsVname\np17209\nVhttp://ad.doubleclick.net/clk;264495462;89854573;e?http://www.buzzfeed.com/h1/fbad/lenovo/10... - Ad\np17210\nsVupdated_time\np17211\nV2012-11-12T15:00:40+0000\np17212\nsVend_time\np17213\nV2012-11-13T07:30:00+0000\np17214\nsa(dp17215\nVbid_info\np17216\n(dp17217\nV1\np17218\nV65\np17219\nssVcampaign_id\np17220\nI6006214152565\nsVcreated_time\np17221\nV2012-11-09T15:35:41+0000\np17222\nsVconversion_specs\np17223\n(lp17224\nsVadgroup_id\np17225\nI6006214153565\nsVtargeting\np17226\n(dp17227\nVkeywords\np17228\n(lp17229\nV#Kitchen\np17230\naV#Good Housekeeping\np17231\naV#DIY Network\np17232\naV#Organizing\np17233\naV#Martha Stewart Living Omnimedia\np17234\naV#Martha Stewart Living\np17235\naV#Martha Stewart\np17236\naV#Better Homes and Gardens (magazine)\np17237\naV#Lifehacker\np17238\naV#Pinterest\np17239\nasVage_max\np17240\nI65\nsVcountries\np17241\n(lp17242\nVUS\np17243\nasVbroad_age\np17244\nI1\nsVage_min\np17245\nI13\nssVid\np17246\nV6006214153565\np17247\nsVobjective\np17248\nI2\nsVmax_bid\np17249\nV65\np17250\nsVad_id\np17251\nI6006214153565\nsVaccount_id\np17252\nI40156177\nsVstart_time\np17253\nNsVlocations\np17254\n(lp17255\nI3\nasVadgroup_status\np17256\nI1\nsVad_status\np17257\nI1\nsVimpression_control_map\np17258\n(lp17259\n(dp17260\nVcontrol\np17261\n(dp17262\nVuser_impression_limit_period\np17263\nI24\nsVuser_impression_limit\np17'
p6
sS'hash'
p7
S'a6ce9f3b2b1c5cf388b351d4ff1a5ec04eb65ec4'
p8
sS'stack'
p9
S''
s.