(dp1
S'args'
p2
S''
sS'methodname'
p3
S''
sS'packet_num'
p4
I160
sS'returnval'
p5
S'\np29582\naV#Ghirardelli Chocolate Company\np29583\naV#Allrecipes.com\np29584\naV#Epicurious\np29585\nasVage_max\np29586\nI65\nsVcountries\np29587\n(lp29588\nVUS\np29589\nasVbroad_age\np29590\nI1\nsVage_min\np29591\nI13\nssVid\np29592\nV6006377310165\np29593\nsVobjective\np29594\nI2\nsVmax_bid\np29595\nV65\np29596\nsVad_id\np29597\nI6006377310165\nsVaccount_id\np29598\nI40156177\nsVstart_time\np29599\nNsVlocations\np29600\n(lp29601\nI3\nasVadgroup_status\np29602\nI1\nsVad_status\np29603\nI1\nsVimpression_control_map\np29604\n(lp29605\n(dp29606\nVcontrol\np29607\n(dp29608\nVuser_impression_limit_period\np29609\nI24\nsVuser_impression_limit\np29610\nI3\nsVuser_impression_limit_period_unit\np29611\nI0\nsVimpression_control_type\np29612\nI2\nssVlocation\np29613\nI3\nsasVcreative_ids\np29614\n(lp29615\nI6006377274365\nasVtracking_pixel_ids\np29616\n(lp29617\nsVbid_type\np29618\nI1\nsVname\np29619\nVDesserts\np29620\nsVupdated_time\np29621\nV2012-11-23T20:55:04+0000\np29622\nsVend_time\np29623\nNsa(dp29624\nVbid_info\np29625\n(dp29626\nV1\np29627\nV65\np29628\nssVcampaign_id\np29629\nI6006377427165\nsVlast_updated_by_app_id\np29630\nI207192552749284\nsVcreated_time\np29631\nV2012-11-23T20:31:58+0000\np29632\nsVconversion_specs\np29633\n(lp29634\nsVadgroup_id\np29635\nI6006377427965\nsVtargeting\np29636\n(dp29637\nVkeywords\np29638\n(lp29639\nV#Food Network Magazine\np29640\naV#Top Chef: Just Desserts\np29641\naV#Top Chef Masters\np29642\naV#Food Network Challenge\np29643\naV#Kit Kat\np29644\naV#Food Network\np29645\naV#Paula Deen\np29646\naV#Giada at Home\np29647\naVallrecipescom\np29648\naV#Giada De Laurentiis\np29649\naV#Godiva Chocolatier\np29650\naV#Southern Food and Beverage Museum\np29651\naV#Iron Chef\np29652\naV#Emeril Lagasse\np29653\naV#Foodie\np29654\naV#The Next Food Network Star\np29655\naV#The Next Iron Chef\np29656\naV#Top Chef\np29657\naV#Cuisine of the Southern United States\np29658\naV#Iron Chef America\np29659\naV#Allrecipes.com\np29660\naV#Epicurious\np29661\naV#Top Chef Masters (season 1)\np29662\nasVage_max\np29663\nI65\nsVcountries\np29664\n(lp29665\nVUS\np29666\nasVbroad_age\np29667\nI1\nsVage_min\np29668\nI13\nssVid\np29669\nV6006377427965\np29670\nsVobjective\np29671\nI2\nsVmax_bid\np29672\nV65\np29673\nsVad_id\np29674\nI6006377427965\nsVaccount_id\np29675\nI40156177\nsVstart_time\np29676\nNsVlocations\np29677\n(lp29678\nI3\nasVadgroup_status\np29679\nI1\nsVad_status\np29680\nI1\nsVimpression_control_map\np29681\n(lp29682\n(dp29683\nVcontrol\np29684\n(dp29685\nVuser_impression_limit_period\np29686\nI24\nsVuser_impression_limit\np29687\nI6\nsVuser_impression_limit_period_unit\np29688\nI0\nsVimpression_control_type\np29689\nI2\nssVlocation\np29690\nI3\nsasVcreative_ids\np29691\n(lp29692\nI6006377458165\nasVtracking_pixel_ids\np29693\n(lp29694\nsVbid_type\np29695\nI1\nsVname\np29696\nVCooking\np29697\nsVupdated_time\np29698\nV2012-11-23T21:11:53+0000\np29699\nsVend_time\np29700\nNsa(dp29701\nVbid_info\np29702\n(dp29703\nV1\np29704\nV65\np29705\nssVcampaign_id\np29706\nI6006377427165\nsVlast_updated_by_app_id\np29707\nI207192552749284\nsVcreated_time\np29708\nV2012-11-23T20:35:04+0000\np29709\nsVconversion_specs\np29710\n(lp29711\nsVadgroup_id\np29712\nI6006377469365\nsVtargeting\np29713\n(dp29714\nVkeywords\np29715\n(lp29716\nV#Coca-Cola\np29717\naV#Diet Coke\np29718\naV#Coca-Cola Freestyle\np29719\naV#Coca-Cola Cherry\np29720\naV#My Coke Rewards\np29721\naV#The Coca-Cola Company\np29722\naV#Coca-Cola Zero\np29723\naV#Coca-Cola Vanilla\np29724\nasVage_max\np29725\nI65\nsVcountries\np29726\n(lp29727\nVUS\np29728\nasVbroad_age\np29729\nI1\nsVage_min\np29730\nI13\nssVid\np29731\nV6006377469365\np29732\nsVobjective\np29733\nI2\nsVmax_bid\np29734\nV65\np29735\nsVad_id\np29736\nI6006377469365\nsVaccount_id\np29737\nI40156177\nsVstart_time\np29738\nNsVlocations\np29739\n(lp29740\nI3\nasVadgroup_status\np29741\nI1\nsVad_status\np29742\nI1\nsVimpression_control_map\np29743\n(lp29744\n(dp29745\nVcontrol\np29746\n(dp29747\nVuser_impression_limit_period\np29748\nI24\nsVuser_impression_limit\np29749\nI3\nsVuser_impression_limit_period_unit\np29750\nI0\nsVimpression_control_type\np29751\nI2\nssVlocation\np29752\nI3\nsasVcreative_ids\np29753\n(lp29754\nI6006377458165\nasVtracking_pixel_ids\np29755\n(lp29756\nsVbid_type\np29757\nI1\nsVname\np29758\nVCoke\np29759\nsVupdated_time\np29760\nV2012-11-23T21:11:52+0000\np29761\nsVend_time\np29762\nNsa(dp29763\nVbid_info\np29764\n(dp29765\nV1\np29766\nV66\np2976'
p6
sS'hash'
p7
S'a6ce9f3b2b1c5cf388b351d4ff1a5ec04eb65ec4'
p8
sS'stack'
p9
S''
s.