(dp1
S'args'
p2
S''
sS'methodname'
p3
S''
sS'packet_num'
p4
I170
sS'returnval'
p5
S'p31402\nI6006452690765\nasVtracking_pixel_ids\np31403\n(lp31404\nsVbid_type\np31405\nI1\nsVname\np31406\nVhttp://ad.doubleclick.net/clk;265349090;91012994;m?http://www.buzzfeed.com/h1/fbad/quiznos/- Ad 1\np31407\nsVupdated_time\np31408\nV2012-11-30T15:34:40+0000\np31409\nsVend_time\np31410\nV2012-12-01T07:00:00+0000\np31411\nsa(dp31412\nVbid_info\np31413\n(dp31414\nV1\np31415\nV65\np31416\nssVcampaign_id\np31417\nI6006452011765\nsVlast_updated_by_app_id\np31418\nI207192552749284\nsVcreated_time\np31419\nV2012-11-27T16:15:55+0000\np31420\nsVconversion_specs\np31421\n(lp31422\nsVadgroup_id\np31423\nI6006452012765\nsVtargeting\np31424\n(dp31425\nVkeywords\np31426\n(lp31427\nV#Halo 2\np31428\naV#Halo 3: ODST\np31429\naV#Future Weapons\np31430\naV#Area 51\np31431\naV#Bungie\np31432\naV#DARPA\np31433\naV#District 9\np31434\naV#Gun\np31435\naV#Halo (megastructure)\np31436\naV#Xbox Live\np31437\naV#Halo: Reach\np31438\naV#Borderlands (video game)\np31439\naV#Halo Wars\np31440\naV#Halo 3\np31441\naV#Halo (series)\np31442\naV#Halo 4\np31443\naV#Weapon\np31444\naV#Borderlands 2\np31445\naV#Xbox 360\np31446\nasVage_max\np31447\nI65\nsVcountries\np31448\n(lp31449\nVUS\np31450\nasVbroad_age\np31451\nI1\nsVage_min\np31452\nI13\nssVid\np31453\nV6006452012765\np31454\nsVobjective\np31455\nI2\nsVmax_bid\np31456\nV65\np31457\nsVad_id\np31458\nI6006452012765\nsVaccount_id\np31459\nI40156177\nsVstart_time\np31460\nNsVlocations\np31461\n(lp31462\nI3\nasVadgroup_status\np31463\nI1\nsVad_status\np31464\nI1\nsVimpression_control_map\np31465\n(lp31466\n(dp31467\nVcontrol\np31468\n(dp31469\nVuser_impression_limit_period\np31470\nI24\nsVuser_impression_limit\np31471\nI6\nsVuser_impression_limit_period_unit\np31472\nI0\nsVimpression_control_type\np31473\nI2\nssVlocation\np31474\nI3\nsasVcreative_ids\np31475\n(lp31476\nI6006452012365\nasVtracking_pixel_ids\np31477\n(lp31478\nsVbid_type\np31479\nI1\nsVname\np31480\nVhttp://ad.doubleclick.net/clk;265243355;90891596;v?http://www.buzzfeed.com/h1/fbad/borderlan... - Ad\np31481\nsVupdated_time\np31482\nV2012-11-27T16:19:04+0000\np31483\nsVend_time\np31484\nNsa(dp31485\nVbid_info\np31486\n(dp31487\nV1\np31488\nV65\np31489\nssVcampaign_id\np31490\nI6006452091165\nsVlast_updated_by_app_id\np31491\nI207192552749284\nsVcreated_time\np31492\nV2012-11-27T16:24:04+0000\np31493\nsVconversion_specs\np31494\n(lp31495\nsVadgroup_id\np31496\nI6006452092165\nsVtargeting\np31497\n(dp31498\nVkeywords\np31499\n(lp31500\nV#Nick Offerman\np31501\naV#National Football League\np31502\naV#Bruce Willis\np31503\naV#SportsCenter\np31504\naV#Travis Pastrana\np31505\naV#Ron Swanson\np31506\naV#Call of Duty\np31507\naV#Sylvester Stallone\np31508\naV#Jason Statham\np31509\naV#Red Bull\np31510\naV#Arnold Schwarzenegger\np31511\naV#MMA Pro Fighter\np31512\naV#Steven Seagal\np31513\naV#The Expendables (2010 film)\np31514\naV#Chuck Norris\np31515\naV#Liam Neeson\np31516\naV#Mountain Dew\np31517\naV#Ultimate Fighting Championship\np31518\naV#The Expendables 2\np31519\naV#Tom Hardy\np31520\nasVage_max\np31521\nI65\nsVcountries\np31522\n(lp31523\nVUS\np31524\nasVbroad_age\np31525\nI1\nsVage_min\np31526\nI13\nssVid\np31527\nV6006452092165\np31528\nsVobjective\np31529\nI2\nsVmax_bid\np31530\nV65\np31531\nsVad_id\np31532\nI6006452092165\nsVaccount_id\np31533\nI40156177\nsVstart_time\np31534\nNsVlocations\np31535\n(lp31536\nI3\nasVadgroup_status\np31537\nI1\nsVad_status\np31538\nI1\nsVimpression_control_map\np31539\n(lp31540\n(dp31541\nVcontrol\np31542\n(dp31543\nVuser_impression_limit_period\np31544\nI24\nsVuser_impression_limit\np31545\nI6\nsVuser_impression_limit_period_unit\np31546\nI0\nsVimpression_control_type\np31547\nI2\nssVlocation\np31548\nI3\nsasVcreative_ids\np31549\n(lp31550\nI6006452091765\nasVtracking_pixel_ids\np31551\n(lp31552\nsVbid_type\np31553\nI1\nsVname\np31554\nVhttp://ad.doubleclick.net/clk;265243355;90891596;v?http://www.buzzfeed.com/h1/fbad/borderlan... - Ad\np31555\nsVupdated_time\np31556\nV2012-11-27T16:28:06+0000\np31557\nsVend_time\np31558\nNsa(dp31559\nVbid_info\np31560\n(dp31561\nV1\np31562\nV65\np31563\nssVcampaign_id\np31564\nI6006454306765\nsVlast_updated_by_app_id\np31565\nI207192552749284\nsVcreated_time\np31566\nV2012-11-27T18:26:15+0000\np31567\nsVconversion_specs\np31568\n(lp31569\nsVadgroup_id\np31570\nI6006454307765\nsVtargeting\np31571\n(dp31572\nVkeywords\np31573\n(lp31574\nV#I Can Has Cheezburger?\np31575\naV#Puss in Boots (Shrek)\np31576\naV#Maru (cat)\np3'
p6
sS'hash'
p7
S'a6ce9f3b2b1c5cf388b351d4ff1a5ec04eb65ec4'
p8
sS'stack'
p9
S''
s.