(dp1
S'args'
p2
S''
sS'methodname'
p3
S''
sS'packet_num'
p4
I4
sS'returnval'
p5
S'56177\nsVstart_time\np821\nNsVlocations\np822\n(lp823\nI3\nasVadgroup_status\np824\nI1\nsVad_status\np825\nI1\nsVimpression_control_map\np826\n(lp827\n(dp828\nVcontrol\np829\n(dp830\nVuser_impression_limit_period\np831\nI24\nsVuser_impression_limit\np832\nI6\nsVuser_impression_limit_period_unit\np833\nI0\nsVimpression_control_type\np834\nI2\nssVlocation\np835\nI3\nsasVcreative_ids\np836\n(lp837\nI6006028191565\nasVtracking_pixel_ids\np838\n(lp839\nsVbid_type\np840\nI1\nsVname\np841\nVPhotobomb Stingray\np842\nsVupdated_time\np843\nV2012-10-22T20:32:13+0000\np844\nsVend_time\np845\nV2012-10-24T06:14:00+0000\np846\nsa(dp847\nVbid_info\np848\n(dp849\nV1\np850\nV65\np851\nssVcampaign_id\np852\nI6006028187765\nsVlast_updated_by_app_id\np853\nI6802152230\nsVcreated_time\np854\nV2012-10-15T19:19:26+0000\np855\nsVconversion_specs\np856\n(lp857\nsVadgroup_id\np858\nI6006028188765\nsVtargeting\np859\n(dp860\nVkeywords\np861\n(lp862\nV#I Can Has Cheezburger?\np863\naV#Cuteness\np864\naV#Reddit\np865\naV#Dog\np866\naV#Funny or Die\np867\nasVage_max\np868\nI65\nsVcountries\np869\n(lp870\nVUS\np871\nasVbroad_age\np872\nI1\nsVage_min\np873\nI13\nssVid\np874\nV6006028188765\np875\nsVobjective\np876\nI2\nsVmax_bid\np877\nV65\np878\nsVad_id\np879\nI6006028188765\nsVaccount_id\np880\nI40156177\nsVstart_time\np881\nNsVlocations\np882\n(lp883\nI3\nasVadgroup_status\np884\nI9\nsVad_status\np885\nI2\nsVimpression_control_map\np886\n(lp887\n(dp888\nVcontrol\np889\n(dp890\nVuser_impression_limit_period\np891\nI24\nsVuser_impression_limit\np892\nI6\nsVuser_impression_limit_period_unit\np893\nI0\nsVimpression_control_type\np894\nI2\nssVlocation\np895\nI3\nsasVcreative_ids\np896\n(lp897\nI6006028188365\nasVtracking_pixel_ids\np898\n(lp899\nsVbid_type\np900\nI1\nsVname\np901\nVCommuter Dog\np902\nsVupdated_time\np903\nV2012-10-22T20:30:00+0000\np904\nsVend_time\np905\nV2012-10-24T06:14:00+0000\np906\nsa(dp907\nVbid_info\np908\n(dp909\nV1\np910\nV65\np911\nssVcampaign_id\np912\nI6006028199765\nsVlast_updated_by_app_id\np913\nI6802152230\nsVcreated_time\np914\nV2012-10-15T19:24:20+0000\np915\nsVconversion_specs\np916\n(lp917\nsVadgroup_id\np918\nI6006028200765\nsVtargeting\np919\n(dp920\nVkeywords\np921\n(lp922\nV#Halloween\np923\naV#Etsy\np924\naV#Dog\np925\naV#Pug\np926\nasVage_max\np927\nI65\nsVcountries\np928\n(lp929\nVUS\np930\nasVbroad_age\np931\nI1\nsVage_min\np932\nI13\nssVid\np933\nV6006028200765\np934\nsVobjective\np935\nI2\nsVmax_bid\np936\nV65\np937\nsVad_id\np938\nI6006028200765\nsVaccount_id\np939\nI40156177\nsVstart_time\np940\nNsVlocations\np941\n(lp942\nI3\nasVadgroup_status\np943\nI1\nsVad_status\np944\nI1\nsVimpression_control_map\np945\n(lp946\n(dp947\nVcontrol\np948\n(dp949\nVuser_impression_limit_period\np950\nI24\nsVuser_impression_limit\np951\nI3\nsVuser_impression_limit_period_unit\np952\nI0\nsVimpression_control_type\np953\nI2\nssVlocation\np954\nI3\nsasVcreative_ids\np955\n(lp956\nI6006028200365\nasVtracking_pixel_ids\np957\n(lp958\nsVbid_type\np959\nI1\nsVname\np960\nVPug\np961\nsVupdated_time\np962\nV2012-10-22T20:32:33+0000\np963\nsVend_time\np964\nV2012-10-24T06:20:00+0000\np965\nsa(dp966\nVbid_info\np967\n(dp968\nV1\np969\nV65\np970\nssVcampaign_id\np971\nI6006028199765\nsVlast_updated_by_app_id\np972\nI6802152230\nsVcreated_time\np973\nV2012-10-15T19:32:52+0000\np974\nsVconversion_specs\np975\n(lp976\nsVadgroup_id\np977\nI6006028329765\nsVtargeting\np978\n(dp979\nVkeywords\np980\n(lp981\nV#Halloween\np982\naV#Etsy\np983\naVpomeranian\np984\naV#Dog\np985\nasVage_max\np986\nI65\nsVcountries\np987\n(lp988\nVUS\np989\nasVbroad_age\np990\nI1\nsVage_min\np991\nI13\nssVid\np992\nV6006028329765\np993\nsVobjective\np994\nI2\nsVmax_bid\np995\nV65\np996\nsVad_id\np997\nI6006028329765\nsVaccount_id\np998\nI40156177\nsVstart_time\np999\nNsVlocations\np1000\n(lp1001\nI3\nasVadgroup_status\np1002\nI9\nsVad_status\np1003\nI2\nsVimpression_control_map\np1004\n(lp1005\n(dp1006\nVcontrol\np1007\n(dp1008\nVuser_impression_limit_period\np1009\nI24\nsVuser_impression_limit\np1010\nI6\nsVuser_impression_limit_period_unit\np1011\nI0\nsVimpression_control_type\np1012\nI2\nssVlocation\np1013\nI3\nsasVcreative_ids\np1014\n(lp1015\nI6006028329365\nasVtracking_pixel_ids\np1016\n(lp1017\nsVbid_type\np1018\nI1\nsVname\np1019\nVPomeranian\np1020\nsVupdated_time\np1021\nV2012-10-22T20:32:33+0000\np1022\nsVend_time\np1023\nV2012-10-24T06:20:00+0000\np1024\nsa(dp1025\nVbid_info\np1026\n(dp1027\nV1\np1028\nV65\np1029\nssVcampaign_id\np1030\nI6006028418565\nsVlast_updated_by_app_id\np1031\nI68'
p6
sS'hash'
p7
S'a6ce9f3b2b1c5cf388b351d4ff1a5ec04eb65ec4'
p8
sS'stack'
p9
S''
s.