(dp1
S'args'
p2
S''
sS'methodname'
p3
S''
sS'packet_num'
p4
I116
sS'returnval'
p5
S'aV#Ufology\np21748\naV#SETI Institute\np21749\naV#Syfy\np21750\naV#Cowboys & Aliens\np21751\naV#Architecture\np21752\naV#Belgium\np21753\nasVage_max\np21754\nI65\nsVcountries\np21755\n(lp21756\nVUS\np21757\nasVbroad_age\np21758\nI1\nsVage_min\np21759\nI13\nssVid\np21760\nV6006233613765\np21761\nsVobjective\np21762\nI2\nsVmax_bid\np21763\nV65\np21764\nsVad_id\np21765\nI6006233613765\nsVaccount_id\np21766\nI40156177\nsVstart_time\np21767\nNsVlocations\np21768\n(lp21769\nI3\nasVadgroup_status\np21770\nI9\nsVad_status\np21771\nI2\nsVimpression_control_map\np21772\n(lp21773\n(dp21774\nVcontrol\np21775\n(dp21776\nVuser_impression_limit_period\np21777\nI24\nsVuser_impression_limit\np21778\nI3\nsVuser_impression_limit_period_unit\np21779\nI0\nsVimpression_control_type\np21780\nI2\nssVlocation\np21781\nI3\nsasVcreative_ids\np21782\n(lp21783\nI6006236342965\nasVtracking_pixel_ids\np21784\n(lp21785\nsVbid_type\np21786\nI1\nsVname\np21787\nVhttp://www.buzzfeed.com/h1/fbad/pepsinext/15-things-that-were-definitely-made-by-aliens-5feb - Ad\np21788\nsVupdated_time\np21789\nV2012-11-15T14:07:32+0000\np21790\nsVend_time\np21791\nV2012-11-16T07:30:00+0000\np21792\nsa(dp21793\nVbid_info\np21794\n(dp21795\nV1\np21796\nV65\np21797\nssVcampaign_id\np21798\nI6006233612765\nsVlast_updated_by_app_id\np21799\nI6802152230\nsVcreated_time\np21800\nV2012-11-12T22:55:14+0000\np21801\nsVconversion_specs\np21802\n(lp21803\nsVadgroup_id\np21804\nI6006233615965\nsVtargeting\np21805\n(dp21806\nVkeywords\np21807\n(lp21808\nV#Aliens in the Attic\np21809\naV#The Faculty\np21810\naV#Aliens vs. Predator: Requiem\np21811\naV#Extraterrestrials in fiction\np21812\naV#Prometheus (film)\np21813\naV#E.T. the Extra-Terrestrial\np21814\naV#Outer space\np21815\naV#Signs (film)\np21816\naV#Hubble Space Telescope\np21817\naV#Area 51\np21818\naV#Roswell, New Mexico\np21819\naV#Alien abduction\np21820\naV#Ancient Aliens\np21821\naV#Roswell (TV series)\np21822\naV#Alien Attack\np21823\naV#Alien vs. Predator (film)\np21824\naV#Roswell UFO incident\np21825\naV#Aliens vs. Predator (video game)\np21826\naV#Aliens versus Predator (video game)\np21827\naV#Roger (American Dad!)\np21828\naV#Apollo 18 (film)\np21829\naV#Alien (film)\np21830\naV#Search for extraterrestrial intelligence\np21831\naV#Aliens (film)\np21832\naV#Paul (film)\np21833\naV#Astronomy\np21834\naV#Predator (alien)\np21835\naV#Extraterrestrial life\np21836\naV#Halo (series)\np21837\naV#Mars\np21838\naV#Ufology\np21839\naV#SETI Institute\np21840\naV#Cowboys & Aliens\np21841\naV#Architecture\np21842\nasVage_max\np21843\nI65\nsVcountries\np21844\n(lp21845\nVUS\np21846\nasVbroad_age\np21847\nI1\nsVage_min\np21848\nI13\nssVid\np21849\nV6006233615965\np21850\nsVobjective\np21851\nI2\nsVmax_bid\np21852\nV65\np21853\nsVad_id\np21854\nI6006233615965\nsVaccount_id\np21855\nI40156177\nsVstart_time\np21856\nNsVlocations\np21857\n(lp21858\nI3\nasVadgroup_status\np21859\nI9\nsVad_status\np21860\nI2\nsVimpression_control_map\np21861\n(lp21862\n(dp21863\nVcontrol\np21864\n(dp21865\nVuser_impression_limit_period\np21866\nI24\nsVuser_impression_limit\np21867\nI3\nsVuser_impression_limit_period_unit\np21868\nI0\nsVimpression_control_type\np21869\nI2\nssVlocation\np21870\nI3\nsasVcreative_ids\np21871\n(lp21872\nI6006236346165\nasVtracking_pixel_ids\np21873\n(lp21874\nsVbid_type\np21875\nI1\nsVname\np21876\nVhttp://www.buzzfeed.com/h1/fbad/pepsinext/15-things-that-were-definitely-made-by-aliens-5feb - Ad 1\np21877\nsVupdated_time\np21878\nV2012-11-15T14:07:27+0000\np21879\nsVend_time\np21880\nV2012-11-16T07:30:00+0000\np21881\nsa(dp21882\nVbid_info\np21883\n(dp21884\nV1\np21885\nV65\np21886\nssVcampaign_id\np21887\nI6006233651165\nsVlast_updated_by_app_id\np21888\nI207192552749284\nsVcreated_time\np21889\nV2012-11-14T18:46:51+0000\np21890\nsVconversion_specs\np21891\n(lp21892\nsVadgroup_id\np21893\nI6006244344365\nsVtargeting\np21894\n(dp21895\nVkeywords\np21896\n(lp21897\nV#Faith Evans\np21898\naV#Ice Cube\np21899\naV#Flavor Flav\np21900\naV#Snoop Dogg\np21901\naV#The Notorious B.I.G.\np21902\naV#Dr. Dre\np21903\naV#Holography\np21904\naV#Tupac\np21905\naV#Eazy-E\np21906\naV#Holographic principle\np21907\naV#Crips and Bloods: Made in America\np21908\naV#N.W.A\np21909\naV#Tupac: Resurrection\np21910\naV#Popular science\np21911\naV#Tupac Shakur Legacy\np21912\naV#Juice (film)\np21913\naV#Biggie & Tupac\np21914\naV#Boyz n the Hood\np21915\naV#Menace II Society\np21916\naV#Tupac Shak'
p6
sS'hash'
p7
S'a6ce9f3b2b1c5cf388b351d4ff1a5ec04eb65ec4'
p8
sS'stack'
p9
S''
s.