(dp1
S'args'
p2
S''
sS'methodname'
p3
S''
sS'packet_num'
p4
I3
sS'returnval'
p5
S'-15T18:14:47+0000\np606\nsVconversion_specs\np607\n(lp608\nsVadgroup_id\np609\nI6006027900965\nsVtargeting\np610\n(dp611\nVkeywords\np612\n(lp613\nV#I Can Has Cheezburger?\np614\naV#Cuteness\np615\naV#Chips\np616\naV#Pringles\np617\naV#Dog\np618\naV#BuzzFeed\np619\nasVage_max\np620\nI65\nsVcountries\np621\n(lp622\nVUS\np623\nasVbroad_age\np624\nI1\nsVage_min\np625\nI13\nssVid\np626\nV6006027900965\np627\nsVobjective\np628\nI2\nsVmax_bid\np629\nV65\np630\nsVad_id\np631\nI6006027900965\nsVaccount_id\np632\nI40156177\nsVstart_time\np633\nNsVlocations\np634\n(lp635\nI3\nasVadgroup_status\np636\nI9\nsVad_status\np637\nI2\nsVimpression_control_map\np638\n(lp639\n(dp640\nVcontrol\np641\n(dp642\nVuser_impression_limit_period\np643\nI24\nsVuser_impression_limit\np644\nI3\nsVuser_impression_limit_period_unit\np645\nI0\nsVimpression_control_type\np646\nI2\nssVlocation\np647\nI3\nsasVcreative_ids\np648\n(lp649\nI6006027900565\nasVtracking_pixel_ids\np650\n(lp651\nsVbid_type\np652\nI1\nsVname\np653\nVhttp://ad.doubleclick.net/clk;263772540;89472728;w - Ad 1\np654\nsVupdated_time\np655\nV2012-11-07T20:59:52+0000\np656\nsVend_time\np657\nV2012-11-09T07:03:00+0000\np658\nsa(dp659\nVbid_info\np660\n(dp661\nV1\np662\nV65\np663\nssVcampaign_id\np664\nI6006027930565\nsVlast_updated_by_app_id\np665\nI6802152230\nsVcreated_time\np666\nV2012-10-15T18:21:32+0000\np667\nsVconversion_specs\np668\n(lp669\nsVadgroup_id\np670\nI6006027931565\nsVtargeting\np671\n(dp672\nVkeywords\np673\n(lp674\nV#I Can Has Cheezburger?\np675\naV#Animal Planet\np676\naV#Cuteness\np677\naV#Marine biology\np678\naV#Walrus\np679\naV#Babies\np680\nasVage_max\np681\nI65\nsVcountries\np682\n(lp683\nVUS\np684\nasVbroad_age\np685\nI1\nsVage_min\np686\nI13\nssVid\np687\nV6006027931565\np688\nsVobjective\np689\nI2\nsVmax_bid\np690\nV65\np691\nsVad_id\np692\nI6006027931565\nsVaccount_id\np693\nI40156177\nsVstart_time\np694\nNsVlocations\np695\n(lp696\nI3\nasVadgroup_status\np697\nI1\nsVad_status\np698\nI1\nsVimpression_control_map\np699\n(lp700\n(dp701\nVcontrol\np702\n(dp703\nVuser_impression_limit_period\np704\nI24\nsVuser_impression_limit\np705\nI3\nsVuser_impression_limit_period_unit\np706\nI0\nsVimpression_control_type\np707\nI2\nssVlocation\np708\nI3\nsasVcreative_ids\np709\n(lp710\nI6006027931165\nasVtracking_pixel_ids\np711\n(lp712\nsVbid_type\np713\nI1\nsVname\np714\nVBaby Walrus\np715\nsVupdated_time\np716\nV2012-10-16T04:00:44+0000\np717\nsVend_time\np718\nNsa(dp719\nVbid_info\np720\n(dp721\nV1\np722\nV65\np723\nssVcampaign_id\np724\nI6006027930565\nsVlast_updated_by_app_id\np725\nI6802152230\nsVcreated_time\np726\nV2012-10-15T18:24:45+0000\np727\nsVconversion_specs\np728\n(lp729\nsVadgroup_id\np730\nI6006027942965\nsVtargeting\np731\n(dp732\nVkeywords\np733\n(lp734\nV#I Can Has Cheezburger?\np735\naV#Sea lion\np736\naV#Animal Planet\np737\naV#Cuteness\np738\naV#Marine biology\np739\naV#Babies\np740\naV#Bulla (seal)\np741\nasVage_max\np742\nI65\nsVcountries\np743\n(lp744\nVUS\np745\nasVbroad_age\np746\nI1\nsVage_min\np747\nI13\nssVid\np748\nV6006027942965\np749\nsVobjective\np750\nI2\nsVmax_bid\np751\nV65\np752\nsVad_id\np753\nI6006027942965\nsVaccount_id\np754\nI40156177\nsVstart_time\np755\nNsVlocations\np756\n(lp757\nI3\nasVadgroup_status\np758\nI9\nsVad_status\np759\nI2\nsVimpression_control_map\np760\n(lp761\n(dp762\nVcontrol\np763\n(dp764\nVuser_impression_limit_period\np765\nI24\nsVuser_impression_limit\np766\nI6\nsVuser_impression_limit_period_unit\np767\nI0\nsVimpression_control_type\np768\nI2\nssVlocation\np769\nI3\nsasVcreative_ids\np770\n(lp771\nI6006027942565\nasVtracking_pixel_ids\np772\n(lp773\nsVbid_type\np774\nI1\nsVname\np775\nVSea Lion\np776\nsVupdated_time\np777\nV2012-10-16T13:41:07+0000\np778\nsVend_time\np779\nNsa(dp780\nVbid_info\np781\n(dp782\nV1\np783\nV65\np784\nssVcampaign_id\np785\nI6006028187765\nsVcreated_time\np786\nV2012-10-15T19:20:16+0000\np787\nsVconversion_specs\np788\n(lp789\nsVadgroup_id\np790\nI6006028191965\nsVtargeting\np791\n(dp792\nVkeywords\np793\n(lp794\nV#I Can Has Cheezburger?\np795\naV#Fail Blog\np796\naV#Lolcat\np797\naV#Cuteness\np798\naV#The Atlantic\np799\naV#Stingray\np800\naV#21 Questions\np801\naV#Marine biology\np802\naV#Reddit\np803\naV#BuzzFeed\np804\naV#Gawker\np805\naV#Funny or Die\np806\naV#Aquarium\np807\nasVage_max\np808\nI65\nsVcountries\np809\n(lp810\nVUS\np811\nasVbroad_age\np812\nI1\nsVage_min\np813\nI13\nssVid\np814\nV6006028191965\np815\nsVobjective\np816\nI2\nsVmax_bid\np817\nV65\np818\nsVad_id\np819\nI6006028191965\nsVaccount_id\np820\nI401'
p6
sS'hash'
p7
S'a6ce9f3b2b1c5cf388b351d4ff1a5ec04eb65ec4'
p8
sS'stack'
p9
S''
s.