(dp1
S'args'
p2
S''
sS'methodname'
p3
S''
sS'packet_num'
p4
I166
sS'returnval'
p5
S'ers" brought to you by BuzzFeed!\np20243\nsVimage_hash\np20244\nVb8f566ad1b6da4097eb5aaabde0001a8\np20245\nsVname\np20246\nV10 Famous Pranksters-02\np20247\nsVtitle\np20248\nV10 Famous Pranksters\np20249\nsVcreative_id\np20250\nV6004059749965\np20251\nsVpreview_url\np20252\nVhttp://www.facebook.com/ads/api/creative_preview.php?cid=6004059749965\np20253\nsVid\np20254\nV6004059749965\np20255\nsVimage_url\np20256\nVhttps://fbcdn-creative-a.akamaihd.net/hads-ak-prn1/s110x80/708169_6006845159965_3714_n.jpg\np20257\nsVcount_current_adgroups\np20258\nI0\nsVrun_status\np20259\nI1\nsVtype\np20260\nI1\nsVlink_url\np20261\nVhttp://www.buzzfeed.com/h1/fba/sailorjerryrum/cool-and-unusual-ways-to-travel-in-style\np20262\nsVview_tag\np20263\ng1826\nsa(dp20264\nValt_view_tags\np20265\n(lp20266\nsVbody\np20267\nVCheck out these hilarious pranks by Will Ferrell and other actors in Sailor Jerry\'s "10 Famous Pranksters" brought to you by BuzzFeed!\np20268\nsVimage_hash\np20269\nV59b9b1e5b4b8c959d6f048e2d02ff663\np20270\nsVname\np20271\nV10 Famous Pranksters-01\np20272\nsVtitle\np20273\nV10 Famous Pranksters\np20274\nsVcreative_id\np20275\nV6004059745165\np20276\nsVpreview_url\np20277\nVhttp://www.facebook.com/ads/api/creative_preview.php?cid=6004059745165\np20278\nsVid\np20279\nV6004059745165\np20280\nsVimage_url\np20281\nVhttps://fbcdn-creative-a.akamaihd.net/hads-ak-prn1/s110x80/708164_6006844607365_2486_n.jpg\np20282\nsVcount_current_adgroups\np20283\nI0\nsVrun_status\np20284\nI1\nsVtype\np20285\nI1\nsVlink_url\np20286\nVhttp://www.buzzfeed.com/h1/fba/sailorjerryrum/cool-and-unusual-ways-to-travel-in-style\np20287\nsVview_tag\np20288\ng1826\nsa(dp20289\nValt_view_tags\np20290\n(lp20291\nsVbody\np20292\nVCheck out BuzzFeed\'s list of "10 Modern Day Renaissance Men". Steve Jobs is one of them - Let us know who we missed!\np20293\nsVimage_hash\np20294\nVd7254edd666aff1494c1fe7a70a16891\np20295\nsVname\np20296\nVBuzzFeed Partner-2011-11-15-e33b681265930de531dd821173954104\np20297\nsVtitle\np20298\ng1826\nsVcreative_id\np20299\nV6004017371565\np20300\nsVpreview_url\np20301\nVhttp://www.facebook.com/ads/api/creative_preview.php?cid=6004017371565\np20302\nsVobject_id\np20303\nI238205562866018\nsVid\np20304\nV6004017371565\np20305\nsVimage_url\np20306\nVhttps://fbcdn-creative-a.akamaihd.net/hads-ak-ash3/s110x80/708189_6006845334765_19199_n.jpg\np20307\nsVcount_current_adgroups\np20308\nI0\nsVrun_status\np20309\nI1\nsVtype\np20310\nI2\nsVlink_url\np20311\nVhttp://www.facebook.com/BuzzFeedPartner?sk=wall\np20312\nsVview_tag\np20313\ng1826\nsa(dp20314\nValt_view_tags\np20315\n(lp20316\nsVbody\np20317\nVThis unfortunate Jerry Sandusky profile written in 1999, with good intentions at the time, reveals a lot.  Read more only at Slate!\np20318\nsVimage_hash\np20319\nVc48c9b891c0c1800bef50558a527caed\np20320\nsVname\np20321\nVJerry Sandusky Profile\np20322\nsVtitle\np20323\nVJerry Sandusky Profile\np20324\nsVcreative_id\np20325\nV6004009841565\np20326\nsVpreview_url\np20327\nVhttp://www.facebook.com/ads/api/creative_preview.php?cid=6004009841565\np20328\nsVid\np20329\nV6004009841565\np20330\nsVimage_url\np20331\nVhttps://fbcdn-creative-a.akamaihd.net/hads-ak-ash3/s110x80/701899_6006845229765_42032_n.jpg\np20332\nsVcount_current_adgroups\np20333\nI0\nsVrun_status\np20334\nI1\nsVtype\np20335\nI1\nsVlink_url\np20336\nVhttp://www.slate.com/blogs/browbeat/2011/11/10/jerry_sandusky_profile_the_most_unfortunate_one_ever_written.html#bfsrc=HFBA2\np20337\nsVview_tag\np20338\ng1826\nsa(dp20339\nValt_view_tags\np20340\n(lp20341\nsVbody\np20342\nVShow us in one picture what your school is known for. See what we have so far, and remember to "Like" our page for more great stuff!\np20343\nsVimage_hash\np20344\nVf8e33bf80b9974520901e4c77d2c43c3\np20345\nsVname\np20346\nVBuzzFeed Partner-47\np20347\nsVtitle\np20348\ng1826\nsVcreative_id\np20349\nV6003943293365\np20350\nsVpreview_url\np20351\nVhttp://www.facebook.com/ads/api/creative_preview.php?cid=6003943293365\np20352\nsVobject_id\np20353\nI238205562866018\nsVid\np20354\nV6003943293365\np20355\nsVimage_url\np20356\nVhttps://fbcdn-creative-a.akamaihd.net/hads-ak-prn1/s110x80/708189_6006845559565_399_n.jpg\np20357\nsVcount_current_adgroups\np20358\nI0\nsVrun_status\np20359\nI1\nsVtype\np20360\nI2\nsVlink_url\np20361\nVhttp://www.facebook.com/BuzzFeedPartner?sk=wall\np20'
p6
sS'hash'
p7
S'a9dd0041d6493eeedf66ffcc70bd4a6ab8baad8e'
p8
sS'stack'
p9
S''
s.