(dp1
S'args'
p2
S''
sS'methodname'
p3
S''
sS'packet_num'
p4
I165
sS'returnval'
p5
S'p20124\nsVcreative_id\np20125\nV6004077297365\np20126\nsVpreview_url\np20127\nVhttp://www.facebook.com/ads/api/creative_preview.php?cid=6004077297365\np20128\nsVid\np20129\nV6004077297365\np20130\nsVimage_url\np20131\nVhttps://fbcdn-creative-a.akamaihd.net/hads-ak-ash3/s110x80/701901_6006844713565_6321_n.jpg\np20132\nsVcount_current_adgroups\np20133\nI0\nsVrun_status\np20134\nI1\nsVtype\np20135\nI1\nsVlink_url\np20136\nVhttp://www.buzzfeed.com/h1/fba/wouldyourather/funniest-responses-to-the-most-absurd-scenarios\np20137\nsVview_tag\np20138\ng1826\nsa(dp20139\nValt_view_tags\np20140\n(lp20141\nsVbody\np20142\nVCheck out these clips of Lady Gaga and other stars doing crazy things in "15 Things You\'ll Only See American Celebs Do On British TV"\np20143\nsVimage_hash\np20144\nVe1d00741f1a08982f884532983a7fe15\np20145\nsVname\np20146\nVAmericans on British TV-01\np20147\nsVtitle\np20148\nVAmericans on British TV\np20149\nsVcreative_id\np20150\nV6004059966165\np20151\nsVpreview_url\np20152\nVhttp://www.facebook.com/ads/api/creative_preview.php?cid=6004059966165\np20153\nsVid\np20154\nV6004059966165\np20155\nsVimage_url\np20156\nVhttps://fbcdn-creative-a.akamaihd.net/hads-ak-prn1/s110x80/708157_6006845410765_25024_n.jpg\np20157\nsVcount_current_adgroups\np20158\nI0\nsVrun_status\np20159\nI1\nsVtype\np20160\nI1\nsVlink_url\np20161\nVhttp://www.buzzfeed.com/h1/fba/wouldyourather/things-youll-only-see-american-celebs-do-on-briti\np20162\nsVview_tag\np20163\ng1826\nsa(dp20164\nValt_view_tags\np20165\n(lp20166\nsVbody\np20167\nVGraham Norton brings you the best of your favorite celebs on British Panel shows  in "Funniest Responses To The Most Absurd Scenarios"\np20168\nsVimage_hash\np20169\nV3eb8f58aa70fa5431068c984916cd17f\np20170\nsVname\np20171\nVThe Funniest Responses!-00\np20172\nsVtitle\np20173\nVThe Funniest Responses!\np20174\nsVcreative_id\np20175\nV6004077310965\np20176\nsVpreview_url\np20177\nVhttp://www.facebook.com/ads/api/creative_preview.php?cid=6004077310965\np20178\nsVid\np20179\nV6004077310965\np20180\nsVimage_url\np20181\nVhttps://fbcdn-creative-a.akamaihd.net/hads-ak-ash3/s110x80/708157_6006844418765_1404_n.jpg\np20182\nsVcount_current_adgroups\np20183\nI0\nsVrun_status\np20184\nI1\nsVtype\np20185\nI1\nsVlink_url\np20186\nVhttp://www.buzzfeed.com/h1/fba/wouldyourather/funniest-responses-to-the-most-absurd-scenarios\np20187\nsVview_tag\np20188\ng1826\nsa(dp20189\nValt_view_tags\np20190\n(lp20191\nsVbody\np20192\nVCheck out these hilarious pranks by Will Ferrell and other actors in "10 Famous Pranksters" by Sailor Jerry and BuzzFeed!\np20193\nsVimage_hash\np20194\nV59b9b1e5b4b8c959d6f048e2d02ff663\np20195\nsVname\np20196\nV10 Famous Pranksters-07\np20197\nsVtitle\np20198\nV10 Famous Pranksters\np20199\nsVcreative_id\np20200\nV6004059818365\np20201\nsVpreview_url\np20202\nVhttp://www.facebook.com/ads/api/creative_preview.php?cid=6004059818365\np20203\nsVid\np20204\nV6004059818365\np20205\nsVimage_url\np20206\nVhttps://fbcdn-creative-a.akamaihd.net/hads-ak-prn1/s110x80/708164_6006844607365_2486_n.jpg\np20207\nsVcount_current_adgroups\np20208\nI0\nsVrun_status\np20209\nI1\nsVtype\np20210\nI1\nsVlink_url\np20211\nVhttp://www.buzzfeed.com/h1/fba/sailorjerryrum/10-famous-pranksters\np20212\nsVview_tag\np20213\ng1826\nsa(dp20214\nValt_view_tags\np20215\n(lp20216\nsVbody\np20217\nVCheck out pranks by Brad Pitt and other unexpected famous actors in Sailor Jerry\'s "10 Famous Pranksters" brought to you by BuzzFeed!\np20218\nsVimage_hash\np20219\nVb8f566ad1b6da4097eb5aaabde0001a8\np20220\nsVname\np20221\nV10 Famous Pranksters\np20222\nsVtitle\np20223\nV10 Famous Pranksters\np20224\nsVcreative_id\np20225\nV6004059735165\np20226\nsVpreview_url\np20227\nVhttp://www.facebook.com/ads/api/creative_preview.php?cid=6004059735165\np20228\nsVid\np20229\nV6004059735165\np20230\nsVimage_url\np20231\nVhttps://fbcdn-creative-a.akamaihd.net/hads-ak-prn1/s110x80/708169_6006845159965_3714_n.jpg\np20232\nsVcount_current_adgroups\np20233\nI0\nsVrun_status\np20234\nI1\nsVtype\np20235\nI1\nsVlink_url\np20236\nVhttp://www.buzzfeed.com/h1/fba/sailorjerryrum/cool-and-unusual-ways-to-travel-in-style\np20237\nsVview_tag\np20238\ng1826\nsa(dp20239\nValt_view_tags\np20240\n(lp20241\nsVbody\np20242\nVCheck out these hilarious pranks by Brad Pitt and other actors in Sailor Jerry\'s "10 Famous Prankst'
p6
sS'hash'
p7
S'a9dd0041d6493eeedf66ffcc70bd4a6ab8baad8e'
p8
sS'stack'
p9
S''
s.