(dp1
S'args'
p2
S''
sS'methodname'
p3
S''
sS'packet_num'
p4
I151
sS'returnval'
p5
S'63\nVThis is pretty much the \np18364\nsVcreative_id\np18365\nV6004786885565\np18366\nsVpreview_url\np18367\nVhttp://www.facebook.com/ads/api/creative_preview.php?cid=6004786885565\np18368\nsVid\np18369\nV6004786885565\np18370\nsVimage_url\np18371\nVhttps://fbcdn-creative-a.akamaihd.net/hads-ak-prn1/s110x80/708171_6006845446765_44975_n.jpg\np18372\nsVcount_current_adgroups\np18373\nI0\nsVrun_status\np18374\nI1\nsVtype\np18375\nI1\nsVlink_url\np18376\nVhttp://buzzfeed.com/ht/scott/this-is-pretty-much-the-only-thing-ive-u3fb-b/HFAA1\np18377\nsVview_tag\np18378\ng1826\nsa(dp18379\nValt_view_tags\np18380\n(lp18381\nsVbody\np18382\nVNow that the Bieb is legal, the world of Beliebers has officially taken things. . .adult. Stevie Ryan imagines a world where Bieb fina\np18383\nsVimage_hash\np18384\nVbe7f2d9eb1b2620fd30ae2c7c71471b3\np18385\nsVname\np18386\nVBiebers Bang Bus\np18387\nsVtitle\np18388\nVBiebers Bang Bus\np18389\nsVcreative_id\np18390\nV6004852523565\np18391\nsVpreview_url\np18392\nVhttp://www.facebook.com/ads/api/creative_preview.php?cid=6004852523565\np18393\nsVid\np18394\nV6004852523565\np18395\nsVimage_url\np18396\nVhttps://fbcdn-creative-a.akamaihd.net/hads-ak-prn1/s110x80/708178_6006845194565_31721_n.jpg\np18397\nsVcount_current_adgroups\np18398\nI0\nsVrun_status\np18399\nI1\nsVtype\np18400\nI1\nsVlink_url\np18401\nVhttp://buzzfeed.com/ht/vh1/biebers-bang-bus-5htt/HFAA1\np18402\nsVview_tag\np18403\ng1826\nsa(dp18404\nValt_view_tags\np18405\n(lp18406\nsVbody\np18407\nVKids love Lady Gaga and kids also love dolls why not give your child Lady Gagas newest invention "Gender Dolls. " StevieTVs Stevie R\np18408\nsVimage_hash\np18409\nV74746084033708ee9cdb085b81e1defa\np18410\nsVname\np18411\nVLady Gagas Gender Dolls\np18412\nsVtitle\np18413\nVLady Gagas Gender Dolls\np18414\nsVcreative_id\np18415\nV6004852525965\np18416\nsVpreview_url\np18417\nVhttp://www.facebook.com/ads/api/creative_preview.php?cid=6004852525965\np18418\nsVid\np18419\nV6004852525965\np18420\nsVimage_url\np18421\nVhttps://fbcdn-creative-a.akamaihd.net/hads-ak-ash3/s110x80/701898_6006844753565_49998_n.jpg\np18422\nsVcount_current_adgroups\np18423\nI0\nsVrun_status\np18424\nI1\nsVtype\np18425\nI1\nsVlink_url\np18426\nVhttp://buzzfeed.com/ht/vh1/lady-gagas-gender-dolls-5htt/HFAA1\np18427\nsVview_tag\np18428\ng1826\nsa(dp18429\nValt_view_tags\np18430\n(lp18431\nsVbody\np18432\nVFeed your brain audio books with a free 30day trial from Audible.com. Choose from more than 100,000 titles to download and listen any\np18433\nsVimage_hash\np18434\nV628eaa7984b8cd41fb619dab11d14a6c\np18435\nsVname\np18436\nVDownload Your Free Audio\np18437\nsVtitle\np18438\nVDownload Your Free Audio\np18439\nsVcreative_id\np18440\nV6004879953565\np18441\nsVpreview_url\np18442\nVhttp://www.facebook.com/ads/api/creative_preview.php?cid=6004879953565\np18443\nsVid\np18444\nV6004879953565\np18445\nsVimage_url\np18446\nVhttps://fbcdn-creative-a.akamaihd.net/hads-ak-prn1/s110x80/708157_6006844652765_91_n.jpg\np18447\nsVcount_current_adgroups\np18448\nI0\nsVrun_status\np18449\nI1\nsVtype\np18450\nI1\nsVlink_url\np18451\nVhttp://buzzfeed.com/ht/audible/download-your-free-audiobook-from-audiblecom-5kua/HFAA1\np18452\nsVview_tag\np18453\ng1826\nsa(dp18454\nValt_view_tags\np18455\n(lp18456\nsVbody\np18457\nVFeed your brain audio books with a free 30day trial from Audible.com. Choose from more than 100,000 titles to download and listen any\np18458\nsVimage_hash\np18459\nVae1cdba3ffb437e7eb2b2955ba453a05\np18460\nsVname\np18461\nVFree Audiobook From Audi\np18462\nsVtitle\np18463\nVFree Audiobook From Audi\np18464\nsVcreative_id\np18465\nV6004879956765\np18466\nsVpreview_url\np18467\nVhttp://www.facebook.com/ads/api/creative_preview.php?cid=6004879956765\np18468\nsVid\np18469\nV6004879956765\np18470\nsVimage_url\np18471\nVhttps://fbcdn-creative-a.akamaihd.net/hads-ak-prn1/s110x80/708196_6006845097365_21761_n.jpg\np18472\nsVcount_current_adgroups\np18473\nI0\nsVrun_status\np18474\nI1\nsVtype\np18475\nI1\nsVlink_url\np18476\nVhttp://buzzfeed.com/ht/audible/free-audiobook-from-audiblecom-choose-from-100-5kua/HFAA1\np18477\nsVview_tag\np18478\ng1826\nsa(dp18479\nValt_view_tags\np18480\n(lp18481\nsVbody\np18482\nVIf you appreciate the beauty of this engine - Check out all the other "Stunning Pictures Of Powerful Engines" on BuzzFeed!\np18483'
p6
sS'hash'
p7
S'a9dd0041d6493eeedf66ffcc70bd4a6ab8baad8e'
p8
sS'stack'
p9
S''
s.