(dp1
S'args'
p2
S''
sS'methodname'
p3
S''
sS'packet_num'
p4
I32
sS'returnval'
p5
S' Check it out & more @ Cory Arcangel\'s exhibit in NYC.\np3104\nsVimage_hash\np3105\nV0aa16c8b98c35f01f851c9547a4ce88d\np3106\nsVname\np3107\nVAwesome Supercut!\np3108\nsVtitle\np3109\nVAwesome Supercut!\np3110\nsVcreative_id\np3111\nV6003619187765\np3112\nsVpreview_url\np3113\nVhttp://www.facebook.com/ads/api/creative_preview.php?cid=6003619187765\np3114\nsVid\np3115\nV6003619187765\np3116\nsVimage_url\np3117\nVhttps://fbcdn-creative-a.akamaihd.net/hads-ak-prn1/s110x80/708170_6006844116165_25312_n.jpg\np3118\nsVcount_current_adgroups\np3119\nI0\nsVrun_status\np3120\nI1\nsVtype\np3121\nI1\nsVlink_url\np3122\nVhttp://bzfd.it/qQG2aH\np3123\nsVview_tag\np3124\ng1826\nsa(dp3125\nValt_view_tags\np3126\n(lp3127\nsVbody\np3128\nVHis real name is Thomas DeCarlo Callaway. Think you know everything about him? Check out these other fun facts you may not have known.\np3129\nsVimage_hash\np3130\nV9b293c06637ff00233de28ad11c43027\np3131\nsVname\np3132\nVFacts About Cee Lo Green\np3133\nsVtitle\np3134\nVFacts About Cee Lo Green\np3135\nsVcreative_id\np3136\nV6003487815365\np3137\nsVpreview_url\np3138\nVhttp://www.facebook.com/ads/api/creative_preview.php?cid=6003487815365\np3139\nsVid\np3140\nV6003487815365\np3141\nsVimage_url\np3142\nVhttps://fbcdn-creative-a.akamaihd.net/hads-ak-ash3/s110x80/701900_6006844977165_52815_n.jpg\np3143\nsVcount_current_adgroups\np3144\nI0\nsVrun_status\np3145\nI1\nsVtype\np3146\nI1\nsVlink_url\np3147\nVhttp://bit.ly/inmE4o\np3148\nsVview_tag\np3149\ng1826\nsa(dp3150\nValt_view_tags\np3151\n(lp3152\nsVbody\np3153\nVYou never can tell what Cee Lo Green will do next. From his funny lyrics to his creative outfits, here\'s some of his best moments.\np3154\nsVimage_hash\np3155\nV299cf8dbfdbcf68c9faeaf0722804e53\np3156\nsVname\np3157\nVThe Best Of Cee Lo Green\np3158\nsVtitle\np3159\nVThe Best Of Cee Lo Green\np3160\nsVcreative_id\np3161\nV6003509856765\np3162\nsVpreview_url\np3163\nVhttp://www.facebook.com/ads/api/creative_preview.php?cid=6003509856765\np3164\nsVid\np3165\nV6003509856765\np3166\nsVimage_url\np3167\nVhttps://fbcdn-creative-a.akamaihd.net/hads-ak-prn1/s110x80/708172_6006844305965_25007_n.jpg\np3168\nsVcount_current_adgroups\np3169\nI0\nsVrun_status\np3170\nI1\nsVtype\np3171\nI1\nsVlink_url\np3172\nVhttp://bit.ly/j8uSO9\np3173\nsVview_tag\np3174\ng1826\nsa(dp3175\nValt_view_tags\np3176\n(lp3177\nsVbody\np3178\nVCee Lo Green takes you into his world with an exclusive documentary. Watch the trailer here, and find out how to see it in full.\np3179\nsVimage_hash\np3180\nVe28a35652a7cb190c0bb5121aa93b566\np3181\nsVname\np3182\nVCee Lo Green Documentary\np3183\nsVtitle\np3184\nVCee Lo Green Documentary\np3185\nsVcreative_id\np3186\nV6003587452165\np3187\nsVpreview_url\np3188\nVhttp://www.facebook.com/ads/api/creative_preview.php?cid=6003587452165\np3189\nsVid\np3190\nV6003587452165\np3191\nsVimage_url\np3192\nVhttps://fbcdn-creative-a.akamaihd.net/hads-ak-prn1/s110x80/708157_6006845414165_2992_n.jpg\np3193\nsVcount_current_adgroups\np3194\nI0\nsVrun_status\np3195\nI1\nsVtype\np3196\nI1\nsVlink_url\np3197\nVhttp://bzfd.it/pvxdBy\np3198\nsVview_tag\np3199\ng1826\nsa(dp3200\nValt_view_tags\np3201\n(lp3202\nsVbody\np3203\nVCheck out the rest of the"18 of The Most Refreshing Things in the World" -All on Buzzfeed!\np3204\nsVimage_hash\np3205\nV14023f1fba03a7497af9ba64c3a28941\np3206\nsVname\np3207\nVCelebrities Settling Down\np3208\nsVtitle\np3209\nVCelebrities Settling Down\np3210\nsVcreative_id\np3211\nV6005542543365\np3212\nsVpreview_url\np3213\nVhttp://www.facebook.com/ads/api/creative_preview.php?cid=6005542543365\np3214\nsVid\np3215\nV6005542543365\np3216\nsVimage_url\np3217\nVhttps://fbcdn-creative-a.akamaihd.net/hads-ak-prn1/s110x80/708194_6006844174165_60248_n.jpg\np3218\nsVcount_current_adgroups\np3219\nI0\nsVrun_status\np3220\nI1\nsVtype\np3221\nI1\nsVlink_url\np3222\nVhttp://www.buzzfeed.com/h1/fbad/mikeshardlemonade/18-of-the-most-refreshing-things-in-the-world-6j5c\np3223\nsVview_tag\np3224\ng1826\nsa(dp3225\nValt_view_tags\np3226\n(lp3227\nsVbody\np3228\nVThese major players helped influence entire movements of art, film, music, clothing, and stories. Find out who they are.\np3229\nsVimage_hash\np3230\nV44994d279d57b6a4a30883e30a56b00c\np3231\nsVname\np3232\nVPioneers of Pop Culture\np3233\nsVtitle\np3234\nVPioneers of Pop Culture\np3235\nsVcreative_id\np3236\nV60034'
p6
sS'hash'
p7
S'a9dd0041d6493eeedf66ffcc70bd4a6ab8baad8e'
p8
sS'stack'
p9
S''
s.