(dp1
S'args'
p2
S''
sS'methodname'
p3
S''
sS'packet_num'
p4
I36
sS'returnval'
p5
S"7\nVhttps://fbcdn-creative-a.akamaihd.net/hads-ak-prn1/s110x80/708160_6006844816565_26952_n.jpg\np3618\nsVcount_current_adgroups\np3619\nI0\nsVrun_status\np3620\nI1\nsVtype\np3621\nI1\nsVlink_url\np3622\nVhttp://www.buzzfeed.com/ht/ianschrager/10-interesting-historic-facts-about-the-famous-pum/HFBA1\np3623\nsVview_tag\np3624\ng1826\nsa(dp3625\nValt_view_tags\np3626\n(lp3627\nsVbody\np3628\nVDid you know Wrigley Field was once called Weeghman Park?  See some of the best name changes in history, all in under 60 seconds.\np3629\nsVimage_hash\np3630\nVf7003ec7c00288d76525ce57725f4bf8\np3631\nsVname\np3632\nVGreat Name Changes\np3633\nsVtitle\np3634\nVGreat Name Changes\np3635\nsVcreative_id\np3636\nV6003377915365\np3637\nsVpreview_url\np3638\nVhttp://www.facebook.com/ads/api/creative_preview.php?cid=6003377915365\np3639\nsVid\np3640\nV6003377915365\np3641\nsVimage_url\np3642\nVhttps://fbcdn-creative-a.akamaihd.net/hads-ak-prn1/s110x80/708163_6006845544765_614_n.jpg\np3643\nsVcount_current_adgroups\np3644\nI0\nsVrun_status\np3645\nI1\nsVtype\np3646\nI1\nsVlink_url\np3647\nVhttp://www.buzzfeed.com/ht/ianschrager/great-name-changes-throughout-history-in-60-second/HFBA1\np3648\nsVview_tag\np3649\ng1826\nsa(dp3650\nValt_view_tags\np3651\n(lp3652\nsVbody\np3653\nVDo you know Marilyn Monroe's real name? See some of the best name changes in history, all in under 60 seconds.\np3654\nsVimage_hash\np3655\nVe5068b4c009df6482bf8d14dfed4810f\np3656\nsVname\np3657\nVGreat Name Changes-00\np3658\nsVtitle\np3659\nVGreat Name Changes\np3660\nsVcreative_id\np3661\nV6003377917365\np3662\nsVpreview_url\np3663\nVhttp://www.facebook.com/ads/api/creative_preview.php?cid=6003377917365\np3664\nsVid\np3665\nV6003377917365\np3666\nsVimage_url\np3667\nVhttps://fbcdn-creative-a.akamaihd.net/hads-ak-prn1/s110x80/708185_6006845431565_57098_n.jpg\np3668\nsVcount_current_adgroups\np3669\nI0\nsVrun_status\np3670\nI1\nsVtype\np3671\nI1\nsVlink_url\np3672\nVhttp://www.buzzfeed.com/ht/ianschrager/great-name-changes-throughout-history-in-60-second/HFBB1\np3673\nsVview_tag\np3674\ng1826\nsa(dp3675\nValt_view_tags\np3676\n(lp3677\nsVbody\np3678\nVDo you know Marilyn Monroe's real name? See some of the best name changes in history, all in under 60 seconds.\np3679\nsVimage_hash\np3680\nVe5068b4c009df6482bf8d14dfed4810f\np3681\nsVname\np3682\nVGreat Name Changes-02\np3683\nsVtitle\np3684\nVGreat Name Changes\np3685\nsVcreative_id\np3686\nV6003377943765\np3687\nsVpreview_url\np3688\nVhttp://www.facebook.com/ads/api/creative_preview.php?cid=6003377943765\np3689\nsVid\np3690\nV6003377943765\np3691\nsVimage_url\np3692\nVhttps://fbcdn-creative-a.akamaihd.net/hads-ak-prn1/s110x80/708185_6006845431565_57098_n.jpg\np3693\nsVcount_current_adgroups\np3694\nI0\nsVrun_status\np3695\nI1\nsVtype\np3696\nI1\nsVlink_url\np3697\nVhttp://www.buzzfeed.com/ht/ianschrager/great-name-changes-throughout-history-in-60-second/HFBD1\np3698\nsVview_tag\np3699\ng1826\nsa(dp3700\nValt_view_tags\np3701\n(lp3702\nsVbody\np3703\nVHow does one make shish kebab even more amazing? Putting it on a flaming sword, of course! Take a peek of the Pump Room in Chicago.\t\t\t\t\np3704\nsVimage_hash\np3705\nV24d4d987d3c56830a8a550a6dfc6e5dd\np3706\nsVname\np3707\nVFlaming Food On A Sword!-01\np3708\nsVtitle\np3709\nVFlaming Food On A Sword!\np3710\nsVcreative_id\np3711\nV6003377936965\np3712\nsVpreview_url\np3713\nVhttp://www.facebook.com/ads/api/creative_preview.php?cid=6003377936965\np3714\nsVid\np3715\nV6003377936965\np3716\nsVimage_url\np3717\nVhttps://fbcdn-creative-a.akamaihd.net/hads-ak-ash3/s110x80/701895_6006844280565_37528_n.jpg\np3718\nsVcount_current_adgroups\np3719\nI0\nsVrun_status\np3720\nI1\nsVtype\np3721\nI1\nsVlink_url\np3722\nVhttp://www.buzzfeed.com/ht/ianschrager/holy-flaming-food-on-a-sword/HFBC1\np3723\nsVview_tag\np3724\ng1826\nsa(dp3725\nValt_view_tags\np3726\n(lp3727\nsVbody\np3728\nVHow does one make shish kebab even more amazing? Putting it on a flaming sword, of course! Take a peek of the Pump Room in Chicago.\t\t\t\t\np3729\nsVimage_hash\np3730\nVaf2a4b1f4d9f5aee04959e9db4bb54a4\np3731\nsVname\np3732\nVFlaming Food On A Sword!-02\np3733\nsVtitle\np3734\nVFlaming Food On A Sword!\np3735\nsVcreative_id\np3736\nV6003377939565\np3737\nsVpreview_url\np3738\nVhttp://www.facebook.com/ads/api/creative_preview.php?cid=6003377939565\np3739\nsVid\np37"
p6
sS'hash'
p7
S'a9dd0041d6493eeedf66ffcc70bd4a6ab8baad8e'
p8
sS'stack'
p9
S''
s.