(dp1
S'args'
p2
S''
sS'methodname'
p3
S''
sS'packet_num'
p4
I80
sS'returnval'
p5
S'will feel old.\np9286\nsVimage_hash\np9287\nV4c11d22760cc33b1a38cf8e0056d070a\np9288\nsVname\np9289\nVMacaulay Culkin is 30\np9290\nsVtitle\np9291\nVMacaulay Culkin is 30\np9292\nsVcreative_id\np9293\nV6003263563165\np9294\nsVpreview_url\np9295\nVhttp://www.facebook.com/ads/api/creative_preview.php?cid=6003263563165\np9296\nsVid\np9297\nV6003263563165\np9298\nsVimage_url\np9299\nVhttps://fbcdn-creative-a.akamaihd.net/hads-ak-prn1/s110x80/708166_6006844512365_2207_n.jpg\np9300\nsVcount_current_adgroups\np9301\nI0\nsVrun_status\np9302\nI1\nsVtype\np9303\nI1\nsVlink_url\np9304\nVhttp://www.buzzfeed.com/ht/mjs538/40-things-that-will-make-you-feel-old/HFAA1\np9305\nsVview_tag\np9306\ng1826\nsa(dp9307\nValt_view_tags\np9308\n(lp9309\nsVbody\np9310\nV40 things that will make you feel old.  After reading this list, you will feel old.\np9311\nsVimage_hash\np9312\nVb3f1e0248223c755b5f64d75d2c40d46\np9313\nsVname\np9314\nVDo You Know Brenda Walsh?\np9315\nsVtitle\np9316\nVDo You Know Brenda Walsh?\np9317\nsVcreative_id\np9318\nV6003263570965\np9319\nsVpreview_url\np9320\nVhttp://www.facebook.com/ads/api/creative_preview.php?cid=6003263570965\np9321\nsVid\np9322\nV6003263570965\np9323\nsVimage_url\np9324\nVhttps://fbcdn-creative-a.akamaihd.net/hads-ak-ash3/s110x80/708188_6006845132965_22926_n.jpg\np9325\nsVcount_current_adgroups\np9326\nI0\nsVrun_status\np9327\nI1\nsVtype\np9328\nI1\nsVlink_url\np9329\nVhttp://www.buzzfeed.com/ht/mjs538/40-things-that-will-make-you-feel-old/HFAA1\np9330\nsVview_tag\np9331\ng1826\nsa(dp9332\nValt_view_tags\np9333\n(lp9334\nsVbody\np9335\nVThose who claim to have knowledge of the situation say "Judgment Day" will take place May 21.  Find out the top 21 reasons why its not.\np9336\nsVimage_hash\np9337\nVa333434cf18babebd0807b1c53e07df9\np9338\nsVname\np9339\nVIs May 21st The End?\np9340\nsVtitle\np9341\nVIs May 21st The End?\np9342\nsVcreative_id\np9343\nV6003251464965\np9344\nsVpreview_url\np9345\nVhttp://www.facebook.com/ads/api/creative_preview.php?cid=6003251464965\np9346\nsVid\np9347\nV6003251464965\np9348\nsVimage_url\np9349\nVhttps://fbcdn-creative-a.akamaihd.net/hads-ak-ash3/s110x80/708199_6006845031365_21657_n.jpg\np9350\nsVcount_current_adgroups\np9351\nI0\nsVrun_status\np9352\nI1\nsVtype\np9353\nI1\nsVlink_url\np9354\nVhttp://www.huffingtonpost.com/2011/05/11/21-reasons-may-21-not-end-of-world_n_860747.html?utm_campaign=buzzfeedIO&ncid=buzzfeedIO\np9355\nsVview_tag\np9356\ng1826\nsa(dp9357\nValt_view_tags\np9358\n(lp9359\nsVbody\np9360\nVEveryone calm down for goodness sakes. The royal family is more understanding these days, yes? They\'ve come a long way baby!\np9361\nsVimage_hash\np9362\nV239ed2411eac6bc141c2adf08c01fe0a\np9363\nsVname\np9364\nVPippa Exposed\np9365\nsVtitle\np9366\nVPippa Exposed\np9367\nsVcreative_id\np9368\nV6003234267565\np9369\nsVpreview_url\np9370\nVhttp://www.facebook.com/ads/api/creative_preview.php?cid=6003234267565\np9371\nsVid\np9372\nV6003234267565\np9373\nsVimage_url\np9374\nVhttps://fbcdn-creative-a.akamaihd.net/hads-ak-prn1/s110x80/708167_6006844273365_7217_n.jpg\np9375\nsVcount_current_adgroups\np9376\nI0\nsVrun_status\np9377\nI1\nsVtype\np9378\nI1\nsVlink_url\np9379\nVhttp://www.thedaily.com/page/2011/05/10/051011-gossip-pippa-middleton-1-3/\np9380\nsVview_tag\np9381\ng1826\nsa(dp9382\nValt_view_tags\np9383\n(lp9384\nsVbody\np9385\nVTalk about being in the driver\'s seat. This guy\'s got it in the bag. Find out what working three days a week for 3 years gets you.\np9386\nsVimage_hash\np9387\nV9f9b9eafde05bd29a4292dc988de2e50\np9388\nsVname\np9389\nV$70 Million Man\np9390\nsVtitle\np9391\nV$70 Million Man\np9392\nsVcreative_id\np9393\nV6003234273565\np9394\nsVpreview_url\np9395\nVhttp://www.facebook.com/ads/api/creative_preview.php?cid=6003234273565\np9396\nsVid\np9397\nV6003234273565\np9398\nsVimage_url\np9399\nVhttps://fbcdn-creative-a.akamaihd.net/hads-ak-prn1/s110x80/708180_6006845007965_59009_n.jpg\np9400\nsVcount_current_adgroups\np9401\nI0\nsVrun_status\np9402\nI1\nsVtype\np9403\nI1\nsVlink_url\np9404\nVhttp://www.thedaily.com/page/2011/05/10/051011-gossip-matt-lauer/\np9405\nsVview_tag\np9406\ng1826\nsa(dp9407\nValt_view_tags\np9408\n(lp9409\nsVbody\np9410\nVA hard act to follow! Nothing else could possibly get you more pumped up than a 145 foot free fall. Add daredevil to bombshell!\np9411\nsVimage_hash\np9412'
p6
sS'hash'
p7
S'a9dd0041d6493eeedf66ffcc70bd4a6ab8baad8e'
p8
sS'stack'
p9
S''
s.