(dp1
S'args'
p2
S''
sS'methodname'
p3
S''
sS'packet_num'
p4
I78
sS'returnval'
p5
S'latest hit makes our "Top 10 Songs That\'ll Make Your Summer Great" See more now!\np9036\nsVimage_hash\np9037\nV4abbbe181f4d7d0df6c9543bf0aa7e72\np9038\nsVname\np9039\nVWhere Have You Been?-00\np9040\nsVtitle\np9041\nVWhere Have You Been?\np9042\nsVcreative_id\np9043\nV6005130676365\np9044\nsVpreview_url\np9045\nVhttp://www.facebook.com/ads/api/creative_preview.php?cid=6005130676365\np9046\nsVid\np9047\nV6005130676365\np9048\nsVimage_url\np9049\nVhttps://fbcdn-creative-a.akamaihd.net/hads-ak-prn1/s110x80/708167_6006844501965_25601_n.jpg\np9050\nsVcount_current_adgroups\np9051\nI0\nsVrun_status\np9052\nI1\nsVtype\np9053\nI1\nsVlink_url\np9054\nVhttp://www.buzzfeed.com/h1/fbad/trident/top-10-songs-thatll-make-your-summer-great\np9055\nsVview_tag\np9056\ng1826\nsa(dp9057\nValt_view_tags\np9058\n(lp9059\nsVbody\np9060\nVCheck this list of "10 Original Shots To Make For Yourself This Summer" Only on BuzzFeed!\np9061\nsVimage_hash\np9062\nV31d025ee83baff25a026a6cffab73620\np9063\nsVname\np9064\nVAwesome Birthday Shots!\np9065\nsVtitle\np9066\nVAwesome Birthday Shots!\np9067\nsVcreative_id\np9068\nV6005277876565\np9069\nsVpreview_url\np9070\nVhttp://www.facebook.com/ads/api/creative_preview.php?cid=6005277876565\np9071\nsVid\np9072\nV6005277876565\np9073\nsVimage_url\np9074\nVhttps://fbcdn-creative-a.akamaihd.net/hads-ak-ash3/s110x80/701901_6006844344365_13230_n.jpg\np9075\nsVcount_current_adgroups\np9076\nI0\nsVrun_status\np9077\nI1\nsVtype\np9078\nI1\nsVlink_url\np9079\nVhttp://www.buzzfeed.com/h1/fbad/stoli/10-original-shots-to-make-for-yourself-this-summer\np9080\nsVview_tag\np9081\ng1826\nsa(dp9082\nValt_view_tags\np9083\n(lp9084\nsVbody\np9085\nVWords can\'t describe the frightening experience this video captures, made all the more horrifying by a lack of clear visual footage.\np9086\nsVimage_hash\np9087\nVacde9b3247b6065210ef2fd195e1372b\np9088\nsVname\np9089\nVJoplin, MO Tornado Video\np9090\nsVtitle\np9091\nVJoplin, MO Tornado Video\np9092\nsVcreative_id\np9093\nV6003326854365\np9094\nsVpreview_url\np9095\nVhttp://www.facebook.com/ads/api/creative_preview.php?cid=6003326854365\np9096\nsVid\np9097\nV6003326854365\np9098\nsVimage_url\np9099\nVhttps://fbcdn-creative-a.akamaihd.net/hads-ak-prn1/s110x80/708189_6006845089365_2165_n.jpg\np9100\nsVcount_current_adgroups\np9101\nI0\nsVrun_status\np9102\nI1\nsVtype\np9103\nI1\nsVlink_url\np9104\nVhttp://www.huffingtonpost.com/2011/05/23/joplin-mo-tornado-video_n_865438.html?utm_campaign=buzzfeedIO&ncid=buzzfeedIO\np9105\nsVview_tag\np9106\ng1826\nsa(dp9107\nValt_view_tags\np9108\n(lp9109\nsVbody\np9110\nV32 pictures everyone should see before the world ends tomorrow! This is one of them, see the rest.\np9111\nsVimage_hash\np9112\nVd454f304e8c5a2836c3a4c6446a2f3fc\np9113\nsVname\np9114\nVBefore You Die Tomorrow\np9115\nsVtitle\np9116\nVBefore You Die Tomorrow\np9117\nsVcreative_id\np9118\nV6003315725965\np9119\nsVpreview_url\np9120\nVhttp://www.facebook.com/ads/api/creative_preview.php?cid=6003315725965\np9121\nsVid\np9122\nV6003315725965\np9123\nsVimage_url\np9124\nVhttps://fbcdn-creative-a.akamaihd.net/hads-ak-prn1/s110x80/708164_6006845322765_52984_n.jpg\np9125\nsVcount_current_adgroups\np9126\nI0\nsVrun_status\np9127\nI1\nsVtype\np9128\nI1\nsVlink_url\np9129\nVhttp://www.buzzfeed.com/ht/mjs538/pictures-you-need-to-see-before-the-world-ends/HFBA1\np9130\nsVview_tag\np9131\ng1826\nsa(dp9132\nValt_view_tags\np9133\n(lp9134\nsVbody\np9135\nV32 pictures everyone should see before the world ends tomorrow! This is one of them, see the rest.\np9136\nsVimage_hash\np9137\nV37e6ac9433d8cb8267cde64134a3722d\np9138\nsVname\np9139\nVBefore You Die Tomorrow-00\np9140\nsVtitle\np9141\nVBefore You Die Tomorrow\np9142\nsVcreative_id\np9143\nV6003315728165\np9144\nsVpreview_url\np9145\nVhttp://www.facebook.com/ads/api/creative_preview.php?cid=6003315728165\np9146\nsVid\np9147\nV6003315728165\np9148\nsVimage_url\np9149\nVhttps://fbcdn-creative-a.akamaihd.net/hads-ak-ash3/s110x80/708193_6006844377365_42993_n.jpg\np9150\nsVcount_current_adgroups\np9151\nI0\nsVrun_status\np9152\nI1\nsVtype\np9153\nI1\nsVlink_url\np9154\nVhttp://www.buzzfeed.com/ht/mjs538/pictures-you-need-to-see-before-the-world-ends/HFBB1\np9155\nsVview_tag\np9156\ng1826\nsa(dp9157\nValt_view_tags\np9158\n(lp9159\nsVbody\np9160\nV32 pictures everyone should see before the world ends tomo'
p6
sS'hash'
p7
S'a9dd0041d6493eeedf66ffcc70bd4a6ab8baad8e'
p8
sS'stack'
p9
S''
s.