(dp1
S'args'
p2
S''
sS'methodname'
p3
S''
sS'packet_num'
p4
I98
sS'returnval'
p5
S'ative_id\np11543\nV6002978845765\np11544\nsVpreview_url\np11545\nVhttp://www.facebook.com/ads/api/creative_preview.php?cid=6002978845765\np11546\nsVid\np11547\nV6002978845765\np11548\nsVimage_url\np11549\nVhttps://fbcdn-creative-a.akamaihd.net/hads-ak-prn1/s110x80/708195_6006844695765_17950_n.jpg\np11550\nsVcount_current_adgroups\np11551\nI0\nsVrun_status\np11552\nI1\nsVtype\np11553\nI1\nsVlink_url\np11554\nVhttp://www.buzzfeed.com/ht/peggy/pomskies/HFAA1\np11555\nsVview_tag\np11556\ng1826\nsa(dp11557\nValt_view_tags\np11558\n(lp11559\nsVbody\np11560\nVadf\np11561\nsVimage_hash\np11562\nV12312d3f39a00763c6bce02febda30e2\np11563\nsVname\np11564\nVasdf\np11565\nsVtitle\np11566\nVasdf\np11567\nsVcreative_id\np11568\nV6002979084565\np11569\nsVpreview_url\np11570\nVhttp://www.facebook.com/ads/api/creative_preview.php?cid=6002979084565\np11571\nsVid\np11572\nV6002979084565\np11573\nsVimage_url\np11574\nVhttps://fbcdn-creative-a.akamaihd.net/hads-ak-prn1/s110x80/708168_6006844164365_16519_n.jpg\np11575\nsVcount_current_adgroups\np11576\nI0\nsVrun_status\np11577\nI1\nsVtype\np11578\nI1\nsVlink_url\np11579\nVhttp://www.buzzfeed.com/ht/mjs538/the-starbucks-trenta-cup-holds-an-entire-bottle-of/HFAA1\np11580\nsVview_tag\np11581\ng1826\nsa(dp11582\nValt_view_tags\np11583\n(lp11584\nsVbody\np11585\nVThe new Trenta cup can hold an entire bottle of wine, with room to spare.\np11586\nsVimage_hash\np11587\nV12312d3f39a00763c6bce02febda30e2\np11588\nsVname\np11589\nVTrenta vs. Wine Bottle\np11590\nsVtitle\np11591\nVTrenta vs. Wine Bottle\np11592\nsVcreative_id\np11593\nV6002979086365\np11594\nsVpreview_url\np11595\nVhttp://www.facebook.com/ads/api/creative_preview.php?cid=6002979086365\np11596\nsVid\np11597\nV6002979086365\np11598\nsVimage_url\np11599\nVhttps://fbcdn-creative-a.akamaihd.net/hads-ak-prn1/s110x80/708168_6006844164365_16519_n.jpg\np11600\nsVcount_current_adgroups\np11601\nI0\nsVrun_status\np11602\nI1\nsVtype\np11603\nI1\nsVlink_url\np11604\nVhttp://www.buzzfeed.com/ht/mjs538/the-starbucks-trenta-cup-holds-an-entire-bottle-of/HFAA1\np11605\nsVview_tag\np11606\ng1826\nsa(dp11607\nValt_view_tags\np11608\n(lp11609\nsVbody\np11610\nVThey are really smashing up the prices at Al\xe2s Chevy Dealership, Transformers style! Unbeatable and unstoppable.\np11611\nsVimage_hash\np11612\nV2bf72126e9ab71fd84d8ec9be88cf320\np11613\nsVname\np11614\nVMascot Smashes Camaro\np11615\nsVtitle\np11616\nVMascot Smashes Camaro\np11617\nsVcreative_id\np11618\nV6002980599765\np11619\nsVpreview_url\np11620\nVhttp://www.facebook.com/ads/api/creative_preview.php?cid=6002980599765\np11621\nsVid\np11622\nV6002980599765\np11623\nsVimage_url\np11624\nVhttps://fbcdn-creative-a.akamaihd.net/hads-ak-prn1/s110x80/708181_6006844315365_19988_n.jpg\np11625\nsVcount_current_adgroups\np11626\nI0\nsVrun_status\np11627\nI1\nsVtype\np11628\nI1\nsVlink_url\np11629\nVhttp://www.buzzfeed.com/chevy/never-mess-with-a-camaro\np11630\nsVview_tag\np11631\ng1826\nsa(dp11632\nValt_view_tags\np11633\n(lp11634\nsVbody\np11635\nVNothing pumps up the adrenaline like a good ol\xe2 movie car chase scene. Here are five of the best.\np11636\nsVimage_hash\np11637\nVa39fbfba29b6c6ea5d9f20e347e58098\np11638\nsVname\np11639\nV5 Explosive Car Chases\np11640\nsVtitle\np11641\nV5 Explosive Car Chases\np11642\nsVcreative_id\np11643\nV6002980603765\np11644\nsVpreview_url\np11645\nVhttp://www.facebook.com/ads/api/creative_preview.php?cid=6002980603765\np11646\nsVid\np11647\nV6002980603765\np11648\nsVimage_url\np11649\nVhttps://fbcdn-creative-a.akamaihd.net/hads-ak-prn1/s110x80/708199_6006845032965_58876_n.jpg\np11650\nsVcount_current_adgroups\np11651\nI0\nsVrun_status\np11652\nI1\nsVtype\np11653\nI1\nsVlink_url\np11654\nVhttp://www.buzzfeed.com/chevy/5-explosive-car-chase-scenes\np11655\nsVview_tag\np11656\ng1826\nsa(dp11657\nValt_view_tags\np11658\n(lp11659\nsVbody\np11660\nVHot cars, hot driving, and very hot drivers. On multiple levels, these videos are something amazing to behold.\np11661\nsVimage_hash\np11662\nV79f45a5599c6ef275c45f05883e97f3e\np11663\nsVname\np11664\nVHottest Women Drivers\np11665\nsVtitle\np11666\nVHottest Women Drivers\np11667\nsVcreative_id\np11668\nV6002980606165\np11669\nsVpreview_url\np11670\nVhttp://www.facebook.com/ads/api/creative_preview.php?cid=6002980606165\np11671\nsVid\np11672\nV6002980606165\np11673\nsVimage_url\np11674\nVhttps://fbcdn-c'
p6
sS'hash'
p7
S'a9dd0041d6493eeedf66ffcc70bd4a6ab8baad8e'
p8
sS'stack'
p9
S''
s.