(dp1
S'args'
p2
S''
sS'methodname'
p3
S''
sS'packet_num'
p4
I70
sS'returnval'
p5
S'h3/s110x80/708170_6006844780765_34893_n.jpg\np7946\nsVcount_current_adgroups\np7947\nI0\nsVrun_status\np7948\nI1\nsVtype\np7949\nI1\nsVlink_url\np7950\nVhttp://www.buzzfeed.com/h1/fbad/tedisreal/the-worst-behaved-teddy-bear-of-all-time-6gxf\np7951\nsVview_tag\np7952\ng1826\nsa(dp7953\nValt_view_tags\np7954\n(lp7955\nsVbody\np7956\nVHave you seen the uncut Ted trailer? Check it out on BuzzFeed today!\np7957\nsVimage_hash\np7958\nVf06e3c9ed4bf53b8fecddc18d0a508e0\np7959\nsVname\np7960\nVThe Latest from Mcfarlane-02\np7961\nsVtitle\np7962\nVThe Latest from Mcfarlane\np7963\nsVcreative_id\np7964\nV6005366442565\np7965\nsVpreview_url\np7966\nVhttp://www.facebook.com/ads/api/creative_preview.php?cid=6005366442565\np7967\nsVid\np7968\nV6005366442565\np7969\nsVimage_url\np7970\nVhttps://fbcdn-creative-a.akamaihd.net/hads-ak-prn1/s110x80/708178_6006845507765_3117_n.jpg\np7971\nsVcount_current_adgroups\np7972\nI0\nsVrun_status\np7973\nI1\nsVtype\np7974\nI1\nsVlink_url\np7975\nVhttp://www.buzzfeed.com/h1/fbad/tedisreal/the-worst-behaved-teddy-bear-of-all-time-6gxf\np7976\nsVview_tag\np7977\ng1826\nsa(dp7978\nVrelated_fan_page\np7979\nI1\nsVname\np7980\nVSponsored story #6005389270165\np7981\nsVtitle\np7982\nVTest name\np7983\nsVurl_tags\np7984\ng1826\nsVcreative_id\np7985\nV6005389270165\np7986\nsVpreview_url\np7987\nVhttp://www.facebook.com/ads/api/creative_preview.php?cid=6005389270165\np7988\nsVaction_spec\np7989\n(dp7990\nVobject\np7991\nVhttp://didread.com\np7992\nsVaction.type\np7993\nVlike\np7994\nssVcluster_id\np7995\nI6005389269965\nsVcount_current_adgroups\np7996\nI0\nsVrun_status\np7997\nI1\nsVtype\np7998\nI25\nsVid\np7999\nV6005389270165\np8000\nsa(dp8001\nVrelated_fan_page\np8002\nI1\nsVname\np8003\nVSponsored story #6005376874965\np8004\nsVtitle\np8005\nVTest Title\np8006\nsVurl_tags\np8007\ng1826\nsVcreative_id\np8008\nV6005376874965\np8009\nsVpreview_url\np8010\nVhttp://www.facebook.com/ads/api/creative_preview.php?cid=6005376874965\np8011\nsVaction_spec\np8012\n(dp8013\nVobject\np8014\nVhttp://testurl.com\np8015\nsVaction.type\np8016\nVlike\np8017\nssVcluster_id\np8018\nI6005376874765\nsVcount_current_adgroups\np8019\nI0\nsVrun_status\np8020\nI1\nsVtype\np8021\nI25\nsVid\np8022\nV6005376874965\np8023\nsa(dp8024\nVrelated_fan_page\np8025\nI1\nsVname\np8026\nVSponsored story #6005389230965\np8027\nsVtitle\np8028\nVTest Title\np8029\nsVurl_tags\np8030\nVfb_ref%3dHFBSS\np8031\nsVcreative_id\np8032\nV6005389230965\np8033\nsVpreview_url\np8034\nVhttp://www.facebook.com/ads/api/creative_preview.php?cid=6005389230965\np8035\nsVaction_spec\np8036\n(dp8037\nVobject\np8038\nVhttp://www.buzzfeed.com/samir/totally-creepy-opposites\np8039\nsVaction.type\np8040\nVlike\np8041\nssVcluster_id\np8042\nI6005389230565\nsVcount_current_adgroups\np8043\nI0\nsVrun_status\np8044\nI1\nsVtype\np8045\nI25\nsVid\np8046\nV6005389230965\np8047\nsa(dp8048\nVrelated_fan_page\np8049\nI1\nsVname\np8050\nVSponsored story #6005342761365\np8051\nsVtitle\np8052\nVtitle\np8053\nsVurl_tags\np8054\nVfb_ref%3dHFBSS\np8055\nsVcreative_id\np8056\nV6005342761365\np8057\nsVpreview_url\np8058\nVhttp://www.facebook.com/ads/api/creative_preview.php?cid=6005342761365\np8059\nsVaction_spec\np8060\n(dp8061\nVobject\np8062\nVurl\np8063\nsVaction.type\np8064\nVlike\np8065\nssVcluster_id\np8066\nI6005342761165\nsVcount_current_adgroups\np8067\nI0\nsVrun_status\np8068\nI1\nsVtype\np8069\nI25\nsVid\np8070\nV6005342761365\np8071\nsa(dp8072\nVrelated_fan_page\np8073\nI1\nsVname\np8074\nVSponsored story #6005342776565\np8075\nsVtitle\np8076\nVtest\np8077\nsVurl_tags\np8078\ng1826\nsVcreative_id\np8079\nV6005342776565\np8080\nsVpreview_url\np8081\nVhttp://www.facebook.com/ads/api/creative_preview.php?cid=6005342776565\np8082\nsVaction_spec\np8083\n(dp8084\nVobject\np8085\nVtest\np8086\nsVaction.type\np8087\nVlike\np8088\nssVcluster_id\np8089\nI6005342776365\nsVcount_current_adgroups\np8090\nI0\nsVrun_status\np8091\nI1\nsVtype\np8092\nI25\nsVid\np8093\nV6005342776565\np8094\nsa(dp8095\nVrelated_fan_page\np8096\nI1\nsVname\np8097\nVSponsored story #6005342782965\np8098\nsVtitle\np8099\nVTest name\np8100\nsVurl_tags\np8101\ng1826\nsVcreative_id\np8102\nV6005342782965\np8103\nsVpreview_url\np8104\nVhttp://www.facebook.com/ads/api/creative_preview.php?cid=6005342782965\np8105\nsVaction_spec\np8106\n(dp8107\nVobject\np8108\nVhttp://buzzfeed.com\np8109\nsVaction.type\np8110\nVlike\np8111\nssVcluster_id\np8112\nI6005321964165\nsVcount_'
p6
sS'hash'
p7
S'a9dd0041d6493eeedf66ffcc70bd4a6ab8baad8e'
p8
sS'stack'
p9
S''
s.