(dp1
S'args'
p2
S''
sS'methodname'
p3
S''
sS'packet_num'
p4
I139
sS'returnval'
p5
S'87450852208\nsVid\np16819\nV6002324857565\np16820\nsVimage_url\np16821\nVhttps://fbcdn-creative-a.akamaihd.net/hads-ak-prn1/s110x80/708180_6006844855765_8678_n.jpg\np16822\nsVcount_current_adgroups\np16823\nI0\nsVrun_status\np16824\nI1\nsVtype\np16825\nI2\nsVlink_url\np16826\nVhttp://www.facebook.com/CuteFeed\np16827\nsVview_tag\np16828\ng1826\nsa(dp16829\nValt_view_tags\np16830\n(lp16831\nsVbody\np16832\nVBecome a fan of cuteness! Find the cutest things in the entire Internet before anyone else.\np16833\nsVimage_hash\np16834\nV9ba2c87b7ca3c12fd563c11ffc4950b8\np16835\nsVname\np16836\nVCuteFeed-00\np16837\nsVtitle\np16838\ng1826\nsVcreative_id\np16839\nV6002324874165\np16840\nsVpreview_url\np16841\nVhttp://www.facebook.com/ads/api/creative_preview.php?cid=6002324874165\np16842\nsVobject_id\np16843\nI87450852208\nsVid\np16844\nV6002324874165\np16845\nsVimage_url\np16846\nVhttps://fbcdn-creative-a.akamaihd.net/hads-ak-snc7/s110x80/701900_6006844978765_25958_n.jpg\np16847\nsVcount_current_adgroups\np16848\nI0\nsVrun_status\np16849\nI1\nsVtype\np16850\nI2\nsVlink_url\np16851\nVhttp://www.facebook.com/CuteFeed\np16852\nsVview_tag\np16853\ng1826\nsa(dp16854\nValt_view_tags\np16855\n(lp16856\nsVbody\np16857\nVFind the cutest things on the Internet before anyone else. Become a fan of cuteness!\np16858\nsVimage_hash\np16859\nV0cf96860205d7ebcdfedfe65a6063c9d\np16860\nsVname\np16861\nVCuteFeed-02\np16862\nsVtitle\np16863\ng1826\nsVcreative_id\np16864\nV6002325288165\np16865\nsVpreview_url\np16866\nVhttp://www.facebook.com/ads/api/creative_preview.php?cid=6002325288165\np16867\nsVobject_id\np16868\nI87450852208\nsVid\np16869\nV6002325288165\np16870\nsVimage_url\np16871\nVhttps://fbcdn-creative-a.akamaihd.net/hads-ak-ash3/s110x80/708173_6006844129765_48412_n.jpg\np16872\nsVcount_current_adgroups\np16873\nI0\nsVrun_status\np16874\nI1\nsVtype\np16875\nI2\nsVlink_url\np16876\nVhttp://www.facebook.com/CuteFeed\np16877\nsVview_tag\np16878\ng1826\nsa(dp16879\nValt_view_tags\np16880\n(lp16881\nsVbody\np16882\nVBecome a fan of cuteness! Find the cutest things in the entire Internet before anyone else.\np16883\nsVimage_hash\np16884\nVbeda023b426fd22ea12e324953850da4\np16885\nsVname\np16886\nVCuteFeed\np16887\nsVtitle\np16888\ng1826\nsVcreative_id\np16889\nV6002325295965\np16890\nsVpreview_url\np16891\nVhttp://www.facebook.com/ads/api/creative_preview.php?cid=6002325295965\np16892\nsVobject_id\np16893\nI87450852208\nsVid\np16894\nV6002325295965\np16895\nsVimage_url\np16896\nVhttps://fbcdn-creative-a.akamaihd.net/hads-ak-prn1/s110x80/708192_6006845199765_16938_n.jpg\np16897\nsVcount_current_adgroups\np16898\nI0\nsVrun_status\np16899\nI1\nsVtype\np16900\nI2\nsVlink_url\np16901\nVhttp://www.facebook.com/CuteFeed\np16902\nsVview_tag\np16903\ng1826\nsa(dp16904\nValt_view_tags\np16905\n(lp16906\nsVbody\np16907\nVBecome a fan of cuteness! Find the cutest things in the entire Internet before anyone else.\np16908\nsVimage_hash\np16909\nVbeda023b426fd22ea12e324953850da4\np16910\nsVname\np16911\nVCuteFeed-01\np16912\nsVtitle\np16913\ng1826\nsVcreative_id\np16914\nV6002325325165\np16915\nsVpreview_url\np16916\nVhttp://www.facebook.com/ads/api/creative_preview.php?cid=6002325325165\np16917\nsVobject_id\np16918\nI87450852208\nsVid\np16919\nV6002325325165\np16920\nsVimage_url\np16921\nVhttps://fbcdn-creative-a.akamaihd.net/hads-ak-prn1/s110x80/708192_6006845199765_16938_n.jpg\np16922\nsVcount_current_adgroups\np16923\nI0\nsVrun_status\np16924\nI1\nsVtype\np16925\nI2\nsVlink_url\np16926\nVhttp://www.facebook.com/CuteFeed\np16927\nsVview_tag\np16928\ng1826\nsa(dp16929\nValt_view_tags\np16930\n(lp16931\nsVbody\np16932\nVFind the cutest things on the Internet before anyone else. Become a fan of cuteness!\np16933\nsVimage_hash\np16934\nVdd6a9d50063625a7271731a007d966a8\np16935\nsVname\np16936\nVCuteFeed-05\np16937\nsVtitle\np16938\ng1826\nsVcreative_id\np16939\nV6002338121765\np16940\nsVpreview_url\np16941\nVhttp://www.facebook.com/ads/api/creative_preview.php?cid=6002338121765\np16942\nsVobject_id\np16943\nI87450852208\nsVid\np16944\nV6002338121765\np16945\nsVimage_url\np16946\nVhttps://fbcdn-creative-a.akamaihd.net/hads-ak-prn1/s110x80/708172_6006845377565_3538_n.jpg\np16947\nsVcount_current_adgroups\np16948\nI0\nsVrun_status\np16949\nI1\nsVtype\np16950\nI2\nsVlink_url\np16951\nVhttp://www.facebook.com/CuteFeed\np16952\nsVview_tag\np16953\ng1826\nsa'
p6
sS'hash'
p7
S'a9dd0041d6493eeedf66ffcc70bd4a6ab8baad8e'
p8
sS'stack'
p9
S''
s.