(dp1
S'args'
p2
S''
sS'methodname'
p3
S''
sS'packet_num'
p4
I52
sS'returnval'
p5
S'image_hash\np5666\nV9bc06e022b8c0c72db38ba2476f38274\np5667\nsVname\np5668\nV British Comedy Tube Map-00\np5669\nsVtitle\np5670\nV British Comedy Tube Map\np5671\nsVcreative_id\np5672\nV6003414465365\np5673\nsVpreview_url\np5674\nVhttp://www.facebook.com/ads/api/creative_preview.php?cid=6003414465365\np5675\nsVid\np5676\nV6003414465365\np5677\nsVimage_url\np5678\nVhttps://fbcdn-creative-a.akamaihd.net/hads-ak-snc7/s110x80/701900_6006844979365_31030_n.jpg\np5679\nsVcount_current_adgroups\np5680\nI0\nsVrun_status\np5681\nI1\nsVtype\np5682\nI1\nsVlink_url\np5683\nVhttp://www.buzzfeed.com/ht/ministryoflaughs/tube-map-of-british-comedy/HFBA1\np5684\nsVview_tag\np5685\ng1826\nsa(dp5686\nValt_view_tags\np5687\n(lp5688\nsVbody\np5689\nVPacifico is taking keg art to the next level with an epic journey that spans Phoenix all the way to Seattle. Take a sneak peak here.\np5690\nsVimage_hash\np5691\nV456c7faa282aaa5d1866dc5b68ec2cb6\np5692\nsVname\np5693\nV10 Amazing Keg Murals\np5694\nsVtitle\np5695\nV10 Amazing Keg Murals\np5696\nsVcreative_id\np5697\nV6003371423965\np5698\nsVpreview_url\np5699\nVhttp://www.facebook.com/ads/api/creative_preview.php?cid=6003371423965\np5700\nsVid\np5701\nV6003371423965\np5702\nsVimage_url\np5703\nVhttps://fbcdn-creative-a.akamaihd.net/hads-ak-prn1/s110x80/708174_6006844470765_57127_n.jpg\np5704\nsVcount_current_adgroups\np5705\nI0\nsVrun_status\np5706\nI1\nsVtype\np5707\nI1\nsVlink_url\np5708\nVhttp://www.buzzfeed.com/ht/pacifico/10-amazing-keg-murals/HFBA1\np5709\nsVview_tag\np5710\ng1826\nsa(dp5711\nValt_view_tags\np5712\n(lp5713\nsVbody\np5714\nVPhoenix born artist, Breeze, will be tagging a local bike shop to showcase art inspired by Pacifico. Check out some of his work.\np5715\nsVimage_hash\np5716\nV52280769eb88b26d3273d43eb023cb4c\np5717\nsVname\np5718\nVThe Amazing Art Of Breeze\np5719\nsVtitle\np5720\nVThe Amazing Art Of Breeze\np5721\nsVcreative_id\np5722\nV6003371448765\np5723\nsVpreview_url\np5724\nVhttp://www.facebook.com/ads/api/creative_preview.php?cid=6003371448765\np5725\nsVid\np5726\nV6003371448765\np5727\nsVimage_url\np5728\nVhttps://fbcdn-creative-a.akamaihd.net/hads-ak-ash3/s110x80/701899_6006844567365_47935_n.jpg\np5729\nsVcount_current_adgroups\np5730\nI0\nsVrun_status\np5731\nI1\nsVtype\np5732\nI1\nsVlink_url\np5733\nVhttp://www.buzzfeed.com/ht/pacifico/the-amazing-art-of-breeze/HFBA1\np5734\nsVview_tag\np5735\ng1826\nsa(dp5736\nValt_view_tags\np5737\n(lp5738\nsVbody\np5739\nVPete Duggins will be making his mark by decorating a keg with art inspired by Pacifico. Check out some of his incredible pieces.\np5740\nsVimage_hash\np5741\nV75f093d28d039da6077c8e04c4b149fa\np5742\nsVname\np5743\nVAn Artist Unmatched\np5744\nsVtitle\np5745\nVAn Artist Unmatched\np5746\nsVcreative_id\np5747\nV6003371453765\np5748\nsVpreview_url\np5749\nVhttp://www.facebook.com/ads/api/creative_preview.php?cid=6003371453765\np5750\nsVid\np5751\nV6003371453765\np5752\nsVimage_url\np5753\nVhttps://fbcdn-creative-a.akamaihd.net/hads-ak-prn1/s110x80/708201_6006844762365_61772_n.jpg\np5754\nsVcount_current_adgroups\np5755\nI0\nsVrun_status\np5756\nI1\nsVtype\np5757\nI1\nsVlink_url\np5758\nVhttp://www.buzzfeed.com/ht/pacifico/peat-duggins-an-artist-unmatched/HFBA1\np5759\nsVview_tag\np5760\ng1826\nsa(dp5761\nValt_view_tags\np5762\n(lp5763\nsVbody\np5764\nVThe artists behind Methane Studios, are hitting the road with Pacifico! Check out some their best designs right here.\np5765\nsVimage_hash\np5766\nVba1afb0add6d07979bc3ee04f24f5d3b\np5767\nsVname\np5768\nVMethane Studios Artwork\np5769\nsVtitle\np5770\nVMethane Studios Artwork\np5771\nsVcreative_id\np5772\nV6003371479965\np5773\nsVpreview_url\np5774\nVhttp://www.facebook.com/ads/api/creative_preview.php?cid=6003371479965\np5775\nsVid\np5776\nV6003371479965\np5777\nsVimage_url\np5778\nVhttps://fbcdn-creative-a.akamaihd.net/hads-ak-ash3/s110x80/701889_6006845166165_54971_n.jpg\np5779\nsVcount_current_adgroups\np5780\nI0\nsVrun_status\np5781\nI1\nsVtype\np5782\nI1\nsVlink_url\np5783\nVhttp://www.buzzfeed.com/ht/pacifico/the-incredible-art-of-methane-studios/HFBA1\np5784\nsVview_tag\np5785\ng1826\nsa(dp5786\nValt_view_tags\np5787\n(lp5788\nsVbody\np5789\nVPhoenix based artist LaLo Cota will be tagging a local bike shop to showcase art inspired by Pacifico. See examples of his best work.\np5790\nsVimage_hash\np5791\nVf415'
p6
sS'hash'
p7
S'a9dd0041d6493eeedf66ffcc70bd4a6ab8baad8e'
p8
sS'stack'
p9
S''
s.