(dp1
S'args'
p2
S''
sS'methodname'
p3
S''
sS'packet_num'
p4
I18
sS'returnval'
p5
S'dmUgdGhlIHJlc3QuCgAcAAEseuB5ST8A\np1466\nsVcount_current_adgroups\np1467\nI0\nsVrun_status\np1468\nI1\nsVtype\np1469\nI27\nsVid\np1470\nV6005572410165\np1471\nsa(dp1472\nVname\np1473\nVAd from a Page post #6005572543165\np1474\nsVauto_update\np1475\nI1\nsVstory_id\np1476\nI505298939487067\nsVcreative_id\np1477\nV6005572543165\np1478\nsVpreview_url\np1479\nVhttp://www.facebook.com/ads/api/creative_preview.php?cid=6005572543165\np1480\nsVobject_id\np1481\nV21898300328\np1482\nsVaction_t\np1483\nVBgABAQcIAAZQFYgxCgAQAAAABRk9i6gNABoGCgAAAAwBCgAAAAAAAABQALgAAcuRE8sjWwC5AAAAAAAAAGQAugAkEFVBy+OrAiMAAAAAAAAAAADDAAAAT1RSNB4BuwAAAAAAAABqAcoAAcuRE8sjWwEeAAAAAMRdaroAAQABy5ETyyNbAbYAAAAAUBWIMQHkAAHLkRPLI1sNABsGCwAAAAFAAwAAALFUaGlzIHdhcyBwcmV0dHkgY29vbC4gb29vb28gTWVldCBUaGUgT2x5bXBpYyBBdGhsZXRlcyBXaXRob3V0IEEgQ291bnRyeSBvb29vbyBXaG8gYXJlIHRoZSBmb3VyIGF0aGxldGVzIHdobyBhcmUgY29tcGV0aW5nIG5vdCBvbiBiZWhhbGYgb2YgYSBjb3VudHJ5LCBidXQgdW5kZXIgdGhlIE9seW1waWMgZmxhZz8KABwAAcuRE8sjWwA=\np1484\nsVcount_current_adgroups\np1485\nI0\nsVrun_status\np1486\nI1\nsVtype\np1487\nI27\nsVid\np1488\nV6005572543165\np1489\nsa(dp1490\nVname\np1491\nVAd from a Page post #6005572931165\np1492\nsVauto_update\np1493\nI1\nsVstory_id\np1494\nI322566804502851\nsVcreative_id\np1495\nV6005572931165\np1496\nsVpreview_url\np1497\nVhttp://www.facebook.com/ads/api/creative_preview.php?cid=6005572931165\np1498\nsVobject_id\np1499\nV21898300328\np1500\nsVaction_t\np1501\nVBgABAQcIAAZQFcBwCgAQAAAABRk9i6gNABoGCgAAAAwBCgAAAAAAAABQALgAASVfb8x5QwC5AAAAAAAAAGQAugAkEGI+O8FHAiMAAAAAAAAAAADDAAAAT1RSNB4BuwAAAAAAAABqAcoAASVfb8x5QwEeAAAAACsWy+wAAQABJV9vzHlDAbYAAAAAUBXAcAHkAAElX2/MeUMNABsGCwAAAAFAAwAAAQVGWUkgb29vb28gMzMgVG90YWxseSBEby1BYmxlIEQuSS5ZLiBQcm9qZWN0cyBGb3IgWW91ciBQZXRzIG9vb29vIEl0J3MgZGVmaW5pdGVseSB3b29mIGl0IHRvIHRha2UgYSBsb29rIGF0IHRoZXNlIGVhc3kgcHJvamVjdHMgYW5kIGZpbmQgdGhlIHB1cnJmZWN0IGZpdCBmb3IgeW91ciBhbmltYWwgZmFtaWx5LiBNb3N0IG9mIHRoZXNlIGRvLWl0LXlvdXJzZWxmIGlkZWFzIHJlcXVpcmUgbWluaW1hbCBzcGVjaWFsIHNraWxscyBvciB0b29scywgYW5kIGEuLi4KABwAASVfb8x5QwA=\np1502\nsVcount_current_adgroups\np1503\nI0\nsVrun_status\np1504\nI1\nsVtype\np1505\nI27\nsVid\np1506\nV6005572931165\np1507\nsa(dp1508\nVname\np1509\nVAd from a Page post #6005573077365\np1510\nsVauto_update\np1511\nI1\nsVstory_id\np1512\nI343871502357906\nsVcreative_id\np1513\nV6005573077365\np1514\nsVpreview_url\np1515\nVhttp://www.facebook.com/ads/api/creative_preview.php?cid=6005573077365\np1516\nsVobject_id\np1517\nV21898300328\np1518\nsVaction_t\np1519\nVBgABAQcIAAZQFeqhCgAQAAAABRk9i6gNABoGCgAAAAwBCgAAAAAAAABQALgAATi/0r8VkgC5AAAAAAAAAGQAugAkEGdlLwCiAiMAAAAAAAAAAADDAAAAT1RSNB4BuwAAAAAAAABqAcoAATi/0r8VkgEeAAAAAMqym5wAAQABOL/SvxWSAbYAAAAAUBXqoQHkAAE4v9K/FZINABsGCwAAAAFAAwAAANQgb29vb28gMTUgV2F5cyBUbyBDaGVhdCBBdCBUaGUgT2x5bXBpY3MgV2l0aCBUZWNoIEFuZCBTY2llbmNlIG9vb29vIElmIHlvdSB3ZXJlIGJvcm4gYSBtZXJlIG1vcnRhbCBidXQgYXJlIGRlc3BlcmF0ZSB0byBiZSBhbiBPbHltcGljIGdvZCwgdGhlc2UgKG9mdGVuIGlsbGVnYWwgb3IgZGFuZ2Vyb3VzISkgdGVjaG5vLWJpb2xvZ2ljYWwgbWV0aG9kcyBtaWdodCBoZWxwLgoAHAABOL/SvxWSAA==\np1520\nsVcount_current_adgroups\np1521\nI0\nsVrun_status\np1522\nI1\nsVtype\np1523\nI27\nsVid\np1524\nV6005573077365\np1525\nsa(dp1526\nVname\np1527\nVAd from a Page post #6005573253365\np1528\nsVauto_update\np1529\nI1\nsVstory_id\np1530\nV10151142016575329\np1531\nsVcreative_id\np1532\nV6005573253365\np1533\nsVpreview_url\np1534\nVhttp://www.facebook.com/ads/api/creative_preview.php?cid=6005573253365\np1535\nsVobject_id\np1536\nV21898300328\np1537\nsVaction_t\np1538\nVBgABAPcIAAZQFhcqCgAQAAAABRk9i6gNABoGCgAAABkBGQAkEGjt9lPZAXUAAAAAAAd9pACbAAAAAAAAAAQAZgAkEFib29RxAL0AJBBo32xnWQD8AAAAAADHS64BwAAAAAAAAAABAkwAAAAAAAAAAQJOAAAAAAAAAlgCTwAAAAAAAAGPAlAAAAAAAAACWAJRAAAAAAAAAY8CVAAAAAAAAAJYAlUAAAAAAAABjwJXAAAAAAAAAAECUgAAAAAAAAAAAlMAAAAAAAAAAAJWAAAAAAAAAAABygAkEGjt9mdhAR4AAAAAHgXyRgAOAAAAAFAWFyoBhgAAAAAAAAAAAAEAJBBo7fZnYQG2AAAAAFAWFyoB5AAkEGjt9mdhDQAbBgsAAAABQAMAAAAXR29vZG5pZ2h0ISBvb29vbyBQaG90b3MKABwAJBBo32xnWQA=\np1539\nsVcount_current_adgroups\np1540\nI0\nsVrun_status\np1541\nI1\nsVtype\np1542\nI27\nsVid\np1543\nV6005573253365\np1544\nsa(dp1545\nVname\np1546\nVAd from a Page post #6005574177165\np1547\nsVauto_update\np1548\nI1\nsVstory_id\np1549\nI429503167092872\nsVcreative_id\np1550\nV6005574177165\np1551\nsVpreview_url\np1552\nVhttp://www.facebook.c'
p6
sS'hash'
p7
S'a9dd0041d6493eeedf66ffcc70bd4a6ab8baad8e'
p8
sS'stack'
p9
S''
s.