(dp1
S'args'
p2
S''
sS'methodname'
p3
S''
sS'packet_num'
p4
I191
sS'returnval'
p5
S'448\nVComics For Kids Ronald \np23449\nsVcreative_id\np23450\nV6003168860565\np23451\nsVpreview_url\np23452\nVhttp://www.facebook.com/ads/api/creative_preview.php?cid=6003168860565\np23453\nsVid\np23454\nV6003168860565\np23455\nsVimage_url\np23456\nVhttps://fbcdn-creative-a.akamaihd.net/hads-ak-ash3/s110x80/708185_6006844916165_3610_n.jpg\np23457\nsVcount_current_adgroups\np23458\nI0\nsVrun_status\np23459\nI1\nsVtype\np23460\nI1\nsVlink_url\np23461\nVhttp://buzzfeed.com/ht/expresident/comics-for-kids-ronald-kills-birdie/HFAA1\np23462\nsVview_tag\np23463\ng1826\nsa(dp23464\nValt_view_tags\np23465\n(lp23466\nsVbody\np23467\nVUm. . .\np23468\nsVimage_hash\np23469\nV3ba726aa84023d2348ad8bb5efc0b0a6\np23470\nsVname\np23471\nVWhy You Should Never Buy\np23472\nsVtitle\np23473\nVWhy You Should Never Buy\np23474\nsVcreative_id\np23475\nV6003169625765\np23476\nsVpreview_url\np23477\nVhttp://www.facebook.com/ads/api/creative_preview.php?cid=6003169625765\np23478\nsVid\np23479\nV6003169625765\np23480\nsVimage_url\np23481\nVhttps://fbcdn-creative-a.akamaihd.net/hads-ak-ash3/s110x80/701890_6006844401965_28586_n.jpg\np23482\nsVcount_current_adgroups\np23483\nI0\nsVrun_status\np23484\nI1\nsVtype\np23485\nI1\nsVlink_url\np23486\nVhttp://buzzfeed.com/ht/mjs538/why-you-should-never-buy-bootleg-justin-bieber-mer/HFAA1\np23487\nsVview_tag\np23488\ng1826\nsa(dp23489\nValt_view_tags\np23490\n(lp23491\nsVbody\np23492\nVHere is a collection of the most delicious sandwich earrings for sale on Etsy. Why Because they look soooooo GOOD.\np23493\nsVimage_hash\np23494\nV1a75c05fd0fc1bd0c797cd1190ff2e73\np23495\nsVname\np23496\nVDelicious Earrings\np23497\nsVtitle\np23498\nVDelicious Earrings\np23499\nsVcreative_id\np23500\nV6003169653565\np23501\nsVpreview_url\np23502\nVhttp://www.facebook.com/ads/api/creative_preview.php?cid=6003169653565\np23503\nsVid\np23504\nV6003169653565\np23505\nsVimage_url\np23506\nVhttps://fbcdn-creative-a.akamaihd.net/hads-ak-ash3/s110x80/701896_6006844219565_44173_n.jpg\np23507\nsVcount_current_adgroups\np23508\nI0\nsVrun_status\np23509\nI1\nsVtype\np23510\nI1\nsVlink_url\np23511\nVhttp://buzzfeed.com/ht/mjs538/delicious-sandwich-earrings/HFAA1\np23512\nsVview_tag\np23513\ng1826\nsa(dp23514\nValt_view_tags\np23515\n(lp23516\nsVbody\np23517\nVSnapple his 102 annotations in this video, each linking out to a different page. Can you find all of them\np23518\nsVimage_hash\np23519\nV01fb41298df7d501ed7254ff67e95f87\np23520\nsVname\np23521\nV102 Hidden Annotations\np23522\nsVtitle\np23523\nV102 Hidden Annotations\np23524\nsVcreative_id\np23525\nV6003168838765\np23526\nsVpreview_url\np23527\nVhttp://www.facebook.com/ads/api/creative_preview.php?cid=6003168838765\np23528\nsVid\np23529\nV6003168838765\np23530\nsVimage_url\np23531\nVhttps://fbcdn-creative-a.akamaihd.net/hads-ak-prn1/s110x80/708174_6006844059165_40528_n.jpg\np23532\nsVcount_current_adgroups\np23533\nI0\nsVrun_status\np23534\nI1\nsVtype\np23535\nI1\nsVlink_url\np23536\nVhttp://buzzfeed.com/ht/awesomer/102-hidden-annotations-in-1-music-video/HFAA1\np23537\nsVview_tag\np23538\ng1826\nsa(dp23539\nValt_view_tags\np23540\n(lp23541\nsVbody\np23542\nVAlex Blagg sits down with Nicolas Cage and forces him to confront his worst nightmare\np23543\nsVimage_hash\np23544\nV8c58957637893ffa9a05f6438317ac12\np23545\nsVname\np23546\nVNicolas Cage On Nicolas -02\np23547\nsVtitle\np23548\nVNicolas Cage On Nicolas \np23549\nsVcreative_id\np23550\nV6003168848765\np23551\nsVpreview_url\np23552\nVhttp://www.facebook.com/ads/api/creative_preview.php?cid=6003168848765\np23553\nsVid\np23554\nV6003168848765\np23555\nsVimage_url\np23556\nVhttps://fbcdn-creative-a.akamaihd.net/hads-ak-prn1/s110x80/708171_6006844889165_52272_n.jpg\np23557\nsVcount_current_adgroups\np23558\nI0\nsVrun_status\np23559\nI1\nsVtype\np23560\nI1\nsVlink_url\np23561\nVhttp://buzzfeed.com/ht/awesomer/nicolas-cage-on-nicolas-cage/HFAA1\np23562\nsVview_tag\np23563\ng1826\nsa(dp23564\nValt_view_tags\np23565\n(lp23566\nsVbody\np23567\nVIn case that39s not immediately apparent on the first listen. I maybe would have turned down the autotune a little bit for such a s\np23568\nsVimage_hash\np23569\nV3b100fb8212fe4f30801df15827df744\np23570\nsVname\np23571\nVRebecca Black39s Fri\np23572\nsVtitle\np23573\nVRebecca Black39s Fri\np23574\nsVcreative_id\np23575\nV6003168862965\np23576\nsVpreview_url\n'
p6
sS'hash'
p7
S'a9dd0041d6493eeedf66ffcc70bd4a6ab8baad8e'
p8
sS'stack'
p9
S''
s.