(dp1
S'args'
p2
S''
sS'methodname'
p3
S''
sS'packet_num'
p4
I184
sS'returnval'
p5
S'm/ht/marcos/new-mexico-governor-considers-pardon-for-billy-the/HFAA1\np22562\nsVview_tag\np22563\ng1826\nsa(dp22564\nValt_view_tags\np22565\n(lp22566\nsVbody\np22567\nVAlthough Bil Keane\'s "The Family Circus" has been an institutional comic since the 1960s, it didn\'t become incredibly funny until the \np22568\nsVimage_hash\np22569\nV4f2335610095e917d00fb58700345af6\np22570\nsVname\np22571\nV\'The Family Circus\' Re-C\np22572\nsVtitle\np22573\nV\'The Family Circus\' Re-C\np22574\nsVcreative_id\np22575\nV6003192088765\np22576\nsVpreview_url\np22577\nVhttp://www.facebook.com/ads/api/creative_preview.php?cid=6003192088765\np22578\nsVid\np22579\nV6003192088765\np22580\nsVimage_url\np22581\nVhttps://fbcdn-creative-a.akamaihd.net/hads-ak-prn1/s110x80/708171_6006844536965_12434_n.jpg\np22582\nsVcount_current_adgroups\np22583\nI0\nsVrun_status\np22584\nI1\nsVtype\np22585\nI1\nsVlink_url\np22586\nVhttp://buzzfeed.com/ht/huffpost/the-family-circus-re-captioned-by-onion-7p0/HFAA1\np22587\nsVview_tag\np22588\ng1826\nsa(dp22589\nValt_view_tags\np22590\n(lp22591\nsVbody\np22592\nVAn environmental group called Clean Ocean Action has released its annual report detailing trash removal from New Jersey\'s 127-mile sho\np22593\nsVimage_hash\np22594\nV3ca32de7ce6b43ce2bfc3eff0fd63fbc\np22595\nsVname\np22596\nVThe 36 Most Ridiculous T-01\np22597\nsVtitle\np22598\nVThe 36 Most Ridiculous T\np22599\nsVcreative_id\np22600\nV6003192086365\np22601\nsVpreview_url\np22602\nVhttp://www.facebook.com/ads/api/creative_preview.php?cid=6003192086365\np22603\nsVid\np22604\nV6003192086365\np22605\nsVimage_url\np22606\nVhttps://fbcdn-creative-a.akamaihd.net/hads-ak-prn1/s110x80/708161_6006844409565_55318_n.jpg\np22607\nsVcount_current_adgroups\np22608\nI0\nsVrun_status\np22609\nI1\nsVtype\np22610\nI1\nsVlink_url\np22611\nVhttp://buzzfeed.com/ht/huffpost/the-36-most-ridiculous-things-found-on-new-jersey-7p0/HFAA1\np22612\nsVview_tag\np22613\ng1826\nsa(dp22614\nValt_view_tags\np22615\n(lp22616\nsVbody\np22617\nVAn environmental group called Clean Ocean Action has released its annual report detailing trash removal from New Jerseys 127-mile shor\np22618\nsVimage_hash\np22619\nV3ca32de7ce6b43ce2bfc3eff0fd63fbc\np22620\nsVname\np22621\nVThe 36 Most Ridiculous T-00\np22622\nsVtitle\np22623\nVThe 36 Most Ridiculous T\np22624\nsVcreative_id\np22625\nV6003192077965\np22626\nsVpreview_url\np22627\nVhttp://www.facebook.com/ads/api/creative_preview.php?cid=6003192077965\np22628\nsVid\np22629\nV6003192077965\np22630\nsVimage_url\np22631\nVhttps://fbcdn-creative-a.akamaihd.net/hads-ak-prn1/s110x80/708161_6006844409565_55318_n.jpg\np22632\nsVcount_current_adgroups\np22633\nI0\nsVrun_status\np22634\nI1\nsVtype\np22635\nI1\nsVlink_url\np22636\nVhttp://buzzfeed.com/ht/huffpost/the-36-most-ridiculous-things-found-on-new-jersey-7p0/HFAA1\np22637\nsVview_tag\np22638\ng1826\nsa(dp22639\nValt_view_tags\np22640\n(lp22641\nsVbody\np22642\nVAlthough Bil Keanes "The Family Circus" has been an institutional comic since the 1960s, it didnt become incredibly funny until the In\np22643\nsVimage_hash\np22644\nV4f2335610095e917d00fb58700345af6\np22645\nsVname\np22646\nVThe Family Circus Re-Cap\np22647\nsVtitle\np22648\nVThe Family Circus Re-Cap\np22649\nsVcreative_id\np22650\nV6003192080365\np22651\nsVpreview_url\np22652\nVhttp://www.facebook.com/ads/api/creative_preview.php?cid=6003192080365\np22653\nsVid\np22654\nV6003192080365\np22655\nsVimage_url\np22656\nVhttps://fbcdn-creative-a.akamaihd.net/hads-ak-prn1/s110x80/708171_6006844536965_12434_n.jpg\np22657\nsVcount_current_adgroups\np22658\nI0\nsVrun_status\np22659\nI1\nsVtype\np22660\nI1\nsVlink_url\np22661\nVhttp://buzzfeed.com/ht/huffpost/the-family-circus-re-captioned-by-onion-7p0/HFAA1\np22662\nsVview_tag\np22663\ng1826\nsa(dp22664\nValt_view_tags\np22665\n(lp22666\nsVbody\np22667\nVJanuary is an experimental "algorithmic music generation" game by Rich Vreeland. Now that it\'s February and 60 in New York you can wis\np22668\nsVimage_hash\np22669\nV86ac31320ecd5d04532999ae5ba285a6\np22670\nsVname\np22671\nVJanuary Game Battle\np22672\nsVtitle\np22673\nVJanuary Game Battle\np22674\nsVcreative_id\np22675\nV6003190965365\np22676\nsVpreview_url\np22677\nVhttp://www.facebook.com/ads/api/creative_preview.php?cid=6003190965365\np22678\nsVid\np22679\nV6003190965365\np22680\nsVimage_url\np226'
p6
sS'hash'
p7
S'a9dd0041d6493eeedf66ffcc70bd4a6ab8baad8e'
p8
sS'stack'
p9
S''
s.