(dp1
S'args'
p2
S''
sS'methodname'
p3
S''
sS'packet_num'
p4
I130
sS'returnval'
p5
S"ash\np15637\nV61aab2ffd9c3a483bfb719ebcbf1518a\np15638\nsVname\np15639\nVJames Franco Does It All\np15640\nsVtitle\np15641\nVJames Franco Does It All\np15642\nsVcreative_id\np15643\nV6002990572965\np15644\nsVpreview_url\np15645\nVhttp://www.facebook.com/ads/api/creative_preview.php?cid=6002990572965\np15646\nsVid\np15647\nV6002990572965\np15648\nsVimage_url\np15649\nVhttps://fbcdn-creative-a.akamaihd.net/hads-ak-prn1/s110x80/708157_6006844649765_57668_n.jpg\np15650\nsVcount_current_adgroups\np15651\nI0\nsVrun_status\np15652\nI1\nsVtype\np15653\nI1\nsVlink_url\np15654\nVhttp://www.buzzfeed.com/ht/scott/things-that-james-franco-cant-do/HFAA1\np15655\nsVview_tag\np15656\ng1826\nsa(dp15657\nValt_view_tags\np15658\n(lp15659\nsVbody\np15660\nVModels even fall with grace. Well, almost!\np15661\nsVimage_hash\np15662\nVf6a6f1b8810b9ccfdaea4badd847adcb\np15663\nsVname\np15664\nVPhotos Of Models Falling\np15665\nsVtitle\np15666\nVPhotos Of Models Falling\np15667\nsVcreative_id\np15668\nV6002990569965\np15669\nsVpreview_url\np15670\nVhttp://www.facebook.com/ads/api/creative_preview.php?cid=6002990569965\np15671\nsVid\np15672\nV6002990569965\np15673\nsVimage_url\np15674\nVhttps://fbcdn-creative-a.akamaihd.net/hads-ak-ash3/s110x80/708163_6006845542765_12997_n.jpg\np15675\nsVcount_current_adgroups\np15676\nI0\nsVrun_status\np15677\nI1\nsVtype\np15678\nI1\nsVlink_url\np15679\nVhttp://www.buzzfeed.com/ht/melismashable/20-embarrassing-pictures-of-models-falling/HFAA1\np15680\nsVview_tag\np15681\ng1826\nsa(dp15682\nValt_view_tags\np15683\n(lp15684\nsVbody\np15685\nVHere are 26 people you probably didn't know were Scientologists.\np15686\nsVimage_hash\np15687\nVd09d4a786ac4781cb5803391d4faf8de\np15688\nsVname\np15689\nVSurprise Scientologists\np15690\nsVtitle\np15691\nVSurprise Scientologists\np15692\nsVcreative_id\np15693\nV6002990567565\np15694\nsVpreview_url\np15695\nVhttp://www.facebook.com/ads/api/creative_preview.php?cid=6002990567565\np15696\nsVid\np15697\nV6002990567565\np15698\nsVimage_url\np15699\nVhttps://fbcdn-creative-a.akamaihd.net/hads-ak-ash3/s110x80/708192_6006845298965_13693_n.jpg\np15700\nsVcount_current_adgroups\np15701\nI0\nsVrun_status\np15702\nI1\nsVtype\np15703\nI1\nsVlink_url\np15704\nVhttp://www.buzzfeed.com/ht/mjs538/26-people-you-probably-didnt-know-were-scientolog/HFAA1\np15705\nsVview_tag\np15706\ng1826\nsa(dp15707\nValt_view_tags\np15708\n(lp15709\nsVbody\np15710\nVTurning off the game is never a good idea. Turning it off in a sports bar is actually dangerous. Watch what happens when the ground ru\np15711\nsVimage_hash\np15712\nVe02e9e9f4d4a50cbe5322bcf6e03f975\np15713\nsVname\np15714\nVCancelled Game\np15715\nsVtitle\np15716\nVCancelled Game\np15717\nsVcreative_id\np15718\nV6002897436965\np15719\nsVpreview_url\np15720\nVhttp://www.facebook.com/ads/api/creative_preview.php?cid=6002897436965\np15721\nsVid\np15722\nV6002897436965\np15723\nsVimage_url\np15724\nVhttps://fbcdn-creative-a.akamaihd.net/hads-ak-prn1/s110x80/708169_6006845395365_62467_n.jpg\np15725\nsVcount_current_adgroups\np15726\nI0\nsVrun_status\np15727\nI1\nsVtype\np15728\nI1\nsVlink_url\np15729\nVhttp://buzzfeed.com/jetblue/cancelled-game-1oc6\np15730\nsVview_tag\np15731\ng1826\nsa(dp15732\nValt_view_tags\np15733\n(lp15734\nsVbody\np15735\nVIt's true, people hate making unnecessary stops. A lot. Watch what happens when the ground rules change. And don't forget to f\np15736\nsVimage_hash\np15737\nV91f2dbd7028f55515473d2236223adda\np15738\nsVname\np15739\nVThe Local\np15740\nsVtitle\np15741\nVThe Local\np15742\nsVcreative_id\np15743\nV6002897438765\np15744\nsVpreview_url\np15745\nVhttp://www.facebook.com/ads/api/creative_preview.php?cid=6002897438765\np15746\nsVid\np15747\nV6002897438765\np15748\nsVimage_url\np15749\nVhttps://fbcdn-creative-a.akamaihd.net/hads-ak-prn1/s110x80/708185_6006844918365_58976_n.jpg\np15750\nsVcount_current_adgroups\np15751\nI0\nsVrun_status\np15752\nI1\nsVtype\np15753\nI1\nsVlink_url\np15754\nVhttp://buzzfeed.com/jetblue/the-local-1oc6\np15755\nsVview_tag\np15756\ng1826\nsa(dp15757\nValt_view_tags\np15758\n(lp15759\nsVbody\np15760\nVNew Yorkers are used to small spaces but this is ridiculous. Watch what happens when the ground rules change. And don't forget to\np15761\nsVimage_hash\np15762\nVe79a6ac76921ed59790d8b35bc87ee63\np15763\nsVname\np15764\nVCab Jam\np15765\nsVtitle\np15766\nVCa"
p6
sS'hash'
p7
S'a9dd0041d6493eeedf66ffcc70bd4a6ab8baad8e'
p8
sS'stack'
p9
S''
s.