(dp1
S'args'
p2
S''
sS'methodname'
p3
S''
sS'packet_num'
p4
I85
sS'returnval'
p5
S'80/708196_6006844946365_27981_n.jpg\np9925\nsVcount_current_adgroups\np9926\nI0\nsVrun_status\np9927\nI1\nsVtype\np9928\nI1\nsVlink_url\np9929\nVhttp://buzzfeed.com/ht/donnad/victorian-star-trek/HFAA1\np9930\nsVview_tag\np9931\ng1826\nsa(dp9932\nValt_view_tags\np9933\n(lp9934\nsVbody\np9935\nVmeta charsetutf8This is cute. Will Ferrell And John C. Reilly Share A Kiss At The NBA Playoffs.\np9936\nsVimage_hash\np9937\nVa02027ecd8151b8b4a891650de72291d\np9938\nsVname\np9939\nVWill Ferrell Kiss\np9940\nsVtitle\np9941\nVWill Ferrell Kiss\np9942\nsVcreative_id\np9943\nV6003213894165\np9944\nsVpreview_url\np9945\nVhttp://www.facebook.com/ads/api/creative_preview.php?cid=6003213894165\np9946\nsVid\np9947\nV6003213894165\np9948\nsVimage_url\np9949\nVhttps://fbcdn-creative-a.akamaihd.net/hads-ak-ash3/s110x80/701896_6006845013165_48551_n.jpg\np9950\nsVcount_current_adgroups\np9951\nI0\nsVrun_status\np9952\nI1\nsVtype\np9953\nI1\nsVlink_url\np9954\nVhttp://buzzfeed.com/ht/mjs538/will-ferrell-and-john-c-reilly-share-a-kiss-at-th/HFAA1\np9955\nsVview_tag\np9956\ng1826\nsa(dp9957\nValt_view_tags\np9958\n(lp9959\nsVbody\np9960\nVThis is cute. Will Ferrell And John C. Reilly Share A Kiss At The NBA Playoffs.\np9961\nsVimage_hash\np9962\nVa02027ecd8151b8b4a891650de72291d\np9963\nsVname\np9964\nVWill Ferrell Kiss-00\np9965\nsVtitle\np9966\nVWill Ferrell Kiss\np9967\nsVcreative_id\np9968\nV6003216820965\np9969\nsVpreview_url\np9970\nVhttp://www.facebook.com/ads/api/creative_preview.php?cid=6003216820965\np9971\nsVid\np9972\nV6003216820965\np9973\nsVimage_url\np9974\nVhttps://fbcdn-creative-a.akamaihd.net/hads-ak-ash3/s110x80/701896_6006845013165_48551_n.jpg\np9975\nsVcount_current_adgroups\np9976\nI0\nsVrun_status\np9977\nI1\nsVtype\np9978\nI1\nsVlink_url\np9979\nVhttp://buzzfeed.com/ht/mjs538/will-ferrell-and-john-c-reilly-share-a-kiss-at-th/HFAA1\np9980\nsVview_tag\np9981\ng1826\nsa(dp9982\nValt_view_tags\np9983\n(lp9984\nsVbody\np9985\nVFind our favorite "Awesome Modern Day Web Experiences" in one spot.  Only on BuzzFeed!\np9986\nsVimage_hash\np9987\nV7a4cbc38cc88e5cf39f59f70d4abd888\np9988\nsVname\np9989\nVHave you tried these?\np9990\nsVtitle\np9991\nVHave you tried these?\np9992\nsVcreative_id\np9993\nV6005105714565\np9994\nsVpreview_url\np9995\nVhttp://www.facebook.com/ads/api/creative_preview.php?cid=6005105714565\np9996\nsVid\np9997\nV6005105714565\np9998\nsVimage_url\np9999\nVhttps://fbcdn-creative-a.akamaihd.net/hads-ak-prn1/s110x80/708196_6006844787565_27607_n.jpg\np10000\nsVcount_current_adgroups\np10001\nI1\nsVrun_status\np10002\nI1\nsVtype\np10003\nI1\nsVlink_url\np10004\nVhttp://www.buzzfeed.com/h1/fbad/internetexplorer9/the-most-awesome-modern-day-web-experiences\np10005\nsVview_tag\np10006\ng1826\nsa(dp10007\nValt_view_tags\np10008\n(lp10009\nsVbody\np10010\nVThe White House released on Wednesday President Barack Obama\'s birth certificate. Check out the image here!\np10011\nsVimage_hash\np10012\nV7869f9c13ebb4af50b4380a84d05ad7c\np10013\nsVname\np10014\nVObama\'s Birth Certificate\np10015\nsVtitle\np10016\nVObama\'s Birth Certificate\np10017\nsVcreative_id\np10018\nV6003200264165\np10019\nsVpreview_url\np10020\nVhttp://www.facebook.com/ads/api/creative_preview.php?cid=6003200264165\np10021\nsVid\np10022\nV6003200264165\np10023\nsVimage_url\np10024\nVhttps://fbcdn-creative-a.akamaihd.net/hads-ak-prn1/s110x80/708170_6006844778365_41520_n.jpg\np10025\nsVcount_current_adgroups\np10026\nI0\nsVrun_status\np10027\nI1\nsVtype\np10028\nI1\nsVlink_url\np10029\nVhttp://www.huffingtonpost.com/2011/04/27/obama-birth-certificate-r_n_854248.html?utm_campaign=buzzfeedIO&ncid=buzzfeedIO\np10030\nsVview_tag\np10031\ng1826\nsa(dp10032\nValt_view_tags\np10033\n(lp10034\nsVbody\np10035\nVIf you win the lottery, you can basically do anything you want. Check out these awesome ideas people would do with all that money!\np10036\nsVimage_hash\np10037\nV15199ecb8b0ec549035d439fab3adf3d\np10038\nsVname\np10039\nVWant To Win The Lotto?-00\np10040\nsVtitle\np10041\nVWant To Win The Lotto?\np10042\nsVcreative_id\np10043\nV6003199340565\np10044\nsVpreview_url\np10045\nVhttp://www.facebook.com/ads/api/creative_preview.php?cid=6003199340565\np10046\nsVid\np10047\nV6003199340565\np10048\nsVimage_url\np10049\nVhttps://fbcdn-creative-a.akamaihd.net/hads-ak-prn1/s110x80/708170_6006844182565_42440_n.jpg\np10050\nsVcount_'
p6
sS'hash'
p7
S'a9dd0041d6493eeedf66ffcc70bd4a6ab8baad8e'
p8
sS'stack'
p9
S''
s.