(dp1
S'args'
p2
S''
sS'methodname'
p3
S''
sS'packet_num'
p4
I152
sS'returnval'
p5
S'\nsVimage_hash\np18484\nV55b56b19d50eeb1348932df4d0c2b5c7\np18485\nsVname\np18486\nVThe Beauty of an Engine!\np18487\nsVtitle\np18488\nVThe Beauty of an Engine!\np18489\nsVcreative_id\np18490\nV6004834356765\np18491\nsVpreview_url\np18492\nVhttp://www.facebook.com/ads/api/creative_preview.php?cid=6004834356765\np18493\nsVid\np18494\nV6004834356765\np18495\nsVimage_url\np18496\nVhttps://fbcdn-creative-a.akamaihd.net/hads-ak-ash3/s110x80/708175_6006844584565_54533_n.jpg\np18497\nsVcount_current_adgroups\np18498\nI1\nsVrun_status\np18499\nI1\nsVtype\np18500\nI1\nsVlink_url\np18501\nVhttp://www.buzzfeed.com/h1/FBAD/thegeshow/stunning-pictures-of-powerful-engines\np18502\nsVview_tag\np18503\ng1826\nsa(dp18504\nValt_view_tags\np18505\n(lp18506\nsVbody\np18507\nVHere\'s a peak inside the floor of a GE Factory. Check out all the other amazing cinemagraph-style GIFs on BuzzFeed.\np18508\nsVimage_hash\np18509\nVd777ccae724a99acf5909a4c7667bd48\np18510\nsVname\np18511\nVInside The GE Factory\np18512\nsVtitle\np18513\nVInside The GE Factory\np18514\nsVcreative_id\np18515\nV6004807139965\np18516\nsVpreview_url\np18517\nVhttp://www.facebook.com/ads/api/creative_preview.php?cid=6004807139965\np18518\nsVid\np18519\nV6004807139965\np18520\nsVimage_url\np18521\nVhttps://fbcdn-creative-a.akamaihd.net/hads-ak-ash3/s110x80/708161_6006845340365_29569_n.jpg\np18522\nsVcount_current_adgroups\np18523\nI2\nsVrun_status\np18524\nI1\nsVtype\np18525\nI1\nsVlink_url\np18526\nVhttp://www.buzzfeed.com/h1/FBAD/thegeshow/10-beautiful-gifs-from-the-floor-of-a-ge-factory\np18527\nsVview_tag\np18528\ng1826\nsa(dp18529\nValt_view_tags\np18530\n(lp18531\nsVbody\np18532\nVZack Morris and his cell phone made BuzzFeed\'s list of "Favorite Sidekicks From The \'90s". Check out the rest!\np18533\nsVimage_hash\np18534\nV43f7d10cdfeed4367e11f3309d2bb915\np18535\nsVname\np18536\nVThe Smallest Fuel Cell-00\np18537\nsVtitle\np18538\nVThe Smallest Fuel Cell\np18539\nsVcreative_id\np18540\nV6004791129165\np18541\nsVpreview_url\np18542\nVhttp://www.facebook.com/ads/api/creative_preview.php?cid=6004791129165\np18543\nsVid\np18544\nV6004791129165\np18545\nsVimage_url\np18546\nVhttps://fbcdn-creative-a.akamaihd.net/hads-ak-prn1/s110x80/708194_6006844460765_9449_n.jpg\np18547\nsVcount_current_adgroups\np18548\nI0\nsVrun_status\np18549\nI1\nsVtype\np18550\nI1\nsVlink_url\np18551\nVhttp://www.buzzfeed.com/h1/FBAD/mioenergy/your-favorite-sidekicks-from-the-90s-54wc\np18552\nsVview_tag\np18553\ng1826\nsa(dp18554\nValt_view_tags\np18555\n(lp18556\nsVbody\np18557\nVThe loser will, on a day of the winner\'s choosing, run from the BuzzFeed office to Shake Shack in Madison Square Park and purchase the\np18558\nsVimage_hash\np18559\nVf6a4e7ca6d7303b1e476b0d82c57d1a0\np18560\nsVname\np18561\nVThe loser will, on a day\np18562\nsVtitle\np18563\nVThe loser will, on a day\np18564\nsVcreative_id\np18565\nV6004789181765\np18566\nsVpreview_url\np18567\nVhttp://www.facebook.com/ads/api/creative_preview.php?cid=6004789181765\np18568\nsVid\np18569\nV6004789181765\np18570\nsVimage_url\np18571\nVhttps://fbcdn-creative-a.akamaihd.net/hads-ak-prn1/s110x80/708163_6006845542565_6149_n.jpg\np18572\nsVcount_current_adgroups\np18573\nI0\nsVrun_status\np18574\nI1\nsVtype\np18575\nI1\nsVlink_url\np18576\nVhttp://buzzfeed.com/ht/scott/the-loser-will-on-a-day-of-the-winners-twh0-b/HFAA1\np18577\nsVview_tag\np18578\ng1826\nsa(dp18579\nValt_view_tags\np18580\n(lp18581\nsVbody\np18582\nVTrue story. Heres what happened.\np18583\nsVimage_hash\np18584\nVbf2a855a5e0010db9158e48b2c836325\np18585\nsVname\np18586\nVShakira Was Attacked By\np18587\nsVtitle\np18588\nVShakira Was Attacked By\np18589\nsVcreative_id\np18590\nV6004757610965\np18591\nsVpreview_url\np18592\nVhttp://www.facebook.com/ads/api/creative_preview.php?cid=6004757610965\np18593\nsVid\np18594\nV6004757610965\np18595\nsVimage_url\np18596\nVhttps://fbcdn-creative-a.akamaihd.net/hads-ak-prn1/s110x80/708192_6006845200565_31968_n.jpg\np18597\nsVcount_current_adgroups\np18598\nI0\nsVrun_status\np18599\nI1\nsVtype\np18600\nI1\nsVlink_url\np18601\nVhttp://buzzfeed.com/ht/mjs538/shakira-was-attacked-by-a-sea-lion/HFAA1\np18602\nsVview_tag\np18603\ng1826\nsa(dp18604\nValt_view_tags\np18605\n(lp18606\nsVbody\np18607\nVIsnt she pretty?\np18608\nsVimage_hash\np18609\nVdf3bae9a439e79d2021c2b24d347abd0\np18610\nsVname\np18611\nVHappy '
p6
sS'hash'
p7
S'a9dd0041d6493eeedf66ffcc70bd4a6ab8baad8e'
p8
sS'stack'
p9
S''
s.