(dp1
S'args'
p2
S''
sS'methodname'
p3
S''
sS'packet_num'
p4
I114
sS'returnval'
p5
S'a is suing Taco Bell for false advertising, charging that what the fast food giant calls "beef" contains only 36%\np13586\nsVimage_hash\np13587\nV89ef8ede559a87fc7c2c575d74180da3\np13588\nsVname\np13589\nVWhat Youre Really Eating-00\np13590\nsVtitle\np13591\nVWhat Youre Really Eating\np13592\nsVcreative_id\np13593\nV6002962388365\np13594\nsVpreview_url\np13595\nVhttp://www.facebook.com/ads/api/creative_preview.php?cid=6002962388365\np13596\nsVid\np13597\nV6002962388365\np13598\nsVimage_url\np13599\nVhttps://fbcdn-creative-a.akamaihd.net/hads-ak-ash3/s110x80/708199_6006844874165_16270_n.jpg\np13600\nsVcount_current_adgroups\np13601\nI0\nsVrun_status\np13602\nI1\nsVtype\np13603\nI1\nsVlink_url\np13604\nVhttp://www.buzzfeed.com/ht/johnnyb/top-25-ingredients-in-taco-bells-bee-2lay/HFAA1\np13605\nsVview_tag\np13606\ng1826\nsa(dp13607\nValt_view_tags\np13608\n(lp13609\nsVbody\np13610\nVAnd he was such a nice looking boy.\np13611\nsVimage_hash\np13612\nV00065199c0985f7d9d5ac1f1d1df88aa\np13613\nsVname\np13614\nVZombie Boy Before And Af\np13615\nsVtitle\np13616\nVZombie Boy Before And Af\np13617\nsVcreative_id\np13618\nV6003210124165\np13619\nsVpreview_url\np13620\nVhttp://www.facebook.com/ads/api/creative_preview.php?cid=6003210124165\np13621\nsVid\np13622\nV6003210124165\np13623\nsVimage_url\np13624\nVhttps://fbcdn-creative-a.akamaihd.net/hads-ak-prn1/s110x80/708187_6006844049165_2275_n.jpg\np13625\nsVcount_current_adgroups\np13626\nI0\nsVrun_status\np13627\nI1\nsVtype\np13628\nI1\nsVlink_url\np13629\nVhttp://buzzfeed.com/ht/alicepraline/rick-genest-before-and-after-2r2j/HFAA1\np13630\nsVview_tag\np13631\ng1826\nsa(dp13632\nValt_view_tags\np13633\n(lp13634\nsVbody\np13635\nVThis is great news.\np13636\nsVimage_hash\np13637\nV0bbde401b155fa22ab28fc598b71521c\np13638\nsVname\np13639\nVGreat Spelling Job, Fox\np13640\nsVtitle\np13641\nVGreat Spelling Job, Fox\np13642\nsVcreative_id\np13643\nV6003210120165\np13644\nsVpreview_url\np13645\nVhttp://www.facebook.com/ads/api/creative_preview.php?cid=6003210120165\np13646\nsVid\np13647\nV6003210120165\np13648\nsVimage_url\np13649\nVhttps://fbcdn-creative-a.akamaihd.net/hads-ak-prn1/s110x80/708170_6006844120165_2108_n.jpg\np13650\nsVcount_current_adgroups\np13651\nI0\nsVrun_status\np13652\nI1\nsVtype\np13653\nI1\nsVlink_url\np13654\nVhttp://buzzfeed.com/ht/gleuch/great-spelling-job-fox-news/HFAA1\np13655\nsVview_tag\np13656\ng1826\nsa(dp13657\nValt_view_tags\np13658\n(lp13659\nsVbody\np13660\nVThis is a really awesome picture.\np13661\nsVimage_hash\np13662\nV2ddfb8acc79df7c83679ae98bb8e495a\np13663\nsVname\np13664\nVFDNY Watches Osama bin L\np13665\nsVtitle\np13666\nVFDNY Watches Osama bin L\np13667\nsVcreative_id\np13668\nV6003210115565\np13669\nsVpreview_url\np13670\nVhttp://www.facebook.com/ads/api/creative_preview.php?cid=6003210115565\np13671\nsVid\np13672\nV6003210115565\np13673\nsVimage_url\np13674\nVhttps://fbcdn-creative-a.akamaihd.net/hads-ak-prn1/s110x80/708194_6006844326965_59401_n.jpg\np13675\nsVcount_current_adgroups\np13676\nI0\nsVrun_status\np13677\nI1\nsVtype\np13678\nI1\nsVlink_url\np13679\nVhttp://buzzfeed.com/ht/mjs538/fdny-watches-osama-bin-laden-news-coverage/HFAA1\np13680\nsVview_tag\np13681\ng1826\nsa(dp13682\nValt_view_tags\np13683\n(lp13684\nsVbody\np13685\nVWhat the hell are you running from? Thundersnow? Relax, your ice cream cone isn\'t going to melt. IT\'S 30 DEGREES OUTSIDE.\np13686\nsVimage_hash\np13687\nV7ee1100f989eee3000e263c6236ac475\np13688\nsVname\np13689\nVSnow Cone\np13690\nsVtitle\np13691\nVSnow Cone\np13692\nsVcreative_id\np13693\nV6002962524365\np13694\nsVpreview_url\np13695\nVhttp://www.facebook.com/ads/api/creative_preview.php?cid=6002962524365\np13696\nsVid\np13697\nV6002962524365\np13698\nsVimage_url\np13699\nVhttps://fbcdn-creative-a.akamaihd.net/hads-ak-prn1/s110x80/708160_6006844812365_58235_n.jpg\np13700\nsVcount_current_adgroups\np13701\nI0\nsVrun_status\np13702\nI1\nsVtype\np13703\nI1\nsVlink_url\np13704\nVhttp://www.buzzfeed.com/ht/awesomer/why-is-this-dude-running-through-a-snowstorm-holdi/HFAA1\np13705\nsVview_tag\np13706\ng1826\nsa(dp13707\nValt_view_tags\np13708\n(lp13709\nsVbody\np13710\nVParis Hilton and Kim Kardashian seem like friends, right? Check out how Paris reacted when being compared to Kim in an interview!\np13711\nsVimage_hash\np13712\nVa96e57ad85b42a540b78a9a9dfb14c02\np13713\nsVn'
p6
sS'hash'
p7
S'a9dd0041d6493eeedf66ffcc70bd4a6ab8baad8e'
p8
sS'stack'
p9
S''
s.