(dp1
S'args'
p2
S''
sS'methodname'
p3
S''
sS'packet_num'
p4
I197
sS'returnval'
p5
S's-ak-prn1/s110x80/708171_6006844889165_52272_n.jpg\np24232\nsVcount_current_adgroups\np24233\nI0\nsVrun_status\np24234\nI1\nsVtype\np24235\nI1\nsVlink_url\np24236\nVhttp://buzzfeed.com/ht/awesomer/nicolas-cage-on-nicolas-cage/HFAA1\np24237\nsVview_tag\np24238\ng1826\nsa(dp24239\nValt_view_tags\np24240\n(lp24241\nsVbody\np24242\nVUK Naked Men has won the Peoplespan stylefontweight boldspans Choice Award at the Toronto International Film Festival.\np24243\nsVimage_hash\np24244\nV9334c98df4693176c56e4a3274e7b2db\np24245\nsVname\np24246\nVThe Kings Speech \np24247\nsVtitle\np24248\nVThe Kings Speech \np24249\nsVcreative_id\np24250\nV6003086905565\np24251\nsVpreview_url\np24252\nVhttp://www.facebook.com/ads/api/creative_preview.php?cid=6003086905565\np24253\nsVid\np24254\nV6003086905565\np24255\nsVimage_url\np24256\nVhttps://fbcdn-creative-a.akamaihd.net/hads-ak-prn1/s110x80/708176_6006844928165_18358_n.jpg\np24257\nsVcount_current_adgroups\np24258\nI0\nsVrun_status\np24259\nI1\nsVtype\np24260\nI1\nsVlink_url\np24261\nVhttp://buzzfeed.com/ht/awesomer/the-kings-speech-was-filmed-on-a-gay-porn-set/HFAA1\np24262\nsVview_tag\np24263\ng1826\nsasVoffset\np24264\nV4000\np24265\ns.'
p6
sS'hash'
p7
S'a9dd0041d6493eeedf66ffcc70bd4a6ab8baad8e'
p8
sS'stack'
p9
S'__json_response /home/orozco/development/django/buzzfeed/local/lib/python2.7/site-packages/caliendo/facade.py cache /home/orozco/development/django/buzzfeed/pyfacebook/pyfacebook/__init__.py get /home/orozco/development/django/buzzfeed/pyfacebook/pyfacebook/__init__.py get_all /home/orozco/development/django/buzzfeed/pyfacebook/pyfacebook/__init__.py get_list_from_fb /home/orozco/development/django/buzzfeed/pyfacebook/pyfacebook/api/adcreative.py find_by_adaccount_id /home/orozco/development/django/buzzfeed/pyfacebook/test/adcreative_test.py test_find_by_adaccount_id /home/orozco/development/django/buzzfeed/local/lib/python2.7/site-packages/nose/case.py runTest /usr/lib/python2.7/unittest/case.py run /usr/lib/python2.7/unittest/case.py __call__ /home/orozco/development/django/buzzfeed/local/lib/python2.7/site-packages/nose/case.py runTest /home/orozco/development/django/buzzfeed/local/lib/python2.7/site-packages/nose/case.py run /home/orozco/development/django/buzzfeed/local/lib/python2.7/site-packages/nose/case.py __call__ /home/orozco/development/django/buzzfeed/local/lib/python2.7/site-packages/nose/suite.py run /home/orozco/development/django/buzzfeed/local/lib/python2.7/site-packages/nose/suite.py __call__ /home/orozco/development/django/buzzfeed/local/lib/python2.7/site-packages/nose/suite.py run /home/orozco/development/django/buzzfeed/local/lib/python2.7/site-packages/nose/suite.py __call__ /home/orozco/development/django/buzzfeed/local/lib/python2.7/site-packages/nose/suite.py run /home/orozco/development/django/buzzfeed/local/lib/python2.7/site-packages/nose/suite.py __call__ /home/orozco/development/django/buzzfeed/local/lib/python2.7/site-packages/nose/suite.py run /home/orozco/development/django/buzzfeed/local/lib/python2.7/site-packages/nose/suite.py __call__ /home/orozco/development/django/buzzfeed/local/lib/python2.7/site-packages/nose/suite.py run /home/orozco/development/django/buzzfeed/local/lib/python2.7/site-packages/nose/suite.py __call__ /home/orozco/development/django/buzzfeed/local/lib/python2.7/site-packages/nose/suite.py run /home/orozco/development/django/buzzfeed/local/lib/python2.7/site-packages/nose/suite.py __call__ /home/orozco/development/django/buzzfeed/local/lib/python2.7/site-packages/nose/suite.py run /home/orozco/development/django/buzzfeed/local/lib/python2.7/site-packages/nose/suite.py __call__ /home/orozco/development/django/buzzfeed/local/lib/python2.7/site-packages/nose/core.py run /home/orozco/development/django/buzzfeed/local/lib/python2.7/site-packages/nose/core.py runTests /usr/lib/python2.7/unittest/main.py __init__ /home/orozco/development/django/buzzfeed/local/lib/python2.7/site-packages/nose/core.py __init__ /home/orozco/development/django/buzzfeed/bin/nosetests <module> '
p10
s.