(dp1
S'args'
p2
S''
sS'methodname'
p3
S''
sS'packet_num'
p4
I135
sS'returnval'
p5
S'\nsVimage_hash\np16287\nV4af4edaa7368b0e40c17f8423f5b3f04\np16288\nsVname\np16289\nVVeronica Belmont-02\np16290\nsVtitle\np16291\ng1826\nsVcreative_id\np16292\nV6002337169765\np16293\nsVpreview_url\np16294\nVhttp://www.facebook.com/ads/api/creative_preview.php?cid=6002337169765\np16295\nsVobject_id\np16296\nI7283833828\nsVid\np16297\nV6002337169765\np16298\nsVimage_url\np16299\nVhttps://fbcdn-creative-a.akamaihd.net/hads-ak-prn1/s110x80/708167_6006844502965_50687_n.jpg\np16300\nsVcount_current_adgroups\np16301\nI0\nsVrun_status\np16302\nI1\nsVtype\np16303\nI2\nsVlink_url\np16304\nVhttp://www.facebook.com/Veronica\np16305\nsVview_tag\np16306\ng1826\nsa(dp16307\nValt_view_tags\np16308\n(lp16309\nsVbody\np16310\nVYou may want to become a fan of Veronica Belmont. She\'ll keep you up to date on the latest tech and gaming news from around the web.\np16311\nsVimage_hash\np16312\nV03b26769b2c99aa4e006ebeaf54848d2\np16313\nsVname\np16314\nVVeronica Belmont-03\np16315\nsVtitle\np16316\ng1826\nsVcreative_id\np16317\nV6002337770965\np16318\nsVpreview_url\np16319\nVhttp://www.facebook.com/ads/api/creative_preview.php?cid=6002337770965\np16320\nsVobject_id\np16321\nI7283833828\nsVid\np16322\nV6002337770965\np16323\nsVimage_url\np16324\nVhttps://fbcdn-creative-a.akamaihd.net/hads-ak-prn1/s110x80/708194_6006844067365_25195_n.jpg\np16325\nsVcount_current_adgroups\np16326\nI0\nsVrun_status\np16327\nI1\nsVtype\np16328\nI2\nsVlink_url\np16329\nVhttp://www.facebook.com/Veronica\np16330\nsVview_tag\np16331\ng1826\nsa(dp16332\nValt_view_tags\np16333\n(lp16334\nsVbody\np16335\nV2007\'s Sexiest Geek, Veronica\'s "knowledge about tech and gaming culture might just distract you from her gorgeousness for a minute."\np16336\nsVimage_hash\np16337\nV45bb5c02fe6d591f58f0069adbaf16a9\np16338\nsVname\np16339\nVVeronica Belmont-04\np16340\nsVtitle\np16341\ng1826\nsVcreative_id\np16342\nV6002338049765\np16343\nsVpreview_url\np16344\nVhttp://www.facebook.com/ads/api/creative_preview.php?cid=6002338049765\np16345\nsVobject_id\np16346\nI7283833828\nsVid\np16347\nV6002338049765\np16348\nsVimage_url\np16349\nVhttps://fbcdn-creative-a.akamaihd.net/hads-ak-ash3/s110x80/701889_6006844475365_12967_n.jpg\np16350\nsVcount_current_adgroups\np16351\nI0\nsVrun_status\np16352\nI1\nsVtype\np16353\nI2\nsVlink_url\np16354\nVhttp://www.facebook.com/Veronica\np16355\nsVview_tag\np16356\ng1826\nsa(dp16357\nValt_view_tags\np16358\n(lp16359\nsVbody\np16360\nVWant to know what\'s going viral around the Web right now? Become a fan!\np16361\nsVimage_hash\np16362\nVe0fa0d659474a9eb504f50f2d2291034\np16363\nsVname\np16364\nVViralWebFeed-00\np16365\nsVtitle\np16366\ng1826\nsVcreative_id\np16367\nV6002326572365\np16368\nsVpreview_url\np16369\nVhttp://www.facebook.com/ads/api/creative_preview.php?cid=6002326572365\np16370\nsVobject_id\np16371\nI74067605119\nsVid\np16372\nV6002326572365\np16373\nsVimage_url\np16374\nVhttps://fbcdn-creative-a.akamaihd.net/hads-ak-ash3/s110x80/701894_6006845402565_21310_n.jpg\np16375\nsVcount_current_adgroups\np16376\nI0\nsVrun_status\np16377\nI1\nsVtype\np16378\nI2\nsVlink_url\np16379\nVhttp://www.facebook.com/ViralFeed\np16380\nsVview_tag\np16381\ng1826\nsa(dp16382\nValt_view_tags\np16383\n(lp16384\nsVbody\np16385\nVFind the best viral images, videos, and stories on the web before anyone else. Become a fan!\np16386\nsVimage_hash\np16387\nV8668c78d743f9c5e53ac54005b6c0e77\np16388\nsVname\np16389\nVViralWebFeed-02\np16390\nsVtitle\np16391\ng1826\nsVcreative_id\np16392\nV6002327417365\np16393\nsVpreview_url\np16394\nVhttp://www.facebook.com/ads/api/creative_preview.php?cid=6002327417365\np16395\nsVobject_id\np16396\nI74067605119\nsVid\np16397\nV6002327417365\np16398\nsVimage_url\np16399\nVhttps://fbcdn-creative-a.akamaihd.net/hads-ak-prn1/s110x80/708180_6006844855765_8678_n.jpg\np16400\nsVcount_current_adgroups\np16401\nI0\nsVrun_status\np16402\nI1\nsVtype\np16403\nI2\nsVlink_url\np16404\nVhttp://www.facebook.com/ViralFeed\np16405\nsVview_tag\np16406\ng1826\nsa(dp16407\nValt_view_tags\np16408\n(lp16409\nsVbody\np16410\nVFind the grossest, weirdest stuff on the Internet before anyone else. Seriously, gross. WTF? Become a fan.\np16411\nsVimage_hash\np16412\nVd6ab5b30f70b5de93741b97f989cf723\np16413\nsVname\np16414\nVGrossFeed\np16415\nsVtitle\np16416\ng1826\nsVcreative_id\np16417\nV6002326611165\np16418\nsVpreview_url\np16419\nVhttp://www.facebo'
p6
sS'hash'
p7
S'a9dd0041d6493eeedf66ffcc70bd4a6ab8baad8e'
p8
sS'stack'
p9
S''
s.