(dp1
S'args'
p2
S''
sS'methodname'
p3
S''
sS'packet_num'
p4
I62
sS'returnval'
p5
S"rosoft/2011/05/12/disaster-recovery-in-the-cloud/?nowelcome\np6909\nsVview_tag\np6910\ng1826\nsa(dp6911\nValt_view_tags\np6912\n(lp6913\nsVbody\np6914\nVWhen are you the most productive?  If you're like most people, it's not at the office. See what the experts are saying.\np6915\nsVimage_hash\np6916\nV34fed3cbff48b90ce23a551717271f20\np6917\nsVname\np6918\nVYou Can\\u2019t Work at Work-01\np6919\nsVtitle\np6920\nVYou Can\\u2019t Work at Work\np6921\nsVcreative_id\np6922\nV6003346234765\np6923\nsVpreview_url\np6924\nVhttp://www.facebook.com/ads/api/creative_preview.php?cid=6003346234765\np6925\nsVid\np6926\nV6003346234765\np6927\nsVimage_url\np6928\nVhttps://fbcdn-creative-a.akamaihd.net/hads-ak-prn1/s110x80/708161_6006844360165_28377_n.jpg\np6929\nsVcount_current_adgroups\np6930\nI0\nsVrun_status\np6931\nI1\nsVtype\np6932\nI1\nsVlink_url\np6933\nVhttp://blogs.forbes.com/sap/2011/05/09/you-cant-work-at-work/?nowelcome\np6934\nsVview_tag\np6935\ng1826\nsa(dp6936\nValt_view_tags\np6937\n(lp6938\nsVbody\np6939\nVNo matter what Stephen Hawking says, God exists and he loves geeks.  See why this author thinks so.\np6940\nsVimage_hash\np6941\nVeff8b39a63057ebc5c65d3bdf474c891\np6942\nsVname\np6943\nVGod Loves Geeks!-01\np6944\nsVtitle\np6945\nVGod Loves Geeks!\np6946\nsVcreative_id\np6947\nV6003346250165\np6948\nsVpreview_url\np6949\nVhttp://www.facebook.com/ads/api/creative_preview.php?cid=6003346250165\np6950\nsVid\np6951\nV6003346250165\np6952\nsVimage_url\np6953\nVhttps://fbcdn-creative-a.akamaihd.net/hads-ak-prn1/s110x80/708206_6006845502165_18890_n.jpg\np6954\nsVcount_current_adgroups\np6955\nI0\nsVrun_status\np6956\nI1\nsVtype\np6957\nI1\nsVlink_url\np6958\nVhttp://blogs.forbes.com/sap/2011/05/17/no-matter-what-stephen-hawking-says-god-exists-and-he-loves-geeks/?nowelcome\np6959\nsVview_tag\np6960\ng1826\nsa(dp6961\nValt_view_tags\np6962\n(lp6963\nsVbody\np6964\nVWhile the technology behind cloud management tools is well known, the business value is not as well understood.  Find out more\np6965\nsVimage_hash\np6966\nV7f3a38e48a5669368515feffbfde2d5b\np6967\nsVname\np6968\nVCloud Technology Benefits\np6969\nsVtitle\np6970\nVCloud Technology Benefits\np6971\nsVcreative_id\np6972\nV6003346264965\np6973\nsVpreview_url\np6974\nVhttp://www.facebook.com/ads/api/creative_preview.php?cid=6003346264965\np6975\nsVid\np6976\nV6003346264965\np6977\nsVimage_url\np6978\nVhttps://fbcdn-creative-a.akamaihd.net/hads-ak-ash3/s110x80/708160_6006844813365_19956_n.jpg\np6979\nsVcount_current_adgroups\np6980\nI0\nsVrun_status\np6981\nI1\nsVtype\np6982\nI1\nsVlink_url\np6983\nVhttp://blogs.forbes.com/microsoft/2011/04/11/4-business-benefits-of-cloud-management-technology?nowelcome\np6984\nsVview_tag\np6985\ng1826\nsa(dp6986\nValt_view_tags\np6987\n(lp6988\nsVbody\np6989\nVThe good, the bad and the ugly of managing mobile devices (Mostly Good).  See what industry experts are saying.\np6990\nsVimage_hash\np6991\nV4c42399b24f629ca598006da97be2a52\np6992\nsVname\np6993\nVManaging Mobile Devices\np6994\nsVtitle\np6995\nVManaging Mobile Devices\np6996\nsVcreative_id\np6997\nV6003339417965\np6998\nsVpreview_url\np6999\nVhttp://www.facebook.com/ads/api/creative_preview.php?cid=6003339417965\np7000\nsVid\np7001\nV6003339417965\np7002\nsVimage_url\np7003\nVhttps://fbcdn-creative-a.akamaihd.net/hads-ak-prn1/s110x80/708166_6006844513565_43764_n.jpg\np7004\nsVcount_current_adgroups\np7005\nI0\nsVrun_status\np7006\nI1\nsVtype\np7007\nI1\nsVlink_url\np7008\nVhttp://blogs.forbes.com/sap/2011/05/18/the-good-bad-and-ugly-of-managing-mobile-devices-mostly-good/\np7009\nsVview_tag\np7010\ng1826\nsa(dp7011\nValt_view_tags\np7012\n(lp7013\nsVbody\np7014\nVHow do you migrate an entire enterprise to the Cloud?  Get tips on how to prepare for such a massive undertaking. \np7015\nsVimage_hash\np7016\nV8f699fbf3e1e3ebe10b366df7e722da9\np7017\nsVname\np7018\nVGreat Migrations\np7019\nsVtitle\np7020\nVGreat Migrations\np7021\nsVcreative_id\np7022\nV6003339440565\np7023\nsVpreview_url\np7024\nVhttp://www.facebook.com/ads/api/creative_preview.php?cid=6003339440565\np7025\nsVid\np7026\nV6003339440565\np7027\nsVimage_url\np7028\nVhttps://fbcdn-creative-a.akamaihd.net/hads-ak-prn1/s110x80/708189_6006844906165_51878_n.jpg\np7029\nsVcount_current_adgroups\np7030\nI0\nsVrun_status\np7031\nI1\nsVtype\np7032\nI1\nsVlink_url\np7033\nVhttp://"
p6
sS'hash'
p7
S'a9dd0041d6493eeedf66ffcc70bd4a6ab8baad8e'
p8
sS'stack'
p9
S''
s.