(dp1
S'args'
p2
S''
sS'methodname'
p3
S''
sS'packet_num'
p4
I61
sS'returnval'
p5
S"9/you-cant-work-at-work\np6784\nsVview_tag\np6785\ng1826\nsa(dp6786\nValt_view_tags\np6787\n(lp6788\nsVbody\np6789\nVWhen natural disasters hit, how do you avoid similar catastrophes with your business data? Learn how to stay protected in the Cloud.\np6790\nsVimage_hash\np6791\nV8f699fbf3e1e3ebe10b366df7e722da9\np6792\nsVname\np6793\nVCloud Disaster Recovery-00\np6794\nsVtitle\np6795\nVCloud Disaster Recovery\np6796\nsVcreative_id\np6797\nV6003339442965\np6798\nsVpreview_url\np6799\nVhttp://www.facebook.com/ads/api/creative_preview.php?cid=6003339442965\np6800\nsVid\np6801\nV6003339442965\np6802\nsVimage_url\np6803\nVhttps://fbcdn-creative-a.akamaihd.net/hads-ak-prn1/s110x80/708189_6006844906165_51878_n.jpg\np6804\nsVcount_current_adgroups\np6805\nI0\nsVrun_status\np6806\nI1\nsVtype\np6807\nI1\nsVlink_url\np6808\nVhttp://blogs.forbes.com/microsoft/2011/05/12/disaster-recovery-in-the-cloud/?nowelcome\np6809\nsVview_tag\np6810\ng1826\nsa(dp6811\nValt_view_tags\np6812\n(lp6813\nsVbody\np6814\nVWhen are you the most productive?  If you're like most people, it's not at the office. See what the experts are saying.\np6815\nsVimage_hash\np6816\nV763ed4f8b71822b14d8164ba74bc90eb\np6817\nsVname\np6818\nVYou Can\\u2019t Work at Work-00\np6819\nsVtitle\np6820\nVYou Can\\u2019t Work at Work\np6821\nsVcreative_id\np6822\nV6003339443765\np6823\nsVpreview_url\np6824\nVhttp://www.facebook.com/ads/api/creative_preview.php?cid=6003339443765\np6825\nsVid\np6826\nV6003339443765\np6827\nsVimage_url\np6828\nVhttps://fbcdn-creative-a.akamaihd.net/hads-ak-ash3/s110x80/708201_6006844763165_46290_n.jpg\np6829\nsVcount_current_adgroups\np6830\nI0\nsVrun_status\np6831\nI1\nsVtype\np6832\nI1\nsVlink_url\np6833\nVhttp://blogs.forbes.com/sap/2011/05/09/you-cant-work-at-work/?nowelcome\np6834\nsVview_tag\np6835\ng1826\nsa(dp6836\nValt_view_tags\np6837\n(lp6838\nsVbody\np6839\nVNo matter what Stephen Hawking says, God exists and he loves geeks.  See why this author thinks so.\np6840\nsVimage_hash\np6841\nVb100c51a2e1f23a155dc3c84addfff7e\np6842\nsVname\np6843\nVGod Loves Geeks!-00\np6844\nsVtitle\np6845\nVGod Loves Geeks!\np6846\nsVcreative_id\np6847\nV6003339444765\np6848\nsVpreview_url\np6849\nVhttp://www.facebook.com/ads/api/creative_preview.php?cid=6003339444765\np6850\nsVid\np6851\nV6003339444765\np6852\nsVimage_url\np6853\nVhttps://fbcdn-creative-a.akamaihd.net/hads-ak-ash3/s110x80/701888_6006845114365_4899_n.jpg\np6854\nsVcount_current_adgroups\np6855\nI0\nsVrun_status\np6856\nI1\nsVtype\np6857\nI1\nsVlink_url\np6858\nVhttp://blogs.forbes.com/sap/2011/05/17/no-matter-what-stephen-hawking-says-god-exists-and-he-loves-geeks/?nowelcome\np6859\nsVview_tag\np6860\ng1826\nsa(dp6861\nValt_view_tags\np6862\n(lp6863\nsVbody\np6864\nVThe strength of cloud-based storage as a basis for disaster recovery is that the cloud isn\\u2019t where you are. Find out all the benefits.\np6865\nsVimage_hash\np6866\nVf5614b100da0d63f3b85efc827e4272f\np6867\nsVname\np6868\nVDisaster Recovery\np6869\nsVtitle\np6870\nVDisaster Recovery\np6871\nsVcreative_id\np6872\nV6003343000365\np6873\nsVpreview_url\np6874\nVhttp://www.facebook.com/ads/api/creative_preview.php?cid=6003343000365\np6875\nsVid\np6876\nV6003343000365\np6877\nsVimage_url\np6878\nVhttps://fbcdn-creative-a.akamaihd.net/hads-ak-prn1/s110x80/708186_6006845534565_38648_n.jpg\np6879\nsVcount_current_adgroups\np6880\nI0\nsVrun_status\np6881\nI1\nsVtype\np6882\nI1\nsVlink_url\np6883\nVhttp://blogs.forbes.com/microsoft/2011/05/12/disaster-recovery-in-the-cloud/?nowelcome\np6884\nsVview_tag\np6885\ng1826\nsa(dp6886\nValt_view_tags\np6887\n(lp6888\nsVbody\np6889\nVThe strength of cloud-based storage as a basis for disaster recovery is that the cloud isn\\u2019t where you are. Find out all the benefits.\np6890\nsVimage_hash\np6891\nV61c006759c5e0017ad90882e31c8c0bd\np6892\nsVname\np6893\nVDisaster Recovery-00\np6894\nsVtitle\np6895\nVDisaster Recovery\np6896\nsVcreative_id\np6897\nV6003346228165\np6898\nsVpreview_url\np6899\nVhttp://www.facebook.com/ads/api/creative_preview.php?cid=6003346228165\np6900\nsVid\np6901\nV6003346228165\np6902\nsVimage_url\np6903\nVhttps://fbcdn-creative-a.akamaihd.net/hads-ak-prn1/s110x80/708157_6006844650165_3310_n.jpg\np6904\nsVcount_current_adgroups\np6905\nI0\nsVrun_status\np6906\nI1\nsVtype\np6907\nI1\nsVlink_url\np6908\nVhttp://blogs.forbes.com/mic"
p6
sS'hash'
p7
S'a9dd0041d6493eeedf66ffcc70bd4a6ab8baad8e'
p8
sS'stack'
p9
S''
s.