(dp1
S'args'
p2
S''
sS'methodname'
p3
S''
sS'packet_num'
p4
I44
sS'returnval'
p5
S'50\nValt_view_tags\np4651\n(lp4652\nsVbody\np4653\nVWhile enterprise and B2B cloud computing is going strong, B2C doesn\'t have the same momentum. See what this expert has to say.\np4654\nsVimage_hash\np4655\nV2f8b7a2e5f57ab0e56bb052f14a4d5a3\np4656\nsVname\np4657\nVA House in the Cloud\np4658\nsVtitle\np4659\nVA House in the Cloud\np4660\nsVcreative_id\np4661\nV6003502194565\np4662\nsVpreview_url\np4663\nVhttp://www.facebook.com/ads/api/creative_preview.php?cid=6003502194565\np4664\nsVid\np4665\nV6003502194565\np4666\nsVimage_url\np4667\nVhttps://fbcdn-creative-a.akamaihd.net/hads-ak-ash3/s110x80/708176_6006844334765_40867_n.jpg\np4668\nsVcount_current_adgroups\np4669\nI0\nsVrun_status\np4670\nI1\nsVtype\np4671\nI1\nsVlink_url\np4672\nVhttp://blogs.forbes.com/microsoft/2011/06/14/a-house-in-the-cloud/?nowelcome\np4673\nsVview_tag\np4674\ng1826\nsa(dp4675\nValt_view_tags\np4676\n(lp4677\nsVbody\np4678\nVAre you motivated to work because of money or social needs such as status, certainty and autonomy? See what this expert has to say. \np4679\nsVimage_hash\np4680\nV33400ef44e173c78ff5f544f4c4b0f97\np4681\nsVname\np4682\nVYour Brain at Work\np4683\nsVtitle\np4684\nVYour Brain at Work\np4685\nsVcreative_id\np4686\nV6003502202965\np4687\nsVpreview_url\np4688\nVhttp://www.facebook.com/ads/api/creative_preview.php?cid=6003502202965\np4689\nsVid\np4690\nV6003502202965\np4691\nsVimage_url\np4692\nVhttps://fbcdn-creative-a.akamaihd.net/hads-ak-prn1/s110x80/708164_6006844352565_7389_n.jpg\np4693\nsVcount_current_adgroups\np4694\nI0\nsVrun_status\np4695\nI1\nsVtype\np4696\nI1\nsVlink_url\np4697\nVhttp://blogs.forbes.com/sap/2011/06/20/your-brain-at-work/?nowelcome\np4698\nsVview_tag\np4699\ng1826\nsa(dp4700\nValt_view_tags\np4701\n(lp4702\nsVbody\np4703\nVAre they the next "Bubble" or economic salvation? See what this expert has to say.\np4704\nsVimage_hash\np4705\nV889d325bf3bf5993acda83eb4b556fc8\np4706\nsVname\np4707\nVSocial Media IPOs\np4708\nsVtitle\np4709\nVSocial Media IPOs\np4710\nsVcreative_id\np4711\nV6003502210365\np4712\nsVpreview_url\np4713\nVhttp://www.facebook.com/ads/api/creative_preview.php?cid=6003502210365\np4714\nsVid\np4715\nV6003502210365\np4716\nsVimage_url\np4717\nVhttps://fbcdn-creative-a.akamaihd.net/hads-ak-prn1/s110x80/708205_6006844867765_41981_n.jpg\np4718\nsVcount_current_adgroups\np4719\nI0\nsVrun_status\np4720\nI1\nsVtype\np4721\nI1\nsVlink_url\np4722\nVhttp://blogs.forbes.com/sap/2011/06/13/social-media-the-next-bubble-or-economic-salvation/?nowelcome\np4723\nsVview_tag\np4724\ng1826\nsa(dp4725\nValt_view_tags\np4726\n(lp4727\nsVbody\np4728\nVFacebook is a social utility that connects people with friends and others who work\np4729\nsVimage_hash\np4730\nV8207d6a8c754752cc54ea63a77d8a2ad\np4731\nsVname\np4732\nVWelcome To Facebook - Log\np4733\nsVtitle\np4734\nVWelcome To Facebook - Log\np4735\nsVcreative_id\np4736\nV6005542978965\np4737\nsVpreview_url\np4738\nVhttp://www.facebook.com/ads/api/creative_preview.php?cid=6005542978965\np4739\nsVid\np4740\nV6005542978965\np4741\nsVimage_url\np4742\nVhttps://fbcdn-creative-a.akamaihd.net/hads-ak-prn1/s110x80/701894_6006844830165_48114_n.jpg\np4743\nsVcount_current_adgroups\np4744\nI0\nsVrun_status\np4745\nI1\nsVtype\np4746\nI1\nsVlink_url\np4747\nVhttp://www.facebook.com/\np4748\nsVview_tag\np4749\ng1826\nsa(dp4750\nValt_view_tags\np4751\n(lp4752\nsVbody\np4753\nVA place for our partners\' best content.\np4754\nsVimage_hash\np4755\nV07a7936e52c0331b64f7708cffd2c2fc\np4756\nsVname\np4757\nVBuzzFeed Partner-2012-07-23-7df8a9f92c6a985ff83fbc931c354104\np4758\nsVtitle\np4759\ng1826\nsVcreative_id\np4760\nV6005543344165\np4761\nsVpreview_url\np4762\nVhttp://www.facebook.com/ads/api/creative_preview.php?cid=6005543344165\np4763\nsVobject_id\np4764\nI238205562866018\nsVid\np4765\nV6005543344165\np4766\nsVimage_url\np4767\nVhttps://fbcdn-creative-a.akamaihd.net/hads-ak-ash3/s110x80/701888_6006844092765_56218_n.jpg\np4768\nsVcount_current_adgroups\np4769\nI0\nsVrun_status\np4770\nI1\nsVtype\np4771\nI2\nsVlink_url\np4772\nVhttps://www.yhuang.dev4033.facebook.com/BuzzFeedPartner?sk=timeline\np4773\nsVview_tag\np4774\ng1826\nsa(dp4775\nValt_view_tags\np4776\n(lp4777\nsVbody\np4778\nVWhy spend $30 on an oil change when you can do it yourself? Stop wasting your money and learn how to change it right here!\np4779\nsVimage_hash\np4780\nV3c1'
p6
sS'hash'
p7
S'a9dd0041d6493eeedf66ffcc70bd4a6ab8baad8e'
p8
sS'stack'
p9
S''
s.