(dp1
S'args'
p2
S''
sS'methodname'
p3
S''
sS'packet_num'
p4
I176
sS'returnval'
p5
S"1826\nsa(dp21539\nValt_view_tags\np21540\n(lp21541\nsVbody\np21542\nVMeth is truly crazy.\np21543\nsVimage_hash\np21544\nV4f4dccb44e61a256bc813385e2b76557\np21545\nsVname\np21546\nVHe Was Also Wearing Sock\np21547\nsVtitle\np21548\nVHe Was Also Wearing Sock\np21549\nsVcreative_id\np21550\nV6003205858765\np21551\nsVpreview_url\np21552\nVhttp://www.facebook.com/ads/api/creative_preview.php?cid=6003205858765\np21553\nsVid\np21554\nV6003205858765\np21555\nsVimage_url\np21556\nVhttps://fbcdn-creative-a.akamaihd.net/hads-ak-prn1/s110x80/708171_6006844537365_48353_n.jpg\np21557\nsVcount_current_adgroups\np21558\nI0\nsVrun_status\np21559\nI1\nsVtype\np21560\nI1\nsVlink_url\np21561\nVhttp://buzzfeed.com/ht/mjs538/he-was-also-wearing-socks/HFAA1\np21562\nsVview_tag\np21563\ng1826\nsa(dp21564\nValt_view_tags\np21565\n(lp21566\nsVbody\np21567\nVEvery one of these videos is absolutely, bonechillingly scary.\np21568\nsVimage_hash\np21569\nVf832c1883b98799dad8717221e27ab16\np21570\nsVname\np21571\nV8 Terrifying Tornadoes\np21572\nsVtitle\np21573\nV8 Terrifying Tornadoes\np21574\nsVcreative_id\np21575\nV6003205773565\np21576\nsVpreview_url\np21577\nVhttp://www.facebook.com/ads/api/creative_preview.php?cid=6003205773565\np21578\nsVid\np21579\nV6003205773565\np21580\nsVimage_url\np21581\nVhttps://fbcdn-creative-a.akamaihd.net/hads-ak-prn1/s110x80/708162_6006845552965_27636_n.jpg\np21582\nsVcount_current_adgroups\np21583\nI0\nsVrun_status\np21584\nI1\nsVtype\np21585\nI1\nsVlink_url\np21586\nVhttp://buzzfeed.com/ht/mjs538/videos-of-the-tuscaloosa-tornado/HFAA1\np21587\nsVview_tag\np21588\ng1826\nsa(dp21589\nValt_view_tags\np21590\n(lp21591\nsVbody\np21592\nVHere is my description.\np21593\nsVimage_hash\np21594\nV9c32443e44a92560c5469c6bb1fbac2c\np21595\nsVname\np21596\nVWorld's Best Poker Face\np21597\nsVtitle\np21598\nVWorld's Best Poker Face\np21599\nsVcreative_id\np21600\nV6003205768165\np21601\nsVpreview_url\np21602\nVhttp://www.facebook.com/ads/api/creative_preview.php?cid=6003205768165\np21603\nsVid\np21604\nV6003205768165\np21605\nsVimage_url\np21606\nVhttps://fbcdn-creative-a.akamaihd.net/hads-ak-ash3/s110x80/701900_6006844981165_132_n.jpg\np21607\nsVcount_current_adgroups\np21608\nI0\nsVrun_status\np21609\nI1\nsVtype\np21610\nI1\nsVlink_url\np21611\nVhttp://buzzfeed.com/ht/burnred/pokerface-281t/HFAA1\np21612\nsVview_tag\np21613\ng1826\nsa(dp21614\nValt_view_tags\np21615\n(lp21616\nsVbody\np21617\nVJason wanted to ask Lianna to the prom, so he wrote this little song and serenaded her during third period.\np21618\nsVimage_hash\np21619\nV252509c91aa74193bd6b3baa0973ac75\np21620\nsVname\np21621\nVHow To Ask A Girl To Pro\np21622\nsVtitle\np21623\nVHow To Ask A Girl To Pro\np21624\nsVcreative_id\np21625\nV6003200476165\np21626\nsVpreview_url\np21627\nVhttp://www.facebook.com/ads/api/creative_preview.php?cid=6003200476165\np21628\nsVid\np21629\nV6003200476165\np21630\nsVimage_url\np21631\nVhttps://fbcdn-creative-a.akamaihd.net/hads-ak-ash3/s110x80/701895_6006844282565_14136_n.jpg\np21632\nsVcount_current_adgroups\np21633\nI0\nsVrun_status\np21634\nI1\nsVtype\np21635\nI1\nsVlink_url\np21636\nVhttp://buzzfeed.com/ht/peggy/how-to-ask-a-girl-to-prom/HFAA1\np21637\nsVview_tag\np21638\ng1826\nsa(dp21639\nValt_view_tags\np21640\n(lp21641\nsVbody\np21642\nVImpressive Shiba Inu can control the volume of his bark based on command.\np21643\nsVimage_hash\np21644\nV63a756e76b8292071055a60a578301ef\np21645\nsVname\np21646\nVVolumeControl Dog\np21647\nsVtitle\np21648\nVVolumeControl Dog\np21649\nsVcreative_id\np21650\nV6003200473765\np21651\nsVpreview_url\np21652\nVhttp://www.facebook.com/ads/api/creative_preview.php?cid=6003200473765\np21653\nsVid\np21654\nV6003200473765\np21655\nsVimage_url\np21656\nVhttps://fbcdn-creative-a.akamaihd.net/hads-ak-prn1/s110x80/708177_6006844659165_34722_n.jpg\np21657\nsVcount_current_adgroups\np21658\nI0\nsVrun_status\np21659\nI1\nsVtype\np21660\nI1\nsVlink_url\np21661\nVhttp://buzzfeed.com/ht/peggy/volume-control-dog/HFAA1\np21662\nsVview_tag\np21663\ng1826\nsa(dp21664\nValt_view_tags\np21665\n(lp21666\nsVbody\np21667\nVGolden retriever gets into some mischief at a birthday party.\np21668\nsVimage_hash\np21669\nV6a1f4aa7096cfb673f7b86f4f0ec805b\np21670\nsVname\np21671\nVWhen Dogs Get Ahold Of S\np21672\nsVtitle\np21673\nVWhen Dogs Get Ahold Of S\np21674\nsVcreative_id\np21675\nV6003200450965\np2"
p6
sS'hash'
p7
S'a9dd0041d6493eeedf66ffcc70bd4a6ab8baad8e'
p8
sS'stack'
p9
S''
s.