(dp1
S'args'
p2
S''
sS'methodname'
p3
S''
sS'packet_num'
p4
I3
sS'returnval'
p5
S'WQgYSBsaXN0IG9mIHN1Z2dlc3RlZCBhcnRpY2xlcyBmb3IgdXMgdG8gcG9zdDoKCmh0dHA6Ly93d3cubWNzd2VlbmV5cy5uZXQvYXJ0aWNsZXMvc3VnZ2VzdGVkLWJ1enpmZWVkLWFydGljbGVzCgpOYXR1cmFsbHksIHdlIGhhZCB0byBkbyB0aGVtISBZb3UgY2FuIGZvbGxvdyB0aGVtIGFsbCBhdCB0aGUgbGluayBiZWxvdyEgCmh0dHA6Ly93d3cuYnV6emZlZWQuY29tL3N1Z2dlc3RlZGJ1enpmZWVkYXJ0aWNsZXMgb29vb28gU3VnZ2VzdGVkIEJ1enpGZWVkIEFydGljbGVzIG9vb29vIFRoZSBTdWdnZXN0ZWQgQnV6ekZlZWQgQXJ0aWNsZXMgRmVlZC4KABwAATr4dyfUTAA=\np266\nsVcount_current_adgroups\np267\nI0\nsVrun_status\np268\nI1\nsVtype\np269\nI27\nsVid\np270\nV6005522300765\np271\nsa(dp272\nVname\np273\nVAd from a Page post #6005522598165\np274\nsVauto_update\np275\nI1\nsVstory_id\np276\nI337771252970944\nsVcreative_id\np277\nV6005522598165\np278\nsVpreview_url\np279\nVhttp://www.facebook.com/ads/api/creative_preview.php?cid=6005522598165\np280\nsVobject_id\np281\nV21898300328\np282\nsVaction_t\np283\nVBgABAQcIAAZQBxwMCgAJAAAAAImt0MwKABAAAAAFGT2LqA0AGgYKAAAADQEKAAAAAAAAAFAAuAABMzN/jHXAALkAAAAAAAAAZAC6ACQQOddprX8CIwAAAAAAAAAIAMMAAABPVFI0HgG7AAAAAAAAAGoACgAAAACJrdDMAcoAATMzf4x1wAEeAAAAAMuAo0YAAQABMzN/jHXAAbYAAAAAUAccDAHkAAEzM3+MdcANABsGCwAAAAFAAwAAAQhUaGlzIGlzIGFscmVhZHkgZ29pbmcgbWVnYS12aXJhbC4gb29vb28gVGhlIDUwIEN1dGVzdCBUaGluZ3MgVGhhdCBFdmVyIEhhcHBlbmVkIG9vb29vIFNpbmNlIHRoZSBjb25jZXB0IG9mICJDdXRlIiB3YXMgZmlyc3QgZHJlYW1lZCB1cCBzb21lIHRpbWUgYXJvdW5kIHRoZSBpbnZlbnRpb24gb2YgY2F0cyBpbiAzMCBCLkMuLCBhIGdyZWF0IG1hbnkgY3V0ZSB0aGluZ3MgaGF2ZSBoYXBwZW5lZC4gQnV0IHRoZXNlIHdlcmUgdGhlIHZlcnkgY3V0ZXN0IG9mIGFsbC4KABwAATMzf4x1wAA=\np284\nsVcount_current_adgroups\np285\nI0\nsVrun_status\np286\nI1\nsVtype\np287\nI27\nsVid\np288\nV6005522598165\np289\nsa(dp290\nVname\np291\nVAd from a Page post #6005525583565\np292\nsVauto_update\np293\nI1\nsVstory_id\np294\nI367451113326911\nsVcreative_id\np295\nV6005525583565\np296\nsVpreview_url\np297\nVhttp://www.facebook.com/ads/api/creative_preview.php?cid=6005525583565\np298\nsVobject_id\np299\nV21898300328\np300\nsVaction_t\np301\nVBgABAQcIAAZQB066CgAJAAAAAImt0MwKABAAAAAFGT2LqA0AGgYKAAAADQEKAAAAAAAAAFAAuAABTjHhFQk/ALkAAAAAAAAAZAC6ACQQhYa+o3MCIwAAAAAAAAAIAMMAAABPVFI0HgG7AAAAAAAAAGoACgAAAACJrdDMAcoAAU4x4RUJPwEeAAAAAJ+IvHAAAQABTjHhFQk/AbYAAAAAUAdOugHkAAFOMeEVCT8NABsGCwAAAAFAAwAAARtTbyBoYXBweSB0aGV5IGRlY2lkZWQgdG8gY2FsbCBpdCBpUGFkIGluc3RlYWQgb2YgMDM1LiBvb29vbyBUaGUgT3JpZ2luYWwgaVBhZCBXYXMgR2lnYW50aWMgb29vb28gUmV2ZWFsZWQgaW4gY291cnQgZmlsaW5ncyAod2hpY2ggd2VyZSBmaXJzdCBub3RpY2VkIGJ5IE5ldHdvcmtXb3JsZCApIGlzIGEgcHJvdG90eXBlL21vY2sgdXAgKCIwMzUiKSBmb3IgYW4gQXBwbGUgdGFibGV0IGNyZWF0ZWQgYmV0d2VlbiAyMDAyIGFuZCAyMDA0IOKAlCB5ZWFycyBiZWZvcmUgdGhlIGlQYWQgY2FtZSBvLi4uCgAcAAFOMeEVCT8A\np302\nsVcount_current_adgroups\np303\nI0\nsVrun_status\np304\nI1\nsVtype\np305\nI27\nsVid\np306\nV6005525583565\np307\nsa(dp308\nVname\np309\nVAd from a Page post #6005526126365\np310\nsVauto_update\np311\nI1\nsVstory_id\np312\nV10151117962555329\np313\nsVcreative_id\np314\nV6005526126365\np315\nsVpreview_url\np316\nVhttp://www.facebook.com/ads/api/creative_preview.php?cid=6005526126365\np317\nsVobject_id\np318\nV21898300328\np319\nsVaction_t\np320\nVBgABAPcIAAZQB392CgAQAAAABRk9i6gNABoGCgAAAA4BGQAkEGNUOxw5AXUAAAAAAAd9pACbAAAAAAAAAAQAZgAkEFib29RxAL0AJBBi0asdQQD8AAAAAADFrHoBwAAAAAAAAAABAcoAJBBjVDsvwQEeAAAAALztGEgADgAAAABQB392AYYAAAAAAAAAAAABACQQY1Q7L8EBtgAAAABQB392AeQAJBBjVDsvwQ0AGwYLAAAAAUADAAAAikdvb2RuaWdodCENCg0KVGhlIDI0IFdlaXJkZXN0IFNsZWVwaW5nIFBvc2l0aW9ucyBGb3IgRG9ncw0KaHR0cDovL3d3dy5idXp6ZmVlZC5jb20vc2FtaXIvd2VpcmRlc3Qtc2xlZXBpbmctcG9zaXRpb25zLWZvci1kb2dzIG9vb29vIFBob3RvcwoAHAAkEGLRqx1BAA==\np321\nsVcount_current_adgroups\np322\nI0\nsVrun_status\np323\nI1\nsVtype\np324\nI27\nsVid\np325\nV6005526126365\np326\nsa(dp327\nVname\np328\nVAd from a Page post #6005527147165\np329\nsVauto_update\np330\nI1\nsVstory_id\np331\nV10151118677040329\np332\nsVcreative_id\np333\nV6005527147165\np334\nsVpreview_url\np335\nVhttp://www.facebook.com/ads/api/creative_preview.php?cid=6005527147165\np336\nsVobject_id\np337\nV21898300328\np338\nsVaction_t\np339\nVBgABAPcIAAZQCAhTCgAQAAAABRk9i6gNABoGCgAAAA4BGQAkEGN+0UlBAXUAAAAAAAG1igCbAAAAAAAAAAgAZgAAABUHwjFIAL0AJBBjftDUEQD8AAAAAADF11ABwAAAAAAAAAABAcoAJBBjftFcyQEeAAAAAIcK4nIADgAAAABQCAhTAYYAAAAAAAAAAAABACQQY37RXMkBtgAAAABQCAhTAeQAJBBjftFcyQ0AGwYLAAAAAUADAAAAuVRoZXNlIGdhdmUgbWUgdGhlIGNoaWxscy4NCg0KMzAgQXd'
p6
sS'hash'
p7
S'a9dd0041d6493eeedf66ffcc70bd4a6ab8baad8e'
p8
sS'stack'
p9
S''
s.