(dp1
S'args'
p2
S''
sS'methodname'
p3
S''
sS'packet_num'
p4
I99
sS'returnval'
p5
S'reative-a.akamaihd.net/hads-ak-prn1/s110x80/708170_6006844782365_57839_n.jpg\np11675\nsVcount_current_adgroups\np11676\nI0\nsVrun_status\np11677\nI1\nsVtype\np11678\nI1\nsVlink_url\np11679\nVhttp://www.buzzfeed.com/chevy/hottest-women-drivers\np11680\nsVview_tag\np11681\ng1826\nsa(dp11682\nValt_view_tags\np11683\n(lp11684\nsVbody\np11685\nVThey are really smashing up the prices at Al\xe2s Chevy Dealership, Transformers style! Unbeatable and unstoppable.\np11686\nsVimage_hash\np11687\nV2bf72126e9ab71fd84d8ec9be88cf320\np11688\nsVname\np11689\nVMascot Smashes Camaro-00\np11690\nsVtitle\np11691\nVMascot Smashes Camaro\np11692\nsVcreative_id\np11693\nV6002981512965\np11694\nsVpreview_url\np11695\nVhttp://www.facebook.com/ads/api/creative_preview.php?cid=6002981512965\np11696\nsVid\np11697\nV6002981512965\np11698\nsVimage_url\np11699\nVhttps://fbcdn-creative-a.akamaihd.net/hads-ak-prn1/s110x80/708181_6006844315365_19988_n.jpg\np11700\nsVcount_current_adgroups\np11701\nI0\nsVrun_status\np11702\nI1\nsVtype\np11703\nI1\nsVlink_url\np11704\nVhttp://www.buzzfeed.com/ht/chevy/never-mess-with-a-camaro/HFAA1\np11705\nsVview_tag\np11706\ng1826\nsa(dp11707\nValt_view_tags\np11708\n(lp11709\nsVbody\np11710\nVNothing pumps up the adrenaline like a good ol\xe2 movie car chase scene. Here are five of the best.\np11711\nsVimage_hash\np11712\nVa39fbfba29b6c6ea5d9f20e347e58098\np11713\nsVname\np11714\nV5 Explosive Car Chases-00\np11715\nsVtitle\np11716\nV5 Explosive Car Chases\np11717\nsVcreative_id\np11718\nV6002981514765\np11719\nsVpreview_url\np11720\nVhttp://www.facebook.com/ads/api/creative_preview.php?cid=6002981514765\np11721\nsVid\np11722\nV6002981514765\np11723\nsVimage_url\np11724\nVhttps://fbcdn-creative-a.akamaihd.net/hads-ak-prn1/s110x80/708199_6006845032965_58876_n.jpg\np11725\nsVcount_current_adgroups\np11726\nI0\nsVrun_status\np11727\nI1\nsVtype\np11728\nI1\nsVlink_url\np11729\nVhttp://www.buzzfeed.com/ht/chevy/5-explosive-car-chase-scenes/HFAA1\np11730\nsVview_tag\np11731\ng1826\nsa(dp11732\nValt_view_tags\np11733\n(lp11734\nsVbody\np11735\nVHot cars, hot driving, and very hot drivers. On multiple levels, these videos are something amazing to behold.\np11736\nsVimage_hash\np11737\nV79f45a5599c6ef275c45f05883e97f3e\np11738\nsVname\np11739\nVHottest Women Drivers-00\np11740\nsVtitle\np11741\nVHottest Women Drivers\np11742\nsVcreative_id\np11743\nV6002981519165\np11744\nsVpreview_url\np11745\nVhttp://www.facebook.com/ads/api/creative_preview.php?cid=6002981519165\np11746\nsVid\np11747\nV6002981519165\np11748\nsVimage_url\np11749\nVhttps://fbcdn-creative-a.akamaihd.net/hads-ak-prn1/s110x80/708170_6006844782365_57839_n.jpg\np11750\nsVcount_current_adgroups\np11751\nI0\nsVrun_status\np11752\nI1\nsVtype\np11753\nI1\nsVlink_url\np11754\nVhttp://www.buzzfeed.com/ht/chevy/hottest-women-drivers/HFAA1\np11755\nsVview_tag\np11756\ng1826\nsa(dp11757\nValt_view_tags\np11758\n(lp11759\nsVbody\np11760\nVThey are really smashing up the prices at Al\'s Chevy Dealership, Transformers style! Unbeatable and unstoppable.\np11761\nsVimage_hash\np11762\nV2bf72126e9ab71fd84d8ec9be88cf320\np11763\nsVname\np11764\nVMascot Smashes Camaro-01\np11765\nsVtitle\np11766\nVMascot Smashes Camaro\np11767\nsVcreative_id\np11768\nV6002981535565\np11769\nsVpreview_url\np11770\nVhttp://www.facebook.com/ads/api/creative_preview.php?cid=6002981535565\np11771\nsVid\np11772\nV6002981535565\np11773\nsVimage_url\np11774\nVhttps://fbcdn-creative-a.akamaihd.net/hads-ak-prn1/s110x80/708181_6006844315365_19988_n.jpg\np11775\nsVcount_current_adgroups\np11776\nI0\nsVrun_status\np11777\nI1\nsVtype\np11778\nI1\nsVlink_url\np11779\nVhttp://www.buzzfeed.com/ht/chevy/never-mess-with-a-camaro/HFAA1\np11780\nsVview_tag\np11781\ng1826\nsa(dp11782\nValt_view_tags\np11783\n(lp11784\nsVbody\np11785\nVA cosplay recreation of "The Last Supper" with slave bikinis, Sith Lords and pizza.\np11786\nsVimage_hash\np11787\nV612561fefe399011a429dea19e75b1fc\np11788\nsVname\np11789\nVStar Wars Last Supper\np11790\nsVtitle\np11791\nVStar Wars Last Supper\np11792\nsVcreative_id\np11793\nV6002973002365\np11794\nsVpreview_url\np11795\nVhttp://www.facebook.com/ads/api/creative_preview.php?cid=6002973002365\np11796\nsVid\np11797\nV6002973002365\np11798\nsVimage_url\np11799\nVhttps://fbcdn-creative-a.akamaihd.net/hads-ak-ash3/s110x80/701903_6006844644565_29471_n.jpg\np1'
p6
sS'hash'
p7
S'a9dd0041d6493eeedf66ffcc70bd4a6ab8baad8e'
p8
sS'stack'
p9
S''
s.