(dp1
S'args'
p2
S''
sS'methodname'
p3
S''
sS'packet_num'
p4
I4
sS'returnval'
p5
S'lc29tZSBCZWhpbmQgVGhlIFNjZW5lcyBQaG90b3MgRnJvbSBPbGQgTW92aWVzDQpodHRwOi8vd3d3LmJ1enpmZWVkLmNvbS9seWFwYWxhdGVyLzMwLWF3ZXNvbWUtYmVoaW5kLXRoZS1zY2VuZXMtcGhvdG9zLWZyb20tb2xkLW1vdmllIG9vb29vIFdhbGwgUGhvdG9zCgAcACQQY37Q1BEA\np340\nsVcount_current_adgroups\np341\nI0\nsVrun_status\np342\nI1\nsVtype\np343\nI27\nsVid\np344\nV6005527147165\np345\nsa(dp346\nVname\np347\nVAd from a Page post #6005530071965\np348\nsVauto_update\np349\nI1\nsVstory_id\np350\nV10151118820805329\np351\nsVcreative_id\np352\nV6005530071965\np353\nsVpreview_url\np354\nVhttp://www.facebook.com/ads/api/creative_preview.php?cid=6005530071965\np355\nsVobject_id\np356\nV21898300328\np357\nsVaction_t\np358\nVBgABAPcIAAZQCB20CgAQAAAABRk9i6gNABoGCgAAAA4BGQAkEGOHYvdJAXUAAAAAAAG1igCbAAAAAAAAAAgAZgAAABUHwjFIAL0AJBBjh2JHgQD8AAAAAADF2PsBwAAAAAAAAAABAcoAJBBjh2MK0QEeAAAAAH6sYqwADgAAAABQCB20AYYAAAAAAAAAAAABACQQY4djCtEBtgAAAABQCB20AeQAJBBjh2MK0Q0AGwYLAAAAAUADAAAALkhvdyBtYW55IHNxdWFyZXMgZG8geW91IHNlZT8gb29vb28gV2FsbCBQaG90b3MKABwAJBBjh2JHgQA=\np359\nsVcount_current_adgroups\np360\nI0\nsVrun_status\np361\nI1\nsVtype\np362\nI27\nsVid\np363\nV6005530071965\np364\nsa(dp365\nVname\np366\nVAd from a Page post #6005530410365\np367\nsVauto_update\np368\nI1\nsVstory_id\np369\nV10151119046745329\np370\nsVcreative_id\np371\nV6005530410365\np372\nsVpreview_url\np373\nVhttp://www.facebook.com/ads/api/creative_preview.php?cid=6005530410365\np374\nsVobject_id\np375\nV21898300328\np376\nsVaction_t\np377\nVBgABAPcIAAZQCDw7CgAQAAAABRk9i6gNABoGCgAAAA4BGQAkEGOU2nXhAXUAAAAAAAG1igCbAAAAAAAAAAgAZgAAABUHwjFIAL0AJBBjlNlQ6QD8AAAAAADF22YBwAAAAAAAAAABAcoAJBBjlNqc8QEeAAAAAOkr18IADgAAAABQCDw7AYYAAAAAAAAAAAABACQQY5TanPEBtgAAAABQCDw7AeQAJBBjlNqc8Q0AGwYLAAAAAUADAAAAzlJlYWxseSBuZXZlciBleHBlY3RlZCB0aGlzIHRvIGhhcHBlbi4NCg0KVGhlIE5pZ2h0IE5ld3QgR2luZ3JpY2ggQW5kIFNub29raSBCZWNhbWUgQmVzdCBGcmllbmRzDQpodHRwOi8vd3d3LmJ1enpmZWVkLmNvbS93aGl0bmV5amVmZmVyc29uL3RoZS1uaWdodC1uZXd0LWdpbmdyaWNoLWFuZC1zbm9va2ktYmVjYW1lLWJlc3QtZnJpIG9vb29vIFdhbGwgUGhvdG9zCgAcACQQY5TZUOkA\np378\nsVcount_current_adgroups\np379\nI0\nsVrun_status\np380\nI1\nsVtype\np381\nI27\nsVid\np382\nV6005530410365\np383\nsa(dp384\nVname\np385\nVAd from a Page post #6005531626365\np386\nsVauto_update\np387\nI1\nsVstory_id\np388\nI340061322743932\nsVcreative_id\np389\nV6005531626365\np390\nsVpreview_url\np391\nVhttp://www.facebook.com/ads/api/creative_preview.php?cid=6005531626365\np392\nsVobject_id\np393\nV21898300328\np394\nsVaction_t\np395\nVBgABAQcIAAZQCGuqCgAJAAAAAImt0MwKABAAAAAFGT2LqA0AGgYKAAAADQEKAAAAAAAAAFAAuAABNUiyWBB8ALkAAAAAAAAAZAC6ACQQiU49QcwCIwAAAAAAAAAIAMMAAABPVFI0HgG7AAAAAAAAAGoACgAAAACJrdDMAcoAATVIslgQfAEeAAAAAC54eQgAAQABNUiyWBB8AbYAAAAAUAhrqgHkAAE1SLJYEHwNABsGCwAAAAFAAwAAATpUaGlzIGhhcyBiZWVuIHJlYWxseSBwb3B1bGFyIG9uIGhlcmUgdG9kYXkuIG9vb29vIE1lZXQgVGhlIDgyIFllYXIgT2xkIExhbnZpbiBIaXJlZCBUbyBNb2RlbCBJbiBJdHMgTmV3IEFkcyBvb29vbyBKYWNxdWVsaW5lIE11cmRvY2sgc3BlbnQgaGVyIGxpZmUgd29ya2luZyBhcyBhIGRhbmNlciBhdCB0aGUgQXBvbGxvIHRoZWF0ZXIgaW4gTmV3IFlvcmsuIEFmdGVyIGdldHRpbmcgcGhvdG9ncmFwaGVkIGZvciBzZW5pb3Igc3R5bGUgYmxvZyBBZHZhbmNlZCBTdHlsZSAsIHNoZSBjYXVnaHQgdGhlIGV5ZSBvZiBMYW52aW4gZGVzaWduZXIgQWxiZS4uLgoAHAABNUiyWBB8AA==\np396\nsVcount_current_adgroups\np397\nI0\nsVrun_status\np398\nI1\nsVtype\np399\nI27\nsVid\np400\nV6005531626365\np401\nsa(dp402\nVname\np403\nVAd from a Page post #6005531827365\np404\nsVauto_update\np405\nI1\nsVstory_id\np406\nI120159154795106\nsVcreative_id\np407\nV6005531827365\np408\nsVpreview_url\np409\nVhttp://www.facebook.com/ads/api/creative_preview.php?cid=6005531827365\np410\nsVobject_id\np411\nV21898300328\np412\nsVaction_t\np413\nVBgABAQcIAAZQCIJgCgAJAAAAAImt0MwKABAAAAAFGT2LqA0AGgYKAAAADQEKAAAAAAAAAFAAuAAAbUi7vPJiALkAAAAAAAAAZAC6ACQQPedUWa0CIwAAAAAAAAAIAMMAAABPVFI0HgG7AAAAAAAAAGoACgAAAACJrdDMAcoAAG1Iu7zyYgEeAAAAABmlTbgAAQAAbUi7vPJiAbYAAAAAUAiCYAHkAABtSLu88mINABsGCwAAAAFAAwAAAJZJIHRoaW5rIEkgd2FzIGd1aWx0eSBvZiBwcmV0dHkgbXVjaCBhbGwgb2YgdGhlc2UuIG9vb29vIDIwIEV2ZXJ5ZGF5IFRoaW5ncyBXZSdyZSBBbGwgR3VpbHR5IE9mIERvaW5nIG9vb29vIFlvdSB0aGluayB5b3UncmUgdGhlIG9ubHkgb25lPyBUaGluayBhZ2FpbiEKABwAAG1Iu7zyYgA=\np414\nsVcount_current_adgroups\np415\nI0\nsVrun_status\np416\nI1\nsVtype\np417\nI27\nsVid\np418\nV6005531827365\np419\nsa(dp420\nVname\np421\nVAd from a Page post #6005532479565\np422\nsVauto_update\np423\nI1\nsVstory_id\np424\n'
p6
sS'hash'
p7
S'a9dd0041d6493eeedf66ffcc70bd4a6ab8baad8e'
p8
sS'stack'
p9
S''
s.