(dp1
S'args'
p2
S''
sS'methodname'
p3
S''
sS'packet_num'
p4
I92
sS'returnval'
p5
S"edIO&ncid=buzzfeedIO\np10780\nsVview_tag\np10781\ng1826\nsa(dp10782\nValt_view_tags\np10783\n(lp10784\nsVbody\np10785\nVDavid Beckham will be there with his pop star wife Victoria. Elton John is attending with partner David Furnish. Check out more here!\np10786\nsVimage_hash\np10787\nVcf7e084b356c4bfc37ffd85376c22a65\np10788\nsVname\np10789\nVRoyal Wedding Guest List\np10790\nsVtitle\np10791\nVRoyal Wedding Guest List\np10792\nsVcreative_id\np10793\nV6003145887365\np10794\nsVpreview_url\np10795\nVhttp://www.facebook.com/ads/api/creative_preview.php?cid=6003145887365\np10796\nsVid\np10797\nV6003145887365\np10798\nsVimage_url\np10799\nVhttps://fbcdn-creative-a.akamaihd.net/hads-ak-prn1/s110x80/708196_6006845292565_29511_n.jpg\np10800\nsVcount_current_adgroups\np10801\nI0\nsVrun_status\np10802\nI1\nsVtype\np10803\nI1\nsVlink_url\np10804\nVhttp://www.huffingtonpost.com/2011/04/10/royal-wedding-guest-list-_n_847242.html?utm_campaign=buzzfeedIO&ncid=buzzfeedIO\np10805\nsVview_tag\np10806\ng1826\nsa(dp10807\nValt_view_tags\np10808\n(lp10809\nsVbody\np10810\nVLike any good dysfunctional family the Griffins have had some epic fights. Here are some favorites from over the years!\np10811\nsVimage_hash\np10812\nVc71e4686409102093fb6807fea0364d3\np10813\nsVname\np10814\nVTop 5 Family Guy Fights\np10815\nsVtitle\np10816\nVTop 5 Family Guy Fights\np10817\nsVcreative_id\np10818\nV6003098848965\np10819\nsVpreview_url\np10820\nVhttp://www.facebook.com/ads/api/creative_preview.php?cid=6003098848965\np10821\nsVid\np10822\nV6003098848965\np10823\nsVimage_url\np10824\nVhttps://fbcdn-creative-a.akamaihd.net/hads-ak-ash3/s110x80/708172_6006845244965_56908_n.jpg\np10825\nsVcount_current_adgroups\np10826\nI0\nsVrun_status\np10827\nI1\nsVtype\np10828\nI1\nsVlink_url\np10829\nVhttp://www.buzzfeed.com/ht/myspace/the-top-5-family-guy-fight-scenes/HFAA1\np10830\nsVview_tag\np10831\ng1826\nsa(dp10832\nValt_view_tags\np10833\n(lp10834\nsVbody\np10835\nVGlenn Quagmire has some pretty memorable quotes! You don't want to miss this epic list.\np10836\nsVimage_hash\np10837\nV2c47d29b8046dbdcef987c5b9f0d12b7\np10838\nsVname\np10839\nVQuagmires Inferno\np10840\nsVtitle\np10841\nVQuagmires Inferno\np10842\nsVcreative_id\np10843\nV6003098861765\np10844\nsVpreview_url\np10845\nVhttp://www.facebook.com/ads/api/creative_preview.php?cid=6003098861765\np10846\nsVid\np10847\nV6003098861765\np10848\nsVimage_url\np10849\nVhttps://fbcdn-creative-a.akamaihd.net/hads-ak-prn1/s110x80/708181_6006844317765_28188_n.jpg\np10850\nsVcount_current_adgroups\np10851\nI0\nsVrun_status\np10852\nI1\nsVtype\np10853\nI1\nsVlink_url\np10854\nVhttp://www.buzzfeed.com/ht/myspace/quagmires-inferno-the-best-quagmire-quotes/HFAA1\np10855\nsVview_tag\np10856\ng1826\nsa(dp10857\nValt_view_tags\np10858\n(lp10859\nsVbody\np10860\nVThe premise here is pretty simple. Take Kanye West lyrics and make them applicable to toddlers.\np10861\nsVimage_hash\np10862\nV63e84f1ff0daefebd2842fdabb9fe440\np10863\nsVname\np10864\nVBaby Kanye The Meme\np10865\nsVtitle\np10866\nVBaby Kanye The Meme\np10867\nsVcreative_id\np10868\nV6002986916965\np10869\nsVpreview_url\np10870\nVhttp://www.facebook.com/ads/api/creative_preview.php?cid=6002986916965\np10871\nsVid\np10872\nV6002986916965\np10873\nsVimage_url\np10874\nVhttps://fbcdn-creative-a.akamaihd.net/hads-ak-prn1/s110x80/708177_6006844659965_23568_n.jpg\np10875\nsVcount_current_adgroups\np10876\nI0\nsVrun_status\np10877\nI1\nsVtype\np10878\nI1\nsVlink_url\np10879\nVhttp://www.buzzfeed.com/ht/awesomer/baby-kanye-the-meme/HFAA1\np10880\nsVview_tag\np10881\ng1826\nsa(dp10882\nValt_view_tags\np10883\n(lp10884\nsVbody\np10885\nVHe really should be better than this, don't you think?\np10886\nsVimage_hash\np10887\nV7fc7da17731ad9c793a68d9dfb0fd54e\np10888\nsVname\np10889\nVReggie The Worst Hacker\np10890\nsVtitle\np10891\nVReggie The Worst Hacker\np10892\nsVcreative_id\np10893\nV6002986923565\np10894\nsVpreview_url\np10895\nVhttp://www.facebook.com/ads/api/creative_preview.php?cid=6002986923565\np10896\nsVid\np10897\nV6002986923565\np10898\nsVimage_url\np10899\nVhttps://fbcdn-creative-a.akamaihd.net/hads-ak-ash3/s110x80/708160_6006844815765_8371_n.jpg\np10900\nsVcount_current_adgroups\np10901\nI0\nsVrun_status\np10902\nI1\nsVtype\np10903\nI1\nsVlink_url\np10904\nVhttp://www.buzzfeed.com/awesomer/reggie-is-the-worst-hacker-ever"
p6
sS'hash'
p7
S'a9dd0041d6493eeedf66ffcc70bd4a6ab8baad8e'
p8
sS'stack'
p9
S''
s.