(dp1
S'args'
p2
S''
sS'methodname'
p3
S''
sS'packet_num'
p4
I111
sS'returnval'
p5
S"\nsVcount_current_adgroups\np13201\nI0\nsVrun_status\np13202\nI1\nsVtype\np13203\nI1\nsVlink_url\np13204\nVhttp://buzzfeed.com/ht/jordan/the-most-iconic-air-jordan-commercials-15//HFAA1\np13205\nsVview_tag\np13206\ng1826\nsa(dp13207\nValt_view_tags\np13208\n(lp13209\nsVbody\np13210\nVHere are the year's 20 must-see videos - how many have you seen?\np13211\nsVimage_hash\np13212\nV176d76e3566bfe9f587e26ad7a51fafe\np13213\nsVname\np13214\nV2010's Best Viral Videos\np13215\nsVtitle\np13216\nV2010's Best Viral Videos\np13217\nsVcreative_id\np13218\nV6002920170765\np13219\nsVpreview_url\np13220\nVhttp://www.facebook.com/ads/api/creative_preview.php?cid=6002920170765\np13221\nsVid\np13222\nV6002920170765\np13223\nsVimage_url\np13224\nVhttps://fbcdn-creative-a.akamaihd.net/hads-ak-prn1/s110x80/708166_6006844194165_25832_n.jpg\np13225\nsVcount_current_adgroups\np13226\nI0\nsVrun_status\np13227\nI1\nsVtype\np13228\nI1\nsVlink_url\np13229\nVhttp://www.buzzfeed.com/chrismenning/buzzfeeds-top-20-videos-of-2010-that-you-should-h\np13230\nsVview_tag\np13231\ng1826\nsa(dp13232\nValt_view_tags\np13233\n(lp13234\nsVbody\np13235\nVDonna Simpson - the world's fattest woman -  ate 30,000 calories for Christmas dinner. This is how she did it.\np13236\nsVimage_hash\np13237\nVd0be263a58cffa8c726f3c5c0a0a1348\np13238\nsVname\np13239\nVHer Huge Christmas Dinner\np13240\nsVtitle\np13241\nVHer Huge Christmas Dinner\np13242\nsVcreative_id\np13243\nV6002920175565\np13244\nsVpreview_url\np13245\nVhttp://www.facebook.com/ads/api/creative_preview.php?cid=6002920175565\np13246\nsVid\np13247\nV6002920175565\np13248\nsVimage_url\np13249\nVhttps://fbcdn-creative-a.akamaihd.net/hads-ak-prn1/s110x80/708192_6006845299565_39406_n.jpg\np13250\nsVcount_current_adgroups\np13251\nI0\nsVrun_status\np13252\nI1\nsVtype\np13253\nI1\nsVlink_url\np13254\nVhttp://www.buzzfeed.com/mjs538/this-is-what-the-worlds-fattest-woman-ate-for-chr\np13255\nsVview_tag\np13256\ng1826\nsa(dp13257\nValt_view_tags\np13258\n(lp13259\nsVbody\np13260\nVRemember when this was the latest technology? That was over 20 years ago. Check out some of these retro computer ads and show your mom\np13261\nsVimage_hash\np13262\nVe45ff363e52028069b593674824f1ecd\np13263\nsVname\np13264\nV15 Retro Computer Ads\np13265\nsVtitle\np13266\nV15 Retro Computer Ads\np13267\nsVcreative_id\np13268\nV6002911857965\np13269\nsVpreview_url\np13270\nVhttp://www.facebook.com/ads/api/creative_preview.php?cid=6002911857965\np13271\nsVid\np13272\nV6002911857965\np13273\nsVimage_url\np13274\nVhttps://fbcdn-creative-a.akamaihd.net/hads-ak-prn1/s110x80/708185_6006845429365_15620_n.jpg\np13275\nsVcount_current_adgroups\np13276\nI0\nsVrun_status\np13277\nI1\nsVtype\np13278\nI1\nsVlink_url\np13279\nVhttp://www.buzzfeed.com/ht/boosted/15-retro-computer-ads-26rk/HFAA1\np13280\nsVview_tag\np13281\ng1826\nsa(dp13282\nValt_view_tags\np13283\n(lp13284\nsVbody\np13285\nVThese cats will make you feel slightly less bad about all the calories you've consumed recently.\np13286\nsVimage_hash\np13287\nV51257f15c73a8814478065cdacca6429\np13288\nsVname\np13289\nV50 Fat Cats In Food Comas\np13290\nsVtitle\np13291\nV50 Fat Cats In Food Comas\np13292\nsVcreative_id\np13293\nV6002915409765\np13294\nsVpreview_url\np13295\nVhttp://www.facebook.com/ads/api/creative_preview.php?cid=6002915409765\np13296\nsVid\np13297\nV6002915409765\np13298\nsVimage_url\np13299\nVhttps://fbcdn-creative-a.akamaihd.net/hads-ak-prn1/s110x80/708195_6006844559365_2674_n.jpg\np13300\nsVcount_current_adgroups\np13301\nI0\nsVrun_status\np13302\nI1\nsVtype\np13303\nI1\nsVlink_url\np13304\nVhttp://www.BuzzFeed.com/mjs538/50-fat-cats-in-food-comas\np13305\nsVview_tag\np13306\ng1826\nsa(dp13307\nValt_view_tags\np13308\n(lp13309\nsVbody\np13310\nVThis cat willingly puts on ridiculous bunny ears as you watch. See it now!\np13311\nsVimage_hash\np13312\nV415c72ad2b3654f0d1bc9631dd466e3b\np13313\nsVname\np13314\nVCat Wears Bunny Ears\np13315\nsVtitle\np13316\nVCat Wears Bunny Ears\np13317\nsVcreative_id\np13318\nV6002915420965\np13319\nsVpreview_url\np13320\nVhttp://www.facebook.com/ads/api/creative_preview.php?cid=6002915420965\np13321\nsVid\np13322\nV6002915420965\np13323\nsVimage_url\np13324\nVhttps://fbcdn-creative-a.akamaihd.net/hads-ak-ash3/s110x80/701906_6006844442165_29540_n.jpg\np13325\nsVcount_current_adgroups\np13326\nI0\nsVrun_statu"
p6
sS'hash'
p7
S'a9dd0041d6493eeedf66ffcc70bd4a6ab8baad8e'
p8
sS'stack'
p9
S''
s.