(dp1
S'args'
p2
S''
sS'methodname'
p3
S''
sS'packet_num'
p4
I142
sS'returnval'
p5
S'mage_url\np17221\nVhttps://fbcdn-creative-a.akamaihd.net/hads-ak-ash3/s110x80/701889_6006844236365_15820_n.jpg\np17222\nsVcount_current_adgroups\np17223\nI0\nsVrun_status\np17224\nI1\nsVtype\np17225\nI1\nsVlink_url\np17226\nVhttp://buzzfeed.com/ht/mjs538/when-you-see-it/HFAA1\np17227\nsVview_tag\np17228\ng1826\nsa(dp17229\nValt_view_tags\np17230\n(lp17231\nsVbody\np17232\nVHere are 25 animals who think that they are people.\np17233\nsVimage_hash\np17234\nV2658e1977de81706c8dfe0d68439a652\np17235\nsVname\np17236\nVAnimals As People\np17237\nsVtitle\np17238\nVAnimals As People\np17239\nsVcreative_id\np17240\nV6004737831165\np17241\nsVpreview_url\np17242\nVhttp://www.facebook.com/ads/api/creative_preview.php?cid=6004737831165\np17243\nsVid\np17244\nV6004737831165\np17245\nsVimage_url\np17246\nVhttps://fbcdn-creative-a.akamaihd.net/hads-ak-ash3/s110x80/701890_6006844290365_11442_n.jpg\np17247\nsVcount_current_adgroups\np17248\nI0\nsVrun_status\np17249\nI1\nsVtype\np17250\nI1\nsVlink_url\np17251\nVhttp://buzzfeed.com/ht/animals/animals-who-think-theyre-people-5685/HFAA1\np17252\nsVview_tag\np17253\ng1826\nsa(dp17254\nValt_view_tags\np17255\n(lp17256\nsVbody\np17257\nVIngredients Internet Insatiable Appetite for Knowledge Entertainment. Directions Go to Audible.com and get a free 30day trial Choose\np17258\nsVimage_hash\np17259\nV5e81747a8394222a9c33412ffc9ea601\np17260\nsVname\np17261\nVFree Audiobook From Audi-00\np17262\nsVtitle\np17263\nVFree Audiobook From Audi\np17264\nsVcreative_id\np17265\nV6004880492765\np17266\nsVpreview_url\np17267\nVhttp://www.facebook.com/ads/api/creative_preview.php?cid=6004880492765\np17268\nsVid\np17269\nV6004880492765\np17270\nsVimage_url\np17271\nVhttps://fbcdn-creative-a.akamaihd.net/hads-ak-ash3/s110x80/701899_6006844632965_15281_n.jpg\np17272\nsVcount_current_adgroups\np17273\nI0\nsVrun_status\np17274\nI1\nsVtype\np17275\nI1\nsVlink_url\np17276\nVhttp://buzzfeed.com/audible/free-audiobook-from-audiblecom-download-and-list-5kua\np17277\nsVview_tag\np17278\ng1826\nsa(dp17279\nValt_view_tags\np17280\n(lp17281\nsVbody\np17282\nVIngredients Internet Insatiable Appetite for Knowledge Entertainment. Directions Go to Audible.com and get a free 30day trial Choose\np17283\nsVimage_hash\np17284\nV5e81747a8394222a9c33412ffc9ea601\np17285\nsVname\np17286\nVFree Audiobook From Audi-02\np17287\nsVtitle\np17288\nVFree Audiobook From Audi\np17289\nsVcreative_id\np17290\nV6004880508765\np17291\nsVpreview_url\np17292\nVhttp://www.facebook.com/ads/api/creative_preview.php?cid=6004880508765\np17293\nsVid\np17294\nV6004880508765\np17295\nsVimage_url\np17296\nVhttps://fbcdn-creative-a.akamaihd.net/hads-ak-ash3/s110x80/701899_6006844632965_15281_n.jpg\np17297\nsVcount_current_adgroups\np17298\nI0\nsVrun_status\np17299\nI1\nsVtype\np17300\nI1\nsVlink_url\np17301\nVhttp://buzzfeed.com/ht/audible/free-audiobook-from-audiblecom-download-and-list-5kua/HFAA1\np17302\nsVview_tag\np17303\ng1826\nsa(dp17304\nValt_view_tags\np17305\n(lp17306\nsVbody\np17307\nVIngredients Internet Insatiable Appetite for Knowledge Entertainment. Directions Go to Audible.com and get a free 30day trial Choose\np17308\nsVimage_hash\np17309\nV36dcfb617ad8fcd3c4ea02b3edd32687\np17310\nsVname\np17311\nVFree Audiobook From Audi-01\np17312\nsVtitle\np17313\nVFree Audiobook From Audi\np17314\nsVcreative_id\np17315\nV6004880504365\np17316\nsVpreview_url\np17317\nVhttp://www.facebook.com/ads/api/creative_preview.php?cid=6004880504365\np17318\nsVid\np17319\nV6004880504365\np17320\nsVimage_url\np17321\nVhttps://fbcdn-creative-a.akamaihd.net/hads-ak-prn1/s110x80/708191_6006844370165_20897_n.jpg\np17322\nsVcount_current_adgroups\np17323\nI0\nsVrun_status\np17324\nI1\nsVtype\np17325\nI1\nsVlink_url\np17326\nVhttp://buzzfeed.com/audible/free-audiobook-from-audiblecom-download-today-an-5kua\np17327\nsVview_tag\np17328\ng1826\nsa(dp17329\nValt_view_tags\np17330\n(lp17331\nsVbody\np17332\nVIngredients Internet Insatiable Appetite for Knowledge Entertainment. Directions Go to Audible.com and get a free 30day trial Choose\np17333\nsVimage_hash\np17334\nV36dcfb617ad8fcd3c4ea02b3edd32687\np17335\nsVname\np17336\nVFree Audiobook From Audi-03\np17337\nsVtitle\np17338\nVFree Audiobook From Audi\np17339\nsVcreative_id\np17340\nV6004880509565\np17341\nsVpreview_url\np17342\nVhttp://www.facebook.com/ads/api/creative_pr'
p6
sS'hash'
p7
S'a9dd0041d6493eeedf66ffcc70bd4a6ab8baad8e'
p8
sS'stack'
p9
S''
s.