(dp1
S'args'
p2
S''
sS'methodname'
p3
S''
sS'packet_num'
p4
I55
sS'returnval'
p5
S".buzzfeed.com/h1/fbad/cfm/9-people-totally-obsessed-with-airplanes-6rc8\np6034\nsVview_tag\np6035\ng1826\nsa(dp6036\nValt_view_tags\np6037\n(lp6038\nsVbody\np6039\nVThe Twittersphere hasn't stopped buzzing about Super 8.  Looks like the verdict is in! Take a look at what the fans are saying.\np6040\nsVimage_hash\np6041\nV4454b0925c82816196044a77491be7b9\np6042\nsVname\np6043\nVReactions to Super 8\np6044\nsVtitle\np6045\nVReactions to Super 8\np6046\nsVcreative_id\np6047\nV6003380455165\np6048\nsVpreview_url\np6049\nVhttp://www.facebook.com/ads/api/creative_preview.php?cid=6003380455165\np6050\nsVid\np6051\nV6003380455165\np6052\nsVimage_url\np6053\nVhttps://fbcdn-creative-a.akamaihd.net/hads-ak-prn1/s110x80/708194_6006844461765_7812_n.jpg\np6054\nsVcount_current_adgroups\np6055\nI0\nsVrun_status\np6056\nI1\nsVtype\np6057\nI1\nsVlink_url\np6058\nVhttp://www.buzzfeed.com/ht/super8/10-awesome-twitter-reactions-to-super-8/HFBA1\np6059\nsVview_tag\np6060\ng1826\nsa(dp6061\nValt_view_tags\np6062\n(lp6063\nsVbody\np6064\nVThe Twittersphere hasn't stopped buzzing about Super 8.  Looks like the verdict is in! Take a look at what the fans are saying.\np6065\nsVimage_hash\np6066\nV4454b0925c82816196044a77491be7b9\np6067\nsVname\np6068\nVSuper 8: First Reactions\np6069\nsVtitle\np6070\nVSuper 8: First Reactions\np6071\nsVcreative_id\np6072\nV6003380518765\np6073\nsVpreview_url\np6074\nVhttp://www.facebook.com/ads/api/creative_preview.php?cid=6003380518765\np6075\nsVid\np6076\nV6003380518765\np6077\nsVimage_url\np6078\nVhttps://fbcdn-creative-a.akamaihd.net/hads-ak-prn1/s110x80/708194_6006844461765_7812_n.jpg\np6079\nsVcount_current_adgroups\np6080\nI0\nsVrun_status\np6081\nI1\nsVtype\np6082\nI1\nsVlink_url\np6083\nVhttp://www.buzzfeed.com/ht/super8/10-awesome-twitter-reactions-to-super-8/HFBA1\np6084\nsVview_tag\np6085\ng1826\nsa(dp6086\nValt_view_tags\np6087\n(lp6088\nsVbody\np6089\nVThe Twittersphere hasn't stopped buzzing about Super 8.  Looks like the verdict is in! Take a look at what the fans are saying.\np6090\nsVimage_hash\np6091\nV0dfa947072d0bd101651c0704fbe776b\np6092\nsVname\np6093\nVReactions to Super 8-00\np6094\nsVtitle\np6095\nVReactions to Super 8\np6096\nsVcreative_id\np6097\nV6003380562365\np6098\nsVpreview_url\np6099\nVhttp://www.facebook.com/ads/api/creative_preview.php?cid=6003380562365\np6100\nsVid\np6101\nV6003380562365\np6102\nsVimage_url\np6103\nVhttps://fbcdn-creative-a.akamaihd.net/hads-ak-prn1/s110x80/708181_6006844137165_38438_n.jpg\np6104\nsVcount_current_adgroups\np6105\nI0\nsVrun_status\np6106\nI1\nsVtype\np6107\nI1\nsVlink_url\np6108\nVhttp://www.buzzfeed.com/ht/super8/10-awesome-twitter-reactions-to-super-8/HFBA1\np6109\nsVview_tag\np6110\ng1826\nsa(dp6111\nValt_view_tags\np6112\n(lp6113\nsVbody\np6114\nVThe Twittersphere hasn't stopped buzzing about Super 8.  Looks like the verdict is in! Take a look at what the fans are saying.\np6115\nsVimage_hash\np6116\nV0dfa947072d0bd101651c0704fbe776b\np6117\nsVname\np6118\nVSuper 8: First Reactions-00\np6119\nsVtitle\np6120\nVSuper 8: First Reactions\np6121\nsVcreative_id\np6122\nV6003380655365\np6123\nsVpreview_url\np6124\nVhttp://www.facebook.com/ads/api/creative_preview.php?cid=6003380655365\np6125\nsVid\np6126\nV6003380655365\np6127\nsVimage_url\np6128\nVhttps://fbcdn-creative-a.akamaihd.net/hads-ak-prn1/s110x80/708181_6006844137165_38438_n.jpg\np6129\nsVcount_current_adgroups\np6130\nI0\nsVrun_status\np6131\nI1\nsVtype\np6132\nI1\nsVlink_url\np6133\nVhttp://www.buzzfeed.com/ht/super8/10-awesome-twitter-reactions-to-super-8/HFBA1\np6134\nsVview_tag\np6135\ng1826\nsa(dp6136\nValt_view_tags\np6137\n(lp6138\nsVbody\np6139\nVJ.J. Abrams is the master of mystery. Take a look at what movie greats have to say about this amazing writer/director and his new movie\np6140\nsVimage_hash\np6141\nVd1821a25297a9ec4f477b69b3d036e63\np6142\nsVname\np6143\nVSecrets Of The Super 8-00\np6144\nsVtitle\np6145\nVSecrets Of The Super 8\np6146\nsVcreative_id\np6147\nV6003377588165\np6148\nsVpreview_url\np6149\nVhttp://www.facebook.com/ads/api/creative_preview.php?cid=6003377588165\np6150\nsVid\np6151\nV6003377588165\np6152\nsVimage_url\np6153\nVhttps://fbcdn-creative-a.akamaihd.net/hads-ak-prn1/s110x80/708192_6006845301365_7097_n.jpg\np6154\nsVcount_current_adgroups\np6155\nI0\nsVrun_status\np6156\nI1\nsVtype\np6157\nI1\nsVlink_u"
p6
sS'hash'
p7
S'a9dd0041d6493eeedf66ffcc70bd4a6ab8baad8e'
p8
sS'stack'
p9
S''
s.