(dp1
S'args'
p2
S''
sS'methodname'
p3
S''
sS'packet_num'
p4
I26
sS'returnval'
p5
S'2291\nI21898300328\nsVid\np2292\nV6003609506965\np2293\nsVimage_url\np2294\nVhttps://fbcdn-creative-a.akamaihd.net/hads-ak-prn1/s110x80/708188_6006845130365_36144_n.jpg\np2295\nsVcount_current_adgroups\np2296\nI0\nsVrun_status\np2297\nI1\nsVtype\np2298\nI2\nsVlink_url\np2299\nVhttp://www.facebook.com/BuzzFeed\np2300\nsVview_tag\np2301\ng1826\nsa(dp2302\nValt_view_tags\np2303\n(lp2304\nsVbody\np2305\nVSee our list of "10 Everyday Foods Made With Disgusting Ingredients" - You might regret this! "Like" our page for more great stuff!\np2306\nsVimage_hash\np2307\nV6b84da7588ca9a43ef1a4816f60fc72f\np2308\nsVname\np2309\nVBuzzFeed-04\np2310\nsVtitle\np2311\ng1826\nsVcreative_id\np2312\nV6003613959165\np2313\nsVpreview_url\np2314\nVhttp://www.facebook.com/ads/api/creative_preview.php?cid=6003613959165\np2315\nsVobject_id\np2316\nI21898300328\nsVid\np2317\nV6003613959165\np2318\nsVimage_url\np2319\nVhttps://fbcdn-creative-a.akamaihd.net/hads-ak-ash3/s110x80/708183_6006844701965_36048_n.jpg\np2320\nsVcount_current_adgroups\np2321\nI0\nsVrun_status\np2322\nI1\nsVtype\np2323\nI2\nsVlink_url\np2324\nVhttp://www.facebook.com/BuzzFeed\np2325\nsVview_tag\np2326\ng1826\nsa(dp2327\nValt_view_tags\np2328\n(lp2329\nsVbody\np2330\nVSee our list of "10 Everyday Foods Made With Disgusting Ingredients" - This is a MUST see! "Like" our page for more great stuff!\np2331\nsVimage_hash\np2332\nV6b84da7588ca9a43ef1a4816f60fc72f\np2333\nsVname\np2334\nVBuzzFeed-05\np2335\nsVtitle\np2336\ng1826\nsVcreative_id\np2337\nV6003614281365\np2338\nsVpreview_url\np2339\nVhttp://www.facebook.com/ads/api/creative_preview.php?cid=6003614281365\np2340\nsVobject_id\np2341\nI21898300328\nsVid\np2342\nV6003614281365\np2343\nsVimage_url\np2344\nVhttps://fbcdn-creative-a.akamaihd.net/hads-ak-ash3/s110x80/708183_6006844701965_36048_n.jpg\np2345\nsVcount_current_adgroups\np2346\nI0\nsVrun_status\np2347\nI1\nsVtype\np2348\nI2\nsVlink_url\np2349\nVhttp://www.facebook.com/BuzzFeed\np2350\nsVview_tag\np2351\ng1826\nsa(dp2352\nValt_view_tags\np2353\n(lp2354\nsVbody\np2355\nVRumor has it that they\'re back in the studio! Until then, check out our list of "The Top 10 Greatest Nickelback Songs". What\'d we miss?\np2356\nsVimage_hash\np2357\nV738759384dcede3e43dade77c03bf846\np2358\nsVname\np2359\nVHey Nickelback Fans!\np2360\nsVtitle\np2361\nVHey Nickelback Fans!\np2362\nsVcreative_id\np2363\nV6003614391965\np2364\nsVpreview_url\np2365\nVhttp://www.facebook.com/ads/api/creative_preview.php?cid=6003614391965\np2366\nsVid\np2367\nV6003614391965\np2368\nsVimage_url\np2369\nVhttps://fbcdn-creative-a.akamaihd.net/hads-ak-prn1/s110x80/708168_6006844745965_20483_n.jpg\np2370\nsVcount_current_adgroups\np2371\nI0\nsVrun_status\np2372\nI1\nsVtype\np2373\nI1\nsVlink_url\np2374\nVhttp://bzfd.it/qSaLz7\np2375\nsVview_tag\np2376\ng1826\nsa(dp2377\nValt_view_tags\np2378\n(lp2379\nsVbody\np2380\nVHands down the best part of every 90\'s kid\'s lunch. Reminisce with more on Buzzfeed!\np2381\nsVimage_hash\np2382\nV27f8f9179f3e9199a4bf1d1419a0c1c1\np2383\nsVname\np2384\nVRemember Dunkaroos? \np2385\nsVtitle\np2386\nVRemember Dunkaroos? \np2387\nsVcreative_id\np2388\nV6005575040765\np2389\nsVpreview_url\np2390\nVhttp://www.facebook.com/ads/api/creative_preview.php?cid=6005575040765\np2391\nsVid\np2392\nV6005575040765\np2393\nsVimage_url\np2394\nVhttps://fbcdn-creative-a.akamaihd.net/hads-ak-prn1/s110x80/708161_6006844298965_16168_n.jpg\np2395\nsVcount_current_adgroups\np2396\nI2\nsVrun_status\np2397\nI1\nsVtype\np2398\nI1\nsVlink_url\np2399\nVhttp://bzfd.it/NEdaix\np2400\nsVview_tag\np2401\ng1826\nsa(dp2402\nValt_view_tags\np2403\n(lp2404\nsVbody\np2405\nVBuzzFeed has an awesome network of partners. Click "Like" to see all the great content they feature on BuzzFeed, plus some of our faves\np2406\nsVimage_hash\np2407\nV09a91043b6e37bb5806c35d1ec3286eb\np2408\nsVname\np2409\nVBuzzFeed Partner\np2410\nsVtitle\np2411\ng1826\nsVcreative_id\np2412\nV6003543304965\np2413\nsVpreview_url\np2414\nVhttp://www.facebook.com/ads/api/creative_preview.php?cid=6003543304965\np2415\nsVobject_id\np2416\nI238205562866018\nsVid\np2417\nV6003543304965\np2418\nsVimage_url\np2419\nVhttps://fbcdn-creative-a.akamaihd.net/hads-ak-ash3/s110x80/701897_6006844103165_58934_n.jpg\np2420\nsVcount_current_adgroups\np2421\nI0\nsVrun_status\np2422\nI1\nsVtype\np2423\nI2\nsVlink_url\np2424\nVhttp://www.facebook.com/pages'
p6
sS'hash'
p7
S'a9dd0041d6493eeedf66ffcc70bd4a6ab8baad8e'
p8
sS'stack'
p9
S''
s.