(dp1
S'args'
p2
S''
sS'methodname'
p3
S''
sS'packet_num'
p4
I88
sS'returnval'
p5
S'\np10289\nVGas Blowout Spill\np10290\nsVtitle\np10291\nVGas Blowout Spill\np10292\nsVcreative_id\np10293\nV6003190669765\np10294\nsVpreview_url\np10295\nVhttp://www.facebook.com/ads/api/creative_preview.php?cid=6003190669765\np10296\nsVid\np10297\nV6003190669765\np10298\nsVimage_url\np10299\nVhttps://fbcdn-creative-a.akamaihd.net/hads-ak-prn1/s110x80/708164_6006845325965_43817_n.jpg\np10300\nsVcount_current_adgroups\np10301\nI0\nsVrun_status\np10302\nI1\nsVtype\np10303\nI1\nsVlink_url\np10304\nVhttp://www.huffingtonpost.com/2011/04/20/pennsylvania-fracking-spill-gas-blowout-2011_n_851637.html?utm_campaign=buzzfeedIO&ncid=buzzfeedIO\np10305\nsVview_tag\np10306\ng1826\nsa(dp10307\nValt_view_tags\np10308\n(lp10309\nsVbody\np10310\nVWe take the sun for granted, but it really is a miraculous thing. Check out this latest vid of the power of the sun!\np10311\nsVimage_hash\np10312\nVc56acb3327cac33318e28b317809a16c\np10313\nsVname\np10314\nVThe Amazing Sun\np10315\nsVtitle\np10316\nVThe Amazing Sun\np10317\nsVcreative_id\np10318\nV6003177320165\np10319\nsVpreview_url\np10320\nVhttp://www.facebook.com/ads/api/creative_preview.php?cid=6003177320165\np10321\nsVid\np10322\nV6003177320165\np10323\nsVimage_url\np10324\nVhttps://fbcdn-creative-a.akamaihd.net/hads-ak-ash3/s110x80/701897_6006845236365_51466_n.jpg\np10325\nsVcount_current_adgroups\np10326\nI0\nsVrun_status\np10327\nI1\nsVtype\np10328\nI1\nsVlink_url\np10329\nVhttp://www.buzzfeed.com/ht/thegeshow/the-amazing-sun/HFAA1\np10330\nsVview_tag\np10331\ng1826\nsa(dp10332\nValt_view_tags\np10333\n(lp10334\nsVbody\np10335\nVWho knew solar panels could look so cool? Check out some of the most amazing and innovative uses here!\np10336\nsVimage_hash\np10337\nVf973f26a44251748d0fad10b8ba652c3\np10338\nsVname\np10339\nV10 Uses of Solar Panels\np10340\nsVtitle\np10341\nV10 Uses of Solar Panels\np10342\nsVcreative_id\np10343\nV6003177328365\np10344\nsVpreview_url\np10345\nVhttp://www.facebook.com/ads/api/creative_preview.php?cid=6003177328365\np10346\nsVid\np10347\nV6003177328365\np10348\nsVimage_url\np10349\nVhttps://fbcdn-creative-a.akamaihd.net/hads-ak-ash3/s110x80/708189_6006845561565_39540_n.jpg\np10350\nsVcount_current_adgroups\np10351\nI0\nsVrun_status\np10352\nI1\nsVtype\np10353\nI1\nsVlink_url\np10354\nVhttp://www.buzzfeed.com/ht/thegeshow/top-10-coolest-uses-of-solar-panels/HFAA1\np10355\nsVview_tag\np10356\ng1826\nsa(dp10357\nValt_view_tags\np10358\n(lp10359\nsVbody\np10360\nVYou\\u2019ve seen them in action. And now you can use the overlay tool to grab one of these brave knights and help him conquer the Internet!\np10361\nsVimage_hash\np10362\nVcef14ac61fdd03be2fe60417b2ebe339\np10363\nsVname\np10364\nVTwo Knights: An Epic Duel\np10365\nsVtitle\np10366\nVTwo Knights: An Epic Duel\np10367\nsVcreative_id\np10368\nV6003175298965\np10369\nsVpreview_url\np10370\nVhttp://www.facebook.com/ads/api/creative_preview.php?cid=6003175298965\np10371\nsVid\np10372\nV6003175298965\np10373\nsVimage_url\np10374\nVhttps://fbcdn-creative-a.akamaihd.net/hads-ak-prn1/s110x80/708196_6006845290165_46117_n.jpg\np10375\nsVcount_current_adgroups\np10376\nI0\nsVrun_status\np10377\nI1\nsVtype\np10378\nI1\nsVlink_url\np10379\nVhttp://www.buzzfeed.com/ht/washingtonlottery/what-would-you-and-your-friends-do-if-you-won-the/HFAA1\np10380\nsVview_tag\np10381\ng1826\nsa(dp10382\nValt_view_tags\np10383\n(lp10384\nsVbody\np10385\nVEver think about what you\\u2019d do if you just had all the time and money in the world? Check this out!\np10386\nsVimage_hash\np10387\nVe7aa0c50bfbf71f0a7ae3b57cdd5dff6\np10388\nsVname\np10389\nVWant to Win The Lotto?\np10390\nsVtitle\np10391\nVWant to Win The Lotto?\np10392\nsVcreative_id\np10393\nV6003175197165\np10394\nsVpreview_url\np10395\nVhttp://www.facebook.com/ads/api/creative_preview.php?cid=6003175197165\np10396\nsVid\np10397\nV6003175197165\np10398\nsVimage_url\np10399\nVhttps://fbcdn-creative-a.akamaihd.net/hads-ak-prn1/s110x80/708171_6006845448565_7235_n.jpg\np10400\nsVcount_current_adgroups\np10401\nI0\nsVrun_status\np10402\nI1\nsVtype\np10403\nI1\nsVlink_url\np10404\nVhttp://www.buzzfeed.com/ht/washingtonlottery/what-would-you-and-your-friends-do-if-you-won-the/HFAA1\np10405\nsVview_tag\np10406\ng1826\nsa(dp10407\nValt_view_tags\np10408\n(lp10409\nsVbody\np10410\nVSay goodbye to your clip-on ties! Save yourself the humil'
p6
sS'hash'
p7
S'a9dd0041d6493eeedf66ffcc70bd4a6ab8baad8e'
p8
sS'stack'
p9
S''
s.