(dp1
S'args'
p2
S''
sS'methodname'
p3
S''
sS'packet_num'
p4
I131
sS'returnval'
p5
S"b Jam\np15767\nsVcreative_id\np15768\nV6002897440565\np15769\nsVpreview_url\np15770\nVhttp://www.facebook.com/ads/api/creative_preview.php?cid=6002897440565\np15771\nsVid\np15772\nV6002897440565\np15773\nsVimage_url\np15774\nVhttps://fbcdn-creative-a.akamaihd.net/hads-ak-ash3/s110x80/708171_6006845447965_26453_n.jpg\np15775\nsVcount_current_adgroups\np15776\nI0\nsVrun_status\np15777\nI1\nsVtype\np15778\nI1\nsVlink_url\np15779\nVhttp://buzzfeed.com/jetblue/cab-jam-1oc6\np15780\nsVview_tag\np15781\ng1826\nsa(dp15782\nValt_view_tags\np15783\n(lp15784\nsVbody\np15785\nVNew Yorkers can be tough. Add extra fees to their cab rides, and you'll find out. Watch what happens when the ground rules change.\np15786\nsVimage_hash\np15787\nVce249259b999fd9fcaa068670ac53b42\np15788\nsVname\np15789\nVTaken For A Ride\np15790\nsVtitle\np15791\nVTaken For A Ride\np15792\nsVcreative_id\np15793\nV6002897442365\np15794\nsVpreview_url\np15795\nVhttp://www.facebook.com/ads/api/creative_preview.php?cid=6002897442365\np15796\nsVid\np15797\nV6002897442365\np15798\nsVimage_url\np15799\nVhttps://fbcdn-creative-a.akamaihd.net/hads-ak-ash3/s110x80/701894_6006845284165_36294_n.jpg\np15800\nsVcount_current_adgroups\np15801\nI0\nsVrun_status\np15802\nI1\nsVtype\np15803\nI1\nsVlink_url\np15804\nVhttp://buzzfeed.com/jetblue/taken-for-a-ride\np15805\nsVview_tag\np15806\ng1826\nsa(dp15807\nValt_view_tags\np15808\n(lp15809\nsVbody\np15810\nVShow them this. Wow, Admiral Adama looks really young in this photo.\np15811\nsVimage_hash\np15812\nVa87f8a5508ec1670306e42152703caad\np15813\nsVname\np15814\nVHow To Piss Off Nerds-01\np15815\nsVtitle\np15816\nVHow To Piss Off Nerds\np15817\nsVcreative_id\np15818\nV6002897413965\np15819\nsVpreview_url\np15820\nVhttp://www.facebook.com/ads/api/creative_preview.php?cid=6002897413965\np15821\nsVid\np15822\nV6002897413965\np15823\nsVimage_url\np15824\nVhttps://fbcdn-creative-a.akamaihd.net/hads-ak-prn1/s110x80/708187_6006845066565_13984_n.jpg\np15825\nsVcount_current_adgroups\np15826\nI0\nsVrun_status\np15827\nI1\nsVtype\np15828\nI1\nsVlink_url\np15829\nVhttp://www.buzzfeed.com/awesomest/how-to-piss-off-nerds-27om#HFAA1\np15830\nsVview_tag\np15831\ng1826\nsa(dp15832\nValt_view_tags\np15833\n(lp15834\nsVbody\np15835\nV40 celebrities who are Republicans according to the Federal Election Commission, or known conservatives. Some may surprise you.\np15836\nsVimage_hash\np15837\nV6583311b7641eded82a0646208bc02d6\np15838\nsVname\np15839\nV40 Republican Celebrities\np15840\nsVtitle\np15841\nV40 Republican Celebrities\np15842\nsVcreative_id\np15843\nV6002863274165\np15844\nsVpreview_url\np15845\nVhttp://www.facebook.com/ads/api/creative_preview.php?cid=6002863274165\np15846\nsVid\np15847\nV6002863274165\np15848\nsVimage_url\np15849\nVhttps://fbcdn-creative-a.akamaihd.net/hads-ak-prn1/s110x80/708166_6006844667565_41994_n.jpg\np15850\nsVcount_current_adgroups\np15851\nI0\nsVrun_status\np15852\nI1\nsVtype\np15853\nI1\nsVlink_url\np15854\nVhttp://www.buzzfeed.com/mjs583/40-celebrities-who-are-republicans-3-2ah1?w=1#HFAA1\np15855\nsVview_tag\np15856\ng1826\nsa(dp15857\nValt_view_tags\np15858\n(lp15859\nsVbody\np15860\nV40 celebrities who are Republicans according to the Federal Election Commission, or known conservatives. Some may surprise you.\np15861\nsVimage_hash\np15862\nV6583311b7641eded82a0646208bc02d6\np15863\nsVname\np15864\nV40 Republican Celebrities-01\np15865\nsVtitle\np15866\nV40 Republican Celebrities\np15867\nsVcreative_id\np15868\nV6002863295765\np15869\nsVpreview_url\np15870\nVhttp://www.facebook.com/ads/api/creative_preview.php?cid=6002863295765\np15871\nsVid\np15872\nV6002863295765\np15873\nsVimage_url\np15874\nVhttps://fbcdn-creative-a.akamaihd.net/hads-ak-prn1/s110x80/708166_6006844667565_41994_n.jpg\np15875\nsVcount_current_adgroups\np15876\nI0\nsVrun_status\np15877\nI1\nsVtype\np15878\nI1\nsVlink_url\np15879\nVhttp://www.buzzfeed.com/mjs583/40-celebrities-who-are-republicans-4-2ah1?w=1#HFAB1\np15880\nsVview_tag\np15881\ng1826\nsa(dp15882\nValt_view_tags\np15883\n(lp15884\nsVbody\np15885\nV40 celebrities who are Republicans according to the Federal Election Commission, or known conservatives. Some may surprise you.\np15886\nsVimage_hash\np15887\nV6583311b7641eded82a0646208bc02d6\np15888\nsVname\np15889\nV40 Republican Celebrities-02\np15890\nsVtitle\np15891\nV40 Republican C"
p6
sS'hash'
p7
S'a9dd0041d6493eeedf66ffcc70bd4a6ab8baad8e'
p8
sS'stack'
p9
S''
s.