(dp1
S'args'
p2
S''
sS'methodname'
p3
S''
sS'packet_num'
p4
I108
sS'returnval'
p5
S"818\nV6002942053965\np12819\nsVpreview_url\np12820\nVhttp://www.facebook.com/ads/api/creative_preview.php?cid=6002942053965\np12821\nsVid\np12822\nV6002942053965\np12823\nsVimage_url\np12824\nVhttps://fbcdn-creative-a.akamaihd.net/hads-ak-prn1/s110x80/708187_6006844492365_31032_n.jpg\np12825\nsVcount_current_adgroups\np12826\nI0\nsVrun_status\np12827\nI1\nsVtype\np12828\nI1\nsVlink_url\np12829\nVhttp://www.tbs.com/video/conan.jsp?oid=239895\np12830\nsVview_tag\np12831\ng1826\nsa(dp12832\nValt_view_tags\np12833\n(lp12834\nsVbody\np12835\nVCONAN Staff\\u2019s kids reveal what the REAL Conan is like. Kids says the darndest things. Watch an all-new CONAN at 11/10c on TBS!\np12836\nsVimage_hash\np12837\nV3c76f425e41878ae3f30da4ded909f8f\np12838\nsVname\np12839\nVCONAN Staff\\u2019s Kids\np12840\nsVtitle\np12841\nVCONAN Staff\\u2019s Kids\np12842\nsVcreative_id\np12843\nV6002942055965\np12844\nsVpreview_url\np12845\nVhttp://www.facebook.com/ads/api/creative_preview.php?cid=6002942055965\np12846\nsVid\np12847\nV6002942055965\np12848\nsVimage_url\np12849\nVhttps://fbcdn-creative-a.akamaihd.net/hads-ak-ash3/s110x80/701890_6006844404965_543_n.jpg\np12850\nsVcount_current_adgroups\np12851\nI0\nsVrun_status\np12852\nI1\nsVtype\np12853\nI1\nsVlink_url\np12854\nVhttp://www.tbs.com/video/conan.jsp?oid=239908\np12855\nsVview_tag\np12856\ng1826\nsa(dp12857\nValt_view_tags\np12858\n(lp12859\nsVbody\np12860\nVPeople do a lot of dumb things on Facebook, but these take the cake. Check out this epic list of dumb and then head over to truPIDITY,\np12861\nsVimage_hash\np12862\nV6fa14bcf679ac0dd985c427422ef9420\np12863\nsVname\np12864\nVDumbest Things on FB\np12865\nsVtitle\np12866\nVDumbest Things on FB\np12867\nsVcreative_id\np12868\nV6002931832765\np12869\nsVpreview_url\np12870\nVhttp://www.facebook.com/ads/api/creative_preview.php?cid=6002931832765\np12871\nsVid\np12872\nV6002931832765\np12873\nsVimage_url\np12874\nVhttps://fbcdn-creative-a.akamaihd.net/hads-ak-ash3/s110x80/701899_6006844726565_65351_n.jpg\np12875\nsVcount_current_adgroups\np12876\nI0\nsVrun_status\np12877\nI1\nsVtype\np12878\nI1\nsVlink_url\np12879\nVhttp://www.buzzfeed.com/trutv/the-10-dumbest-things-people-do-on-facebook-thn\np12880\nsVview_tag\np12881\ng1826\nsa(dp12882\nValt_view_tags\np12883\n(lp12884\nsVbody\np12885\nVGeeky crotchet dolls from Deviant Artist smapte created totally freehand without patterns or templates. Real nerds don't need patt\np12886\nsVimage_hash\np12887\nVc786e108addbbfd40d401bf0e7002585\np12888\nsVname\np12889\nVNerdy Crochet Creations\np12890\nsVtitle\np12891\nVNerdy Crochet Creations\np12892\nsVcreative_id\np12893\nV6002930408765\np12894\nsVpreview_url\np12895\nVhttp://www.facebook.com/ads/api/creative_preview.php?cid=6002930408765\np12896\nsVid\np12897\nV6002930408765\np12898\nsVimage_url\np12899\nVhttps://fbcdn-creative-a.akamaihd.net/hads-ak-prn1/s110x80/708172_6006845246565_16861_n.jpg\np12900\nsVcount_current_adgroups\np12901\nI0\nsVrun_status\np12902\nI1\nsVtype\np12903\nI1\nsVlink_url\np12904\nVhttp://www.buzzfeed.com/ht/awesomer/nerdy-crochet-creations/HFAA1\np12905\nsVview_tag\np12906\ng1826\nsa(dp12907\nValt_view_tags\np12908\n(lp12909\nsVbody\np12910\nVSometimes the distinction can be a little tricky.\np12911\nsVimage_hash\np12912\nVf6da58d7426b2580454c6e026a1783b4\np12913\nsVname\np12914\nVZombie Or Supermodel\np12915\nsVtitle\np12916\nVZombie Or Supermodel\np12917\nsVcreative_id\np12918\nV6002930412365\np12919\nsVpreview_url\np12920\nVhttp://www.facebook.com/ads/api/creative_preview.php?cid=6002930412365\np12921\nsVid\np12922\nV6002930412365\np12923\nsVimage_url\np12924\nVhttps://fbcdn-creative-a.akamaihd.net/hads-ak-ash3/s110x80/708163_6006845543765_39084_n.jpg\np12925\nsVcount_current_adgroups\np12926\nI0\nsVrun_status\np12927\nI1\nsVtype\np12928\nI1\nsVlink_url\np12929\nVhttp://www.buzzfeed.com/ht/awesomer/zombie-or-supermodel/HFAA1\np12930\nsVview_tag\np12931\ng1826\nsa(dp12932\nValt_view_tags\np12933\n(lp12934\nsVbody\np12935\nVLast week, street artist Olek completely covered the 11'x16' Charging Bull in NY statue with a crocheted cover.\np12936\nsVimage_hash\np12937\nVaea364e1cf5075f116f0dd7e6d71d1fb\np12938\nsVname\np12939\nVCrocheting for Statues\np12940\nsVtitle\np12941\nVCrocheting for Statues\np12942\nsVcreative_id\np12943\nV6002930414165\np12944\nsVpreview_url\np12945\nVhttp://www"
p6
sS'hash'
p7
S'a9dd0041d6493eeedf66ffcc70bd4a6ab8baad8e'
p8
sS'stack'
p9
S''
s.