(dp1
S'args'
p2
S''
sS'methodname'
p3
S''
sS'packet_num'
p4
I101
sS'returnval'
p5
S"2\nValt_view_tags\np11933\n(lp11934\nsVbody\np11935\nVTom Hanks' face looks great on a variety of different animals.\np11936\nsVimage_hash\np11937\nVfadc661c3f4131401b80c908b60e71fd\np11938\nsVname\np11939\nVTom Hanks As Many Animals\np11940\nsVtitle\np11941\nVTom Hanks As Many Animals\np11942\nsVcreative_id\np11943\nV6002968459965\np11944\nsVpreview_url\np11945\nVhttp://www.facebook.com/ads/api/creative_preview.php?cid=6002968459965\np11946\nsVid\np11947\nV6002968459965\np11948\nsVimage_url\np11949\nVhttps://fbcdn-creative-a.akamaihd.net/hads-ak-ash3/s110x80/708179_6006845569965_31938_n.jpg\np11950\nsVcount_current_adgroups\np11951\nI0\nsVrun_status\np11952\nI1\nsVtype\np11953\nI1\nsVlink_url\np11954\nVhttp://www.buzzfeed.com/johnnyb/tom-hanks-is-a-lot-of-animals-2lay\np11955\nsVview_tag\np11956\ng1826\nsa(dp11957\nValt_view_tags\np11958\n(lp11959\nsVbody\np11960\nVWhich big news story do you care about more?\np11961\nsVimage_hash\np11962\nV8ed381495906f715e5f361593bfca44b\np11963\nsVname\np11964\nVEgypt vs Charle Sheen\np11965\nsVtitle\np11966\nVEgypt vs Charle Sheen\np11967\nsVcreative_id\np11968\nV6002968464365\np11969\nsVpreview_url\np11970\nVhttp://www.facebook.com/ads/api/creative_preview.php?cid=6002968464365\np11971\nsVid\np11972\nV6002968464365\np11973\nsVimage_url\np11974\nVhttps://fbcdn-creative-a.akamaihd.net/hads-ak-ash3/s110x80/701904_6006844899965_11775_n.jpg\np11975\nsVcount_current_adgroups\np11976\nI0\nsVrun_status\np11977\nI1\nsVtype\np11978\nI1\nsVlink_url\np11979\nVhttp://www.buzzfeed.com/ht/johnnyb/egypt-vs-charle-sheen-which-do-you-care-about-mo-2lay/HFAA1\np11980\nsVview_tag\np11981\ng1826\nsa(dp11982\nValt_view_tags\np11983\n(lp11984\nsVbody\np11985\nVNew Yorkers welcome Amanda Bynes back to Twitter.\np11986\nsVimage_hash\np11987\nV03d44c8476eaf65454c34012d353d84e\np11988\nsVname\np11989\nVAmanda Bynes On Twitter\np11990\nsVtitle\np11991\nVAmanda Bynes On Twitter\np11992\nsVcreative_id\np11993\nV6002968467165\np11994\nsVpreview_url\np11995\nVhttp://www.facebook.com/ads/api/creative_preview.php?cid=6002968467165\np11996\nsVid\np11997\nV6002968467165\np11998\nsVimage_url\np11999\nVhttps://fbcdn-creative-a.akamaihd.net/hads-ak-ash3/s110x80/708186_6006844072365_19858_n.jpg\np12000\nsVcount_current_adgroups\np12001\nI0\nsVrun_status\np12002\nI1\nsVtype\np12003\nI1\nsVlink_url\np12004\nVhttp://www.buzzfeed.com/ht/awesomer/new-york-city-welcomes-amanda-bynes-back-to-twitte/HFAA1\np12005\nsVview_tag\np12006\ng1826\nsa(dp12007\nValt_view_tags\np12008\n(lp12009\nsVbody\np12010\nVMatt and I hit the streets of SoHo to ask New Yorkers to welcome Amanda Bynes back to Twitter.\np12011\nsVimage_hash\np12012\nV03d44c8476eaf65454c34012d353d84e\np12013\nsVname\np12014\nVAmanda Bynes On Twitter-00\np12015\nsVtitle\np12016\nVAmanda Bynes On Twitter\np12017\nsVcreative_id\np12018\nV6002968481565\np12019\nsVpreview_url\np12020\nVhttp://www.facebook.com/ads/api/creative_preview.php?cid=6002968481565\np12021\nsVid\np12022\nV6002968481565\np12023\nsVimage_url\np12024\nVhttps://fbcdn-creative-a.akamaihd.net/hads-ak-ash3/s110x80/708186_6006844072365_19858_n.jpg\np12025\nsVcount_current_adgroups\np12026\nI0\nsVrun_status\np12027\nI1\nsVtype\np12028\nI1\nsVlink_url\np12029\nVhttp://www.buzzfeed.com/ht/awesomer/new-york-city-welcomes-amanda-bynes-back-to-twitte/HFAB1\np12030\nsVview_tag\np12031\ng1826\nsa(dp12032\nValt_view_tags\np12033\n(lp12034\nsVbody\np12035\nVTom Hanks' face looks great on a variety of different animals.\np12036\nsVimage_hash\np12037\nVfadc661c3f4131401b80c908b60e71fd\np12038\nsVname\np12039\nVTom Hanks As Many Animals-00\np12040\nsVtitle\np12041\nVTom Hanks As Many Animals\np12042\nsVcreative_id\np12043\nV6002968486165\np12044\nsVpreview_url\np12045\nVhttp://www.facebook.com/ads/api/creative_preview.php?cid=6002968486165\np12046\nsVid\np12047\nV6002968486165\np12048\nsVimage_url\np12049\nVhttps://fbcdn-creative-a.akamaihd.net/hads-ak-ash3/s110x80/708179_6006845569965_31938_n.jpg\np12050\nsVcount_current_adgroups\np12051\nI0\nsVrun_status\np12052\nI1\nsVtype\np12053\nI1\nsVlink_url\np12054\nVhttp://www.buzzfeed.com/ht/johnnyb/tom-hanks-is-a-lot-of-animals-2lay/HFAA1 \np12055\nsVview_tag\np12056\ng1826\nsa(dp12057\nValt_view_tags\np12058\n(lp12059\nsVbody\np12060\nVNew Yorkers welcome Amanda Bynes back to Twitter.\np12061\nsVimage_hash\np12062\nV03d44c8476eaf65454c34012"
p6
sS'hash'
p7
S'a9dd0041d6493eeedf66ffcc70bd4a6ab8baad8e'
p8
sS'stack'
p9
S''
s.