(dp1
S'args'
p2
S''
sS'methodname'
p3
S''
sS'packet_num'
p4
I82
sS'returnval'
p5
S'ook for.\np9536\nsVimage_hash\np9537\nVa5af9e0f9bd0fa341215e8f9788dff9c\np9538\nsVname\np9539\nVNew Watch For Fathers Day\np9540\nsVtitle\np9541\nVNew Watch For Fathers Day\np9542\nsVcreative_id\np9543\nV6003267408165\np9544\nsVpreview_url\np9545\nVhttp://www.facebook.com/ads/api/creative_preview.php?cid=6003267408165\np9546\nsVid\np9547\nV6003267408165\np9548\nsVimage_url\np9549\nVhttps://fbcdn-creative-a.akamaihd.net/hads-ak-snc7/s110x80/701888_6006845044565_35583_n.jpg\np9550\nsVcount_current_adgroups\np9551\nI0\nsVrun_status\np9552\nI1\nsVtype\np9553\nI1\nsVlink_url\np9554\nVhttp://www.buzzfeed.com/ht/bic/guide-to-buying-your-first-expensive-watch/HFAC1\np9555\nsVview_tag\np9556\ng1826\nsa(dp9557\nValt_view_tags\np9558\n(lp9559\nsVbody\np9560\nVWatches are a classic component to every man\'s wardrobe.  Read the "Guide to Buying Your First Expensive Watch" & see what to look for.\np9561\nsVimage_hash\np9562\nVa5af9e0f9bd0fa341215e8f9788dff9c\np9563\nsVname\np9564\nVEvery Man Should Know\np9565\nsVtitle\np9566\nVEvery Man Should Know\np9567\nsVcreative_id\np9568\nV6003267414765\np9569\nsVpreview_url\np9570\nVhttp://www.facebook.com/ads/api/creative_preview.php?cid=6003267414765\np9571\nsVid\np9572\nV6003267414765\np9573\nsVimage_url\np9574\nVhttps://fbcdn-creative-a.akamaihd.net/hads-ak-snc7/s110x80/701888_6006845044565_35583_n.jpg\np9575\nsVcount_current_adgroups\np9576\nI0\nsVrun_status\np9577\nI1\nsVtype\np9578\nI1\nsVlink_url\np9579\nVhttp://www.buzzfeed.com/ht/bic/guide-to-buying-your-first-expensive-watch/HFAB1\np9580\nsVview_tag\np9581\ng1826\nsa(dp9582\nValt_view_tags\np9583\n(lp9584\nsVbody\np9585\nVThis shocking video shows a massive tornado as it pummels through Tuscaloosa.\np9586\nsVimage_hash\np9587\nV5637f0fb872a9c9fa8b4ad05438f6ef0\np9588\nsVname\np9589\nVAlabama Twister Filmed\np9590\nsVtitle\np9591\nVAlabama Twister Filmed\np9592\nsVcreative_id\np9593\nV6003205914365\np9594\nsVpreview_url\np9595\nVhttp://www.facebook.com/ads/api/creative_preview.php?cid=6003205914365\np9596\nsVid\np9597\nV6003205914365\np9598\nsVimage_url\np9599\nVhttps://fbcdn-creative-a.akamaihd.net/hads-ak-ash3/s110x80/708176_6006844589965_25808_n.jpg\np9600\nsVcount_current_adgroups\np9601\nI0\nsVrun_status\np9602\nI1\nsVtype\np9603\nI1\nsVlink_url\np9604\nVhttp://www.huffingtonpost.com/2011/04/28/tuscaloosa-alabama-tornado-video-2011_n_854811.html?utm_campaign=buzzfeedIO&ncid=buzzfeedIO\np9605\nsVview_tag\np9606\ng1826\nsa(dp9607\nValt_view_tags\np9608\n(lp9609\nsVbody\np9610\nVAs if there was any doubt about it, it appears that Pippa Middleton knows how to have a good time! Read here for more!\np9611\nsVimage_hash\np9612\nV56ba6a611afeb47eca764eeaf5f52f38\np9613\nsVname\np9614\nVPippa Middleton Shirtless\np9615\nsVtitle\np9616\nVPippa Middleton Shirtless\np9617\nsVcreative_id\np9618\nV6003221981365\np9619\nsVpreview_url\np9620\nVhttp://www.facebook.com/ads/api/creative_preview.php?cid=6003221981365\np9621\nsVid\np9622\nV6003221981365\np9623\nsVimage_url\np9624\nVhttps://fbcdn-creative-a.akamaihd.net/hads-ak-prn1/s110x80/708176_6006844591765_36733_n.jpg\np9625\nsVcount_current_adgroups\np9626\nI0\nsVrun_status\np9627\nI1\nsVtype\np9628\nI1\nsVlink_url\np9629\nVhttp://www.huffingtonpost.com/2011/05/05/pippa-middleton-topless-pictures-shirtless-photos_n_858024.html?utm_campaign=buzzfeedIO&ncid=buzzfeedIO\np9630\nsVview_tag\np9631\ng1826\nsa(dp9632\nValt_view_tags\np9633\n(lp9634\nsVbody\np9635\nVSo wilderness man, do you have what it takes to go camping? Check out this list for the camping essentials!\np9636\nsVimage_hash\np9637\nVe543abba1ee40bd02ba734e82fac2d25\np9638\nsVname\np9639\nVTop 10 Camping Essentials\np9640\nsVtitle\np9641\nVTop 10 Camping Essentials\np9642\nsVcreative_id\np9643\nV6003231095565\np9644\nsVpreview_url\np9645\nVhttp://www.facebook.com/ads/api/creative_preview.php?cid=6003231095565\np9646\nsVid\np9647\nV6003231095565\np9648\nsVimage_url\np9649\nVhttps://fbcdn-creative-a.akamaihd.net/hads-ak-prn1/s110x80/708185_6006845432365_11502_n.jpg\np9650\nsVcount_current_adgroups\np9651\nI0\nsVrun_status\np9652\nI1\nsVtype\np9653\nI1\nsVlink_url\np9654\nVhttp://www.buzzfeed.com/ht/bic/top-10-camping-essentials/HFAA1\np9655\nsVview_tag\np9656\ng1826\nsa(dp9657\nValt_view_tags\np9658\n(lp9659\nsVbody\np9660\nVSo wilderness man, do you have what it takes to go camping? Check out'
p6
sS'hash'
p7
S'a9dd0041d6493eeedf66ffcc70bd4a6ab8baad8e'
p8
sS'stack'
p9
S''
s.