(dp1
S'args'
p2
S''
sS'methodname'
p3
S''
sS'packet_num'
p4
I47
sS'returnval'
p5
S"r Page\np7462\nsVstart_time\np7463\nV2012-04-05T14:20:49-0700\np7464\nsVcampaign_id\np7465\nI6004968062965\nsVfrequency_cap\np7466\nI0\nsVdaily_imps\np7467\nI0\nsVlifetime_budget\np7468\nI155000\nsVend_time\np7469\nV2012-06-02T20:00:00-0700\np7470\nsVcreated_time\np7471\nV2012-04-05T14:20:49-0700\np7472\nsVupdated_time\np7473\nV2012-09-21T13:01:47-0700\np7474\nsVcampaign_status\np7475\nI2\nsVid\np7476\nV6004968062965\np7477\nsVaccount_id\np7478\nI40156177\nsa(dp7479\nVname\np7480\nVPepsi Next | Look-At-This-Guy-Pretending-To-Be-Jonah-Peretti\np7481\nsVstart_time\np7482\nV2012-04-05T15:09:29-0700\np7483\nsVcampaign_id\np7484\nI6004968352365\nsVfrequency_cap\np7485\nI0\nsVdaily_imps\np7486\nI0\nsVlifetime_budget\np7487\nI40000\nsVend_time\np7488\nV2012-04-10T15:00:00-0700\np7489\nsVcreated_time\np7490\nV2012-04-05T15:09:29-0700\np7491\nsVupdated_time\np7492\nV2012-09-21T13:01:49-0700\np7493\nsVcampaign_status\np7494\nI2\nsVid\np7495\nV6004968352365\np7496\nsVaccount_id\np7497\nI40156177\nsa(dp7498\nVname\np7499\nVPepsi: Next | 10-Things-You-Should-Be-Able-To-Try-Before-You-Buy\np7500\nsVstart_time\np7501\nV2012-04-11T09:00:00-0700\np7502\nsVcampaign_id\np7503\nI6004970175565\nsVfrequency_cap\np7504\nI0\nsVdaily_imps\np7505\nI0\nsVlifetime_budget\np7506\nI40000\nsVend_time\np7507\nV2012-04-24T23:15:00-0700\np7508\nsVcreated_time\np7509\nV2012-04-06T08:30:52-0700\np7510\nsVupdated_time\np7511\nV2012-09-21T13:01:50-0700\np7512\nsVcampaign_status\np7513\nI2\nsVid\np7514\nV6004970175565\np7515\nsVaccount_id\np7516\nI40156177\nsa(dp7517\nVname\np7518\nVThe Daily: Q2 2012 | It's Kimye\np7519\nsVstart_time\np7520\nV2012-04-06T08:45:00-0700\np7521\nsVcampaign_id\np7522\nI6004970177965\nsVfrequency_cap\np7523\nI0\nsVdaily_imps\np7524\nI0\nsVlifetime_budget\np7525\nI20000\nsVend_time\np7526\nV2012-04-06T20:30:00-0700\np7527\nsVcreated_time\np7528\nV2012-04-06T08:32:22-0700\np7529\nsVupdated_time\np7530\nV2012-09-21T13:01:52-0700\np7531\nsVcampaign_status\np7532\nI2\nsVid\np7533\nV6004970177965\np7534\nsVaccount_id\np7535\nI40156177\nsa(dp7536\nVname\np7537\nVPepsi: Next | 10-Things-You-Havent-Tried-But-Probably-Should\np7538\nsVstart_time\np7539\nV2012-04-16T06:00:00-0700\np7540\nsVcampaign_id\np7541\nI6004970190765\nsVfrequency_cap\np7542\nI0\nsVdaily_imps\np7543\nI0\nsVlifetime_budget\np7544\nI40000\nsVend_time\np7545\nV2012-04-24T23:00:00-0700\np7546\nsVcreated_time\np7547\nV2012-04-06T08:40:57-0700\np7548\nsVupdated_time\np7549\nV2012-09-21T13:01:54-0700\np7550\nsVcampaign_status\np7551\nI2\nsVid\np7552\nV6004970190765\np7553\nsVaccount_id\np7554\nI40156177\nsa(dp7555\nVname\np7556\nVBBC: April Premiers | How-To-Hunt-A-Giant-Tree-Rat\np7557\nsVstart_time\np7558\nV2012-04-08T06:30:00-0700\np7559\nsVcampaign_id\np7560\nI6004970415165\nsVfrequency_cap\np7561\nI0\nsVdaily_imps\np7562\nI0\nsVlifetime_budget\np7563\nI25000\nsVend_time\np7564\nV2012-04-16T15:30:00-0700\np7565\nsVcreated_time\np7566\nV2012-04-06T11:11:57-0700\np7567\nsVupdated_time\np7568\nV2012-09-21T13:01:56-0700\np7569\nsVcampaign_status\np7570\nI2\nsVid\np7571\nV6004970415165\np7572\nsVaccount_id\np7573\nI40156177\nsa(dp7574\nVname\np7575\nVBbc: April Premiers | 10-Weird-Foods-You-Should-Actually-Try-2Rld\np7576\nsVstart_time\np7577\nV2012-04-06T11:23:03-0700\np7578\nsVcampaign_id\np7579\nI6004970539165\nsVfrequency_cap\np7580\nI0\nsVdaily_imps\np7581\nI0\nsVlifetime_budget\np7582\nI15000\nsVend_time\np7583\nV2012-04-10T09:00:00-0700\np7584\nsVcreated_time\np7585\nV2012-04-06T11:23:03-0700\np7586\nsVupdated_time\np7587\nV2012-09-21T13:01:58-0700\np7588\nsVcampaign_status\np7589\nI2\nsVid\np7590\nV6004970539165\np7591\nsVaccount_id\np7592\nI40156177\nsa(dp7593\nVname\np7594\nVBOOST|dsafjkl|1|O4KeMG2mF151|iguxwhfwytarnmhwobtn\np7595\nsVstart_time\np7596\nV2012-04-06T12:59:37-0700\np7597\nsVcampaign_id\np7598\nI6004970626565\nsVfrequency_cap\np7599\nI0\nsVdaily_imps\np7600\nI0\nsVlifetime_budget\np7601\nI400\nsVend_time\np7602\nV2012-04-06T18:59:36-0700\np7603\nsVcreated_time\np7604\nV2012-04-06T12:59:37-0700\np7605\nsVupdated_time\np7606\nV2012-04-06T12:59:37-0700\np7607\nsVcampaign_status\np7608\nI2\nsVid\np7609\nV6004970626565\np7610\nsVaccount_id\np7611\nI40156177\nsa(dp7612\nVname\np7613\nVAnimal Planet: Tanked | The-Most-Beautiful-Fish-In-The-World\np7614\nsVstart_time\np7615\nV2012-04-09T08:30:11-0700\np7616\nsVcampaign_id\np7617\nI6004980813565\nsVfrequency_cap\np7618\nI0\nsVdaily_imps\np7619\nI0\nsVlifetime_budge"
p6
sS'hash'
p7
S'abbc400d33f455921d2f09ac6adf447899487dbd'
p8
sS'stack'
p9
S''
s.