(dp1
S'args'
p2
S''
sS'methodname'
p3
S''
sS'packet_num'
p4
I21
sS'returnval'
p5
S'-21T12:55:19-0700\np3237\nsVcampaign_status\np3238\nI2\nsVid\np3239\nV6003997530765\np3240\nsVaccount_id\np3241\nI40156177\nsa(dp3242\nVname\np3243\nVSlate: Rihanna Vita Coco\np3244\nsVstart_time\np3245\nV2011-11-09T09:00:00-0800\np3246\nsVcampaign_id\np3247\nI6004001859165\nsVfrequency_cap\np3248\nI0\nsVdaily_imps\np3249\nI0\nsVlifetime_budget\np3250\nI20000\nsVend_time\np3251\nV2011-11-09T20:30:00-0800\np3252\nsVcreated_time\np3253\nV2011-11-09T08:50:45-0800\np3254\nsVupdated_time\np3255\nV2012-09-21T12:55:21-0700\np3256\nsVcampaign_status\np3257\nI2\nsVid\np3258\nV6004001859165\np3259\nsVaccount_id\np3260\nI40156177\nsa(dp3261\nVname\np3262\nVExperian: Bands Making It Big\np3263\nsVstart_time\np3264\nV2011-11-09T10:00:00-0800\np3265\nsVcampaign_id\np3266\nI6004001891965\nsVfrequency_cap\np3267\nI0\nsVdaily_imps\np3268\nI0\nsVlifetime_budget\np3269\nI20000\nsVend_time\np3270\nV2011-11-09T20:30:00-0800\np3271\nsVcreated_time\np3272\nV2011-11-09T09:25:21-0800\np3273\nsVupdated_time\np3274\nV2012-09-21T12:55:27-0700\np3275\nsVcampaign_status\np3276\nI2\nsVid\np3277\nV6004001891965\np3278\nsVaccount_id\np3279\nI40156177\nsa(dp3280\nVname\np3281\nVMentos: Daily Affirmations\np3282\nsVstart_time\np3283\nV2011-11-10T08:00:00-0800\np3284\nsVcampaign_id\np3285\nI6004005392565\nsVfrequency_cap\np3286\nI0\nsVdaily_imps\np3287\nI0\nsVlifetime_budget\np3288\nI20000\nsVend_time\np3289\nV2011-11-14T20:30:00-0800\np3290\nsVcreated_time\np3291\nV2011-11-10T07:58:42-0800\np3292\nsVupdated_time\np3293\nV2012-09-21T12:55:28-0700\np3294\nsVcampaign_status\np3295\nI2\nsVid\np3296\nV6004005392565\np3297\nsVaccount_id\np3298\nI40156177\nsa(dp3299\nVname\np3300\nVSlate: Heavy D\np3301\nsVstart_time\np3302\nV2011-11-10T09:04:00-0800\np3303\nsVcampaign_id\np3304\nI6004005447965\nsVfrequency_cap\np3305\nI0\nsVdaily_imps\np3306\nI0\nsVlifetime_budget\np3307\nI20000\nsVend_time\np3308\nV2011-11-10T20:30:00-0800\np3309\nsVcreated_time\np3310\nV2011-11-10T09:04:00-0800\np3311\nsVupdated_time\np3312\nV2012-09-21T12:55:30-0700\np3313\nsVcampaign_status\np3314\nI2\nsVid\np3315\nV6004005447965\np3316\nsVaccount_id\np3317\nI40156177\nsa(dp3318\nVname\np3319\nVSlate: Google+ vs. Facebook\np3320\nsVstart_time\np3321\nV2011-11-10T12:00:00-0800\np3322\nsVcampaign_id\np3323\nI6004005787765\nsVfrequency_cap\np3324\nI0\nsVdaily_imps\np3325\nI0\nsVlifetime_budget\np3326\nI20000\nsVend_time\np3327\nV2011-11-10T20:30:00-0800\np3328\nsVcreated_time\np3329\nV2011-11-10T11:19:48-0800\np3330\nsVupdated_time\np3331\nV2012-09-21T12:55:32-0700\np3332\nsVcampaign_status\np3333\nI2\nsVid\np3334\nV6004005787765\np3335\nsVaccount_id\np3336\nI40156177\nsa(dp3337\nVname\np3338\nVBuzzFeed RND: Joe Paterno Firing - Penn St. (Partner Page)\np3339\nsVstart_time\np3340\nV2011-11-10T12:00:00-0800\np3341\nsVcampaign_id\np3342\nI6004005802165\nsVfrequency_cap\np3343\nI0\nsVdaily_imps\np3344\nI0\nsVlifetime_budget\np3345\nI15000\nsVend_time\np3346\nV2011-11-10T18:30:00-0800\np3347\nsVcreated_time\np3348\nV2011-11-10T11:43:26-0800\np3349\nsVupdated_time\np3350\nV2012-09-21T12:55:34-0700\np3351\nsVcampaign_status\np3352\nI2\nsVid\np3353\nV6004005802165\np3354\nsVaccount_id\np3355\nI40156177\nsa(dp3356\nVname\np3357\nVBuzzFeed RND: Joe Paterno Firing - Rivals (Partner Page)\np3358\nsVstart_time\np3359\nV2011-11-10T12:00:00-0800\np3360\nsVcampaign_id\np3361\nI6004005806365\nsVfrequency_cap\np3362\nI0\nsVdaily_imps\np3363\nI0\nsVlifetime_budget\np3364\nI15000\nsVend_time\np3365\nV2011-11-10T18:30:00-0800\np3366\nsVcreated_time\np3367\nV2011-11-10T11:49:15-0800\np3368\nsVupdated_time\np3369\nV2012-09-21T12:55:36-0700\np3370\nsVcampaign_status\np3371\nI2\nsVid\np3372\nV6004005806365\np3373\nsVaccount_id\np3374\nI40156177\nsa(dp3375\nVname\np3376\nVSlate: Vladimir Putin\np3377\nsVstart_time\np3378\nV2011-11-11T10:00:00-0800\np3379\nsVcampaign_id\np3380\nI6004009811765\nsVfrequency_cap\np3381\nI0\nsVdaily_imps\np3382\nI0\nsVlifetime_budget\np3383\nI20000\nsVend_time\np3384\nV2011-11-11T20:30:00-0800\np3385\nsVcreated_time\np3386\nV2011-11-11T09:23:38-0800\np3387\nsVupdated_time\np3388\nV2012-09-21T12:55:38-0700\np3389\nsVcampaign_status\np3390\nI2\nsVid\np3391\nV6004009811765\np3392\nsVaccount_id\np3393\nI40156177\nsa(dp3394\nVname\np3395\nVSlate: Rick Perry Oops\np3396\nsVstart_time\np3397\nV2011-11-11T10:00:00-0800\np3398\nsVcampaign_id\np3399\nI6004009815165\nsVfrequency_cap\np3400\nI0\nsVdaily_imps\np3401\nI0\nsVlifetime_budget\np3402\nI20000\nsVend_time\np3403\n'
p6
sS'hash'
p7
S'abbc400d33f455921d2f09ac6adf447899487dbd'
p8
sS'stack'
p9
S''
s.