(dp1
S'args'
p2
S''
sS'methodname'
p3
S''
sS'packet_num'
p4
I51
sS'returnval'
p5
S'rom Mcfarlane-00-00\np6595\nsVtitle\np6596\nVSeth MacFarlane\'s Latest\np6597\nsVcreative_id\np6598\nV6005366444365\np6599\nsVpreview_url\np6600\nVhttp://www.facebook.com/ads/api/creative_preview.php?cid=6005366444365\np6601\nsVid\np6602\nV6005366444365\np6603\nsVimage_url\np6604\nVhttps://fbcdn-creative-a.akamaihd.net/hads-ak-prn1/s110x80/708166_6006844668365_25769_n.jpg\np6605\nsVcount_current_adgroups\np6606\nI1\nsVrun_status\np6607\nI1\nsVtype\np6608\nI1\nsVlink_url\np6609\nVhttp://www.buzzfeed.com/h1/fbad/tedisreal/the-worst-behaved-teddy-bear-of-all-time-6gxf\np6610\nsVview_tag\np6611\ng21\nsa(dp6612\nValt_view_tags\np6613\n(lp6614\nsVbody\np6615\nVCheck out these "10 Things That Will Remind You Of A Summer BBQ" including pork cologne!\np6616\nsVimage_hash\np6617\nV16c0b0aaeee7360ca75ba1c873732abe\np6618\nsVname\np6619\nVEscape to Summer!\np6620\nsVtitle\np6621\nVEscape to Summer!\np6622\nsVcreative_id\np6623\nV6005326325165\np6624\nsVpreview_url\np6625\nVhttp://www.facebook.com/ads/api/creative_preview.php?cid=6005326325165\np6626\nsVid\np6627\nV6005326325165\np6628\nsVimage_url\np6629\nVhttps://fbcdn-creative-a.akamaihd.net/hads-ak-prn1/s110x80/708166_6006844191565_35181_n.jpg\np6630\nsVcount_current_adgroups\np6631\nI3\nsVrun_status\np6632\nI1\nsVtype\np6633\nI1\nsVlink_url\np6634\nVhttp://www.buzzfeed.com/h1/fbad/tostitos/10-things-that-will-remind-you-of-a-summer-bbq-4hwd\np6635\nsVview_tag\np6636\ng21\nsa(dp6637\nValt_view_tags\np6638\n(lp6639\nsVbody\np6640\nVMakes our list of most anticpated summer movies. See the rest on BuzzFeed.\np6641\nsVimage_hash\np6642\nVcfb091600b8aab11d18110311a220400\np6643\nsVname\np6644\nVFerrell VS Galifianakis-01-00\np6645\nsVtitle\np6646\nVThe Bourne Legacy\np6647\nsVcreative_id\np6648\nV6005371230165\np6649\nsVpreview_url\np6650\nVhttp://www.facebook.com/ads/api/creative_preview.php?cid=6005371230165\np6651\nsVid\np6652\nV6005371230165\np6653\nsVimage_url\np6654\nVhttps://fbcdn-creative-a.akamaihd.net/hads-ak-prn1/s110x80/708196_6006845292765_5824_n.jpg\np6655\nsVcount_current_adgroups\np6656\nI1\nsVrun_status\np6657\nI1\nsVtype\np6658\nI1\nsVlink_url\np6659\nVhttp://www.buzzfeed.com/h1/fbad/spoilers/the-most-anticipated-movies-of-summer-2012\np6660\nsVview_tag\np6661\ng21\nsa(dp6662\nValt_view_tags\np6663\n(lp6664\nsVbody\np6665\nV"The Campaign" makes our list of most anticpated summer movies. See the rest on BuzzFeed.\np6666\nsVimage_hash\np6667\nVf6a4920ed0826af4a238b18791dd822a\np6668\nsVname\np6669\nVFerrell VS Galifianakis\np6670\nsVtitle\np6671\nVFerrell VS Galifianakis\np6672\nsVcreative_id\np6673\nV6005332407765\np6674\nsVpreview_url\np6675\nVhttp://www.facebook.com/ads/api/creative_preview.php?cid=6005332407765\np6676\nsVid\np6677\nV6005332407765\np6678\nsVimage_url\np6679\nVhttps://fbcdn-creative-a.akamaihd.net/hads-ak-prn1/s110x80/708163_6006845542365_11243_n.jpg\np6680\nsVcount_current_adgroups\np6681\nI2\nsVrun_status\np6682\nI1\nsVtype\np6683\nI1\nsVlink_url\np6684\nVhttp://www.buzzfeed.com/h1/fbad/spoilers/the-most-anticipated-movies-of-summer-2012\np6685\nsVview_tag\np6686\ng21\nsa(dp6687\nValt_view_tags\np6688\n(lp6689\nsVbody\np6690\nV"Savages" makes our list of most anticpated summer movies. See the rest on BuzzFeed.\np6691\nsVimage_hash\np6692\nVbf5024c500c4b323ea88db5548f43463\np6693\nsVname\np6694\nVFerrell VS Galifianakis-00\np6695\nsVtitle\np6696\nVOliver Stone\'s Latest\np6697\nsVcreative_id\np6698\nV6005337486765\np6699\nsVpreview_url\np6700\nVhttp://www.facebook.com/ads/api/creative_preview.php?cid=6005337486765\np6701\nsVid\np6702\nV6005337486765\np6703\nsVimage_url\np6704\nVhttps://fbcdn-creative-a.akamaihd.net/hads-ak-prn1/s110x80/708192_6006845200765_22782_n.jpg\np6705\nsVcount_current_adgroups\np6706\nI1\nsVrun_status\np6707\nI1\nsVtype\np6708\nI1\nsVlink_url\np6709\nVhttp://www.buzzfeed.com/h1/fbad/spoilers/the-most-anticipated-movies-of-summer-2012\np6710\nsVview_tag\np6711\ng21\nsa(dp6712\nValt_view_tags\np6713\n(lp6714\nsVbody\np6715\nV"Sparkle" makes our list of most anticpated summer movies. See the rest on BuzzFeed.\np6716\nsVimage_hash\np6717\nV43190571de53763fe68281ef7596df2a\np6718\nsVname\np6719\nVFerrell VS Galifianakis-00-00\np6720\nsVtitle\np6721\nVWhitney\'s Lagacy Film\np6722\nsVcreative_id\np6723\nV6005342975965\np6724\nsVpreview_url\np6725\nVhttp://www.facebook.com/ads/api/creative_preview.php?'
p6
sS'hash'
p7
S'b04e82362d7e2efb1f5747f69422cdb7dd2f4ca6'
p8
sS'stack'
p9
S''
s.