(dp1
S'args'
p2
S''
sS'methodname'
p3
S''
sS'packet_num'
p4
I90
sS'returnval'
p5
S'566\nsVcreative_id\np11567\nV6004075486165\np11568\nsVpreview_url\np11569\nVhttp://www.facebook.com/ads/api/creative_preview.php?cid=6004075486165\np11570\nsVid\np11571\nV6004075486165\np11572\nsVimage_url\np11573\nVhttps://fbcdn-creative-a.akamaihd.net/hads-ak-prn1/s110x80/708195_6006845483365_20965_n.jpg\np11574\nsVcount_current_adgroups\np11575\nI1\nsVrun_status\np11576\nI1\nsVtype\np11577\nI1\nsVlink_url\np11578\nVhttp://www.buzzfeed.com/h1/fba/microsofthotmail/10-things-that-are-cool-to-love-again\np11579\nsVview_tag\np11580\ng21\nsa(dp11581\nValt_view_tags\np11582\n(lp11583\nsVbody\np11584\nVFrom The Muppets to Hotmail, check out things from the past that came back with vengeance in "10 Things That Are Cool To Love Again"\np11585\nsVimage_hash\np11586\nV0e2ea88ab33046046769807039d107b2\np11587\nsVname\np11588\nVThe Past And The Present-02\np11589\nsVtitle\np11590\nVThe Past And The Present\np11591\nsVcreative_id\np11592\nV6004075500565\np11593\nsVpreview_url\np11594\nVhttp://www.facebook.com/ads/api/creative_preview.php?cid=6004075500565\np11595\nsVid\np11596\nV6004075500565\np11597\nsVimage_url\np11598\nVhttps://fbcdn-creative-a.akamaihd.net/hads-ak-prn1/s110x80/708181_6006844137565_33107_n.jpg\np11599\nsVcount_current_adgroups\np11600\nI1\nsVrun_status\np11601\nI1\nsVtype\np11602\nI1\nsVlink_url\np11603\nVhttp://www.buzzfeed.com/h1/fba/microsofthotmail/10-things-that-are-cool-to-love-again\np11604\nsVview_tag\np11605\ng21\nsa(dp11606\nValt_view_tags\np11607\n(lp11608\nsVbody\np11609\nVFrom Converse All Stars to Hotmail, check out stuff from the past that came back with force in "10 Things That Are Cool To Love Again"\np11610\nsVimage_hash\np11611\nV13fb2295d7d48db5b3f697e96c406a49\np11612\nsVname\np11613\nVThe Past And The Present-01\np11614\nsVtitle\np11615\nVThe Past And The Present\np11616\nsVcreative_id\np11617\nV6004075495165\np11618\nsVpreview_url\np11619\nVhttp://www.facebook.com/ads/api/creative_preview.php?cid=6004075495165\np11620\nsVid\np11621\nV6004075495165\np11622\nsVimage_url\np11623\nVhttps://fbcdn-creative-a.akamaihd.net/hads-ak-ash3/s110x80/708194_6006844173765_49001_n.jpg\np11624\nsVcount_current_adgroups\np11625\nI1\nsVrun_status\np11626\nI1\nsVtype\np11627\nI1\nsVlink_url\np11628\nVhttp://www.buzzfeed.com/h1/fba/microsofthotmail/10-things-that-are-cool-to-love-again\np11629\nsVview_tag\np11630\ng21\nsa(dp11631\nValt_view_tags\np11632\n(lp11633\nsVbody\np11634\nVFrom Beavis and Butt-Head to Hotmail check out stuff from the past that came back with force in "10 Things That Are Cool To Love Again"\np11635\nsVimage_hash\np11636\nVbadd5ecbc38f8dfccd83e65728cc3fcb\np11637\nsVname\np11638\nVThe Past And The Present-00\np11639\nsVtitle\np11640\nVThe Past And The Present\np11641\nsVcreative_id\np11642\nV6004075489565\np11643\nsVpreview_url\np11644\nVhttp://www.facebook.com/ads/api/creative_preview.php?cid=6004075489565\np11645\nsVid\np11646\nV6004075489565\np11647\nsVimage_url\np11648\nVhttps://fbcdn-creative-a.akamaihd.net/hads-ak-prn1/s110x80/701889_6006845168565_50393_n.jpg\np11649\nsVcount_current_adgroups\np11650\nI1\nsVrun_status\np11651\nI1\nsVtype\np11652\nI1\nsVlink_url\np11653\nVhttp://www.buzzfeed.com/h1/fba/microsofthotmail/10-things-that-are-cool-to-love-again\np11654\nsVview_tag\np11655\ng21\nsa(dp11656\nValt_view_tags\np11657\n(lp11658\nsVbody\np11659\nVCheck out these "Amazing Aerial Views Of Huge Industrial Factories" presented by GE and BuzzFeed.\np11660\nsVimage_hash\np11661\nV6e3b581c15c60a732237b27929c9cc86\np11662\nsVname\np11663\nVFactory Flyovers\np11664\nsVtitle\np11665\nVFactory Flyovers\np11666\nsVcreative_id\np11667\nV6004016063965\np11668\nsVpreview_url\np11669\nVhttp://www.facebook.com/ads/api/creative_preview.php?cid=6004016063965\np11670\nsVid\np11671\nV6004016063965\np11672\nsVimage_url\np11673\nVhttps://fbcdn-creative-a.akamaihd.net/hads-ak-snc7/s110x80/701898_6006844718965_20083_n.jpg\np11674\nsVcount_current_adgroups\np11675\nI1\nsVrun_status\np11676\nI1\nsVtype\np11677\nI1\nsVlink_url\np11678\nVhttp://www.buzzfeed.com/h1/fba/thegeshow/amazing-aerial-view-of-huge-industrial-factories\np11679\nsVview_tag\np11680\ng21\nsa(dp11681\nValt_view_tags\np11682\n(lp11683\nsVbody\np11684\nVCheck out BuzzFeed\'s list of "10 Modern Day Renaissance Men". Ryan Gosling is one of them - Let us know who we missed!\np11685\nsVima'
p6
sS'hash'
p7
S'b04e82362d7e2efb1f5747f69422cdb7dd2f4ca6'
p8
sS'stack'
p9
S''
s.