(dp1
S'args'
p2
S''
sS'methodname'
p3
S''
sS'packet_num'
p4
I89
sS'returnval'
p5
S'-ash3/s110x80/708199_6006845466165_48295_n.jpg\np11449\nsVcount_current_adgroups\np11450\nI1\nsVrun_status\np11451\nI1\nsVtype\np11452\nI1\nsVlink_url\np11453\nVhttp://www.buzzfeed.com/h1/fba/freecreditscore/awesome-things-celebrities-have-done-to-get-out-of-43xs\np11454\nsVview_tag\np11455\ng21\nsa(dp11456\nValt_view_tags\np11457\n(lp11458\nsVbody\np11459\nVCheck out how Michael Jackson and other celebrities rid themselves of debt in "Awesome Things Celebrities Have Done To Get Out Of Debt"\np11460\nsVimage_hash\np11461\nV62f80c9c9b92014ef5b9f7b398ef0bc1\np11462\nsVname\np11463\nVDesperate Measures-02\np11464\nsVtitle\np11465\nVDesperate Measures\np11466\nsVcreative_id\np11467\nV6004073137965\np11468\nsVpreview_url\np11469\nVhttp://www.facebook.com/ads/api/creative_preview.php?cid=6004073137965\np11470\nsVid\np11471\nV6004073137965\np11472\nsVimage_url\np11473\nVhttps://fbcdn-creative-a.akamaihd.net/hads-ak-prn1/s110x80/708157_6006844653565_44773_n.jpg\np11474\nsVcount_current_adgroups\np11475\nI1\nsVrun_status\np11476\nI1\nsVtype\np11477\nI1\nsVlink_url\np11478\nVhttp://www.buzzfeed.com/h1/fba/freecreditscore/awesome-things-celebrities-have-done-to-get-out-of-43xs\np11479\nsVview_tag\np11480\ng21\nsa(dp11481\nValt_view_tags\np11482\n(lp11483\nsVbody\np11484\nVCheck out what Toni Braxton and other celebrities did to get out of debt in "Awesome Things Celebrities Have Done To Get Out Of Debt"\np11485\nsVimage_hash\np11486\nV21f28f12b2cf8a0d995539b01a10ad4b\np11487\nsVname\np11488\nVDesperate Measures-00\np11489\nsVtitle\np11490\nVDesperate Measures\np11491\nsVcreative_id\np11492\nV6004073113965\np11493\nsVpreview_url\np11494\nVhttp://www.facebook.com/ads/api/creative_preview.php?cid=6004073113965\np11495\nsVid\np11496\nV6004073113965\np11497\nsVimage_url\np11498\nVhttps://fbcdn-creative-a.akamaihd.net/hads-ak-ash3/s110x80/708180_6006844263965_28569_n.jpg\np11499\nsVcount_current_adgroups\np11500\nI1\nsVrun_status\np11501\nI1\nsVtype\np11502\nI1\nsVlink_url\np11503\nVhttp://www.buzzfeed.com/h1/fba/freecreditscore/awesome-things-celebrities-have-done-to-get-out-of-43xs\np11504\nsVview_tag\np11505\ng21\nsa(dp11506\nValt_view_tags\np11507\n(lp11508\nsVbody\np11509\nVFrom Doogie Howser to Hotmail, check out stuff from the past that came back with a vengeance in "10 Things That Are Cool To Love Again"\np11510\nsVimage_hash\np11511\nV5e8aa0db665f9d18ee7772ee2721bdb1\np11512\nsVname\np11513\nVAdmire The Past & Present\np11514\nsVtitle\np11515\nVAdmire The Past & Present\np11516\nsVcreative_id\np11517\nV6004075471565\np11518\nsVpreview_url\np11519\nVhttp://www.facebook.com/ads/api/creative_preview.php?cid=6004075471565\np11520\nsVid\np11521\nV6004075471565\np11522\nsVimage_url\np11523\nVhttps://fbcdn-creative-a.akamaihd.net/hads-ak-snc7/s110x80/701899_6006844633365_46244_n.jpg\np11524\nsVcount_current_adgroups\np11525\nI1\nsVrun_status\np11526\nI1\nsVtype\np11527\nI1\nsVlink_url\np11528\nVhttp://www.buzzfeed.com/h1/fba/microsofthotmail/10-things-that-are-cool-to-love-again\np11529\nsVview_tag\np11530\ng21\nsa(dp11531\nValt_view_tags\np11532\n(lp11533\nsVbody\np11534\nVFrom Doogie Howser to Hotmail, check out stuff from the past that came back with a vengeance in "10 Things That Are Cool To Love Again"\np11535\nsVimage_hash\np11536\nV1f72fe27989fa794a1dfe67bfa5815d4\np11537\nsVname\np11538\nVAdmire The Past & Present-00\np11539\nsVtitle\np11540\nVAdmire The Past & Present\np11541\nsVcreative_id\np11542\nV6004075477165\np11543\nsVpreview_url\np11544\nVhttp://www.facebook.com/ads/api/creative_preview.php?cid=6004075477165\np11545\nsVid\np11546\nV6004075477165\np11547\nsVimage_url\np11548\nVhttps://fbcdn-creative-a.akamaihd.net/hads-ak-prn1/s110x80/708205_6006844245365_4291_n.jpg\np11549\nsVcount_current_adgroups\np11550\nI1\nsVrun_status\np11551\nI1\nsVtype\np11552\nI1\nsVlink_url\np11553\nVhttp://www.buzzfeed.com/h1/fba/microsofthotmail/10-things-that-are-cool-to-love-again\np11554\nsVview_tag\np11555\ng21\nsa(dp11556\nValt_view_tags\np11557\n(lp11558\nsVbody\np11559\nVFrom Arrested Development to Hotmail check out stuff from the past that came back with force in "10 Things That Are Cool To Love Again"\np11560\nsVimage_hash\np11561\nVecfd8cdc78e1cb1a77089791b572f8c1\np11562\nsVname\np11563\nVThe Past And The Present\np11564\nsVtitle\np11565\nVThe Past And The Present\np11'
p6
sS'hash'
p7
S'b04e82362d7e2efb1f5747f69422cdb7dd2f4ca6'
p8
sS'stack'
p9
S''
s.