(dp1
S'args'
p2
S''
sS'methodname'
p3
S''
sS'packet_num'
p4
I55
sS'returnval'
p5
S' more and tell us your favorite!\np7116\nsVimage_hash\np7117\nV2a2356197263b21c734db2c4e18ca51f\np7118\nsVname\np7119\nVIntergalactic civil war? \np7120\nsVtitle\np7121\nVIntergalactic civil war? \np7122\nsVcreative_id\np7123\nV6005323986765\np7124\nsVpreview_url\np7125\nVhttp://www.facebook.com/ads/api/creative_preview.php?cid=6005323986765\np7126\nsVid\np7127\nV6005323986765\np7128\nsVimage_url\np7129\nVhttps://fbcdn-creative-a.akamaihd.net/hads-ak-prn1/s110x80/708172_6006844306765_13458_n.jpg\np7130\nsVcount_current_adgroups\np7131\nI1\nsVrun_status\np7132\nI1\nsVtype\np7133\nI1\nsVlink_url\np7134\nVhttp://www.buzzfeed.com/h1/fbad/spoilers/kevin-smiths-greatest-film-characters\np7135\nsVview_tag\np7136\ng21\nsa(dp7137\nValt_view_tags\np7138\n(lp7139\nsVbody\np7140\nVGets our vote for best Kevin Smith character. See more and tell us your favorite!\np7141\nsVimage_hash\np7142\nV8ba0bf309796a9b138564002f40c68ca\np7143\nsVname\np7144\nVIntergalactic civil war? -00\np7145\nsVtitle\np7146\nVChris Rock as Rufus\np7147\nsVcreative_id\np7148\nV6005334940965\np7149\nsVpreview_url\np7150\nVhttp://www.facebook.com/ads/api/creative_preview.php?cid=6005334940965\np7151\nsVid\np7152\nV6005334940965\np7153\nsVimage_url\np7154\nVhttps://fbcdn-creative-a.akamaihd.net/hads-ak-ash3/s110x80/708199_6006844883365_54308_n.jpg\np7155\nsVcount_current_adgroups\np7156\nI1\nsVrun_status\np7157\nI1\nsVtype\np7158\nI1\nsVlink_url\np7159\nVhttp://www.buzzfeed.com/h1/fbad/spoilers/kevin-smiths-greatest-film-characters\np7160\nsVview_tag\np7161\ng21\nsa(dp7162\nValt_view_tags\np7163\n(lp7164\nsVbody\np7165\nVGets our vote for best Kevin Smith character. See more and tell us your favorite!\np7166\nsVimage_hash\np7167\nV497eda2e7f89f06f74e6f2ca3b8350bc\np7168\nsVname\np7169\nVIntergalactic civil war? -00-00\np7170\nsVtitle\np7171\nVChris Rock as Rufus\np7172\nsVcreative_id\np7173\nV6005334946165\np7174\nsVpreview_url\np7175\nVhttp://www.facebook.com/ads/api/creative_preview.php?cid=6005334946165\np7176\nsVid\np7177\nV6005334946165\np7178\nsVimage_url\np7179\nVhttps://fbcdn-creative-a.akamaihd.net/hads-ak-prn1/s110x80/708187_6006844494965_24577_n.jpg\np7180\nsVcount_current_adgroups\np7181\nI1\nsVrun_status\np7182\nI1\nsVtype\np7183\nI1\nsVlink_url\np7184\nVhttp://www.buzzfeed.com/h1/fbad/spoilers/kevin-smiths-greatest-film-characters\np7185\nsVview_tag\np7186\ng21\nsa(dp7187\nValt_view_tags\np7188\n(lp7189\nsVbody\np7190\nVGets our vote for best Kevin Smith character. See more and tell us your favorite!\np7191\nsVimage_hash\np7192\nV294555a96eb3e04c7047a511fb842e43\np7193\nsVname\np7194\nVIntergalactic civil war? -00-01\np7195\nsVtitle\np7196\nVAffleck as Holden McNeil\np7197\nsVcreative_id\np7198\nV6005337675965\np7199\nsVpreview_url\np7200\nVhttp://www.facebook.com/ads/api/creative_preview.php?cid=6005337675965\np7201\nsVid\np7202\nV6005337675965\np7203\nsVimage_url\np7204\nVhttps://fbcdn-creative-a.akamaihd.net/hads-ak-prn1/s110x80/708161_6006844302165_27016_n.jpg\np7205\nsVcount_current_adgroups\np7206\nI1\nsVrun_status\np7207\nI1\nsVtype\np7208\nI1\nsVlink_url\np7209\nVhttp://www.buzzfeed.com/h1/fbad/spoilers/kevin-smiths-greatest-film-characters\np7210\nsVview_tag\np7211\ng21\nsa(dp7212\nValt_view_tags\np7213\n(lp7214\nsVbody\np7215\nVAndy Williams makes the list hands down. See the who else made it. Only on BuzzFeed!\np7216\nsVimage_hash\np7217\nV29322225cf8d8b1dfe17a1336fa28c72\np7218\nsVname\np7219\nVThe Best Beards in Music-00-00\np7220\nsVtitle\np7221\nVThe Best Beards in Music\np7222\nsVcreative_id\np7223\nV6005290607565\np7224\nsVpreview_url\np7225\nVhttp://www.facebook.com/ads/api/creative_preview.php?cid=6005290607565\np7226\nsVid\np7227\nV6005290607565\np7228\nsVimage_url\np7229\nVhttps://fbcdn-creative-a.akamaihd.net/hads-ak-ash3/s110x80/708161_6006844301965_9759_n.jpg\np7230\nsVcount_current_adgroups\np7231\nI1\nsVrun_status\np7232\nI1\nsVtype\np7233\nI1\nsVlink_url\np7234\nVhttp://www.buzzfeed.com/h1/fbad/jeremiahweed/the-15-best-beards-in-music-2j8r\np7235\nsVview_tag\np7236\ng21\nsa(dp7237\nValt_view_tags\np7238\n(lp7239\nsVbody\np7240\nVTim Millar makes the list hands down. See the who else made it. Only on BuzzFeed!\np7241\nsVimage_hash\np7242\nVee167518d3afd7b9a477f50682b63381\np7243\nsVname\np7244\nVThe Best Beards in Music-00\np7245\nsVtitle\np7246\nVThe Best Beards in Music\np7247\nsVcreative_i'
p6
sS'hash'
p7
S'b04e82362d7e2efb1f5747f69422cdb7dd2f4ca6'
p8
sS'stack'
p9
S''
s.