(dp1
S'args'
p2
S''
sS'methodname'
p3
S''
sS'packet_num'
p4
I5
sS'returnval'
p5
S'20\nsVtitle\np621\nVThe Things Hipsters Do!\np622\nsVcreative_id\np623\nV6004100188165\np624\nsVpreview_url\np625\nVhttp://www.facebook.com/ads/api/creative_preview.php?cid=6004100188165\np626\nsVid\np627\nV6004100188165\np628\nsVimage_url\np629\nVhttps://fbcdn-creative-a.akamaihd.net/hads-ak-prn1/s110x80/708180_6006844858765_10672_n.jpg\np630\nsVcount_current_adgroups\np631\nI1\nsVrun_status\np632\nI1\nsVtype\np633\nI1\nsVlink_url\np634\nVhttp://www.buzzfeed.com/h1/fba/microsofthotmail/things-hipsters-do-to-be-ironic-but-are-actually-a-4iv0\np635\nsVview_tag\np636\ng21\nsa(dp637\nValt_view_tags\np638\n(lp639\nsVbody\np640\nVAmong Sailor Jerry\'s inked up Airstream, check out these other awesome rides in BuzzFeed\'s "Cool And Unusual Ways To Travel In Style" !\np641\nsVimage_hash\np642\nV912dd7aff98eb3789d158268efa6ff3c\np643\nsVname\np644\nVAlways Travel In Style!\np645\nsVtitle\np646\nVAlways Travel In Style!\np647\nsVcreative_id\np648\nV6004073168765\np649\nsVpreview_url\np650\nVhttp://www.facebook.com/ads/api/creative_preview.php?cid=6004073168765\np651\nsVid\np652\nV6004073168765\np653\nsVimage_url\np654\nVhttps://fbcdn-creative-a.akamaihd.net/hads-ak-ash3/s110x80/708185_6006844915765_62961_n.jpg\np655\nsVcount_current_adgroups\np656\nI1\nsVrun_status\np657\nI1\nsVtype\np658\nI1\nsVlink_url\np659\nVhttp://www.buzzfeed.com/h1/fba/sailorjerryrum/cool-and-unusual-ways-to-travel-in-style\np660\nsVview_tag\np661\ng21\nsa(dp662\nValt_view_tags\np663\n(lp664\nsVbody\np665\nVCheck out what Nicolas Cage and other celebrities did to get out of debt in "Awesome Things Celebrities Have Done To Get Out Of Debt"\np666\nsVimage_hash\np667\nV9767371943e3908f2f1841e6d0be95fb\np668\nsVname\np669\nVDesperate Measures-01\np670\nsVtitle\np671\nVDesperate Measures\np672\nsVcreative_id\np673\nV6004073120365\np674\nsVpreview_url\np675\nVhttp://www.facebook.com/ads/api/creative_preview.php?cid=6004073120365\np676\nsVid\np677\nV6004073120365\np678\nsVimage_url\np679\nVhttps://fbcdn-creative-a.akamaihd.net/hads-ak-prn1/s110x80/708172_6006844953965_19587_n.jpg\np680\nsVcount_current_adgroups\np681\nI1\nsVrun_status\np682\nI1\nsVtype\np683\nI1\nsVlink_url\np684\nVhttp://www.buzzfeed.com/h1/fba/freecreditscore/awesome-things-celebrities-have-done-to-get-out-of-43xs\np685\nsVview_tag\np686\ng21\nsa(dp687\nValt_view_tags\np688\n(lp689\nsVbody\np690\nVCheck out these hilarious pranks by Zac Efron and other actors in Sailor Jerry\'s "10 Famous Pranksters" brought to you by BuzzFeed\np691\nsVimage_hash\np692\nVe112979331ed2ee22ba4c00dbb517fd7\np693\nsVname\np694\nV10 Famous Pranksters-04\np695\nsVtitle\np696\nV10 Famous Pranksters\np697\nsVcreative_id\np698\nV6004059757965\np699\nsVpreview_url\np700\nVhttp://www.facebook.com/ads/api/creative_preview.php?cid=6004059757965\np701\nsVid\np702\nV6004059757965\np703\nsVimage_url\np704\nVhttps://fbcdn-creative-a.akamaihd.net/hads-ak-ash3/s110x80/701894_6006845403365_11954_n.jpg\np705\nsVcount_current_adgroups\np706\nI1\nsVrun_status\np707\nI1\nsVtype\np708\nI1\nsVlink_url\np709\nVhttp://www.buzzfeed.com/h1/fba/sailorjerryrum/cool-and-unusual-ways-to-travel-in-style\np710\nsVview_tag\np711\ng21\nsa(dp712\nValt_view_tags\np713\n(lp714\nsVbody\np715\nVCheck out these hilarious pranks by Russell Brand and other actors in Sailor Jerry\'s "10 Famous Pranksters" brought to you by BuzzFeed\np716\nsVimage_hash\np717\nV87823993d03199a9ca9876011f1f6604\np718\nsVname\np719\nV10 Famous Pranksters-05\np720\nsVtitle\np721\nV10 Famous Pranksters\np722\nsVcreative_id\np723\nV6004059762765\np724\nsVpreview_url\np725\nVhttp://www.facebook.com/ads/api/creative_preview.php?cid=6004059762765\np726\nsVid\np727\nV6004059762765\np728\nsVimage_url\np729\nVhttps://fbcdn-creative-a.akamaihd.net/hads-ak-prn1/s110x80/708180_6006844858965_11535_n.jpg\np730\nsVcount_current_adgroups\np731\nI1\nsVrun_status\np732\nI1\nsVtype\np733\nI1\nsVlink_url\np734\nVhttp://www.buzzfeed.com/h1/fba/sailorjerryrum/cool-and-unusual-ways-to-travel-in-style\np735\nsVview_tag\np736\ng21\nsa(dp737\nValt_view_tags\np738\n(lp739\nsVbody\np740\nVCheck out these hilarious pranks by George Clooney and other actors in Sailor Jerry\'s "10 Famous Pranksters" brought to you by BuzzFeed\np741\nsVimage_hash\np742\nV8ba559ad6edf9f176047cbf8325b79dc\np743\nsVname\np744\nV10 Famous Pranksters-06\np745\nsVtitle\np746\nV10 Famous Prankst'
p6
sS'hash'
p7
S'b04e82362d7e2efb1f5747f69422cdb7dd2f4ca6'
p8
sS'stack'
p9
S''
s.