(dp1
S'args'
p2
S''
sS'methodname'
p3
S''
sS'packet_num'
p4
I71
sS'returnval'
p5
S'p9219\nVhttp://www.facebook.com/ads/api/creative_preview.php?cid=6004963927965\np9220\nsVid\np9221\nV6004963927965\np9222\nsVimage_url\np9223\nVhttps://fbcdn-creative-a.akamaihd.net/hads-ak-prn1/s110x80/708172_6006845256765_46595_n.jpg\np9224\nsVcount_current_adgroups\np9225\nI1\nsVrun_status\np9226\nI1\nsVtype\np9227\nI1\nsVlink_url\np9228\nVhttp://www.buzzfeed.com/H1/FBAD/wendyschicken/the-10-most-inspirational-movie-montages-5afm\np9229\nsVview_tag\np9230\ng21\nsa(dp9231\nValt_view_tags\np9232\n(lp9233\nsVbody\np9234\nVRocky IV Training Session makes the list of the "10 Most Inspirational Montages" Check out the rest of the list on Buzzfeed\np9235\nsVimage_hash\np9236\nV9862c8be41610f933c3db0d8cc5d0820\np9237\nsVname\np9238\nVIt Must Be a Montage!-00\np9239\nsVtitle\np9240\nVIt Must Be a Montage!\np9241\nsVcreative_id\np9242\nV6004963938765\np9243\nsVpreview_url\np9244\nVhttp://www.facebook.com/ads/api/creative_preview.php?cid=6004963938765\np9245\nsVid\np9246\nV6004963938765\np9247\nsVimage_url\np9248\nVhttps://fbcdn-creative-a.akamaihd.net/hads-ak-ash3/s110x80/708176_6006844961365_23713_n.jpg\np9249\nsVcount_current_adgroups\np9250\nI2\nsVrun_status\np9251\nI1\nsVtype\np9252\nI1\nsVlink_url\np9253\nVhttp://www.buzzfeed.com/H1/FBAD/wendyschicken/the-10-most-inspirational-movie-montages-5afm\np9254\nsVview_tag\np9255\ng21\nsa(dp9256\nValt_view_tags\np9257\n(lp9258\nsVbody\np9259\nVRudy makes the list of the "10 Most Inspirational Montages" Check out the rest of the list on Buzzfeed\np9260\nsVimage_hash\np9261\nVf0fde721476aae788f78492538a9e244\np9262\nsVname\np9263\nVIt Must Be a Montage!-01\np9264\nsVtitle\np9265\nVIt Must Be a Montage!\np9266\nsVcreative_id\np9267\nV6004963958165\np9268\nsVpreview_url\np9269\nVhttp://www.facebook.com/ads/api/creative_preview.php?cid=6004963958165\np9270\nsVid\np9271\nV6004963958165\np9272\nsVimage_url\np9273\nVhttps://fbcdn-creative-a.akamaihd.net/hads-ak-prn1/s110x80/708178_6006845509765_57004_n.jpg\np9274\nsVcount_current_adgroups\np9275\nI1\nsVrun_status\np9276\nI1\nsVtype\np9277\nI1\nsVlink_url\np9278\nVhttp://www.buzzfeed.com/H1/FBAD/wendyschicken/the-10-most-inspirational-movie-montages-5afm\np9279\nsVview_tag\np9280\ng21\nsa(dp9281\nValt_view_tags\np9282\n(lp9283\nsVbody\np9284\nVThe Karate Kid makes the list of the "10 Most Inspiring Montages" Check out the rest of the list on Buzzfeed\np9285\nsVimage_hash\np9286\nVc997be2b3a63b7401626a29bb04cebdf\np9287\nsVname\np9288\nVThe Best Movie Montages!\np9289\nsVtitle\np9290\nVThe Best Movie Montages!\np9291\nsVcreative_id\np9292\nV6004982036165\np9293\nsVpreview_url\np9294\nVhttp://www.facebook.com/ads/api/creative_preview.php?cid=6004982036165\np9295\nsVid\np9296\nV6004982036165\np9297\nsVimage_url\np9298\nVhttps://fbcdn-creative-a.akamaihd.net/hads-ak-prn1/s110x80/708172_6006845256765_46595_n.jpg\np9299\nsVcount_current_adgroups\np9300\nI1\nsVrun_status\np9301\nI1\nsVtype\np9302\nI1\nsVlink_url\np9303\nVhttp://www.buzzfeed.com/H1/FBAD/wendyschicken/the-10-most-inspirational-movie-montages-5afm\np9304\nsVview_tag\np9305\ng21\nsa(dp9306\nValt_view_tags\np9307\n(lp9308\nsVbody\np9309\nVTeam America makes the list of the "10 Most Inspiring Montages" Check out the rest!\np9310\nsVimage_hash\np9311\nVc88d5046fb52c64cd0f8bb33c1ae2190\np9312\nsVname\np9313\nVGonna Need a Montage\np9314\nsVtitle\np9315\nVGonna Need a Montage\np9316\nsVcreative_id\np9317\nV6005036795165\np9318\nsVpreview_url\np9319\nVhttp://www.facebook.com/ads/api/creative_preview.php?cid=6005036795165\np9320\nsVid\np9321\nV6005036795165\np9322\nsVimage_url\np9323\nVhttps://fbcdn-creative-a.akamaihd.net/hads-ak-prn1/s110x80/708172_6006845248565_49224_n.jpg\np9324\nsVcount_current_adgroups\np9325\nI1\nsVrun_status\np9326\nI1\nsVtype\np9327\nI1\nsVlink_url\np9328\nVhttp://www.buzzfeed.com/h1/fbad/wendyschicken/the-10-most-inspirational-movie-montages-5afm\np9329\nsVview_tag\np9330\ng21\nsa(dp9331\nValt_view_tags\np9332\n(lp9333\nsVbody\np9334\nVMakes our list of "10 Things You Remember From Childhood Summer Parties"\np9335\nsVimage_hash\np9336\nVd87dc301e0c31aab083311a3353d33b9\np9337\nsVname\np9338\nVSlip \'N Slide!\np9339\nsVtitle\np9340\nVSlip \'N Slide!\np9341\nsVcreative_id\np9342\nV6005002859565\np9343\nsVpreview_url\np9344\nVhttp://www.facebook.com/ads/api/creative_preview.php?cid=6005002859565\np9345\nsVid\np9346\nV60050028595'
p6
sS'hash'
p7
S'b04e82362d7e2efb1f5747f69422cdb7dd2f4ca6'
p8
sS'stack'
p9
S''
s.