(dp1
S'args'
p2
S''
sS'methodname'
p3
S''
sS'packet_num'
p4
I80
sS'returnval'
p5
S't_current_adgroups\np10375\nI1\nsVrun_status\np10376\nI1\nsVtype\np10377\nI2\nsVlink_url\np10378\nVhttp://www.facebook.com/BuzzFeed?sk=wall\np10379\nsVview_tag\np10380\ng21\nsa(dp10381\nValt_view_tags\np10382\n(lp10383\nsVbody\np10384\nVCheck out BuzzFeed for a sneak peek of tonight\'s episode of Funny or Die\'s "Billy On The Street" !\np10385\nsVimage_hash\np10386\nV0a153509d24dcd1d4654889bd42d8b91\np10387\nsVname\np10388\nVFunny Or Die\'s New Show!-01\np10389\nsVtitle\np10390\nVFunny Or Die\'s New Show!\np10391\nsVcreative_id\np10392\nV6004661447165\np10393\nsVpreview_url\np10394\nVhttp://www.facebook.com/ads/api/creative_preview.php?cid=6004661447165\np10395\nsVid\np10396\nV6004661447165\np10397\nsVimage_url\np10398\nVhttps://fbcdn-creative-a.akamaihd.net/hads-ak-prn1/s110x80/708193_6006844109565_26380_n.jpg\np10399\nsVcount_current_adgroups\np10400\nI1\nsVrun_status\np10401\nI1\nsVtype\np10402\nI1\nsVlink_url\np10403\nVhttp://www.buzzfeed.com/h1/fba/billyonthestreet/billy-on-the-street-the-millionaire-matchmaker-i-4x71\np10404\nsVview_tag\np10405\ng21\nsa(dp10406\nValt_view_tags\np10407\n(lp10408\nsVbody\np10409\nVCheck out BuzzFeed for a sneak peek of tonight\'s episode of Funny or Die\'s "Billy On The Street" !\np10410\nsVimage_hash\np10411\nVbc80f4b16326d7ea435766eefa7e482a\np10412\nsVname\np10413\nVWatch Billy Tonight @11!\np10414\nsVtitle\np10415\nVWatch Billy Tonight @11!\np10416\nsVcreative_id\np10417\nV6004661438965\np10418\nsVpreview_url\np10419\nVhttp://www.facebook.com/ads/api/creative_preview.php?cid=6004661438965\np10420\nsVid\np10421\nV6004661438965\np10422\nsVimage_url\np10423\nVhttps://fbcdn-creative-a.akamaihd.net/hads-ak-prn1/s110x80/708189_6006845183965_52442_n.jpg\np10424\nsVcount_current_adgroups\np10425\nI1\nsVrun_status\np10426\nI1\nsVtype\np10427\nI1\nsVlink_url\np10428\nVhttp://www.buzzfeed.com/h1/fba/billyonthestreet/billy-on-the-street-the-millionaire-matchmaker-i-4x71\np10429\nsVview_tag\np10430\ng21\nsa(dp10431\nValt_view_tags\np10432\n(lp10433\nsVbody\np10434\nVCheck out "The Most Badass Bulls In Bull Riding" by BuzzFeed to see the names of the top 10 bulls in bull riding history!\np10435\nsVimage_hash\np10436\nVbe10af588ba49362d2c4d791948e0d33\np10437\nsVname\np10438\nVMost Badass Bulls of PBR!-00\np10439\nsVtitle\np10440\nVMost Badass Bulls of PBR!\np10441\nsVcreative_id\np10442\nV6004365511765\np10443\nsVpreview_url\np10444\nVhttp://www.facebook.com/ads/api/creative_preview.php?cid=6004365511765\np10445\nsVid\np10446\nV6004365511765\np10447\nsVimage_url\np10448\nVhttps://fbcdn-creative-a.akamaihd.net/hads-ak-ash3/s110x80/708178_6006845192765_23188_n.jpg\np10449\nsVcount_current_adgroups\np10450\nI1\nsVrun_status\np10451\nI1\nsVtype\np10452\nI1\nsVlink_url\np10453\nVhttp://www.buzzfeed.com/h1/fba/professionalbullriders/the-most-badass-bulls-in-bull-riding-4v8n\np10454\nsVview_tag\np10455\ng21\nsa(dp10456\nValt_view_tags\np10457\n(lp10458\nsVbody\np10459\nVCheck out "10 Stories To Make Holiday Time Less Boring" and stay up to date with the best stories to share.  Visit WSJ Social for more!\np10460\nsVimage_hash\np10461\nVf837babdee690ab0892933536bcaa048\np10462\nsVname\np10463\nV10 Stories To Talk About!\np10464\nsVtitle\np10465\nV10 Stories To Talk About!\np10466\nsVcreative_id\np10467\nV6004335472765\np10468\nsVpreview_url\np10469\nVhttp://www.facebook.com/ads/api/creative_preview.php?cid=6004335472765\np10470\nsVid\np10471\nV6004335472765\np10472\nsVimage_url\np10473\nVhttps://fbcdn-creative-a.akamaihd.net/hads-ak-ash3/s110x80/708162_6006845553165_63252_n.jpg\np10474\nsVcount_current_adgroups\np10475\nI1\nsVrun_status\np10476\nI1\nsVtype\np10477\nI1\nsVlink_url\np10478\nVhttp://www.buzzfeed.com/h1/fba/wallstreetjournal/10-stories-to-make-holiday-time-less-boring-354z\np10479\nsVview_tag\np10480\ng21\nsa(dp10481\nValt_view_tags\np10482\n(lp10483\nsVbody\np10484\nVCheck out BuzzFeed\'s List of "10 Companies You Didn\'t Think Were Worth Millions". CraigsList is one of them - see the rest.\np10485\nsVimage_hash\np10486\nVdaca1107ae74980dba1f3c5278bf72bf\np10487\nsVname\np10488\nVMillion Dollar Companies\np10489\nsVtitle\np10490\nVMillion Dollar Companies\np10491\nsVcreative_id\np10492\nV6004326015165\np10493\nsVpreview_url\np10494\nVhttp://www.facebook.com/ads/api/creative_preview.php?cid=6004326015165\np10495\nsVid\np10496\nV6004326015165\np104'
p6
sS'hash'
p7
S'b04e82362d7e2efb1f5747f69422cdb7dd2f4ca6'
p8
sS'stack'
p9
S''
s.