(dp1
S'args'
p2
S''
sS'methodname'
p3
S''
sS'packet_num'
p4
I57
sS'returnval'
p5
S'ative-a.akamaihd.net/hads-ak-prn1/s110x80/708167_6006844602365_34426_n.jpg\np7380\nsVcount_current_adgroups\np7381\nI1\nsVrun_status\np7382\nI1\nsVtype\np7383\nI1\nsVlink_url\np7384\nVhttp://www.buzzfeed.com/h1/fbad/schwinn/the-cutest-pets-on-bikes-5vrq\np7385\nsVview_tag\np7386\ng21\nsa(dp7387\nValt_view_tags\np7388\n(lp7389\nsVbody\np7390\nVBuzzFeed\'s got the "Cutest Pets On Bikes" See all your favorite animals taking a ride.\np7391\nsVimage_hash\np7392\nV02b9ca7f713899c4ee9f0603c1cdcf43\np7393\nsVname\np7394\nVCheck These Pets Out!-00\np7395\nsVtitle\np7396\nV"Catch em Ridin\' Dirty"\np7397\nsVcreative_id\np7398\nV6005309295365\np7399\nsVpreview_url\np7400\nVhttp://www.facebook.com/ads/api/creative_preview.php?cid=6005309295365\np7401\nsVid\np7402\nV6005309295365\np7403\nsVimage_url\np7404\nVhttps://fbcdn-creative-a.akamaihd.net/hads-ak-ash3/s110x80/708194_6006844064565_11683_n.jpg\np7405\nsVcount_current_adgroups\np7406\nI2\nsVrun_status\np7407\nI1\nsVtype\np7408\nI1\nsVlink_url\np7409\nVhttp://www.buzzfeed.com/h1/fbad/schwinn/the-cutest-pets-on-bikes-5vrq\np7410\nsVview_tag\np7411\ng21\nsa(dp7412\nValt_view_tags\np7413\n(lp7414\nsVbody\np7415\nVMichael Bluth makes BuzzFeed\'s list of the "10 Funniest Dads On TV" See the rest!\np7416\nsVimage_hash\np7417\nVf8631c2ed30dd8b3c1a892713a590183\np7418\nsVname\np7419\nVChickens Don\'t Clap!\np7420\nsVtitle\np7421\nVChickens Don\'t Clap!\np7422\nsVcreative_id\np7423\nV6005300357365\np7424\nsVpreview_url\np7425\nVhttp://www.facebook.com/ads/api/creative_preview.php?cid=6005300357365\np7426\nsVid\np7427\nV6005300357365\np7428\nsVimage_url\np7429\nVhttps://fbcdn-creative-a.akamaihd.net/hads-ak-ash3/s110x80/708189_6006845557365_20484_n.jpg\np7430\nsVcount_current_adgroups\np7431\nI1\nsVrun_status\np7432\nI1\nsVtype\np7433\nI1\nsVlink_url\np7434\nVhttp://www.buzzfeed.com/h1/fbad/babydaddy/the-10-funniest-dads-on-tv\np7435\nsVview_tag\np7436\ng21\nsa(dp7437\nValt_view_tags\np7438\n(lp7439\nsVbody\np7440\nVFather Dunphy makes BuzzFeed\'s list of the "10 Funniest Dads On TV" See the rest!\np7441\nsVimage_hash\np7442\nVc6c2e5fb35421d67df6ea72ecdf9f3d0\np7443\nsVname\np7444\nVChickens Don\'t Clap!-00\np7445\nsVtitle\np7446\nVPhil Dunphy is Cool Dad\np7447\nsVcreative_id\np7448\nV6005307749965\np7449\nsVpreview_url\np7450\nVhttp://www.facebook.com/ads/api/creative_preview.php?cid=6005307749965\np7451\nsVid\np7452\nV6005307749965\np7453\nsVimage_url\np7454\nVhttps://fbcdn-creative-a.akamaihd.net/hads-ak-prn1/s110x80/708172_6006845243765_32866_n.jpg\np7455\nsVcount_current_adgroups\np7456\nI1\nsVrun_status\np7457\nI1\nsVtype\np7458\nI1\nsVlink_url\np7459\nVhttp://www.buzzfeed.com/h1/fbad/babydaddy/the-10-funniest-dads-on-tv\np7460\nsVview_tag\np7461\ng21\nsa(dp7462\nValt_view_tags\np7463\n(lp7464\nsVbody\np7465\nVFather Dunphy makes BuzzFeed\'s list of the "10 Funniest Dads On TV" See the rest!\np7466\nsVimage_hash\np7467\nV44c460c2f11ba955bc7ef52cb7759042\np7468\nsVname\np7469\nVChickens Don\'t Clap!-00-00\np7470\nsVtitle\np7471\nVPhil Dunphy is Cool Dad\np7472\nsVcreative_id\np7473\nV6005307752165\np7474\nsVpreview_url\np7475\nVhttp://www.facebook.com/ads/api/creative_preview.php?cid=6005307752165\np7476\nsVid\np7477\nV6005307752165\np7478\nsVimage_url\np7479\nVhttps://fbcdn-creative-a.akamaihd.net/hads-ak-prn1/s110x80/708174_6006844467365_8429_n.jpg\np7480\nsVcount_current_adgroups\np7481\nI1\nsVrun_status\np7482\nI1\nsVtype\np7483\nI1\nsVlink_url\np7484\nVhttp://www.buzzfeed.com/h1/fbad/babydaddy/the-10-funniest-dads-on-tv\np7485\nsVview_tag\np7486\ng21\nsa(dp7487\nValt_view_tags\np7488\n(lp7489\nsVbody\np7490\nVMakes our list of the "9 Strangest Personal And Museum Collections" See more on BuzzFeed!\np7491\nsVimage_hash\np7492\nV614970e97431fad92bb7c99c7f46e4a2\np7493\nsVname\np7494\nVMcDonald\'s Toy Collection-00\np7495\nsVtitle\np7496\nVThe Mutter Museum\np7497\nsVcreative_id\np7498\nV6005300262565\np7499\nsVpreview_url\np7500\nVhttp://www.facebook.com/ads/api/creative_preview.php?cid=6005300262565\np7501\nsVid\np7502\nV6005300262565\np7503\nsVimage_url\np7504\nVhttps://fbcdn-creative-a.akamaihd.net/hads-ak-ash3/s110x80/701903_6006844645165_45072_n.jpg\np7505\nsVcount_current_adgroups\np7506\nI1\nsVrun_status\np7507\nI1\nsVtype\np7508\nI1\nsVlink_url\np7509\nVhttp://www.buzzfeed.com/h1/fbad/natgeo/the-9-strangest-personal-and-museum-collections-5n1c\np7510\ns'
p6
sS'hash'
p7
S'b04e82362d7e2efb1f5747f69422cdb7dd2f4ca6'
p8
sS'stack'
p9
S''
s.