(dp1
S'args'
p2
S''
sS'methodname'
p3
S''
sS'packet_num'
p4
I24
sS'returnval'
p5
S'.jpg\np3055\nsVcount_current_adgroups\np3056\nI1\nsVrun_status\np3057\nI1\nsVtype\np3058\nI1\nsVlink_url\np3059\nVhttp://www.buzzfeed.com/h1/fbad/mtvvmas/the-biggest-vma-red-carpet-fashion-disasters-of-al\np3060\nsVview_tag\np3061\ng21\nsa(dp3062\nValt_view_tags\np3063\n(lp3064\nsVbody\np3065\nVCheck out the rest of "The Biggest VMA Red Carpet Fashion Disasters Of All Time" here!\np3066\nsVimage_hash\np3067\nV582ed86f682efebefd2e08d3059d2247\np3068\nsVname\np3069\nVTypical Lady Gaga-01\np3070\nsVtitle\np3071\nVFergalicious\np3072\nsVcreative_id\np3073\nV6005745903965\np3074\nsVpreview_url\np3075\nVhttp://www.facebook.com/ads/api/creative_preview.php?cid=6005745903965\np3076\nsVid\np3077\nV6005745903965\np3078\nsVimage_url\np3079\nVhttps://fbcdn-creative-a.akamaihd.net/hads-ak-ash3/s110x80/708167_6006844599165_36131_n.jpg\np3080\nsVcount_current_adgroups\np3081\nI1\nsVrun_status\np3082\nI1\nsVtype\np3083\nI1\nsVlink_url\np3084\nVhttp://www.buzzfeed.com/h1/fbad/mtvvmas/the-biggest-vma-red-carpet-fashion-disasters-of-al\np3085\nsVview_tag\np3086\ng21\nsa(dp3087\nValt_view_tags\np3088\n(lp3089\nsVbody\np3090\nVHow songs you might not know made the songs you love. Check out more here!\np3091\nsVimage_hash\np3092\nV148a610e2216a556ac61d2fcf2b7d62b\np3093\nsVname\np3094\nVSurprising Music Samples-00-00-00\np3095\nsVtitle\np3096\nVSurprising Music Samples\np3097\nsVcreative_id\np3098\nV6005742837365\np3099\nsVpreview_url\np3100\nVhttp://www.facebook.com/ads/api/creative_preview.php?cid=6005742837365\np3101\nsVid\np3102\nV6005742837365\np3103\nsVimage_url\np3104\nVhttps://fbcdn-creative-a.akamaihd.net/hads-ak-ash3/s110x80/708194_6006844176565_442_n.jpg\np3105\nsVcount_current_adgroups\np3106\nI2\nsVrun_status\np3107\nI1\nsVtype\np3108\nI1\nsVlink_url\np3109\nVhttp://www.buzzfeed.com/h1/fbad/virginmobilelive/10-surprising-music-samples-that-turned-into-hit-s-5l87\np3110\nsVview_tag\np3111\ng21\nsa(dp3112\nValt_view_tags\np3113\n(lp3114\nsVbody\np3115\nVHow songs you might not know made the songs you love. Check out the entire list here!\np3116\nsVimage_hash\np3117\nVaefe2915261e61d3491e22cbe679d72a\np3118\nsVname\np3119\nVSurprising Music Samples\np3120\nsVtitle\np3121\nVSurprising Music Samples\np3122\nsVcreative_id\np3123\nV6005740895565\np3124\nsVpreview_url\np3125\nVhttp://www.facebook.com/ads/api/creative_preview.php?cid=6005740895565\np3126\nsVid\np3127\nV6005740895565\np3128\nsVimage_url\np3129\nVhttps://fbcdn-creative-a.akamaihd.net/hads-ak-prn1/s110x80/708189_6006845104765_17783_n.jpg\np3130\nsVcount_current_adgroups\np3131\nI1\nsVrun_status\np3132\nI1\nsVtype\np3133\nI1\nsVlink_url\np3134\nVhttp://www.buzzfeed.com/h1/fbad/virginmobilelive/10-surprising-music-samples-that-turned-into-hit-s-5l87\np3135\nsVview_tag\np3136\ng21\nsa(dp3137\nValt_view_tags\np3138\n(lp3139\nsVbody\np3140\nVCheck out the list of "10 Amazing Tech Innovations Through The Years" on Buzzfeed!\np3141\nsVimage_hash\np3142\nV053a00a0d9248c228890998785b562d8\np3143\nsVname\np3144\nVRemember When Bill Ruled?\np3145\nsVtitle\np3146\nVRemember When Bill Ruled?\np3147\nsVcreative_id\np3148\nV6005745553165\np3149\nsVpreview_url\np3150\nVhttp://www.facebook.com/ads/api/creative_preview.php?cid=6005745553165\np3151\nsVid\np3152\nV6005745553165\np3153\nsVimage_url\np3154\nVhttps://fbcdn-creative-a.akamaihd.net/hads-ak-prn1/s110x80/708186_6006844076565_17930_n.jpg\np3155\nsVcount_current_adgroups\np3156\nI1\nsVrun_status\np3157\nI1\nsVtype\np3158\nI1\nsVlink_url\np3159\nVhttp://www.buzzfeed.com/h1/fbad/samsungs9/10-amazing-tech-innovations-through-the-years-6g87\np3160\nsVview_tag\np3161\ng21\nsa(dp3162\nValt_view_tags\np3163\n(lp3164\nsVbody\np3165\nVCheck out the list of "10 Amazing Tech Innovations Through The Years" on Buzzfeed!\np3166\nsVimage_hash\np3167\nVdbbd937b36a612e1d3d1b9193caf90a2\np3168\nsVname\np3169\nVRemember When Bill Ruled?-00\np3170\nsVtitle\np3171\nVLook How Far We\'ve Come!\np3172\nsVcreative_id\np3173\nV6005745563565\np3174\nsVpreview_url\np3175\nVhttp://www.facebook.com/ads/api/creative_preview.php?cid=6005745563565\np3176\nsVid\np3177\nV6005745563565\np3178\nsVimage_url\np3179\nVhttps://fbcdn-creative-a.akamaihd.net/hads-ak-ash3/s110x80/708191_6006845366765_62904_n.jpg\np3180\nsVcount_current_adgroups\np3181\nI1\nsVrun_status\np3182\nI1\nsVtype\np3183\nI1\nsVlink_url\np3184\nVhttp://www.buzzfeed.com/h1/fb'
p6
sS'hash'
p7
S'b04e82362d7e2efb1f5747f69422cdb7dd2f4ca6'
p8
sS'stack'
p9
S''
s.