(dp1
S'args'
p2
S''
sS'methodname'
p3
S''
sS'packet_num'
p4
I65
sS'returnval'
p5
S'lly-exi\np8429\nsVview_tag\np8430\ng21\nsa(dp8431\nValt_view_tags\np8432\n(lp8433\nsVbody\np8434\nVCheck out "10 Beautiful Places In The World That Actually Exist" Only on BuzzFeed!\np8435\nsVimage_hash\np8436\nVe7e3195b7aaea3670d2927c2549ea856\np8437\nsVname\np8438\nVNo Photoshop Needed!\np8439\nsVtitle\np8440\nVNo Photoshop Needed!\np8441\nsVcreative_id\np8442\nV6005137669165\np8443\nsVpreview_url\np8444\nVhttp://www.facebook.com/ads/api/creative_preview.php?cid=6005137669165\np8445\nsVid\np8446\nV6005137669165\np8447\nsVimage_url\np8448\nVhttps://fbcdn-creative-a.akamaihd.net/hads-ak-prn1/s110x80/708171_6006845449365_47544_n.jpg\np8449\nsVcount_current_adgroups\np8450\nI1\nsVrun_status\np8451\nI1\nsVtype\np8452\nI1\nsVlink_url\np8453\nVhttp://www.buzzfeed.com/h1/fbad/pepsinext/10-beautiful-places-in-the-world-that-actually-exi\np8454\nsVview_tag\np8455\ng21\nsa(dp8456\nValt_view_tags\np8457\n(lp8458\nsVbody\np8459\nVCelebrate with Puddy by checking out the "Best Hockey Moments In Movies And TV" \np8460\nsVimage_hash\np8461\nV9de1ddd1416dd4c5706709e93f10bd72\np8462\nsVname\np8463\nVDevils Win! \np8464\nsVtitle\np8465\nVDevils Win! \np8466\nsVcreative_id\np8467\nV6005073182165\np8468\nsVpreview_url\np8469\nVhttp://www.facebook.com/ads/api/creative_preview.php?cid=6005073182165\np8470\nsVid\np8471\nV6005073182165\np8472\nsVimage_url\np8473\nVhttps://fbcdn-creative-a.akamaihd.net/hads-ak-snc7/s110x80/701899_6006844996165_46144_n.jpg\np8474\nsVcount_current_adgroups\np8475\nI1\nsVrun_status\np8476\nI1\nsVtype\np8477\nI1\nsVlink_url\np8478\nVhttp://www.buzzfeed.com/h1/fbad/nhl/the-best-hockey-moments-in-movies-and-tv\np8479\nsVview_tag\np8480\ng21\nsa(dp8481\nValt_view_tags\np8482\n(lp8483\nsVbody\np8484\nVWhile you wait for tonight\'s game check out "The 20 Best NHL Fan Jerseys" on BuzzFeed!\np8485\nsVimage_hash\np8486\nV5fb153f9fd4253b8c4dfc838a64ccd9e\np8487\nsVname\np8488\nVGame 5 - Let\'s Go Devils\np8489\nsVtitle\np8490\nVGame 5 - Let\'s Go Devils\np8491\nsVcreative_id\np8492\nV6005130627165\np8493\nsVpreview_url\np8494\nVhttp://www.facebook.com/ads/api/creative_preview.php?cid=6005130627165\np8495\nsVid\np8496\nV6005130627165\np8497\nsVimage_url\np8498\nVhttps://fbcdn-creative-a.akamaihd.net/hads-ak-ash3/s110x80/701899_6006844636565_41646_n.jpg\np8499\nsVcount_current_adgroups\np8500\nI1\nsVrun_status\np8501\nI1\nsVtype\np8502\nI1\nsVlink_url\np8503\nVhttp://www.buzzfeed.com/h1/fbad/nhl/the-20-best-nhl-fan-jerseys-2ag2\np8504\nsVview_tag\np8505\ng21\nsa(dp8506\nValt_view_tags\np8507\n(lp8508\nsVbody\np8509\nVWant to share your Bike\'s-Eye View? Grab your bicycle, be safe, and snap a picture\np8510\nsVimage_hash\np8511\nV250c90334e88e52f37d27489d7ea9594\np8512\nsVname\np8513\nVBike\'s-Eye View Photos\np8514\nsVtitle\np8515\nVBike\'s-Eye View Photos\np8516\nsVcreative_id\np8517\nV6005127022565\np8518\nsVpreview_url\np8519\nVhttp://www.facebook.com/ads/api/creative_preview.php?cid=6005127022565\np8520\nsVid\np8521\nV6005127022565\np8522\nsVimage_url\np8523\nVhttps://fbcdn-creative-a.akamaihd.net/hads-ak-ash3/s110x80/701895_6006844281565_34680_n.jpg\np8524\nsVcount_current_adgroups\np8525\nI2\nsVrun_status\np8526\nI1\nsVtype\np8527\nI1\nsVlink_url\np8528\nVhttp://www.buzzfeed.com/h1/fbad/schwinn/incredible-bikes-eye-view-photos-5vrq\np8529\nsVview_tag\np8530\ng21\nsa(dp8531\nValt_view_tags\np8532\n(lp8533\nsVbody\np8534\nVCheck out these incredible \\u201cBike\'s-Eye View\\u201d photos. Click here and add yours!\\u000a\np8535\nsVimage_hash\np8536\nV250c90334e88e52f37d27489d7ea9594\np8537\nsVname\np8538\nVReady, Set, Go!\np8539\nsVtitle\np8540\nVReady, Set, Go!\np8541\nsVcreative_id\np8542\nV6005127020165\np8543\nsVpreview_url\np8544\nVhttp://www.facebook.com/ads/api/creative_preview.php?cid=6005127020165\np8545\nsVid\np8546\nV6005127020165\np8547\nsVimage_url\np8548\nVhttps://fbcdn-creative-a.akamaihd.net/hads-ak-ash3/s110x80/701895_6006844281565_34680_n.jpg\np8549\nsVcount_current_adgroups\np8550\nI1\nsVrun_status\np8551\nI1\nsVtype\np8552\nI1\nsVlink_url\np8553\nVhttp://www.buzzfeed.com/h1/fbad/schwinn/incredible-bikes-eye-view-photos-5vrq\np8554\nsVview_tag\np8555\ng21\nsa(dp8556\nValt_view_tags\np8557\n(lp8558\nsVbody\np8559\nVMakes our list of "Foods From Around The World You Have To Try" Click to see the rest!\np8560\nsVimage_hash\np8561\nVd946be0a6fde6284babc5f9c4864f301\np8562\nsVname\np8563\nVSe'
p6
sS'hash'
p7
S'b04e82362d7e2efb1f5747f69422cdb7dd2f4ca6'
p8
sS'stack'
p9
S''
s.