(dp1
S'args'
p2
S''
sS'methodname'
p3
S''
sS'packet_num'
p4
I68
sS'returnval'
p5
S'\np8820\nsVid\np8821\nV6005023433365\np8822\nsVimage_url\np8823\nVhttps://fbcdn-creative-a.akamaihd.net/hads-ak-prn1/s110x80/708196_6006844821165_44033_n.jpg\np8824\nsVcount_current_adgroups\np8825\nI1\nsVrun_status\np8826\nI1\nsVtype\np8827\nI1\nsVlink_url\np8828\nVhttp://www.buzzfeed.com/H1/FBAD/wendyschicken/motivational-images-to-help-you-start-your-day-5afm\np8829\nsVview_tag\np8830\ng21\nsa(dp8831\nValt_view_tags\np8832\n(lp8833\nsVbody\np8834\nVOne of "10 Incredible Kickstarter Projects That Could Change The World" See the rest now!\np8835\nsVimage_hash\np8836\nV05f1b28d09e711910e91bae173873d35\np8837\nsVname\np8838\nVMonkey Can Use IPad\np8839\nsVtitle\np8840\nVMonkey Can Use IPad\np8841\nsVcreative_id\np8842\nV6005034135965\np8843\nsVpreview_url\np8844\nVhttp://www.facebook.com/ads/api/creative_preview.php?cid=6005034135965\np8845\nsVid\np8846\nV6005034135965\np8847\nsVimage_url\np8848\nVhttps://fbcdn-creative-a.akamaihd.net/hads-ak-ash3/s110x80/701892_6006844083365_58757_n.jpg\np8849\nsVcount_current_adgroups\np8850\nI1\nsVrun_status\np8851\nI1\nsVtype\np8852\nI1\nsVlink_url\np8853\nVhttp://www.buzzfeed.com/H1/FBAD/gewhatworks/10-incredible-kickstarter-projects-that-could-chan-5tbk\np8854\nsVview_tag\np8855\ng21\nsa(dp8856\nValt_view_tags\np8857\n(lp8858\nsVbody\np8859\nVReady to Get Ignited? Chat with the Wendy\'s Motivational Chicken and prepare to be bold!\np8860\nsVimage_hash\np8861\nVb010b7b59ffdfe28313565a367c353a0\np8862\nsVname\np8863\nVLife a little bland?\np8864\nsVtitle\np8865\nVLife a little bland?\np8866\nsVcreative_id\np8867\nV6004963636765\np8868\nsVpreview_url\np8869\nVhttp://www.facebook.com/ads/api/creative_preview.php?cid=6004963636765\np8870\nsVid\np8871\nV6004963636765\np8872\nsVimage_url\np8873\nVhttps://fbcdn-creative-a.akamaihd.net/hads-ak-ash3/s110x80/701888_6006845111765_24388_n.jpg\np8874\nsVcount_current_adgroups\np8875\nI1\nsVrun_status\np8876\nI1\nsVtype\np8877\nI1\nsVlink_url\np8878\nVhttp://ad.doubleclick.net/clk;255395655;79140662;t;pc=[TPAS_ID]\np8879\nsVview_tag\np8880\ng21\nsa(dp8881\nValt_view_tags\np8882\n(lp8883\nsVbody\np8884\nVReady to Get Ignited? Chat with the Wendy\'s Motivational Chicken and prepare to be bold!\np8885\nsVimage_hash\np8886\nV42766b6ecdbb1ed6f3ece86b139201b8\np8887\nsVname\np8888\nVLife a little bland?-00\np8889\nsVtitle\np8890\nVLife a little bland?\np8891\nsVcreative_id\np8892\nV6004963643365\np8893\nsVpreview_url\np8894\nVhttp://www.facebook.com/ads/api/creative_preview.php?cid=6004963643365\np8895\nsVid\np8896\nV6004963643365\np8897\nsVimage_url\np8898\nVhttps://fbcdn-creative-a.akamaihd.net/hads-ak-prn1/s110x80/708205_6006844451765_21287_n.jpg\np8899\nsVcount_current_adgroups\np8900\nI1\nsVrun_status\np8901\nI1\nsVtype\np8902\nI1\nsVlink_url\np8903\nVhttp://ad.doubleclick.net/clk;255395655;79140662;t;pc=[TPAS_ID]\np8904\nsVview_tag\np8905\ng21\nsa(dp8906\nValt_view_tags\np8907\n(lp8908\nsVbody\np8909\nVReady to Get Ignited? Chat with the Wendy\'s Motivational Chicken and prepare to be bold!\np8910\nsVimage_hash\np8911\nV42766b6ecdbb1ed6f3ece86b139201b8\np8912\nsVname\np8913\nVThe Motivational Chicken\np8914\nsVtitle\np8915\nVThe Motivational Chicken\np8916\nsVcreative_id\np8917\nV6004970086365\np8918\nsVpreview_url\np8919\nVhttp://www.facebook.com/ads/api/creative_preview.php?cid=6004970086365\np8920\nsVid\np8921\nV6004970086365\np8922\nsVimage_url\np8923\nVhttps://fbcdn-creative-a.akamaihd.net/hads-ak-prn1/s110x80/708205_6006844451765_21287_n.jpg\np8924\nsVcount_current_adgroups\np8925\nI1\nsVrun_status\np8926\nI1\nsVtype\np8927\nI1\nsVlink_url\np8928\nVhttp://ad.doubleclick.net/clk;255395655;79140662;t;pc=[TPAS_ID]\np8929\nsVview_tag\np8930\ng21\nsa(dp8931\nValt_view_tags\np8932\n(lp8933\nsVbody\np8934\nVLife a Little Bland? Ready to Get Ignited? Chat with the Wendy\'s Motivational Chicken and \np8935\nsVimage_hash\np8936\nVf441f757f1e3cf1c6fef87d83a3fcd41\np8937\nsVname\np8938\nVA Talking Chicken!-01\np8939\nsVtitle\np8940\nVA Talking Chicken!\np8941\nsVcreative_id\np8942\nV6004996013165\np8943\nsVpreview_url\np8944\nVhttp://www.facebook.com/ads/api/creative_preview.php?cid=6004996013165\np8945\nsVid\np8946\nV6004996013165\np8947\nsVimage_url\np8948\nVhttps://fbcdn-creative-a.akamaihd.net/hads-ak-prn1/s110x80/701891_6006845526365_64315_n.jpg\np8949\nsVcount_current_adgroups\np8950\nI1\nsVrun_status\np8951\nI1\nsVtype\np'
p6
sS'hash'
p7
S'b04e82362d7e2efb1f5747f69422cdb7dd2f4ca6'
p8
sS'stack'
p9
S''
s.