(dp1
S'args'
p2
S''
sS'methodname'
p3
S''
sS'packet_num'
p4
I88
sS'returnval'
p5
S'in-england-or-america-4b1m\np11329\nsVview_tag\np11330\ng21\nsa(dp11331\nValt_view_tags\np11332\n(lp11333\nsVbody\np11334\nVCheck out these clips of Jay-Z and other stars doing crazy things in "15 Things You\'ll Only See American Celebs Do On British TV"\np11335\nsVimage_hash\np11336\nVe1d00741f1a08982f884532983a7fe15\np11337\nsVname\np11338\nVAmericans on British TV-03\np11339\nsVtitle\np11340\nVAmericans on British TV\np11341\nsVcreative_id\np11342\nV6004059975965\np11343\nsVpreview_url\np11344\nVhttp://www.facebook.com/ads/api/creative_preview.php?cid=6004059975965\np11345\nsVid\np11346\nV6004059975965\np11347\nsVimage_url\np11348\nVhttps://fbcdn-creative-a.akamaihd.net/hads-ak-prn1/s110x80/708157_6006845410765_25024_n.jpg\np11349\nsVcount_current_adgroups\np11350\nI1\nsVrun_status\np11351\nI1\nsVtype\np11352\nI1\nsVlink_url\np11353\nVhttp://www.buzzfeed.com/h1/fba/wouldyourather/things-youll-only-see-american-celebs-do-on-briti\np11354\nsVview_tag\np11355\ng21\nsa(dp11356\nValt_view_tags\np11357\n(lp11358\nsVbody\np11359\nVAmong Sailor Jerry\'s inked up Airstream, check out these other awesome rides in BuzzFeed\'s "Cool And Unusual Ways To Travel In Style" !\np11360\nsVimage_hash\np11361\nVa2f6e782ca6c5d80eccee0e70f019eb3\np11362\nsVname\np11363\nVAlways Travel In Style!-01\np11364\nsVtitle\np11365\nVAlways Travel In Style!\np11366\nsVcreative_id\np11367\nV6004073178365\np11368\nsVpreview_url\np11369\nVhttp://www.facebook.com/ads/api/creative_preview.php?cid=6004073178365\np11370\nsVid\np11371\nV6004073178365\np11372\nsVimage_url\np11373\nVhttps://fbcdn-creative-a.akamaihd.net/hads-ak-prn1/s110x80/708199_6006845030765_12485_n.jpg\np11374\nsVcount_current_adgroups\np11375\nI1\nsVrun_status\np11376\nI1\nsVtype\np11377\nI1\nsVlink_url\np11378\nVhttp://www.buzzfeed.com/h1/fba/sailorjerryrum/cool-and-unusual-ways-to-travel-in-style\np11379\nsVview_tag\np11380\ng21\nsa(dp11381\nValt_view_tags\np11382\n(lp11383\nsVbody\np11384\nVAmong Sailor Jerry\'s inked up Airstream, check out these other awesome rides in BuzzFeed\'s "Cool And Unusual Ways To Travel In Style" !\np11385\nsVimage_hash\np11386\nV99d0bf8faefb47d7ee4cbe01302c6168\np11387\nsVname\np11388\nVAlways Travel In Style!-00\np11389\nsVtitle\np11390\nVAlways Travel In Style!\np11391\nsVcreative_id\np11392\nV6004073175365\np11393\nsVpreview_url\np11394\nVhttp://www.facebook.com/ads/api/creative_preview.php?cid=6004073175365\np11395\nsVid\np11396\nV6004073175365\np11397\nsVimage_url\np11398\nVhttps://fbcdn-creative-a.akamaihd.net/hads-ak-prn1/s110x80/708163_6006844969565_62316_n.jpg\np11399\nsVcount_current_adgroups\np11400\nI1\nsVrun_status\np11401\nI1\nsVtype\np11402\nI1\nsVlink_url\np11403\nVhttp://www.buzzfeed.com/h1/fba/sailorjerryrum/cool-and-unusual-ways-to-travel-in-style\np11404\nsVview_tag\np11405\ng21\nsa(dp11406\nValt_view_tags\np11407\n(lp11408\nsVbody\np11409\nVAmong Sailor Jerry\'s inked up Airstream, check out these other awesome rides in BuzzFeed\'s "Cool And Unusual Ways To Travel In Style" !\np11410\nsVimage_hash\np11411\nV9186feb5fe8ba9a5f0c29d3566835917\np11412\nsVname\np11413\nVAlways Travel In Style!-02\np11414\nsVtitle\np11415\nVAlways Travel In Style!\np11416\nsVcreative_id\np11417\nV6004073187365\np11418\nsVpreview_url\np11419\nVhttp://www.facebook.com/ads/api/creative_preview.php?cid=6004073187365\np11420\nsVid\np11421\nV6004073187365\np11422\nsVimage_url\np11423\nVhttps://fbcdn-creative-a.akamaihd.net/hads-ak-prn1/s110x80/708185_6006844916765_59401_n.jpg\np11424\nsVcount_current_adgroups\np11425\nI1\nsVrun_status\np11426\nI1\nsVtype\np11427\nI1\nsVlink_url\np11428\nVhttp://www.buzzfeed.com/h1/fba/sailorjerryrum/cool-and-unusual-ways-to-travel-in-style\np11429\nsVview_tag\np11430\ng21\nsa(dp11431\nValt_view_tags\np11432\n(lp11433\nsVbody\np11434\nVCheck out what Lindsay Lohan and other celebrities did to get out of debt in "Awesome Things Celebrities Have Done To Get Out Of Debt"\np11435\nsVimage_hash\np11436\nVea722e17d5b5839d866fdc4f04a1b60e\np11437\nsVname\np11438\nVDesperate Measures\np11439\nsVtitle\np11440\nVDesperate Measures\np11441\nsVcreative_id\np11442\nV6004073092165\np11443\nsVpreview_url\np11444\nVhttp://www.facebook.com/ads/api/creative_preview.php?cid=6004073092165\np11445\nsVid\np11446\nV6004073092165\np11447\nsVimage_url\np11448\nVhttps://fbcdn-creative-a.akamaihd.net/hads-ak'
p6
sS'hash'
p7
S'b04e82362d7e2efb1f5747f69422cdb7dd2f4ca6'
p8
sS'stack'
p9
S''
s.