(dp1
S'args'
p2
S''
sS'methodname'
p3
S''
sS'packet_num'
p4
I37
sS'returnval'
p5
S'og is one of the "Stressed Out Animals Who Really Need A Break." Find out why!\np4766\nsVimage_hash\np4767\nV16f741de427c269f8852ab8a8f8129de\np4768\nsVname\np4769\nVWhat\'s Going On Here?-01-01\np4770\nsVtitle\np4771\nVWhat\'s Going On Here?\np4772\nsVcreative_id\np4773\nV6005583091765\np4774\nsVpreview_url\np4775\nVhttp://www.facebook.com/ads/api/creative_preview.php?cid=6005583091765\np4776\nsVid\np4777\nV6005583091765\np4778\nsVimage_url\np4779\nVhttps://fbcdn-creative-a.akamaihd.net/hads-ak-prn1/s110x80/708166_6006844192765_22886_n.jpg\np4780\nsVcount_current_adgroups\np4781\nI1\nsVrun_status\np4782\nI1\nsVtype\np4783\nI1\nsVlink_url\np4784\nVhttp://ad.doubleclick.net/click;h=v2|3F93|0|0|%2a|s;260122121;0-0;0;83711970;31-1|1;49332344|49327572|1;;;pc=[TPAS_ID]%3fhttp://www.buzzfeed.com/h1/fbad/randomactsoffusion/stressed-out-animals-who-really-need-a-break\np4785\nsVview_tag\np4786\ng21\nsa(dp4787\nValt_view_tags\np4788\n(lp4789\nsVbody\np4790\nVAlonzo (Denzel) Makes our list of the "10 Most Corrupt Movie Cops" See more on BuzzFeed!\\u000a\np4791\nsVimage_hash\np4792\nV7f2e5811ee9234b44eaa6ad4063f478e\np4793\nsVname\np4794\nVIt\'s Training Day Rookie!\np4795\nsVtitle\np4796\nVIt\'s Training Day Rookie!\np4797\nsVcreative_id\np4798\nV6005556788165\np4799\nsVpreview_url\np4800\nVhttp://www.facebook.com/ads/api/creative_preview.php?cid=6005556788165\np4801\nsVid\np4802\nV6005556788165\np4803\nsVimage_url\np4804\nVhttps://fbcdn-creative-a.akamaihd.net/hads-ak-prn1/s110x80/708160_6006844812965_30705_n.jpg\np4805\nsVcount_current_adgroups\np4806\nI2\nsVrun_status\np4807\nI1\nsVtype\np4808\nI1\nsVlink_url\np4809\nVhttp://www.buzzfeed.com/h1/fbad/killerjoe/the-10-most-corrupt-cops-in-movies-6tzm\np4810\nsVview_tag\np4811\ng21\nsa(dp4812\nValt_view_tags\np4813\n(lp4814\nsVbody\np4815\nVAlonzo (Denzel) Makes our list of the "10 Most Corrupt Movie Cops" See more on BuzzFeed!\\u000a\np4816\nsVimage_hash\np4817\nV7f2e5811ee9234b44eaa6ad4063f478e\np4818\nsVname\np4819\nVIt\'s Training Day Rookie!-00\np4820\nsVtitle\np4821\nVWhat a day!\np4822\nsVcreative_id\np4823\nV6005565263765\np4824\nsVpreview_url\np4825\nVhttp://www.facebook.com/ads/api/creative_preview.php?cid=6005565263765\np4826\nsVid\np4827\nV6005565263765\np4828\nsVimage_url\np4829\nVhttps://fbcdn-creative-a.akamaihd.net/hads-ak-prn1/s110x80/708160_6006844812965_30705_n.jpg\np4830\nsVcount_current_adgroups\np4831\nI1\nsVrun_status\np4832\nI1\nsVtype\np4833\nI1\nsVlink_url\np4834\nVhttp://www.buzzfeed.com/h1/fbad/killerjoe/the-10-most-corrupt-cops-in-movies-6tzm\np4835\nsVview_tag\np4836\ng21\nsa(dp4837\nValt_view_tags\np4838\n(lp4839\nsVbody\np4840\nVCheck out these "10 Badass Thugs Who Went Sweet" on BuzzFeed!\np4841\nsVimage_hash\np4842\nV42ffcad2b618f4ded81a54a4d0694a51\np4843\nsVname\np4844\nV50 Cent - Then and Now\np4845\nsVtitle\np4846\nV50 Cent - Then and Now\np4847\nsVcreative_id\np4848\nV6005587723965\np4849\nsVpreview_url\np4850\nVhttp://www.facebook.com/ads/api/creative_preview.php?cid=6005587723965\np4851\nsVid\np4852\nV6005587723965\np4853\nsVimage_url\np4854\nVhttps://fbcdn-creative-a.akamaihd.net/hads-ak-ash3/s110x80/708194_6006844458165_61022_n.jpg\np4855\nsVcount_current_adgroups\np4856\nI1\nsVrun_status\np4857\nI1\nsVtype\np4858\nI1\nsVlink_url\np4859\nVhttp://www.buzzfeed.com/h1/fbad/sourpatchkids/10-badass-thugs-who-went-sweet\np4860\nsVview_tag\np4861\ng21\nsa(dp4862\nValt_view_tags\np4863\n(lp4864\nsVbody\np4865\nVJohn Lennon\'s first band was started in a garage. See other things that got started there!\np4866\nsVimage_hash\np4867\nVc21b1539df7c9e97758d520ee735622e\np4868\nsVname\np4869\nVThey Started In A Garage?-00\np4870\nsVtitle\np4871\nVLennon And The Quarrymen\np4872\nsVcreative_id\np4873\nV6005582752565\np4874\nsVpreview_url\np4875\nVhttp://www.facebook.com/ads/api/creative_preview.php?cid=6005582752565\np4876\nsVid\np4877\nV6005582752565\np4878\nsVimage_url\np4879\nVhttps://fbcdn-creative-a.akamaihd.net/hads-ak-prn1/s110x80/708199_6006845213365_9361_n.jpg\np4880\nsVcount_current_adgroups\np4881\nI1\nsVrun_status\np4882\nI1\nsVtype\np4883\nI1\nsVlink_url\np4884\nVhttp://www.buzzfeed.com/h1/fbad/bigredsoda/the-9-best-things-to-come-out-of-garages\np4885\nsVview_tag\np4886\ng21\nsa(dp4887\nValt_view_tags\np4888\n(lp4889\nsVbody\np4890\nVCheck out some of the most important science fair projects of our time'
p6
sS'hash'
p7
S'b04e82362d7e2efb1f5747f69422cdb7dd2f4ca6'
p8
sS'stack'
p9
S''
s.