(dp1
S'args'
p2
S''
sS'methodname'
p3
S''
sS'packet_num'
p4
I23
sS'returnval'
p5
S'mage_url\np2929\nVhttps://fbcdn-creative-a.akamaihd.net/hads-ak-ash3/s110x80/701892_6006844085765_62211_n.jpg\np2930\nsVcount_current_adgroups\np2931\nI1\nsVrun_status\np2932\nI1\nsVtype\np2933\nI1\nsVlink_url\np2934\nVhttp://ad.doubleclick.net/clk;261418168;85613851;n%3fhttp://www.buzzfeed.com/h1/fbad/smartcar/12-mind-blowing-product-customizations-5yip\np2935\nsVview_tag\np2936\ng21\nsa(dp2937\nValt_view_tags\np2938\n(lp2939\nsVbody\np2940\nVCheck out this smart car and other "Mind-Blowing Product Customizations" on BuzzFeed!\np2941\nsVimage_hash\np2942\nVc95859301d8bbd28bec584c287e2e41f\np2943\nsVname\np2944\nVBlinged-Out Sneakers-00-00\np2945\nsVtitle\np2946\nVPretty Packaging\np2947\nsVcreative_id\np2948\nV6005725985565\np2949\nsVpreview_url\np2950\nVhttp://www.facebook.com/ads/api/creative_preview.php?cid=6005725985565\np2951\nsVid\np2952\nV6005725985565\np2953\nsVimage_url\np2954\nVhttps://fbcdn-creative-a.akamaihd.net/hads-ak-ash3/s110x80/708172_6006845255365_60171_n.jpg\np2955\nsVcount_current_adgroups\np2956\nI1\nsVrun_status\np2957\nI1\nsVtype\np2958\nI1\nsVlink_url\np2959\nVhttp://ad.doubleclick.net/clk;261418168;85613851;n%3fhttp://www.buzzfeed.com/h1/fbad/smartcar/12-mind-blowing-product-customizations-5yip\np2960\nsVview_tag\np2961\ng21\nsa(dp2962\nValt_view_tags\np2963\n(lp2964\nsVbody\np2965\nVBassists are the rhythm in every band, but maybe they go too far. See their wildest faces!\np2966\nsVimage_hash\np2967\nV737f3710d2592649c3e83170c1a0f974\np2968\nsVname\np2969\nVCrazy Bass Faces!-00\np2970\nsVtitle\np2971\nVCrazy Bass Faces!\np2972\nsVcreative_id\np2973\nV6005740730565\np2974\nsVpreview_url\np2975\nVhttp://www.facebook.com/ads/api/creative_preview.php?cid=6005740730565\np2976\nsVid\np2977\nV6005740730565\np2978\nsVimage_url\np2979\nVhttps://fbcdn-creative-a.akamaihd.net/hads-ak-prn1/s110x80/708168_6006844745165_17693_n.jpg\np2980\nsVcount_current_adgroups\np2981\nI1\nsVrun_status\np2982\nI1\nsVtype\np2983\nI1\nsVlink_url\np2984\nVhttp://www.buzzfeed.com/h1/fbadvirginmobilelive/20-orgasmic-bass-faces-5l87\np2985\nsVview_tag\np2986\ng21\nsa(dp2987\nValt_view_tags\np2988\n(lp2989\nsVbody\np2990\nVBassists are the rhythm in every band, but maybe they go too far. See their wildest faces!\np2991\nsVimage_hash\np2992\nV7a21c55780eec1553d8a52d52db8827b\np2993\nsVname\np2994\nVCrazy Bass Faces!\np2995\nsVtitle\np2996\nVCrazy Bass Faces!\np2997\nsVcreative_id\np2998\nV6005740719765\np2999\nsVpreview_url\np3000\nVhttp://www.facebook.com/ads/api/creative_preview.php?cid=6005740719765\np3001\nsVid\np3002\nV6005740719765\np3003\nsVimage_url\np3004\nVhttps://fbcdn-creative-a.akamaihd.net/hads-ak-ash3/s110x80/708196_6006844786365_10752_n.jpg\np3005\nsVcount_current_adgroups\np3006\nI1\nsVrun_status\np3007\nI1\nsVtype\np3008\nI1\nsVlink_url\np3009\nVhttp://www.buzzfeed.com/h1/fbadvirginmobilelive/20-orgasmic-bass-faces-5l87\np3010\nsVview_tag\np3011\ng21\nsa(dp3012\nValt_view_tags\np3013\n(lp3014\nsVbody\np3015\nVDidn\'t think so. Check out "The Ultimate Guide To Being Awesomely Comfortable" here!\np3016\nsVimage_hash\np3017\nV4bb8f1be6722781d72881128c6d51c9c\np3018\nsVname\np3019\nVAre You This Comfortable?\np3020\nsVtitle\np3021\nVAre You This Comfortable?\np3022\nsVcreative_id\np3023\nV6005747503365\np3024\nsVpreview_url\np3025\nVhttp://www.facebook.com/ads/api/creative_preview.php?cid=6005747503365\np3026\nsVid\np3027\nV6005747503365\np3028\nsVimage_url\np3029\nVhttps://fbcdn-creative-a.akamaihd.net/hads-ak-ash3/s110x80/708166_6006844510165_55229_n.jpg\np3030\nsVcount_current_adgroups\np3031\nI2\nsVrun_status\np3032\nI1\nsVtype\np3033\nI1\nsVlink_url\np3034\nVhttp://www.buzzfeed.com/h1/fbad/southerncomfort/the-ultimate-guide-to-being-awesomely-comfortable\np3035\nsVview_tag\np3036\ng21\nsa(dp3037\nValt_view_tags\np3038\n(lp3039\nsVbody\np3040\nVCheck out the rest of "The Biggest VMA Red Carpet Fashion Disasters Of All Time" here!\np3041\nsVimage_hash\np3042\nV68683b680af29f692fb03f49895a1675\np3043\nsVname\np3044\nVTypical Lady Gaga\np3045\nsVtitle\np3046\nVTypical Lady Gaga\np3047\nsVcreative_id\np3048\nV6005745376165\np3049\nsVpreview_url\np3050\nVhttp://www.facebook.com/ads/api/creative_preview.php?cid=6005745376165\np3051\nsVid\np3052\nV6005745376165\np3053\nsVimage_url\np3054\nVhttps://fbcdn-creative-a.akamaihd.net/hads-ak-prn1/s110x80/708167_6006844683965_49737_n'
p6
sS'hash'
p7
S'b04e82362d7e2efb1f5747f69422cdb7dd2f4ca6'
p8
sS'stack'
p9
S''
s.