(dp1
S'args'
p2
S''
sS'methodname'
p3
S''
sS'packet_num'
p4
I32
sS'returnval'
p5
S'ep breath...-01\np4095\nsVtitle\np4096\nVTake a Deep Breath...\np4097\nsVcreative_id\np4098\nV6005624029765\np4099\nsVpreview_url\np4100\nVhttp://www.facebook.com/ads/api/creative_preview.php?cid=6005624029765\np4101\nsVid\np4102\nV6005624029765\np4103\nsVimage_url\np4104\nVhttps://fbcdn-creative-a.akamaihd.net/hads-ak-ash3/s110x80/701896_6006845012565_47894_n.jpg\np4105\nsVcount_current_adgroups\np4106\nI2\nsVrun_status\np4107\nI1\nsVtype\np4108\nI1\nsVlink_url\np4109\nVhttp://www.buzzfeed.com/h1/fbad/redstripe/14-reasons-why-you-should-celebrate-today-6phl\np4110\nsVview_tag\np4111\ng21\nsa(dp4112\nValt_view_tags\np4113\n(lp4114\nsVbody\np4115\nVLearn more about "The DOs And DON\'Ts Of Photosharing." Only on Buzzfeed!\np4116\nsVimage_hash\np4117\nV9ca472d711a7b315874410dda9f8e219\np4118\nsVname\np4119\nVNice Titanic Costume, Bro\np4120\nsVtitle\np4121\nVNice Titanic Costume, Bro\np4122\nsVcreative_id\np4123\nV6005622304165\np4124\nsVpreview_url\np4125\nVhttp://www.facebook.com/ads/api/creative_preview.php?cid=6005622304165\np4126\nsVid\np4127\nV6005622304165\np4128\nsVimage_url\np4129\nVhttps://fbcdn-creative-a.akamaihd.net/hads-ak-ash3/s110x80/708195_6006844986965_5102_n.jpg\np4130\nsVcount_current_adgroups\np4131\nI2\nsVrun_status\np4132\nI1\nsVtype\np4133\nI1\nsVlink_url\np4134\nVhttp://www.buzzfeed.com/h1/fbad/tmobile/the-dos-and-donts-of-photosharing\np4135\nsVview_tag\np4136\ng21\nsa(dp4137\nValt_view_tags\np4138\n(lp4139\nsVbody\np4140\nVAn 11-Year-Old Invented The Popsicle? Check out 15 Fun Food Facts on BuzzFeed!\np4141\nsVimage_hash\np4142\nV22360df8a957405554d828639fa33f48\np4143\nsVname\np4144\nVDid you know?-09-01\np4145\nsVtitle\np4146\nVDid you know?\np4147\nsVcreative_id\np4148\nV6005627492165\np4149\nsVpreview_url\np4150\nVhttp://www.facebook.com/ads/api/creative_preview.php?cid=6005627492165\np4151\nsVid\np4152\nV6005627492165\np4153\nsVimage_url\np4154\nVhttps://fbcdn-creative-a.akamaihd.net/hads-ak-ash3/s110x80/708180_6006844264965_18587_n.jpg\np4155\nsVcount_current_adgroups\np4156\nI1\nsVrun_status\np4157\nI1\nsVtype\np4158\nI1\nsVlink_url\np4159\nVhttp://www.buzzfeed.com/h1/fbad/mcdonalds/15-things-you-didnt-know-about-your-favorite-food\np4160\nsVview_tag\np4161\ng21\nsa(dp4162\nValt_view_tags\np4163\n(lp4164\nsVbody\np4165\nVWhy are they called Hershey\'s "Kisses?" Check out 15 Fun Food Facts on BuzzFeed!\np4166\nsVimage_hash\np4167\nV100b32dd07bc72546312b0eb746ed5e6\np4168\nsVname\np4169\nVDid you know?-09-01-00\np4170\nsVtitle\np4171\nVDid you know?\np4172\nsVcreative_id\np4173\nV6005627500765\np4174\nsVpreview_url\np4175\nVhttp://www.facebook.com/ads/api/creative_preview.php?cid=6005627500765\np4176\nsVid\np4177\nV6005627500765\np4178\nsVimage_url\np4179\nVhttps://fbcdn-creative-a.akamaihd.net/hads-ak-ash3/s110x80/708185_6006844147365_32484_n.jpg\np4180\nsVcount_current_adgroups\np4181\nI1\nsVrun_status\np4182\nI1\nsVtype\np4183\nI1\nsVlink_url\np4184\nVhttp://www.buzzfeed.com/h1/fbad/mcdonalds/15-things-you-didnt-know-about-your-favorite-food\np4185\nsVview_tag\np4186\ng21\nsa(dp4187\nValt_view_tags\np4188\n(lp4189\nsVbody\np4190\nVIt Takes About 250 Licks To Get To The Center Of A Tootsie Pop!\np4191\nsVimage_hash\np4192\nVf054c96a5cb460ca22fe060d1dcefe4d\np4193\nsVname\np4194\nVDid you know?-09\np4195\nsVtitle\np4196\nVDid you know?\np4197\nsVcreative_id\np4198\nV6005615505965\np4199\nsVpreview_url\np4200\nVhttp://www.facebook.com/ads/api/creative_preview.php?cid=6005615505965\np4201\nsVid\np4202\nV6005615505965\np4203\nsVimage_url\np4204\nVhttps://fbcdn-creative-a.akamaihd.net/hads-ak-ash3/s110x80/708178_6006845507365_502_n.jpg\np4205\nsVcount_current_adgroups\np4206\nI1\nsVrun_status\np4207\nI1\nsVtype\np4208\nI1\nsVlink_url\np4209\nVhttp://www.buzzfeed.com/h1/fbad/mcdonalds/15-things-you-didnt-know-about-your-favorite-food\np4210\nsVview_tag\np4211\ng21\nsa(dp4212\nValt_view_tags\np4213\n(lp4214\nsVbody\np4215\nVYou Can Get Addicted To Vanilla! See this an more fun facst on BuzzFeed.\np4216\nsVimage_hash\np4217\nVe94c58c6c107fd3538172591fe5ad11a\np4218\nsVname\np4219\nVDid you know?-09-00\np4220\nsVtitle\np4221\nVDid you know?\np4222\nsVcreative_id\np4223\nV6005622185565\np4224\nsVpreview_url\np4225\nVhttp://www.facebook.com/ads/api/creative_preview.php?cid=6005622185565\np4226\nsVid\np4227\nV6005622185565\np4228\nsVimage_url\np4229\nVhttps://fbcdn-creative-a.ak'
p6
sS'hash'
p7
S'b04e82362d7e2efb1f5747f69422cdb7dd2f4ca6'
p8
sS'stack'
p9
S''
s.