(dp1
S'args'
p2
S''
sS'methodname'
p3
S''
sS'packet_num'
p4
I19
sS'returnval'
p5
S'04\nVhttps://fbcdn-creative-a.akamaihd.net/hads-ak-ash3/s110x80/708189_6006845561365_22338_n.jpg\np2405\nsVcount_current_adgroups\np2406\nI1\nsVrun_status\np2407\nI1\nsVtype\np2408\nI1\nsVlink_url\np2409\nVhttp://www.buzzfeed.com/h1/fbad/virginmobilelive/celebrities-and-their-musician-dopplegangers-5l87\np2410\nsVview_tag\np2411\ng21\nsa(dp2412\nValt_view_tags\np2413\n(lp2414\nsVbody\np2415\nVJohnny Depp and Jack White had to be twins separated at birth. Check out the rest here!\np2416\nsVimage_hash\np2417\nV9d42f08383fee59134bc1f2c3b24e019\np2418\nsVname\np2419\nVCelebrity Doppelgangers!-00-00\np2420\nsVtitle\np2421\nVCelebrity Doppelgangers!\np2422\nsVcreative_id\np2423\nV6005718489965\np2424\nsVpreview_url\np2425\nVhttp://www.facebook.com/ads/api/creative_preview.php?cid=6005718489965\np2426\nsVid\np2427\nV6005718489965\np2428\nsVimage_url\np2429\nVhttps://fbcdn-creative-a.akamaihd.net/hads-ak-ash3/s110x80/708195_6006844988765_8572_n.jpg\np2430\nsVcount_current_adgroups\np2431\nI1\nsVrun_status\np2432\nI1\nsVtype\np2433\nI1\nsVlink_url\np2434\nVhttp://www.buzzfeed.com/h1/fbad/virginmobilelive/celebrities-and-their-musician-dopplegangers-5l87\np2435\nsVview_tag\np2436\ng21\nsa(dp2437\nValt_view_tags\np2438\n(lp2439\nsVbody\np2440\nVMakes our list of "10 Awesome TV Adaptations Of Badass Movies" see more on BuzzFeed!\np2441\nsVimage_hash\np2442\nV5ad6195da30df021baf545ce1495e16f\np2443\nsVname\np2444\nVStar Wars: The Clone Wars-00\np2445\nsVtitle\np2446\nVStargate \np2447\nsVcreative_id\np2448\nV6005799207365\np2449\nsVpreview_url\np2450\nVhttp://www.facebook.com/ads/api/creative_preview.php?cid=6005799207365\np2451\nsVid\np2452\nV6005799207365\np2453\nsVimage_url\np2454\nVhttps://fbcdn-creative-a.akamaihd.net/hads-ak-ash3/s110x80/708164_6006844610965_54970_n.jpg\np2455\nsVcount_current_adgroups\np2456\nI1\nsVrun_status\np2457\nI1\nsVtype\np2458\nI1\nsVlink_url\np2459\nVhttp://www.buzzfeed.com/h1/fbad/blackdynamite/10-awesome-tv-adaptations-of-badass-movies-5e97\np2460\nsVview_tag\np2461\ng21\nsa(dp2462\nValt_view_tags\np2463\n(lp2464\nsVbody\np2465\nVJust one of the "11 People Who Should Have Our Babies" on BuzzFeed!\np2466\nsVimage_hash\np2467\nV8d151189de7a4d1ce13ade3f970c6348\np2468\nsVname\np2469\nVChristina Hendricks\np2470\nsVtitle\np2471\nVChristina Hendricks\np2472\nsVcreative_id\np2473\nV6005745608965\np2474\nsVpreview_url\np2475\nVhttp://www.facebook.com/ads/api/creative_preview.php?cid=6005745608965\np2476\nsVid\np2477\nV6005745608965\np2478\nsVimage_url\np2479\nVhttps://fbcdn-creative-a.akamaihd.net/hads-ak-prn1/s110x80/708171_6006844891565_55370_n.jpg\np2480\nsVcount_current_adgroups\np2481\nI1\nsVrun_status\np2482\nI1\nsVtype\np2483\nI1\nsVlink_url\np2484\nVhttp://www.buzzfeed.com/h1/fbad/thenewnormal/11-people-who-should-have-our-babies\np2485\nsVview_tag\np2486\ng21\nsa(dp2487\nValt_view_tags\np2488\n(lp2489\nsVbody\np2490\nVJust one of the "11 People Who Should Have Our Babies" on BuzzFeed!\np2491\nsVimage_hash\np2492\nV8f83aae2959cdde13de28e39c21deb28\np2493\nsVname\np2494\nVChristina Hendricks-00\np2495\nsVtitle\np2496\nVPaul Rudd As A Daddy?\np2497\nsVcreative_id\np2498\nV6005745644365\np2499\nsVpreview_url\np2500\nVhttp://www.facebook.com/ads/api/creative_preview.php?cid=6005745644365\np2501\nsVid\np2502\nV6005745644365\np2503\nsVimage_url\np2504\nVhttps://fbcdn-creative-a.akamaihd.net/hads-ak-ash3/s110x80/708189_6006844906965_2721_n.jpg\np2505\nsVcount_current_adgroups\np2506\nI1\nsVrun_status\np2507\nI1\nsVtype\np2508\nI1\nsVlink_url\np2509\nVhttp://www.buzzfeed.com/h1/fbad/thenewnormal/11-people-who-should-have-our-babies\np2510\nsVview_tag\np2511\ng21\nsa(dp2512\nValt_view_tags\np2513\n(lp2514\nsVbody\np2515\nVSpice up Thanksgiving with Ranch. Check out other ways to use that magic sauce here!\np2516\nsVimage_hash\np2517\nVb2c4e603c2a93b92ee59d52ac1590762\np2518\nsVname\np2519\nVTurkey With Ranch?\np2520\nsVtitle\np2521\nVTurkey With Ranch?\np2522\nsVcreative_id\np2523\nV6005770750165\np2524\nsVpreview_url\np2525\nVhttp://www.facebook.com/ads/api/creative_preview.php?cid=6005770750165\np2526\nsVid\np2527\nV6005770750165\np2528\nsVimage_url\np2529\nVhttps://fbcdn-creative-a.akamaihd.net/hads-ak-prn1/s110x80/708188_6006845129165_4093_n.jpg\np2530\nsVcount_current_adgroups\np2531\nI3\nsVrun_status\np2532\nI1\nsVtype\np2533\nI1\nsVlink_url\np2534\nVhttp://www.buzzfeed'
p6
sS'hash'
p7
S'b04e82362d7e2efb1f5747f69422cdb7dd2f4ca6'
p8
sS'stack'
p9
S''
s.