(dp1
S'args'
p2
S''
sS'methodname'
p3
S''
sS'packet_num'
p4
I26
sS'returnval'
p5
S't of "The Biggest VMA Red Carpet Fashion Disasters Of All Time" on Buzzfeed!\np3316\nsVimage_hash\np3317\nVe0b9d5a3a5e3737f0bd1c205e7152eee\np3318\nsVname\np3319\nVTypical Lady Gaga-00-00-00\np3320\nsVtitle\np3321\nVBackstreet Boys\np3322\nsVcreative_id\np3323\nV6005745439965\np3324\nsVpreview_url\np3325\nVhttp://www.facebook.com/ads/api/creative_preview.php?cid=6005745439965\np3326\nsVid\np3327\nV6005745439965\np3328\nsVimage_url\np3329\nVhttps://fbcdn-creative-a.akamaihd.net/hads-ak-prn1/s110x80/708169_6006845396965_21960_n.jpg\np3330\nsVcount_current_adgroups\np3331\nI1\nsVrun_status\np3332\nI1\nsVtype\np3333\nI1\nsVlink_url\np3334\nVhttp://www.buzzfeed.com/mtvvmas/the-biggest-vma-red-carpet-fashion-disasters-of-al\np3335\nsVview_tag\np3336\ng21\nsa(dp3337\nValt_view_tags\np3338\n(lp3339\nsVbody\np3340\nVWhen will these guys learn? Check out "10 People Who Desperately Need A New Laptop" here!\np3341\nsVimage_hash\np3342\nV5e9fb209841c3af6c3458c56985cdecd\np3343\nsVname\np3344\nVYou\'re Doing It Wrong-00\np3345\nsVtitle\np3346\nVYou\'re Doing It Wrong\np3347\nsVcreative_id\np3348\nV6005741125565\np3349\nsVpreview_url\np3350\nVhttp://www.facebook.com/ads/api/creative_preview.php?cid=6005741125565\np3351\nsVid\np3352\nV6005741125565\np3353\nsVimage_url\np3354\nVhttps://fbcdn-creative-a.akamaihd.net/hads-ak-snc7/s110x80/701899_6006844633565_12556_n.jpg\np3355\nsVcount_current_adgroups\np3356\nI1\nsVrun_status\np3357\nI1\nsVtype\np3358\nI1\nsVlink_url\np3359\nVhttp://www.buzzfeed.com/h1/fbad/samsungs9/10-people-who-desperately-need-a-new-laptop-6g87\np3360\nsVview_tag\np3361\ng21\nsa(dp3362\nValt_view_tags\np3363\n(lp3364\nsVbody\np3365\nVJust one of the "10 Amazing Masters Of Obscure Art Forms" on BuzzFeed!\np3366\nsVimage_hash\np3367\nVd41abd1892034e206bc6eb8d9add47f8\np3368\nsVname\np3369\nVBest Beatboxer Ever?-00\np3370\nsVtitle\np3371\nVHuman Body Art\np3372\nsVcreative_id\np3373\nV6005735328765\np3374\nsVpreview_url\np3375\nVhttp://www.facebook.com/ads/api/creative_preview.php?cid=6005735328765\np3376\nsVid\np3377\nV6005735328765\np3378\nsVimage_url\np3379\nVhttps://fbcdn-creative-a.akamaihd.net/hads-ak-prn1/s110x80/708189_6006845317765_19998_n.jpg\np3380\nsVcount_current_adgroups\np3381\nI1\nsVrun_status\np3382\nI1\nsVtype\np3383\nI1\nsVlink_url\np3384\nVhttp://www.buzzfeed.com/h1/fbad/gap/amazing-masters-of-obscure-art-forms\np3385\nsVview_tag\np3386\ng21\nsa(dp3387\nValt_view_tags\np3388\n(lp3389\nsVbody\np3390\nVDirty jokes in his plays?Find more Unwaveringly Comfortable Historical Figures on BuzzFeed\np3391\nsVimage_hash\np3392\nVa54d1031a993eb870af9256c217a508d\np3393\nsVname\np3394\nVTheodore Roosevelt-00-01\np3395\nsVtitle\np3396\nVBilly Shakespeare\np3397\nsVcreative_id\np3398\nV6005726887765\np3399\nsVpreview_url\np3400\nVhttp://www.facebook.com/ads/api/creative_preview.php?cid=6005726887765\np3401\nsVid\np3402\nV6005726887765\np3403\nsVimage_url\np3404\nVhttps://fbcdn-creative-a.akamaihd.net/hads-ak-ash3/s110x80/701888_6006845042965_7985_n.jpg\np3405\nsVcount_current_adgroups\np3406\nI1\nsVrun_status\np3407\nI1\nsVtype\np3408\nI1\nsVlink_url\np3409\nVhttp://www.buzzfeed.com/h1/fbad/southerncomfort/the-most-unwaveringly-comfortable-historical-figur-6sgb\np3410\nsVview_tag\np3411\ng21\nsa(dp3412\nValt_view_tags\np3413\n(lp3414\nsVbody\np3415\nVJust one of the "10 Amazing Masters Of Obscure Art Forms" on BuzzFeed!\np3416\nsVimage_hash\np3417\nVf5c9ffaf51fdb4b7730bbe5cb05c07d4\np3418\nsVname\np3419\nVBest Beatboxer Ever?-00-00\np3420\nsVtitle\np3421\nVProfessional Tumbler?\np3422\nsVcreative_id\np3423\nV6005735354165\np3424\nsVpreview_url\np3425\nVhttp://www.facebook.com/ads/api/creative_preview.php?cid=6005735354165\np3426\nsVid\np3427\nV6005735354165\np3428\nsVimage_url\np3429\nVhttps://fbcdn-creative-a.akamaihd.net/hads-ak-prn1/s110x80/708186_6006845536165_25784_n.jpg\np3430\nsVcount_current_adgroups\np3431\nI1\nsVrun_status\np3432\nI1\nsVtype\np3433\nI1\nsVlink_url\np3434\nVhttp://www.buzzfeed.com/h1/fbad/gap/amazing-masters-of-obscure-art-forms\np3435\nsVview_tag\np3436\ng21\nsa(dp3437\nValt_view_tags\np3438\n(lp3439\nsVbody\np3440\nVJust one of the 22 Awesome Women We Want To Be Like. Check out more on BuzzFeed!\np3441\nsVimage_hash\np3442\nVe8c8bab7a1f8dd39f12418548c59ee9a\np3443\nsVname\np3444\nVMcKayla...Unimpressed-00-00-00\np3445\nsVtitle\np3446\nVOprah - The Triple T'
p6
sS'hash'
p7
S'b04e82362d7e2efb1f5747f69422cdb7dd2f4ca6'
p8
sS'stack'
p9
S''
s.