(dp1
S'args'
p2
S''
sS'methodname'
p3
S''
sS'packet_num'
p4
I81
sS'returnval'
p5
S'97\nsVimage_url\np10498\nVhttps://fbcdn-creative-a.akamaihd.net/hads-ak-ash3/s110x80/701906_6006845360365_20736_n.jpg\np10499\nsVcount_current_adgroups\np10500\nI2\nsVrun_status\np10501\nI1\nsVtype\np10502\nI1\nsVlink_url\np10503\nVhttp://www.buzzfeed.com/h1/fba/wallstreetjournal/10-companies-you-didnt-think-were-worth-millions-354z\np10504\nsVview_tag\np10505\ng21\nsa(dp10506\nValt_view_tags\np10507\n(lp10508\nsVbody\np10509\nVCheck out BuzzFeed\'s List of "10 Companies You Didn\'t Think Were Worth Millions".1-800-Got-Junk is one of them - see the rest.\np10510\nsVimage_hash\np10511\nV932fba13713e69ae11992531d0e9ef51\np10512\nsVname\np10513\nVMillion Dollar Companies-00\np10514\nsVtitle\np10515\nVMillion Dollar Companies\np10516\nsVcreative_id\np10517\nV6004326019965\np10518\nsVpreview_url\np10519\nVhttp://www.facebook.com/ads/api/creative_preview.php?cid=6004326019965\np10520\nsVid\np10521\nV6004326019965\np10522\nsVimage_url\np10523\nVhttps://fbcdn-creative-a.akamaihd.net/hads-ak-ash3/s110x80/708176_6006844927765_9319_n.jpg\np10524\nsVcount_current_adgroups\np10525\nI2\nsVrun_status\np10526\nI1\nsVtype\np10527\nI1\nsVlink_url\np10528\nVhttp://www.buzzfeed.com/h1/fba/wallstreetjournal/10-companies-you-didnt-think-were-worth-millions-354z\np10529\nsVview_tag\np10530\ng21\nsa(dp10531\nValt_view_tags\np10532\n(lp10533\nsVbody\np10534\nVCheck out BuzzFeed\'s List of "10 Companies You Didn\'t Think Were Worth Millions". AirBnb is one of them - see the rest.\np10535\nsVimage_hash\np10536\nVd49f257957d50095badedf7f7171ce60\np10537\nsVname\np10538\nVMillion Dollar Companies-01\np10539\nsVtitle\np10540\nVMillion Dollar Companies\np10541\nsVcreative_id\np10542\nV6004326027165\np10543\nsVpreview_url\np10544\nVhttp://www.facebook.com/ads/api/creative_preview.php?cid=6004326027165\np10545\nsVid\np10546\nV6004326027165\np10547\nsVimage_url\np10548\nVhttps://fbcdn-creative-a.akamaihd.net/hads-ak-prn1/s110x80/708164_6006845323565_8388_n.jpg\np10549\nsVcount_current_adgroups\np10550\nI2\nsVrun_status\np10551\nI1\nsVtype\np10552\nI1\nsVlink_url\np10553\nVhttp://www.buzzfeed.com/h1/fba/wallstreetjournal/10-companies-you-didnt-think-were-worth-millions-354z\np10554\nsVview_tag\np10555\ng21\nsa(dp10556\nValt_view_tags\np10557\n(lp10558\nsVbody\np10559\nVStay one step ahead of your friends by checking out BuzzFeed\'s "10 Stories You Should Share With Your Friends To Seem In The Know"\np10560\nsVimage_hash\np10561\nV9f215b7e15fd57f3f5b30c041b6e843a\np10562\nsVname\np10563\nVThe Latest News Topics!\np10564\nsVtitle\np10565\nVThe Latest News Topics!\np10566\nsVcreative_id\np10567\nV6004201983965\np10568\nsVpreview_url\np10569\nVhttp://www.facebook.com/ads/api/creative_preview.php?cid=6004201983965\np10570\nsVid\np10571\nV6004201983965\np10572\nsVimage_url\np10573\nVhttps://fbcdn-creative-a.akamaihd.net/hads-ak-prn1/s110x80/708180_6006845005765_41772_n.jpg\np10574\nsVcount_current_adgroups\np10575\nI1\nsVrun_status\np10576\nI1\nsVtype\np10577\nI1\nsVlink_url\np10578\nVhttp://www.buzzfeed.com/h1/fba/wallstreetjournal/10-stories-you-should-share-with-your-friends-to-s-354z\np10579\nsVview_tag\np10580\ng21\nsa(dp10581\nValt_view_tags\np10582\n(lp10583\nsVbody\np10584\nVGet the latest new updates from Apple and others in BuzzFeed\'s "10 Stories You Should Share With Your Friends To Seem In The Know"\np10585\nsVimage_hash\np10586\nV1f2af414da2672c9b047fcb7d4164cb1\np10587\nsVname\np10588\nVApple\'s Latest Product\np10589\nsVtitle\np10590\nVApple\'s Latest Product\np10591\nsVcreative_id\np10592\nV6004202017165\np10593\nsVpreview_url\np10594\nVhttp://www.facebook.com/ads/api/creative_preview.php?cid=6004202017165\np10595\nsVid\np10596\nV6004202017165\np10597\nsVimage_url\np10598\nVhttps://fbcdn-creative-a.akamaihd.net/hads-ak-prn1/s110x80/708205_6006844244765_53705_n.jpg\np10599\nsVcount_current_adgroups\np10600\nI1\nsVrun_status\np10601\nI1\nsVtype\np10602\nI1\nsVlink_url\np10603\nVhttp://www.buzzfeed.com/h1/fba/wallstreetjournal/10-stories-you-should-share-with-your-friends-to-s-354z\np10604\nsVview_tag\np10605\ng21\nsa(dp10606\nValt_view_tags\np10607\n(lp10608\nsVbody\np10609\nVGet the latest on Nokia\'s comeback plan and more in "10 Stories You Should Share With Your Friends To Seem In The Know" by WSJ Social!\np10610\nsVimage_hash\np10611\nVe13f4ba9bf5898f5dd2ed184693ff697\np10612\nsVname\np1'
p6
sS'hash'
p7
S'b04e82362d7e2efb1f5747f69422cdb7dd2f4ca6'
p8
sS'stack'
p9
S''
s.