(dp1
S'args'
p2
S''
sS'methodname'
p3
S''
sS'packet_num'
p4
I48
sS'returnval'
p5
S'484602765\np6201\nsVid\np6202\nV6005484602765\np6203\nsVimage_url\np6204\nVhttps://fbcdn-creative-a.akamaihd.net/hads-ak-prn1/s110x80/708189_6006844909965_20615_n.jpg\np6205\nsVcount_current_adgroups\np6206\nI2\nsVrun_status\np6207\nI1\nsVtype\np6208\nI1\nsVlink_url\np6209\nVhttp://www.buzzfeed.com/h1/fbad/canon/20-awesome-action-shots-taken-at-the-perfect-momen-5u1t\np6210\nsVview_tag\np6211\ng21\nsa(dp6212\nValt_view_tags\np6213\n(lp6214\nsVbody\np6215\nVCheck out these "30 Amazing Summer Sunsets To Help You Feel Zen" Only on BuzzFeed!\np6216\nsVimage_hash\np6217\nV89b0b5c068a48b6ffeedffc47f0b3b4a\np6218\nsVname\np6219\nVThe Most Amazing Sunsets \np6220\nsVtitle\np6221\nVThe Most Amazing Sunsets \np6222\nsVcreative_id\np6223\nV6005494469965\np6224\nsVpreview_url\np6225\nVhttp://www.facebook.com/ads/api/creative_preview.php?cid=6005494469965\np6226\nsVid\np6227\nV6005494469965\np6228\nsVimage_url\np6229\nVhttps://fbcdn-creative-a.akamaihd.net/hads-ak-prn1/s110x80/708199_6006844873165_21695_n.jpg\np6230\nsVcount_current_adgroups\np6231\nI1\nsVrun_status\np6232\nI1\nsVtype\np6233\nI1\nsVlink_url\np6234\nVhttp://www.buzzfeed.com/h1/fbad/canon/30-amazing-summer-sunsets-to-help-you-feel-zen-5u1t\np6235\nsVview_tag\np6236\ng21\nsa(dp6237\nValt_view_tags\np6238\n(lp6239\nsVbody\np6240\nVCheck out the "Definitive Collection Of Crazy Cat Gifs" Only on BuzzFeed!\\u000a\np6241\nsVimage_hash\np6242\nV864d707624f0310d66afd3a110296d40\np6243\nsVname\np6244\nVCheck out these cats!-00\np6245\nsVtitle\np6246\nVAwesome Cat Gifs!\np6247\nsVcreative_id\np6248\nV6005488759965\np6249\nsVpreview_url\np6250\nVhttp://www.facebook.com/ads/api/creative_preview.php?cid=6005488759965\np6251\nsVid\np6252\nV6005488759965\np6253\nsVimage_url\np6254\nVhttps://fbcdn-creative-a.akamaihd.net/hads-ak-prn1/s110x80/708180_6006844854765_13289_n.jpg\np6255\nsVcount_current_adgroups\np6256\nI1\nsVrun_status\np6257\nI1\nsVtype\np6258\nI1\nsVlink_url\np6259\nVhttp://www.buzzfeed.com/h1/fbad/mycatfromhell/the-definitive-collection-of-crazy-cat-gifs-6msy\np6260\nsVview_tag\np6261\ng21\nsa(dp6262\nValt_view_tags\np6263\n(lp6264\nsVbody\np6265\nVWomen eats husband\'s gold fish during argument. This and more bizarre news on BuzzFeed!\np6266\nsVimage_hash\np6267\nV1a54e5834ede28570ebc0849b047944b\np6268\nsVname\np6269\nVDispute ends in fish fry!-00\np6270\nsVtitle\np6271\nVDispute ends in fish fry!\np6272\nsVcreative_id\np6273\nV6005484225565\np6274\nsVpreview_url\np6275\nVhttp://www.facebook.com/ads/api/creative_preview.php?cid=6005484225565\np6276\nsVid\np6277\nV6005484225565\np6278\nsVimage_url\np6279\nVhttps://fbcdn-creative-a.akamaihd.net/hads-ak-ash3/s110x80/701896_6006844218965_44611_n.jpg\np6280\nsVcount_current_adgroups\np6281\nI1\nsVrun_status\np6282\nI1\nsVtype\np6283\nI1\nsVlink_url\np6284\nVhttp://www.buzzfeed.com/h1/fbad/smalltownsecurity/small-town-police-blotters-you-have-to-see-to-beli-6iyz\np6285\nsVview_tag\np6286\ng21\nsa(dp6287\nValt_view_tags\np6288\n(lp6289\nsVbody\np6290\nVCheck out the "Definitive Collection Of Crazy Cat Gifs" Only on BuzzFeed!\\u000a\np6291\nsVimage_hash\np6292\nV864d707624f0310d66afd3a110296d40\np6293\nsVname\np6294\nVCheck out these cats!\np6295\nsVtitle\np6296\nVCheck out these cats!\np6297\nsVcreative_id\np6298\nV6005485291765\np6299\nsVpreview_url\np6300\nVhttp://www.facebook.com/ads/api/creative_preview.php?cid=6005485291765\np6301\nsVid\np6302\nV6005485291765\np6303\nsVimage_url\np6304\nVhttps://fbcdn-creative-a.akamaihd.net/hads-ak-prn1/s110x80/708180_6006844854765_13289_n.jpg\np6305\nsVcount_current_adgroups\np6306\nI1\nsVrun_status\np6307\nI1\nsVtype\np6308\nI1\nsVlink_url\np6309\nVhttp://www.buzzfeed.com/h1/fbad/mycatfromhell/the-definitive-collection-of-crazy-cat-gifs-6msy\np6310\nsVview_tag\np6311\ng21\nsa(dp6312\nValt_view_tags\np6313\n(lp6314\nsVbody\np6315\nV"Cat Photos Taken At Just The Right Moment" - See the entire collection on BuzzFeed!\np6316\nsVimage_hash\np6317\nVfc8e63e82a3580291a92620bce319d49\np6318\nsVname\np6319\nVAwesome Cat Photos!-00\np6320\nsVtitle\np6321\nVAwesome Cat Photos!\np6322\nsVcreative_id\np6323\nV6005483501365\np6324\nsVpreview_url\np6325\nVhttp://www.facebook.com/ads/api/creative_preview.php?cid=6005483501365\np6326\nsVid\np6327\nV6005483501365\np6328\nsVimage_url\np6329\nVhttps://fbcdn-creative-a.akamaihd.net/hads-ak-ash3/s110x80/708187_6006845584'
p6
sS'hash'
p7
S'b04e82362d7e2efb1f5747f69422cdb7dd2f4ca6'
p8
sS'stack'
p9
S''
s.