(dp1
S'args'
p2
S''
sS'methodname'
p3
S''
sS'packet_num'
p4
I95
sS'returnval'
p5
S'er\'s pregnancy? Find out answers and more in "Justin Bieber\'s One Time" By Slate!\np12160\nsVimage_hash\np12161\nV2d30e948591b13d6b8757049790032e6\np12162\nsVname\np12163\nVIs Justin Bieber A Dad?\np12164\nsVtitle\np12165\nVIs Justin Bieber A Dad?\np12166\nsVcreative_id\np12167\nV6003983582165\np12168\nsVpreview_url\np12169\nVhttp://www.facebook.com/ads/api/creative_preview.php?cid=6003983582165\np12170\nsVid\np12171\nV6003983582165\np12172\nsVimage_url\np12173\nVhttps://fbcdn-creative-a.akamaihd.net/hads-ak-ash3/s110x80/708194_6006844324765_2131_n.jpg\np12174\nsVcount_current_adgroups\np12175\nI0\nsVrun_status\np12176\nI1\nsVtype\np12177\nI1\nsVlink_url\np12178\nVhttp://www.slate.com/articles/news_and_politics/explainer/2011/11/justin_bieber_paternity_suit_are_virgins_more_fertile_than_other.html#bfsrc=HFBA2\np12179\nsVview_tag\np12180\ng21\nsa(dp12181\nValt_view_tags\np12182\n(lp12183\nsVbody\np12184\nVFried chicken places are starting to use  "Obama" in their marketing.  Check out "Culinary Racism" by Slate to get the whole story!\np12185\nsVimage_hash\np12186\nV1d091e553dd41979988502e081d60c13\np12187\nsVname\np12188\nVObama Fried Chicken?\np12189\nsVtitle\np12190\nVObama Fried Chicken?\np12191\nsVcreative_id\np12192\nV6003983596165\np12193\nsVpreview_url\np12194\nVhttp://www.facebook.com/ads/api/creative_preview.php?cid=6003983596165\np12195\nsVid\np12196\nV6003983596165\np12197\nsVimage_url\np12198\nVhttps://fbcdn-creative-a.akamaihd.net/hads-ak-prn1/s110x80/701889_6006844231365_51551_n.jpg\np12199\nsVcount_current_adgroups\np12200\nI0\nsVrun_status\np12201\nI1\nsVtype\np12202\nI1\nsVlink_url\np12203\nVhttp://www.slate.com/articles/health_and_science/science/2011/11/obama_fried_chicken_incident_explaining_racist_food_stereotypes.html#bfsrc=HFBA2\np12204\nsVview_tag\np12205\ng21\nsa(dp12206\nValt_view_tags\np12207\n(lp12208\nsVbody\np12209\nVCheck out this funny video: "Harold & Kumar\'s Yuletide Jamz" and remember to "Like" our page for more great stuff.\np12210\nsVimage_hash\np12211\nVa2e2c31330c32d72209ee473ba38a82f\np12212\nsVname\np12213\nVBuzzFeed Partner-2011-11-04-ddab3fb84bc7350c025131adfccf9579\np12214\nsVtitle\np12215\ng21\nsVcreative_id\np12216\nV6003983497765\np12217\nsVpreview_url\np12218\nVhttp://www.facebook.com/ads/api/creative_preview.php?cid=6003983497765\np12219\nsVobject_id\np12220\nI238205562866018\nsVid\np12221\nV6003983497765\np12222\nsVimage_url\np12223\nVhttps://fbcdn-creative-a.akamaihd.net/hads-ak-ash3/s110x80/701898_6006845026165_51459_n.jpg\np12224\nsVcount_current_adgroups\np12225\nI1\nsVrun_status\np12226\nI1\nsVtype\np12227\nI2\nsVlink_url\np12228\nVhttp://www.facebook.com/BuzzFeedPartner?sk=wall\np12229\nsVview_tag\np12230\ng21\nsa(dp12231\nValt_view_tags\np12232\n(lp12233\nsVbody\np12234\nVCheck out Streeter and Amir make their friends suffer in BuzzFeed\'s "The Best Of College Humor\'s Prank War" by Harold and Kumar!\np12235\nsVimage_hash\np12236\nV3c29cafc28d241683ce283f2c405af74\np12237\nsVname\np12238\nVBest Of College Pranks!\np12239\nsVtitle\np12240\nVBest Of College Pranks!\np12241\nsVcreative_id\np12242\nV6003977382765\np12243\nsVpreview_url\np12244\nVhttp://www.facebook.com/ads/api/creative_preview.php?cid=6003977382765\np12245\nsVid\np12246\nV6003977382765\np12247\nsVimage_url\np12248\nVhttps://fbcdn-creative-a.akamaihd.net/hads-ak-prn1/s110x80/701890_6006844403965_52852_n.jpg\np12249\nsVcount_current_adgroups\np12250\nI0\nsVrun_status\np12251\nI1\nsVtype\np12252\nI1\nsVlink_url\np12253\nVhttp://www.buzzfeed.com/h1/fba/haroldandkumar/the-best-of-college-humors-prank-war-3ylb\np12254\nsVview_tag\np12255\ng21\nsa(dp12256\nValt_view_tags\np12257\n(lp12258\nsVbody\np12259\nVIf you want a good laugh and reality check, check out "The 10 Most Obscene Credit Card Purchases" by BuzzFeed and FreeCreditScore.com!\np12260\nsVimage_hash\np12261\nV3bec188e73f1df8787cead18b02c47ce\np12262\nsVname\np12263\nVCrazy Credit Card Charges\np12264\nsVtitle\np12265\nVCrazy Credit Card Charges\np12266\nsVcreative_id\np12267\nV6003974689765\np12268\nsVpreview_url\np12269\nVhttp://www.facebook.com/ads/api/creative_preview.php?cid=6003974689765\np12270\nsVid\np12271\nV6003974689765\np12272\nsVimage_url\np12273\nVhttps://fbcdn-creative-a.akamaihd.net/hads-ak-ash3/s110x80/701890_6006844402965_27828_n.jpg\np12274\nsVcount_current_adgroups\np'
p6
sS'hash'
p7
S'b04e82362d7e2efb1f5747f69422cdb7dd2f4ca6'
p8
sS'stack'
p9
S''
s.