(dp1
S'args'
p2
S''
sS'methodname'
p3
S''
sS'packet_num'
p4
I86
sS'returnval'
p5
S'ew_url\np11094\nVhttp://www.facebook.com/ads/api/creative_preview.php?cid=6004059973565\np11095\nsVid\np11096\nV6004059973565\np11097\nsVimage_url\np11098\nVhttps://fbcdn-creative-a.akamaihd.net/hads-ak-prn1/s110x80/708157_6006845414365_56193_n.jpg\np11099\nsVcount_current_adgroups\np11100\nI1\nsVrun_status\np11101\nI1\nsVtype\np11102\nI1\nsVlink_url\np11103\nVhttp://www.buzzfeed.com/h1/fba/wouldyourather/things-youll-only-see-american-celebs-do-on-briti\np11104\nsVview_tag\np11105\ng21\nsa(dp11106\nValt_view_tags\np11107\n(lp11108\nsVbody\np11109\nVCheck out these clips of Lady Gaga and other stars doing crazy things in "15 Things You\'ll Only See American Celebs Do On British TV"\np11110\nsVimage_hash\np11111\nVbddcdc310f5b1c50416be3ffc56936b3\np11112\nsVname\np11113\nVAmericans on British TV-00\np11114\nsVtitle\np11115\nVAmericans on British TV\np11116\nsVcreative_id\np11117\nV6004059962765\np11118\nsVpreview_url\np11119\nVhttp://www.facebook.com/ads/api/creative_preview.php?cid=6004059962765\np11120\nsVid\np11121\nV6004059962765\np11122\nsVimage_url\np11123\nVhttps://fbcdn-creative-a.akamaihd.net/hads-ak-ash3/s110x80/708178_6006845192165_44947_n.jpg\np11124\nsVcount_current_adgroups\np11125\nI1\nsVrun_status\np11126\nI1\nsVtype\np11127\nI1\nsVlink_url\np11128\nVhttp://www.buzzfeed.com/h1/fba/wouldyourather/things-youll-only-see-american-celebs-do-on-briti\np11129\nsVview_tag\np11130\ng21\nsa(dp11131\nValt_view_tags\np11132\n(lp11133\nsVbody\np11134\nVCheck out these clips of Rihanna and other celebs doing crazy things in "15 Things You\'ll Only See American Celebs Do On British TV"\np11135\nsVimage_hash\np11136\nV0208606cba3877e38dae5379b4d764e9\np11137\nsVname\np11138\nVAmericans on British TV-05\np11139\nsVtitle\np11140\nVAmericans on British TV\np11141\nsVcreative_id\np11142\nV6004060035165\np11143\nsVpreview_url\np11144\nVhttp://www.facebook.com/ads/api/creative_preview.php?cid=6004060035165\np11145\nsVid\np11146\nV6004060035165\np11147\nsVimage_url\np11148\nVhttps://fbcdn-creative-a.akamaihd.net/hads-ak-ash3/s110x80/708174_6006844059365_4427_n.jpg\np11149\nsVcount_current_adgroups\np11150\nI1\nsVrun_status\np11151\nI1\nsVtype\np11152\nI1\nsVlink_url\np11153\nVhttp://www.buzzfeed.com/h1/fba/wouldyourather/things-youll-only-see-american-celebs-do-on-briti\np11154\nsVview_tag\np11155\ng21\nsa(dp11156\nValt_view_tags\np11157\n(lp11158\nsVbody\np11159\nVIf your interested in British Panel Shows but don\'t know where to start, check out "An American\'s Guide To British Panel Shows" by BBC!\np11160\nsVimage_hash\np11161\nVb1a04a8061fd877e114691c4c5ce73da\np11162\nsVname\np11163\nVBritish Panel Show Guide!\np11164\nsVtitle\np11165\nVBritish Panel Show Guide!\np11166\nsVcreative_id\np11167\nV6004048926965\np11168\nsVpreview_url\np11169\nVhttp://www.facebook.com/ads/api/creative_preview.php?cid=6004048926965\np11170\nsVid\np11171\nV6004048926965\np11172\nsVimage_url\np11173\nVhttps://fbcdn-creative-a.akamaihd.net/hads-ak-ash3/s110x80/701894_6006845121165_48666_n.jpg\np11174\nsVcount_current_adgroups\np11175\nI1\nsVrun_status\np11176\nI1\nsVtype\np11177\nI1\nsVlink_url\np11178\nVhttp://www.buzzfeed.com/h1/fba/wouldyourather/an-americans-guide-to-british-panel-shows\np11179\nsVview_tag\np11180\ng21\nsa(dp11181\nValt_view_tags\np11182\n(lp11183\nsVbody\np11184\nVCheck out BBC\'s "15 Outrageously Amazing Graham Norton Moments" and see Graham Norton prank Russell Brand and many other celebrities.\np11185\nsVimage_hash\np11186\nV1c85a7c5a5d83065b8148a4d74ce58b8\np11187\nsVname\np11188\nVGraham Norton Moments\np11189\nsVtitle\np11190\nVGraham Norton Moments\np11191\nsVcreative_id\np11192\nV6004077571165\np11193\nsVpreview_url\np11194\nVhttp://www.facebook.com/ads/api/creative_preview.php?cid=6004077571165\np11195\nsVid\np11196\nV6004077571165\np11197\nsVimage_url\np11198\nVhttps://fbcdn-creative-a.akamaihd.net/hads-ak-ash3/s110x80/701889_6006844229365_47394_n.jpg\np11199\nsVcount_current_adgroups\np11200\nI1\nsVrun_status\np11201\nI1\nsVtype\np11202\nI1\nsVlink_url\np11203\nVhttp://www.buzzfeed.com/h1/fba/wouldyourather/15-outrageously-amazing-graham-norton-moments\np11204\nsVview_tag\np11205\ng21\nsa(dp11206\nValt_view_tags\np11207\n(lp11208\nsVbody\np11209\nVCheck out BBC\'s "15 Outrageously Amazing Graham Norton Moments" and see Graham Norton prank Britney Spears and m'
p6
sS'hash'
p7
S'b04e82362d7e2efb1f5747f69422cdb7dd2f4ca6'
p8
sS'stack'
p9
S''
s.