(dp1
S'args'
p2
S''
sS'methodname'
p3
S''
sS'packet_num'
p4
I85
sS'returnval'
p5
S't_adgroups\np10975\nI1\nsVrun_status\np10976\nI1\nsVtype\np10977\nI1\nsVlink_url\np10978\nVhttp://www.buzzfeed.com/h1/fba/sailorjerryrum/top-50-hottest-vintage-pin-ups-3bh6\np10979\nsVview_tag\np10980\ng21\nsa(dp10981\nValt_view_tags\np10982\n(lp10983\nsVbody\np10984\nVCheck out BuzzFeed\'s collection of "10 Website Makeovers That Will Blow Your Mind" .  See how they have transformed over the years.\np10985\nsVimage_hash\np10986\nVa416b2b5b01705d21a74f4609fe4d8c2\np10987\nsVname\np10988\nVBrand New Site Makeovers!-03\np10989\nsVtitle\np10990\nVBrand New Site Makeovers!\np10991\nsVcreative_id\np10992\nV6004077133965\np10993\nsVpreview_url\np10994\nVhttp://www.facebook.com/ads/api/creative_preview.php?cid=6004077133965\np10995\nsVid\np10996\nV6004077133965\np10997\nsVimage_url\np10998\nVhttps://fbcdn-creative-a.akamaihd.net/hads-ak-ash3/s110x80/708199_6006845034965_64361_n.jpg\np10999\nsVcount_current_adgroups\np11000\nI1\nsVrun_status\np11001\nI1\nsVtype\np11002\nI1\nsVlink_url\np11003\nVhttp://www.buzzfeed.com/h1/fba/microsofthotmail/10-website-makeovers-that-will-blow-your-mind-4iv0\np11004\nsVview_tag\np11005\ng21\nsa(dp11006\nValt_view_tags\np11007\n(lp11008\nsVbody\np11009\nVCheck out BuzzFeed\'s collection of "10 Website Makeovers That Will Blow Your Mind" .  See how they have transformed over the years.\np11010\nsVimage_hash\np11011\nV92fffe3b98f916fa3d1dc6a071011891\np11012\nsVname\np11013\nVBrand New Site Makeovers!-02\np11014\nsVtitle\np11015\nVBrand New Site Makeovers!\np11016\nsVcreative_id\np11017\nV6004077133165\np11018\nsVpreview_url\np11019\nVhttp://www.facebook.com/ads/api/creative_preview.php?cid=6004077133165\np11020\nsVid\np11021\nV6004077133165\np11022\nsVimage_url\np11023\nVhttps://fbcdn-creative-a.akamaihd.net/hads-ak-prn1/s110x80/708176_6006844926965_65203_n.jpg\np11024\nsVcount_current_adgroups\np11025\nI1\nsVrun_status\np11026\nI1\nsVtype\np11027\nI1\nsVlink_url\np11028\nVhttp://www.buzzfeed.com/h1/fba/microsofthotmail/10-website-makeovers-that-will-blow-your-mind-4iv0\np11029\nsVview_tag\np11030\ng21\nsa(dp11031\nValt_view_tags\np11032\n(lp11033\nsVbody\np11034\nVCheck out BuzzFeed\'s collection of "10 Website Makeovers That Will Blow Your Mind" .  See how they have transformed over the years.\np11035\nsVimage_hash\np11036\nVf807713f20590e86f4021f5bd27f07b6\np11037\nsVname\np11038\nVBrand New Site Makeovers!-05\np11039\nsVtitle\np11040\nVBrand New Site Makeovers!\np11041\nsVcreative_id\np11042\nV6004077257565\np11043\nsVpreview_url\np11044\nVhttp://www.facebook.com/ads/api/creative_preview.php?cid=6004077257565\np11045\nsVid\np11046\nV6004077257565\np11047\nsVimage_url\np11048\nVhttps://fbcdn-creative-a.akamaihd.net/hads-ak-prn1/s110x80/708162_6006845551765_26446_n.jpg\np11049\nsVcount_current_adgroups\np11050\nI1\nsVrun_status\np11051\nI1\nsVtype\np11052\nI1\nsVlink_url\np11053\nVhttp://www.buzzfeed.com/h1/fba/microsofthotmail/10-website-makeovers-that-will-blow-your-mind-4iv0\np11054\nsVview_tag\np11055\ng21\nsa(dp11056\nValt_view_tags\np11057\n(lp11058\nsVbody\np11059\nVCheck out BuzzFeed\'s collection of "10 Website Makeovers That Will Blow Your Mind" .  See how they have transformed over the years.\np11060\nsVimage_hash\np11061\nV6d1a1c1dcfb9f6aa95d864c89cc03e41\np11062\nsVname\np11063\nVBrand New Site Makeovers!-04\np11064\nsVtitle\np11065\nVBrand New Site Makeovers!\np11066\nsVcreative_id\np11067\nV6004077250165\np11068\nsVpreview_url\np11069\nVhttp://www.facebook.com/ads/api/creative_preview.php?cid=6004077250165\np11070\nsVid\np11071\nV6004077250165\np11072\nsVimage_url\np11073\nVhttps://fbcdn-creative-a.akamaihd.net/hads-ak-ash3/s110x80/701901_6006844712565_63438_n.jpg\np11074\nsVcount_current_adgroups\np11075\nI1\nsVrun_status\np11076\nI1\nsVtype\np11077\nI1\nsVlink_url\np11078\nVhttp://www.buzzfeed.com/h1/fba/microsofthotmail/10-website-makeovers-that-will-blow-your-mind-4iv0\np11079\nsVview_tag\np11080\ng21\nsa(dp11081\nValt_view_tags\np11082\n(lp11083\nsVbody\np11084\nVCheck out these clips of Bradley Cooper and others doing crazy things in "15 Things You\'ll Only See American Celebs Do On British TV"\np11085\nsVimage_hash\np11086\nVe2909c529bb2f587186d86adf168586f\np11087\nsVname\np11088\nVAmericans on British TV-02\np11089\nsVtitle\np11090\nVAmericans on British TV\np11091\nsVcreative_id\np11092\nV6004059973565\np11093\nsVprevi'
p6
sS'hash'
p7
S'b04e82362d7e2efb1f5747f69422cdb7dd2f4ca6'
p8
sS'stack'
p9
S''
s.