(dp1
S'args'
p2
S''
sS'methodname'
p3
S''
sS'packet_num'
p4
I132
sS'returnval'
p5
S'26266\n(dp26267\nV1\np26268\nV100\np26269\nssVstart_time\np26270\nNsVad_status\np26271\nI2\nsVcampaign_id\np26272\nI6005297505365\nsVlocations\np26273\n(lp26274\nI3\nasVcreated_time\np26275\nV2012-06-12T16:26:36+0000\np26276\nsVend_time\np26277\nNsVadgroup_status\np26278\nI8\nsVid\np26279\nV6005297507965\np26280\nsVad_id\np26281\nI6005297507965\nsVimpression_control_map\np26282\n(lp26283\n(dp26284\nVcontrol\np26285\n(dp26286\nVuser_impression_limit_period\np26287\nI24\nsVuser_impression_limit\np26288\nI6\nsVuser_impression_limit_period_unit\np26289\nI0\nsVimpression_control_type\np26290\nI2\nssVlocation\np26291\nI3\nsasVcreative_ids\np26292\n(lp26293\nI6005297506965\nasVmax_bid\np26294\nV100\np26295\nsVadgroup_id\np26296\nI6005297507965\nsVaccount_id\np26297\nI40156177\nsa(dp26298\nVbid_info\np26299\n(dp26300\nV1\np26301\nV65\np26302\nssVcampaign_id\np26303\nI6005297551365\nsVcreated_time\np26304\nV2012-06-12T16:37:29+0000\np26305\nsVconversion_specs\np26306\n(lp26307\nsVadgroup_id\np26308\nI6005297552365\nsVtargeting\np26309\n(dp26310\nVage_max\np26311\nI65\nsVcountries\np26312\n(lp26313\nVUS\np26314\nasVbroad_age\np26315\nI1\nsVage_min\np26316\nI13\nsVkeywords\np26317\n(lp26318\nV#Barbie\np26319\naVskinnygirl margarita by bethenny frankel\np26320\naVamerican girl dolls\np26321\naV#The Real Housewives of New Jersey\np26322\naV#American Girl\np26323\naV#Doll\np26324\naV#The Real Housewives of Atlanta\np26325\naV#The Real Housewives of Orange County\np26326\naVreal housewives new jersey\np26327\naV#Toy Dolls\np26328\naV#BabyCenter\np26329\naV#The Real Housewives of New York City\np26330\naV#Babysitting\np26331\naV#Babies\np26332\naV#Parents (magazine)\np26333\naV#BabyTV\np26334\nasVgenders\np26335\n(lp26336\nI2\nassVid\np26337\nV6005297552365\np26338\nsVmax_bid\np26339\nV65\np26340\nsVdisapprove_reason_descriptions\np26341\n(lp26342\nVThe image included in your ad or Sponsored Story violates Facebook&#039;s Advertising Guidelines. Before resubmitting it, please visit our Help Center (http://www.facebook.com/help/?page=250509391644213) for additional information and examples compliant with our Advertising Guidelines.\np26343\nasVad_id\np26344\nI6005297552365\nsVaccount_id\np26345\nI40156177\nsVstart_time\np26346\nNsVlocations\np26347\n(lp26348\nI3\nasVadgroup_status\np26349\nI5\nsVad_status\np26350\nI5\nsVimpression_control_map\np26351\n(lp26352\n(dp26353\nVcontrol\np26354\n(dp26355\nVuser_impression_limit_period\np26356\nI24\nsVuser_impression_limit\np26357\nI3\nsVuser_impression_limit_period_unit\np26358\nI0\nsVimpression_control_type\np26359\nI2\nssVlocation\np26360\nI3\nsasVcreative_ids\np26361\n(lp26362\nI6005297551965\nasVtracking_pixel_ids\np26363\n(lp26364\nsVbid_type\np26365\nI1\nsVname\np26366\nVReal Baby or Doll?\np26367\nsVupdated_time\np26368\nV2012-06-25T16:55:59+0000\np26369\nsVend_time\np26370\nV2012-06-26T03:00:00+0000\np26371\nsa(dp26372\nVconversion_specs\np26373\n(lp26374\nsVupdated_time\np26375\nV2012-09-21T20:07:52+0000\np26376\nsVbid_type\np26377\nI1\nsVname\np26378\nVAddicted to Heavy Metal?\np26379\nsVtracking_pixel_ids\np26380\n(lp26381\nsVtargeting\np26382\n(dp26383\nVkeywords\np26384\n(lp26385\nV#Heavy metal subculture\np26386\naV#Lifetime (TV network)\np26387\naV#Heavy Metal (film)\np26388\naV#Rock music\np26389\naV#Heavy metal music\np26390\naV#Taboo\np26391\nasVage_max\np26392\nI65\nsVcountries\np26393\n(lp26394\nVUS\np26395\nasVbroad_age\np26396\nI1\nsVage_min\np26397\nI13\nssVbid_info\np26398\n(dp26399\nV1\np26400\nV75\np26401\nssVstart_time\np26402\nNsVad_status\np26403\nI2\nsVcampaign_id\np26404\nI6005297551365\nsVlocations\np26405\n(lp26406\nI3\nasVcreated_time\np26407\nV2012-06-22T14:43:33+0000\np26408\nsVend_time\np26409\nV2012-06-26T03:00:00+0000\np26410\nsVadgroup_status\np26411\nI8\nsVid\np26412\nV6005359001165\np26413\nsVad_id\np26414\nI6005359001165\nsVimpression_control_map\np26415\n(lp26416\n(dp26417\nVcontrol\np26418\n(dp26419\nVuser_impression_limit_period\np26420\nI24\nsVuser_impression_limit\np26421\nI6\nsVuser_impression_limit_period_unit\np26422\nI0\nsVimpression_control_type\np26423\nI2\nssVlocation\np26424\nI3\nsasVcreative_ids\np26425\n(lp26426\nI6005359000765\nasVmax_bid\np26427\nV75\np26428\nsVadgroup_id\np26429\nI6005359001165\nsVaccount_id\np26430\nI40156177\nsa(dp26431\nVconversion_specs\np26432\n(lp26433\nsVupdated_time\np26434\nV2012-06-25T16:55:59+0000\np26435\nsVbid_type\np26436\nI1\nsVname\np26437\nVMan Drinks '
p6
sS'hash'
p7
S'b60868847bccf4cb12efa650741a1cd20cc3ec13'
p8
sS'stack'
p9
S''
s.