(dp1
S'args'
p2
S''
sS'methodname'
p3
S''
sS'packet_num'
p4
I78
sS'returnval'
p5
S"mpaign_id\np15853\nI6005167347765\nsVlocations\np15854\n(lp15855\nI3\nasVcreated_time\np15856\nV2012-05-17T21:23:38+0000\np15857\nsVend_time\np15858\nNsVadgroup_status\np15859\nI8\nsVid\np15860\nV6005167348765\np15861\nsVad_id\np15862\nI6005167348765\nsVimpression_control_map\np15863\n(lp15864\n(dp15865\nVcontrol\np15866\n(dp15867\nVuser_impression_limit_period\np15868\nI24\nsVuser_impression_limit\np15869\nI6\nsVuser_impression_limit_period_unit\np15870\nI0\nsVimpression_control_type\np15871\nI2\nssVlocation\np15872\nI3\nsasVcreative_ids\np15873\n(lp15874\nI6005167348365\nasVmax_bid\np15875\nV60\np15876\nsVadgroup_id\np15877\nI6005167348765\nsVaccount_id\np15878\nI40156177\nsa(dp15879\nVconversion_specs\np15880\n(lp15881\nsVupdated_time\np15882\nV2012-09-21T20:04:41+0000\np15883\nsVbid_type\np15884\nI1\nsVname\np15885\nVDid you know?\np15886\nsVtracking_pixel_ids\np15887\n(lp15888\nsVtargeting\np15889\n(dp15890\nVage_max\np15891\nI65\nsVcountries\np15892\n(lp15893\nVUS\np15894\nasVbroad_age\np15895\nI1\nsVage_min\np15896\nI15\nssVbid_info\np15897\n(dp15898\nV1\np15899\nV63\np15900\nssVstart_time\np15901\nNsVad_status\np15902\nI2\nsVcampaign_id\np15903\nI6005167355165\nsVlocations\np15904\n(lp15905\nI3\nasVcreated_time\np15906\nV2012-05-17T21:28:05+0000\np15907\nsVend_time\np15908\nNsVadgroup_status\np15909\nI8\nsVid\np15910\nV6005167355965\np15911\nsVad_id\np15912\nI6005167355965\nsVimpression_control_map\np15913\n(lp15914\n(dp15915\nVcontrol\np15916\n(dp15917\nVuser_impression_limit_period\np15918\nI24\nsVuser_impression_limit\np15919\nI6\nsVuser_impression_limit_period_unit\np15920\nI0\nsVimpression_control_type\np15921\nI2\nssVlocation\np15922\nI3\nsasVcreative_ids\np15923\n(lp15924\nI6005155462765\nasVmax_bid\np15925\nV63\np15926\nsVadgroup_id\np15927\nI6005167355965\nsVaccount_id\np15928\nI40156177\nsa(dp15929\nVconversion_specs\np15930\n(lp15931\nsVupdated_time\np15932\nV2012-09-21T20:04:43+0000\np15933\nsVbid_type\np15934\nI1\nsVname\np15935\nVCheck Out This Sloth!\np15936\nsVtracking_pixel_ids\np15937\n(lp15938\nsVtargeting\np15939\n(dp15940\nVage_max\np15941\nI65\nsVcountries\np15942\n(lp15943\nVUS\np15944\nasVbroad_age\np15945\nI1\nsVage_min\np15946\nI13\nssVbid_info\np15947\n(dp15948\nV1\np15949\nV65\np15950\nssVstart_time\np15951\nNsVad_status\np15952\nI2\nsVcampaign_id\np15953\nI6005168584165\nsVlocations\np15954\n(lp15955\nI3\nasVcreated_time\np15956\nV2012-05-18T03:18:32+0000\np15957\nsVend_time\np15958\nV2012-05-19T13:14:00+0000\np15959\nsVadgroup_status\np15960\nI8\nsVid\np15961\nV6005168585165\np15962\nsVad_id\np15963\nI6005168585165\nsVimpression_control_map\np15964\n(lp15965\n(dp15966\nVcontrol\np15967\n(dp15968\nVuser_impression_limit_period\np15969\nI24\nsVuser_impression_limit\np15970\nI6\nsVuser_impression_limit_period_unit\np15971\nI0\nsVimpression_control_type\np15972\nI2\nssVlocation\np15973\nI3\nsasVcreative_ids\np15974\n(lp15975\nI6005168584765\nasVmax_bid\np15976\nV65\np15977\nsVadgroup_id\np15978\nI6005168585165\nsVaccount_id\np15979\nI40156177\nsa(dp15980\nVconversion_specs\np15981\n(lp15982\nsVupdated_time\np15983\nV2012-09-21T20:04:43+0000\np15984\nsVbid_type\np15985\nI1\nsVname\np15986\nVWho Doesn't Love Kittens?\np15987\nsVtracking_pixel_ids\np15988\n(lp15989\nsVtargeting\np15990\n(dp15991\nVage_max\np15992\nI65\nsVcountries\np15993\n(lp15994\nVUS\np15995\nasVbroad_age\np15996\nI1\nsVage_min\np15997\nI13\nssVbid_info\np15998\n(dp15999\nV1\np16000\nV65\np16001\nssVstart_time\np16002\nNsVad_status\np16003\nI2\nsVcampaign_id\np16004\nI6005168584165\nsVlocations\np16005\n(lp16006\nI3\nasVcreated_time\np16007\nV2012-05-18T03:23:13+0000\np16008\nsVend_time\np16009\nV2012-05-19T13:14:00+0000\np16010\nsVadgroup_status\np16011\nI8\nsVid\np16012\nV6005168591565\np16013\nsVad_id\np16014\nI6005168591565\nsVimpression_control_map\np16015\n(lp16016\n(dp16017\nVcontrol\np16018\n(dp16019\nVuser_impression_limit_period\np16020\nI24\nsVuser_impression_limit\np16021\nI6\nsVuser_impression_limit_period_unit\np16022\nI0\nsVimpression_control_type\np16023\nI2\nssVlocation\np16024\nI3\nsasVcreative_ids\np16025\n(lp16026\nI6005168591165\nasVmax_bid\np16027\nV65\np16028\nsVadgroup_id\np16029\nI6005168591565\nsVaccount_id\np16030\nI40156177\nsa(dp16031\nVconversion_specs\np16032\n(lp16033\nsVupdated_time\np16034\nV2012-09-21T20:04:44+0000\np16035\nsVbid_type\np16036\nI1\nsVname\np16037\nVGuess MIA's Major?\np16038\nsVtracking_pixel_ids\np16039\n(lp16040\nsVtargeting\np16041\n(dp16042\nVkeywords\np16043\n(l"
p6
sS'hash'
p7
S'b60868847bccf4cb12efa650741a1cd20cc3ec13'
p8
sS'stack'
p9
S''
s.