(dp1
S'args'
p2
S''
sS'methodname'
p3
S''
sS'packet_num'
p4
I28
sS'returnval'
p5
S'\nVconversion_specs\np5761\n(lp5762\nsVupdated_time\np5763\nV2012-09-21T20:02:14+0000\np5764\nsVbid_type\np5765\nI1\nsVname\np5766\nVMilitary Dolphins\np5767\nsVtracking_pixel_ids\np5768\n(lp5769\nsVtargeting\np5770\n(dp5771\nVage_max\np5772\nI65\nsVcountries\np5773\n(lp5774\nVUS\np5775\nasVbroad_age\np5776\nI1\nsVage_min\np5777\nI18\nssVbid_info\np5778\n(dp5779\nV1\np5780\nV75\np5781\nssVstart_time\np5782\nNsVad_status\np5783\nI2\nsVcampaign_id\np5784\nI6004996000565\nsVlocations\np5785\n(lp5786\nI3\nasVcreated_time\np5787\nV2012-04-13T16:22:44+0000\np5788\nsVend_time\np5789\nV2012-04-21T06:00:00+0000\np5790\nsVadgroup_status\np5791\nI8\nsVid\np5792\nV6004996001565\np5793\nsVad_id\np5794\nI6004996001565\nsVimpression_control_map\np5795\n(lp5796\n(dp5797\nVcontrol\np5798\n(dp5799\nVuser_impression_limit_period\np5800\nI24\nsVuser_impression_limit\np5801\nI6\nsVuser_impression_limit_period_unit\np5802\nI0\nsVimpression_control_type\np5803\nI2\nssVlocation\np5804\nI3\nsasVcreative_ids\np5805\n(lp5806\nI6004996001165\nasVmax_bid\np5807\nV75\np5808\nsVadgroup_id\np5809\nI6004996001565\nsVaccount_id\np5810\nI40156177\nsa(dp5811\nVconversion_specs\np5812\n(lp5813\nsVupdated_time\np5814\nV2012-09-21T20:02:14+0000\np5815\nsVbid_type\np5816\nI1\nsVname\np5817\nVRescue Dogs\np5818\nsVtracking_pixel_ids\np5819\n(lp5820\nsVtargeting\np5821\n(dp5822\nVage_max\np5823\nI65\nsVcountries\np5824\n(lp5825\nVUS\np5826\nasVbroad_age\np5827\nI1\nsVage_min\np5828\nI18\nssVbid_info\np5829\n(dp5830\nV1\np5831\nV75\np5832\nssVstart_time\np5833\nNsVad_status\np5834\nI2\nsVcampaign_id\np5835\nI6004996000565\nsVlocations\np5836\n(lp5837\nI3\nasVcreated_time\np5838\nV2012-04-13T16:23:17+0000\np5839\nsVend_time\np5840\nV2012-04-21T06:00:00+0000\np5841\nsVadgroup_status\np5842\nI8\nsVid\np5843\nV6004996003765\np5844\nsVad_id\np5845\nI6004996003765\nsVimpression_control_map\np5846\n(lp5847\n(dp5848\nVcontrol\np5849\n(dp5850\nVuser_impression_limit_period\np5851\nI24\nsVuser_impression_limit\np5852\nI6\nsVuser_impression_limit_period_unit\np5853\nI0\nsVimpression_control_type\np5854\nI2\nssVlocation\np5855\nI3\nsasVcreative_ids\np5856\n(lp5857\nI6004996003365\nasVmax_bid\np5858\nV75\np5859\nsVadgroup_id\np5860\nI6004996003765\nsVaccount_id\np5861\nI40156177\nsa(dp5862\nVconversion_specs\np5863\n(lp5864\nsVupdated_time\np5865\nV2012-09-21T20:02:16+0000\np5866\nsVbid_type\np5867\nI1\nsVname\np5868\nVFavorite Party Decade?\np5869\nsVtracking_pixel_ids\np5870\n(lp5871\nsVtargeting\np5872\n(dp5873\nVage_max\np5874\nI65\nsVcountries\np5875\n(lp5876\nVUS\np5877\nasVbroad_age\np5878\nI1\nsVage_min\np5879\nI18\nssVbid_info\np5880\n(dp5881\nV1\np5882\nV70\np5883\nssVstart_time\np5884\nNsVad_status\np5885\nI2\nsVcampaign_id\np5886\nI6004996422765\nsVlocations\np5887\n(lp5888\nI3\nasVcreated_time\np5889\nV2012-04-13T17:32:32+0000\np5890\nsVend_time\np5891\nV2012-04-20T06:00:00+0000\np5892\nsVadgroup_status\np5893\nI8\nsVid\np5894\nV6004996423765\np5895\nsVad_id\np5896\nI6004996423765\nsVimpression_control_map\np5897\n(lp5898\n(dp5899\nVcontrol\np5900\n(dp5901\nVuser_impression_limit_period\np5902\nI24\nsVuser_impression_limit\np5903\nI6\nsVuser_impression_limit_period_unit\np5904\nI0\nsVimpression_control_type\np5905\nI2\nssVlocation\np5906\nI3\nsasVcreative_ids\np5907\n(lp5908\nI6004996423365\nasVmax_bid\np5909\nV70\np5910\nsVadgroup_id\np5911\nI6004996423765\nsVaccount_id\np5912\nI40156177\nsa(dp5913\nVconversion_specs\np5914\n(lp5915\nsVupdated_time\np5916\nV2012-09-21T20:02:16+0000\np5917\nsVbid_type\np5918\nI1\nsVname\np5919\nVFavorite Party Decade? 1\np5920\nsVtracking_pixel_ids\np5921\n(lp5922\nsVtargeting\np5923\n(dp5924\nVage_max\np5925\nI65\nsVcountries\np5926\n(lp5927\nVUS\np5928\nasVbroad_age\np5929\nI1\nsVage_min\np5930\nI18\nssVbid_info\np5931\n(dp5932\nV1\np5933\nV70\np5934\nssVstart_time\np5935\nNsVad_status\np5936\nI2\nsVcampaign_id\np5937\nI6004996422765\nsVlocations\np5938\n(lp5939\nI3\nasVcreated_time\np5940\nV2012-04-13T17:32:59+0000\np5941\nsVend_time\np5942\nV2012-04-20T06:00:00+0000\np5943\nsVadgroup_status\np5944\nI8\nsVid\np5945\nV6004996425965\np5946\nsVad_id\np5947\nI6004996425965\nsVimpression_control_map\np5948\n(lp5949\n(dp5950\nVcontrol\np5951\n(dp5952\nVuser_impression_limit_period\np5953\nI24\nsVuser_impression_limit\np5954\nI6\nsVuser_impression_limit_period_unit\np5955\nI0\nsVimpression_control_type\np5956\nI2\nssVlocation\np5957\nI3\nsasVcreative_ids\np5958\n(lp5959\nI6004996425565\nasVmax_bid\np5960\nV70\np5961\nsVadgroup_id\np5962\nI6004996425965\n'
p6
sS'hash'
p7
S'b60868847bccf4cb12efa650741a1cd20cc3ec13'
p8
sS'stack'
p9
S''
s.