(dp1
S'args'
p2
S''
sS'methodname'
p3
S''
sS'packet_num'
p4
I66
sS'returnval'
p5
S'\nVWhere is Hurley now?\np13547\nsVtracking_pixel_ids\np13548\n(lp13549\nsVtargeting\np13550\n(dp13551\nVkeywords\np13552\n(lp13553\nV#Lost (TV series)\np13554\naV#Lost!\np13555\naV#Prison Break\np13556\naVlost\np13557\nasVage_max\np13558\nI65\nsVcountries\np13559\n(lp13560\nVUS\np13561\nasVbroad_age\np13562\nI1\nsVage_min\np13563\nI13\nssVbid_info\np13564\n(dp13565\nV1\np13566\nV50\np13567\nssVstart_time\np13568\nNsVad_status\np13569\nI2\nsVcampaign_id\np13570\nI6005136666565\nsVlocations\np13571\n(lp13572\nI3\nasVcreated_time\np13573\nV2012-05-09T16:43:04+0000\np13574\nsVend_time\np13575\nNsVadgroup_status\np13576\nI8\nsVid\np13577\nV6005136667565\np13578\nsVad_id\np13579\nI6005136667565\nsVimpression_control_map\np13580\n(lp13581\n(dp13582\nVcontrol\np13583\n(dp13584\nVuser_impression_limit_period\np13585\nI24\nsVuser_impression_limit\np13586\nI6\nsVuser_impression_limit_period_unit\np13587\nI0\nsVimpression_control_type\np13588\nI2\nssVlocation\np13589\nI3\nsasVcreative_ids\np13590\n(lp13591\nI6005136667165\nasVmax_bid\np13592\nV50\np13593\nsVadgroup_id\np13594\nI6005136667565\nsVaccount_id\np13595\nI40156177\nsa(dp13596\nVconversion_specs\np13597\n(lp13598\nsVupdated_time\np13599\nV2012-09-21T20:03:58+0000\np13600\nsVbid_type\np13601\nI1\nsVname\np13602\nVGreat Cop Quotes...\np13603\nsVtracking_pixel_ids\np13604\n(lp13605\nsVtargeting\np13606\n(dp13607\nVkeywords\np13608\n(lp13609\nV#Mel Gibson\np13610\naV#COPS (TV series)\np13611\naV#Lethal Weapon\np13612\naVcops\np13613\naV#Lethal Weapon 4\np13614\naVdie hard 4\np13615\naV#Die Hard with a Vengeance\np13616\naV#Die Hard 2\np13617\naV#Die Hard\np13618\naV#Lethal Weapon 2\np13619\naV#Police officer\np13620\naVleathal weapons\np13621\nasVage_max\np13622\nI65\nsVcountries\np13623\n(lp13624\nVUS\np13625\nasVbroad_age\np13626\nI1\nsVage_min\np13627\nI14\nssVbid_info\np13628\n(dp13629\nV1\np13630\nV55\np13631\nssVstart_time\np13632\nNsVad_status\np13633\nI2\nsVcampaign_id\np13634\nI6005136706165\nsVlocations\np13635\n(lp13636\nI3\nasVcreated_time\np13637\nV2012-05-09T17:01:21+0000\np13638\nsVend_time\np13639\nNsVadgroup_status\np13640\nI8\nsVid\np13641\nV6005136707165\np13642\nsVad_id\np13643\nI6005136707165\nsVimpression_control_map\np13644\n(lp13645\n(dp13646\nVcontrol\np13647\n(dp13648\nVuser_impression_limit_period\np13649\nI24\nsVuser_impression_limit\np13650\nI6\nsVuser_impression_limit_period_unit\np13651\nI0\nsVimpression_control_type\np13652\nI2\nssVlocation\np13653\nI3\nsasVcreative_ids\np13654\n(lp13655\nI6005136706765\nasVmax_bid\np13656\nV55\np13657\nsVadgroup_id\np13658\nI6005136707165\nsVaccount_id\np13659\nI40156177\nsa(dp13660\nVconversion_specs\np13661\n(lp13662\nsVupdated_time\np13663\nV2012-09-21T20:04:00+0000\np13664\nsVbid_type\np13665\nI1\nsVname\np13666\nVThe Great Barrier Reef\np13667\nsVtracking_pixel_ids\np13668\n(lp13669\nsVtargeting\np13670\n(dp13671\nVcountries\np13672\n(lp13673\nVUS\np13674\nasVgenders\np13675\n(lp13676\nI2\nasVage_min\np13677\nI13\nsVbroad_age\np13678\nI1\nsVage_max\np13679\nI65\nssVbid_info\np13680\n(dp13681\nV1\np13682\nV65\np13683\nssVstart_time\np13684\nNsVad_status\np13685\nI2\nsVcampaign_id\np13686\nI6005137668565\nsVlocations\np13687\n(lp13688\nI3\nasVcreated_time\np13689\nV2012-05-10T20:29:34+0000\np13690\nsVend_time\np13691\nNsVadgroup_status\np13692\nI8\nsVid\np13693\nV6005146564765\np13694\nsVad_id\np13695\nI6005146564765\nsVimpression_control_map\np13696\n(lp13697\n(dp13698\nVcontrol\np13699\n(dp13700\nVuser_impression_limit_period\np13701\nI24\nsVuser_impression_limit\np13702\nI6\nsVuser_impression_limit_period_unit\np13703\nI0\nsVimpression_control_type\np13704\nI2\nssVlocation\np13705\nI3\nsasVcreative_ids\np13706\n(lp13707\nI6005146564365\nasVmax_bid\np13708\nV65\np13709\nsVadgroup_id\np13710\nI6005146564765\nsVaccount_id\np13711\nI40156177\nsa(dp13712\nVconversion_specs\np13713\n(lp13714\nsVupdated_time\np13715\nV2012-09-21T20:04:00+0000\np13716\nsVbid_type\np13717\nI1\nsVname\np13718\nVThe Wisteria Tunnel\np13719\nsVtracking_pixel_ids\np13720\n(lp13721\nsVtargeting\np13722\n(dp13723\nVcountries\np13724\n(lp13725\nVUS\np13726\nasVgenders\np13727\n(lp13728\nI2\nasVage_min\np13729\nI13\nsVbroad_age\np13730\nI1\nsVage_max\np13731\nI65\nssVbid_info\np13732\n(dp13733\nV1\np13734\nV65\np13735\nssVstart_time\np13736\nNsVad_status\np13737\nI2\nsVcampaign_id\np13738\nI6005137668565\nsVlocations\np13739\n(lp13740\nI3\nasVcreated_time\np13741\nV2012-05-10T20:31:00+0000\np13742\nsVend_time\np13743\nNsVadgroup_status\np13744'
p6
sS'hash'
p7
S'b60868847bccf4cb12efa650741a1cd20cc3ec13'
p8
sS'stack'
p9
S''
s.