(dp1
S'args'
p2
S''
sS'methodname'
p3
S''
sS'packet_num'
p4
I149
sS'returnval'
p5
S"2\nsVcampaign_id\np29477\nI6005321713965\nsVlocations\np29478\n(lp29479\nI3\nasVcreated_time\np29480\nV2012-06-18T14:42:18+0000\np29481\nsVend_time\np29482\nV2012-07-01T03:00:00+0000\np29483\nsVadgroup_status\np29484\nI8\nsVid\np29485\nV6005321714965\np29486\nsVad_id\np29487\nI6005321714965\nsVimpression_control_map\np29488\n(lp29489\n(dp29490\nVcontrol\np29491\n(dp29492\nVuser_impression_limit_period\np29493\nI24\nsVuser_impression_limit\np29494\nI6\nsVuser_impression_limit_period_unit\np29495\nI0\nsVimpression_control_type\np29496\nI2\nssVlocation\np29497\nI3\nsasVcreative_ids\np29498\n(lp29499\nI6005321714565\nasVmax_bid\np29500\nV86\np29501\nsVadgroup_id\np29502\nI6005321714965\nsVaccount_id\np29503\nI40156177\nsa(dp29504\nVconversion_specs\np29505\n(lp29506\nsVupdated_time\np29507\nV2012-06-26T20:35:39+0000\np29508\nsVbid_type\np29509\nI1\nsVname\np29510\nVT-Rex Skeleton - $1 Mil!\np29511\nsVtracking_pixel_ids\np29512\n(lp29513\nsVtargeting\np29514\n(dp29515\nVregions\np29516\n(lp29517\n(dp29518\nVid\np29519\nV53\np29520\nsVname\np29521\nVWashington\np29522\nsasVage_max\np29523\nI65\nsVcountries\np29524\n(lp29525\nVUS\np29526\nasVbroad_age\np29527\nI1\nsVage_min\np29528\nI13\nssVbid_info\np29529\n(dp29530\nV1\np29531\nV86\np29532\nssVstart_time\np29533\nNsVad_status\np29534\nI2\nsVcampaign_id\np29535\nI6005321713965\nsVlocations\np29536\n(lp29537\nI3\nasVcreated_time\np29538\nV2012-06-18T14:47:50+0000\np29539\nsVend_time\np29540\nV2012-07-01T03:00:00+0000\np29541\nsVadgroup_status\np29542\nI8\nsVid\np29543\nV6005321735165\np29544\nsVad_id\np29545\nI6005321735165\nsVimpression_control_map\np29546\n(lp29547\n(dp29548\nVcontrol\np29549\n(dp29550\nVuser_impression_limit_period\np29551\nI24\nsVuser_impression_limit\np29552\nI6\nsVuser_impression_limit_period_unit\np29553\nI0\nsVimpression_control_type\np29554\nI2\nssVlocation\np29555\nI3\nsasVcreative_ids\np29556\n(lp29557\nI6005321734765\nasVmax_bid\np29558\nV86\np29559\nsVadgroup_id\np29560\nI6005321735165\nsVaccount_id\np29561\nI40156177\nsa(dp29562\nVconversion_specs\np29563\n(lp29564\nsVupdated_time\np29565\nV2012-06-26T20:35:39+0000\np29566\nsVbid_type\np29567\nI1\nsVname\np29568\nVA $10K Burger?\np29569\nsVtracking_pixel_ids\np29570\n(lp29571\nsVtargeting\np29572\n(dp29573\nVregions\np29574\n(lp29575\n(dp29576\nVid\np29577\nV53\np29578\nsVname\np29579\nVWashington\np29580\nsasVage_max\np29581\nI65\nsVcountries\np29582\n(lp29583\nVUS\np29584\nasVbroad_age\np29585\nI1\nsVage_min\np29586\nI13\nssVbid_info\np29587\n(dp29588\nV1\np29589\nV86\np29590\nssVstart_time\np29591\nNsVad_status\np29592\nI2\nsVcampaign_id\np29593\nI6005321713965\nsVlocations\np29594\n(lp29595\nI3\nasVcreated_time\np29596\nV2012-06-18T14:49:05+0000\np29597\nsVend_time\np29598\nV2012-07-01T03:00:00+0000\np29599\nsVadgroup_status\np29600\nI8\nsVid\np29601\nV6005321741965\np29602\nsVad_id\np29603\nI6005321741965\nsVimpression_control_map\np29604\n(lp29605\n(dp29606\nVcontrol\np29607\n(dp29608\nVuser_impression_limit_period\np29609\nI24\nsVuser_impression_limit\np29610\nI6\nsVuser_impression_limit_period_unit\np29611\nI0\nsVimpression_control_type\np29612\nI2\nssVlocation\np29613\nI3\nsasVcreative_ids\np29614\n(lp29615\nI6005321741565\nasVmax_bid\np29616\nV86\np29617\nsVadgroup_id\np29618\nI6005321741965\nsVaccount_id\np29619\nI40156177\nsa(dp29620\nVconversion_specs\np29621\n(lp29622\n(dp29623\nVobject\np29624\nVhttp://www.buzzfeed.com/samir/things-they-dont-teach-you-in-business-school\np29625\nsVaction.type\np29626\nVlike\np29627\nsasVupdated_time\np29628\nV2012-09-21T20:08:43+0000\np29629\nsVbid_type\np29630\nI1\nsVname\np29631\nV11 Things They Don't Teach You In Business School\np29632\nsVtracking_pixel_ids\np29633\n(lp29634\nsVtargeting\np29635\n(dp29636\nVaction_spec_friend\np29637\n(lp29638\n(dp29639\nVobject\np29640\nVhttp://www.buzzfeed.com/samir/things-they-dont-teach-you-in-business-school\np29641\nsVaction.type\np29642\nVlike\np29643\nsa(dp29644\nVobject\np29645\nVhttp://www.buzzfeed.com/samir/things-they-dont-teach-you-in-business-school\np29646\nsVaction.type\np29647\nVpost\np29648\nsasVcountries\np29649\n(lp29650\nVUS\np29651\nassVbid_info\np29652\n(dp29653\nV1\np29654\nV100\np29655\nssVstart_time\np29656\nNsVad_status\np29657\nI2\nsVcampaign_id\np29658\nI6005323726565\nsVlocations\np29659\n(lp29660\nI3\nasVcreated_time\np29661\nV2012-06-18T18:34:04+0000\np29662\nsVend_time\np29663\nV2012-06-25T07:00:00+0000\np29664\nsVadgroup_status\np29665\nI8\nsVid\np29666\nV60053"
p6
sS'hash'
p7
S'b60868847bccf4cb12efa650741a1cd20cc3ec13'
p8
sS'stack'
p9
S''
s.