(dp1
S'args'
p2
S''
sS'methodname'
p3
S''
sS'packet_num'
p4
I118
sS'returnval'
p5
S'p23542\nNsVadgroup_status\np23543\nI8\nsVid\np23544\nV6005276661165\np23545\nsVad_id\np23546\nI6005276661165\nsVimpression_control_map\np23547\n(lp23548\n(dp23549\nVcontrol\np23550\n(dp23551\nVuser_impression_limit_period\np23552\nI24\nsVuser_impression_limit\np23553\nI3\nsVuser_impression_limit_period_unit\np23554\nI0\nsVimpression_control_type\np23555\nI2\nssVlocation\np23556\nI3\nsasVcreative_ids\np23557\n(lp23558\nI6005276660765\nasVmax_bid\np23559\nV75\np23560\nsVadgroup_id\np23561\nI6005276661165\nsVaccount_id\np23562\nI40156177\nsa(dp23563\nVconversion_specs\np23564\n(lp23565\nsVupdated_time\np23566\nV2012-09-21T20:06:59+0000\np23567\nsVbid_type\np23568\nI1\nsVname\np23569\nVKnow About Fine Dining?\np23570\nsVtracking_pixel_ids\np23571\n(lp23572\nsVtargeting\np23573\n(dp23574\nVkeywords\np23575\n(lp23576\nV#Eating\np23577\naV#Top Chef Masters\np23578\naV#Cooking Channel\np23579\naV#Food Network\np23580\naV#Food\np23581\naV#Iron Chef\np23582\naV#Anthony Bourdain\np23583\naV#Snack food\np23584\naV#Top Chef\np23585\naV#Bizarre Foods with Andrew Zimmern\np23586\naV#Iron Chef America\np23587\naV#Fast food\np23588\nasVage_max\np23589\nI65\nsVcountries\np23590\n(lp23591\nVUS\np23592\nasVbroad_age\np23593\nI1\nsVage_min\np23594\nI13\nssVbid_info\np23595\n(dp23596\nV1\np23597\nV69\np23598\nssVstart_time\np23599\nNsVad_status\np23600\nI2\nsVcampaign_id\np23601\nI6005276672565\nsVlocations\np23602\n(lp23603\nI3\nasVcreated_time\np23604\nV2012-06-07T14:26:34+0000\np23605\nsVend_time\np23606\nNsVadgroup_status\np23607\nI8\nsVid\np23608\nV6005276673565\np23609\nsVad_id\np23610\nI6005276673565\nsVimpression_control_map\np23611\n(lp23612\n(dp23613\nVcontrol\np23614\n(dp23615\nVuser_impression_limit_period\np23616\nI24\nsVuser_impression_limit\np23617\nI6\nsVuser_impression_limit_period_unit\np23618\nI0\nsVimpression_control_type\np23619\nI2\nssVlocation\np23620\nI3\nsasVcreative_ids\np23621\n(lp23622\nI6005276673165\nasVmax_bid\np23623\nV69\np23624\nsVadgroup_id\np23625\nI6005276673565\nsVaccount_id\np23626\nI40156177\nsa(dp23627\nVconversion_specs\np23628\n(lp23629\nsVupdated_time\np23630\nV2012-09-21T20:06:59+0000\np23631\nsVbid_type\np23632\nI1\nsVname\np23633\nVCutting Edge Music\np23634\nsVtracking_pixel_ids\np23635\n(lp23636\nsVtargeting\np23637\n(dp23638\nVkeywords\np23639\n(lp23640\nV#Music\np23641\naV#Dog\np23642\nasVage_max\np23643\nI65\nsVcountries\np23644\n(lp23645\nVUS\np23646\nasVbroad_age\np23647\nI1\nsVage_min\np23648\nI13\nssVbid_info\np23649\n(dp23650\nV1\np23651\nV69\np23652\nssVstart_time\np23653\nNsVad_status\np23654\nI2\nsVcampaign_id\np23655\nI6005276672565\nsVlocations\np23656\n(lp23657\nI3\nasVcreated_time\np23658\nV2012-06-07T14:35:16+0000\np23659\nsVend_time\np23660\nNsVadgroup_status\np23661\nI8\nsVid\np23662\nV6005276689365\np23663\nsVad_id\np23664\nI6005276689365\nsVimpression_control_map\np23665\n(lp23666\n(dp23667\nVcontrol\np23668\n(dp23669\nVuser_impression_limit_period\np23670\nI24\nsVuser_impression_limit\np23671\nI6\nsVuser_impression_limit_period_unit\np23672\nI0\nsVimpression_control_type\np23673\nI2\nssVlocation\np23674\nI3\nsasVcreative_ids\np23675\n(lp23676\nI6005276688965\nasVmax_bid\np23677\nV69\np23678\nsVadgroup_id\np23679\nI6005276689365\nsVaccount_id\np23680\nI40156177\nsa(dp23681\nVconversion_specs\np23682\n(lp23683\nsVupdated_time\np23684\nV2012-09-21T20:07:01+0000\np23685\nsVbid_type\np23686\nI1\nsVname\np23687\nV"Amazing Hotel Pools"\np23688\nsVtracking_pixel_ids\np23689\n(lp23690\nsVtargeting\np23691\n(dp23692\nVkeywords\np23693\n(lp23694\nV#Kayak.com\np23695\naV#Expedia, Inc.\np23696\naV#Travelocity\np23697\naV#Airbnb\np23698\naV#Orbitz\np23699\naV#Priceline.com\np23700\naV#Hotel\np23701\naV#TripAdvisor\np23702\naV#Hotels.com\np23703\naV#Travel\np23704\nasVage_max\np23705\nI65\nsVcountries\np23706\n(lp23707\nVUS\np23708\nasVbroad_age\np23709\nI1\nsVage_min\np23710\nI13\nssVbid_info\np23711\n(dp23712\nV1\np23713\nV71\np23714\nssVstart_time\np23715\nNsVad_status\np23716\nI2\nsVcampaign_id\np23717\nI6005276699965\nsVlocations\np23718\n(lp23719\nI3\nasVcreated_time\np23720\nV2012-06-07T14:41:03+0000\np23721\nsVend_time\np23722\nV2012-06-12T03:30:00+0000\np23723\nsVadgroup_status\np23724\nI8\nsVid\np23725\nV6005276700965\np23726\nsVad_id\np23727\nI6005276700965\nsVimpression_control_map\np23728\n(lp23729\n(dp23730\nVcontrol\np23731\n(dp23732\nVuser_impression_limit_period\np23733\nI24\nsVuser_impression_limit\np23734\nI6\nsVuser_impression_limit_period_unit\np23735\nI0\nsVimpre'
p6
sS'hash'
p7
S'b60868847bccf4cb12efa650741a1cd20cc3ec13'
p8
sS'stack'
p9
S''
s.