(dp1
S'args'
p2
S''
sS'methodname'
p3
S''
sS'packet_num'
p4
I131
sS'returnval'
p5
S"ecs\np26083\n(lp26084\nsVupdated_time\np26085\nV2012-09-21T20:07:45+0000\np26086\nsVbid_type\np26087\nI1\nsVname\np26088\nVWhat To Expect When Encountering Your Susan Glenn\np26089\nsVtracking_pixel_ids\np26090\n(lp26091\nsVtargeting\np26092\n(dp26093\nVaction_spec_friend\np26094\n(lp26095\n(dp26096\nVobject\np26097\nVhttp://www.buzzfeed.com/mattblakely42/what-to-expect-when-encountering-your-susan-glenn\np26098\nsVaction.type\np26099\nVlike\np26100\nsasVcountries\np26101\n(lp26102\nVUS\np26103\nassVbid_info\np26104\n(dp26105\nV1\np26106\nV100\np26107\nssVstart_time\np26108\nNsVad_status\np26109\nI2\nsVcampaign_id\np26110\nI6005297425365\nsVlocations\np26111\n(lp26112\nI3\nasVcreated_time\np26113\nV2012-06-12T15:58:23+0000\np26114\nsVend_time\np26115\nNsVadgroup_status\np26116\nI8\nsVid\np26117\nV6005297426765\np26118\nsVad_id\np26119\nI6005297426765\nsVimpression_control_map\np26120\n(lp26121\n(dp26122\nVcontrol\np26123\n(dp26124\nVuser_impression_limit_period\np26125\nI24\nsVuser_impression_limit\np26126\nI6\nsVuser_impression_limit_period_unit\np26127\nI0\nsVimpression_control_type\np26128\nI2\nssVlocation\np26129\nI3\nsasVcreative_ids\np26130\n(lp26131\nI6005297426165\nasVmax_bid\np26132\nV100\np26133\nsVadgroup_id\np26134\nI6005297426765\nsVaccount_id\np26135\nI40156177\nsa(dp26136\nVconversion_specs\np26137\n(lp26138\nsVupdated_time\np26139\nV2012-09-21T20:07:47+0000\np26140\nsVbid_type\np26141\nI1\nsVname\np26142\nV10 Things That Will Get You Through A Boring Day At Work\np26143\nsVtracking_pixel_ids\np26144\n(lp26145\nsVtargeting\np26146\n(dp26147\nVaction_spec_friend\np26148\n(lp26149\n(dp26150\nVobject\np26151\nVhttp://www.buzzfeed.com/microsoftbing/10-things-that-will-get-you-through-a-boring-day-a\np26152\nsVaction.type\np26153\nVlike\np26154\nsasVcountries\np26155\n(lp26156\nVUS\np26157\nassVbid_info\np26158\n(dp26159\nV1\np26160\nV100\np26161\nssVstart_time\np26162\nNsVad_status\np26163\nI2\nsVcampaign_id\np26164\nI6005297429165\nsVlocations\np26165\n(lp26166\nI3\nasVcreated_time\np26167\nV2012-06-12T15:59:27+0000\np26168\nsVend_time\np26169\nNsVadgroup_status\np26170\nI8\nsVid\np26171\nV6005297432365\np26172\nsVad_id\np26173\nI6005297432365\nsVimpression_control_map\np26174\n(lp26175\n(dp26176\nVcontrol\np26177\n(dp26178\nVuser_impression_limit_period\np26179\nI24\nsVuser_impression_limit\np26180\nI6\nsVuser_impression_limit_period_unit\np26181\nI0\nsVimpression_control_type\np26182\nI2\nssVlocation\np26183\nI3\nsasVcreative_ids\np26184\n(lp26185\nI6005297431765\nasVmax_bid\np26186\nV100\np26187\nsVadgroup_id\np26188\nI6005297432365\nsVaccount_id\np26189\nI40156177\nsa(dp26190\nVconversion_specs\np26191\n(lp26192\nsVupdated_time\np26193\nV2012-09-21T20:07:48+0000\np26194\nsVbid_type\np26195\nI1\nsVname\np26196\nVThe Definitive Collection Of Conan Gifs\np26197\nsVtracking_pixel_ids\np26198\n(lp26199\nsVtargeting\np26200\n(dp26201\nVaction_spec_friend\np26202\n(lp26203\n(dp26204\nVobject\np26205\nVhttp://www.buzzfeed.com/conan/the-definitive-collection-of-conan-gifs\np26206\nsVaction.type\np26207\nVlike\np26208\nsasVcountries\np26209\n(lp26210\nVUS\np26211\nassVbid_info\np26212\n(dp26213\nV1\np26214\nV100\np26215\nssVstart_time\np26216\nNsVad_status\np26217\nI2\nsVcampaign_id\np26218\nI6005297436165\nsVlocations\np26219\n(lp26220\nI3\nasVcreated_time\np26221\nV2012-06-12T16:02:11+0000\np26222\nsVend_time\np26223\nNsVadgroup_status\np26224\nI8\nsVid\np26225\nV6005297437565\np26226\nsVad_id\np26227\nI6005297437565\nsVimpression_control_map\np26228\n(lp26229\n(dp26230\nVcontrol\np26231\n(dp26232\nVuser_impression_limit_period\np26233\nI24\nsVuser_impression_limit\np26234\nI6\nsVuser_impression_limit_period_unit\np26235\nI0\nsVimpression_control_type\np26236\nI2\nssVlocation\np26237\nI3\nsasVcreative_ids\np26238\n(lp26239\nI6005297436965\nasVmax_bid\np26240\nV100\np26241\nsVadgroup_id\np26242\nI6005297437565\nsVaccount_id\np26243\nI40156177\nsa(dp26244\nVconversion_specs\np26245\n(lp26246\nsVupdated_time\np26247\nV2012-09-21T20:07:50+0000\np26248\nsVbid_type\np26249\nI1\nsVname\np26250\nV10 Things You Probably Didn't Know About Conan O'Brien\np26251\nsVtracking_pixel_ids\np26252\n(lp26253\nsVtargeting\np26254\n(dp26255\nVaction_spec_friend\np26256\n(lp26257\n(dp26258\nVobject\np26259\nVhttp://www.buzzfeed.com/conan/10-things-you-probably-didnt-know-about-conan-ob\np26260\nsVaction.type\np26261\nVlike\np26262\nsasVcountries\np26263\n(lp26264\nVUS\np26265\nassVbid_info\np"
p6
sS'hash'
p7
S'b60868847bccf4cb12efa650741a1cd20cc3ec13'
p8
sS'stack'
p9
S''
s.