(dp1
S'args'
p2
S''
sS'methodname'
p3
S''
sS'packet_num'
p4
I93
sS'returnval'
p5
S'racking_pixel_ids\np18749\n(lp18750\nsVtargeting\np18751\n(dp18752\nVage_max\np18753\nI65\nsVcountries\np18754\n(lp18755\nVUS\np18756\nasVbroad_age\np18757\nI1\nsVage_min\np18758\nI21\nssVbid_info\np18759\n(dp18760\nV1\np18761\nV65\np18762\nssVstart_time\np18763\nNsVad_status\np18764\nI2\nsVcampaign_id\np18765\nI6005197011965\nsVlocations\np18766\n(lp18767\nI3\nasVcreated_time\np18768\nV2012-05-31T13:34:48+0000\np18769\nsVend_time\np18770\nV2012-06-05T04:00:00+0000\np18771\nsVadgroup_status\np18772\nI8\nsVid\np18773\nV6005247706165\np18774\nsVad_id\np18775\nI6005247706165\nsVimpression_control_map\np18776\n(lp18777\n(dp18778\nVcontrol\np18779\n(dp18780\nVuser_impression_limit_period\np18781\nI24\nsVuser_impression_limit\np18782\nI6\nsVuser_impression_limit_period_unit\np18783\nI0\nsVimpression_control_type\np18784\nI2\nssVlocation\np18785\nI3\nsasVcreative_ids\np18786\n(lp18787\nI6005247705765\nasVmax_bid\np18788\nV65\np18789\nsVadgroup_id\np18790\nI6005247706165\nsVaccount_id\np18791\nI40156177\nsa(dp18792\nVconversion_specs\np18793\n(lp18794\nsVupdated_time\np18795\nV2012-09-21T20:05:29+0000\np18796\nsVbid_type\np18797\nI1\nsVname\np18798\nVAwesome Ron Swanson GIF\np18799\nsVtracking_pixel_ids\np18800\n(lp18801\nsVtargeting\np18802\n(dp18803\nVkeywords\np18804\n(lp18805\nV#Tom Haverford\np18806\naV#Andy Dwyer\np18807\naV#April Ludgate\np18808\naV#Ron Swanson\np18809\naV#Community (TV series)\np18810\naV#Modern Family\np18811\naV#The Office (U.S. TV series)\np18812\naV#Leslie Knope\np18813\naVcommunity\np18814\naV#Parks and Recreation\np18815\naV#Arrested Development (TV series)\np18816\nasVage_max\np18817\nI65\nsVcountries\np18818\n(lp18819\nVUS\np18820\nasVbroad_age\np18821\nI1\nsVage_min\np18822\nI15\nssVbid_info\np18823\n(dp18824\nV1\np18825\nV58\np18826\nssVstart_time\np18827\nNsVad_status\np18828\nI2\nsVcampaign_id\np18829\nI6005213649165\nsVlocations\np18830\n(lp18831\nI3\nasVcreated_time\np18832\nV2012-05-23T20:54:49+0000\np18833\nsVend_time\np18834\nV2012-05-29T03:00:00+0000\np18835\nsVadgroup_status\np18836\nI8\nsVid\np18837\nV6005213651365\np18838\nsVad_id\np18839\nI6005213651365\nsVimpression_control_map\np18840\n(lp18841\n(dp18842\nVcontrol\np18843\n(dp18844\nVuser_impression_limit_period\np18845\nI24\nsVuser_impression_limit\np18846\nI6\nsVuser_impression_limit_period_unit\np18847\nI0\nsVimpression_control_type\np18848\nI2\nssVlocation\np18849\nI3\nsasVcreative_ids\np18850\n(lp18851\nI6005213650165\nasVmax_bid\np18852\nV58\np18853\nsVadgroup_id\np18854\nI6005213651365\nsVaccount_id\np18855\nI40156177\nsa(dp18856\nVconversion_specs\np18857\n(lp18858\nsVupdated_time\np18859\nV2012-09-21T20:05:29+0000\np18860\nsVbid_type\np18861\nI1\nsVname\np18862\nVRon Swanson 2012\np18863\nsVtracking_pixel_ids\np18864\n(lp18865\nsVtargeting\np18866\n(dp18867\nVkeywords\np18868\n(lp18869\nV#30 Rock\np18870\naV#Tom Haverford\np18871\naV#Andy Dwyer\np18872\naV#April Ludgate\np18873\naV#Ron Swanson\np18874\naV#Community (TV series)\np18875\naV#Modern Family\np18876\naV#The Office (U.S. TV series)\np18877\naV#Leslie Knope\np18878\naVcommunity\np18879\naV#Parks and Recreation\np18880\naV#Arrested Development (TV series)\np18881\nasVage_max\np18882\nI65\nsVcountries\np18883\n(lp18884\nVUS\np18885\nasVbroad_age\np18886\nI1\nsVage_min\np18887\nI15\nssVbid_info\np18888\n(dp18889\nV1\np18890\nV58\np18891\nssVstart_time\np18892\nNsVad_status\np18893\nI2\nsVcampaign_id\np18894\nI6005213649165\nsVlocations\np18895\n(lp18896\nI3\nasVcreated_time\np18897\nV2012-05-24T15:22:28+0000\np18898\nsVend_time\np18899\nV2012-05-29T03:00:00+0000\np18900\nsVadgroup_status\np18901\nI8\nsVid\np18902\nV6005222815565\np18903\nsVad_id\np18904\nI6005222815565\nsVimpression_control_map\np18905\n(lp18906\n(dp18907\nVcontrol\np18908\n(dp18909\nVuser_impression_limit_period\np18910\nI24\nsVuser_impression_limit\np18911\nI6\nsVuser_impression_limit_period_unit\np18912\nI0\nsVimpression_control_type\np18913\nI2\nssVlocation\np18914\nI3\nsasVcreative_ids\np18915\n(lp18916\nI6005222815165\nasVmax_bid\np18917\nV58\np18918\nsVadgroup_id\np18919\nI6005222815565\nsVaccount_id\np18920\nI40156177\nsa(dp18921\nVconversion_specs\np18922\n(lp18923\nsVupdated_time\np18924\nV2012-09-21T20:05:29+0000\np18925\nsVbid_type\np18926\nI1\nsVname\np18927\nVThe Freshest Prince\np18928\nsVtracking_pixel_ids\np18929\n(lp18930\nsVtargeting\np18931\n(dp18932\nVkeywords\np18933\n(lp18934\nV#Will Smith\np18935\naV#The Fresh Prince of Bel-Air\np18936\nasVage_max\np18937\nI6'
p6
sS'hash'
p7
S'b60868847bccf4cb12efa650741a1cd20cc3ec13'
p8
sS'stack'
p9
S''
s.