(dp1
S'args'
p2
S''
sS'methodname'
p3
S''
sS'packet_num'
p4
I74
sS'returnval'
p5
S"n\np15072\nI3\nsasVcreative_ids\np15073\n(lp15074\nI6005158591565\nasVmax_bid\np15075\nV57\np15076\nsVadgroup_id\np15077\nI6005158571165\nsVaccount_id\np15078\nI40156177\nsa(dp15079\nVconversion_specs\np15080\n(lp15081\nsVupdated_time\np15082\nV2012-09-21T20:04:24+0000\np15083\nsVbid_type\np15084\nI1\nsVname\np15085\nVThe Poison Garden\np15086\nsVtracking_pixel_ids\np15087\n(lp15088\nsVtargeting\np15089\n(dp15090\nVage_max\np15091\nI65\nsVcountries\np15092\n(lp15093\nVUS\np15094\nasVbroad_age\np15095\nI1\nsVage_min\np15096\nI14\nssVbid_info\np15097\n(dp15098\nV1\np15099\nV54\np15100\nssVstart_time\np15101\nNsVad_status\np15102\nI2\nsVcampaign_id\np15103\nI6005158621765\nsVlocations\np15104\n(lp15105\nI3\nasVcreated_time\np15106\nV2012-05-15T16:11:19+0000\np15107\nsVend_time\np15108\nNsVadgroup_status\np15109\nI8\nsVid\np15110\nV6005158622765\np15111\nsVad_id\np15112\nI6005158622765\nsVimpression_control_map\np15113\n(lp15114\n(dp15115\nVcontrol\np15116\n(dp15117\nVuser_impression_limit_period\np15118\nI24\nsVuser_impression_limit\np15119\nI6\nsVuser_impression_limit_period_unit\np15120\nI0\nsVimpression_control_type\np15121\nI2\nssVlocation\np15122\nI3\nsasVcreative_ids\np15123\n(lp15124\nI6005158622365\nasVmax_bid\np15125\nV54\np15126\nsVadgroup_id\np15127\nI6005158622765\nsVaccount_id\np15128\nI40156177\nsa(dp15129\nVconversion_specs\np15130\n(lp15131\nsVupdated_time\np15132\nV2012-09-21T20:04:26+0000\np15133\nsVbid_type\np15134\nI1\nsVname\np15135\nVWest + Pepper Sprayer\np15136\nsVtracking_pixel_ids\np15137\n(lp15138\nsVtargeting\np15139\n(dp15140\nVkeywords\np15141\n(lp15142\nV#Kanye West\np15143\naV#TMZ.com\np15144\naV#Meme\np15145\naV#Occupy Wall Street\np15146\naVkayne west\np15147\nasVage_max\np15148\nI30\nsVcountries\np15149\n(lp15150\nVUS\np15151\nasVbroad_age\np15152\nI1\nsVage_min\np15153\nI13\nssVbid_info\np15154\n(dp15155\nV1\np15156\nV65\np15157\nssVstart_time\np15158\nNsVad_status\np15159\nI2\nsVcampaign_id\np15160\nI6005158720565\nsVlocations\np15161\n(lp15162\nI3\nasVcreated_time\np15163\nV2012-05-15T17:44:26+0000\np15164\nsVend_time\np15165\nV2012-05-17T04:00:00+0000\np15166\nsVadgroup_status\np15167\nI8\nsVid\np15168\nV6005158721565\np15169\nsVad_id\np15170\nI6005158721565\nsVimpression_control_map\np15171\n(lp15172\n(dp15173\nVcontrol\np15174\n(dp15175\nVuser_impression_limit_period\np15176\nI24\nsVuser_impression_limit\np15177\nI6\nsVuser_impression_limit_period_unit\np15178\nI0\nsVimpression_control_type\np15179\nI2\nssVlocation\np15180\nI3\nsasVcreative_ids\np15181\n(lp15182\nI6005158721165\nasVmax_bid\np15183\nV65\np15184\nsVadgroup_id\np15185\nI6005158721565\nsVaccount_id\np15186\nI40156177\nsa(dp15187\nVconversion_specs\np15188\n(lp15189\nsVupdated_time\np15190\nV2012-09-21T20:04:26+0000\np15191\nsVbid_type\np15192\nI1\nsVname\np15193\nVMore Sad Keanu!\np15194\nsVtracking_pixel_ids\np15195\n(lp15196\nsVtargeting\np15197\n(dp15198\nVkeywords\np15199\n(lp15200\nV#Point Break\np15201\naV#Lolcat\np15202\naV#Keanu Reeves\np15203\naV#TMZ.com\np15204\naV#Meme\np15205\naV#Bill & Ted's Excellent Adventure\np15206\nasVage_max\np15207\nI30\nsVcountries\np15208\n(lp15209\nVUS\np15210\nasVbroad_age\np15211\nI1\nsVage_min\np15212\nI13\nssVbid_info\np15213\n(dp15214\nV1\np15215\nV55\np15216\nssVstart_time\np15217\nNsVad_status\np15218\nI2\nsVcampaign_id\np15219\nI6005158720565\nsVlocations\np15220\n(lp15221\nI3\nasVcreated_time\np15222\nV2012-05-16T17:26:58+0000\np15223\nsVend_time\np15224\nNsVadgroup_status\np15225\nI8\nsVid\np15226\nV6005163343165\np15227\nsVad_id\np15228\nI6005163343165\nsVimpression_control_map\np15229\n(lp15230\n(dp15231\nVcontrol\np15232\n(dp15233\nVuser_impression_limit_period\np15234\nI24\nsVuser_impression_limit\np15235\nI6\nsVuser_impression_limit_period_unit\np15236\nI0\nsVimpression_control_type\np15237\nI2\nssVlocation\np15238\nI3\nsasVcreative_ids\np15239\n(lp15240\nI6005163342765\nasVmax_bid\np15241\nV55\np15242\nsVadgroup_id\np15243\nI6005163343165\nsVaccount_id\np15244\nI40156177\nsa(dp15245\nVconversion_specs\np15246\n(lp15247\nsVupdated_time\np15248\nV2012-09-21T20:04:28+0000\np15249\nsVbid_type\np15250\nI1\nsVname\np15251\nVBleeding Gums Murphy\np15252\nsVtracking_pixel_ids\np15253\n(lp15254\nsVtargeting\np15255\n(dp15256\nVkeywords\np15257\n(lp15258\nV#Futurama\np15259\naV#Springfield (The Simpsons)\np15260\naV#The Simpsons Game\np15261\naV#Family Guy\np15262\naV#The Simpsons (franchise)\np15263\naV#The Simpsons Hit & Run\np15264\naV#The Simpsons\np15265\naV#The Sim"
p6
sS'hash'
p7
S'b60868847bccf4cb12efa650741a1cd20cc3ec13'
p8
sS'stack'
p9
S''
s.