(dp1
S'args'
p2
S''
sS'methodname'
p3
S''
sS'packet_num'
p4
I95
sS'returnval'
p5
S"ated_time\np19134\nV2012-05-23T21:54:14+0000\np19135\nsVend_time\np19136\nNsVadgroup_status\np19137\nI8\nsVid\np19138\nV6005220694365\np19139\nsVad_id\np19140\nI6005220694365\nsVimpression_control_map\np19141\n(lp19142\n(dp19143\nVcontrol\np19144\n(dp19145\nVuser_impression_limit_period\np19146\nI24\nsVuser_impression_limit\np19147\nI6\nsVuser_impression_limit_period_unit\np19148\nI0\nsVimpression_control_type\np19149\nI2\nssVlocation\np19150\nI3\nsasVcreative_ids\np19151\n(lp19152\nI6005220693965\nasVmax_bid\np19153\nV65\np19154\nsVadgroup_id\np19155\nI6005220694365\nsVaccount_id\np19156\nI40156177\nsa(dp19157\nVconversion_specs\np19158\n(lp19159\nsVupdated_time\np19160\nV2012-09-21T20:05:33+0000\np19161\nsVbid_type\np19162\nI1\nsVname\np19163\nVRyan Gosling and Female Targeted\np19164\nsVtracking_pixel_ids\np19165\n(lp19166\nsVtargeting\np19167\n(dp19168\nVage_max\np19169\nI24\nsVcountries\np19170\n(lp19171\nVUS\np19172\nasVbroad_age\np19173\nI1\nsVage_min\np19174\nI13\nsVkeywords\np19175\n(lp19176\nV#Ryan Gosling\np19177\nasVgenders\np19178\n(lp19179\nI2\nassVbid_info\np19180\n(dp19181\nV1\np19182\nV65\np19183\nssVstart_time\np19184\nNsVad_status\np19185\nI2\nsVcampaign_id\np19186\nI6005220656165\nsVlocations\np19187\n(lp19188\nI3\nasVcreated_time\np19189\nV2012-05-24T17:17:24+0000\np19190\nsVend_time\np19191\nNsVadgroup_status\np19192\nI8\nsVid\np19193\nV6005227339365\np19194\nsVad_id\np19195\nI6005227339365\nsVimpression_control_map\np19196\n(lp19197\n(dp19198\nVcontrol\np19199\n(dp19200\nVuser_impression_limit_period\np19201\nI24\nsVuser_impression_limit\np19202\nI3\nsVuser_impression_limit_period_unit\np19203\nI0\nsVimpression_control_type\np19204\nI2\nssVlocation\np19205\nI3\nsasVcreative_ids\np19206\n(lp19207\nI6005220693965\nasVmax_bid\np19208\nV65\np19209\nsVadgroup_id\np19210\nI6005227339365\nsVaccount_id\np19211\nI40156177\nsa(dp19212\nVconversion_specs\np19213\n(lp19214\nsVupdated_time\np19215\nV2012-09-21T20:05:33+0000\np19216\nsVbid_type\np19217\nI1\nsVname\np19218\nVJT and Women Targeted\np19219\nsVtracking_pixel_ids\np19220\n(lp19221\nsVtargeting\np19222\n(dp19223\nVage_max\np19224\nI30\nsVcountries\np19225\n(lp19226\nVUS\np19227\nasVbroad_age\np19228\nI1\nsVage_min\np19229\nI13\nsVkeywords\np19230\n(lp19231\nV#Justin Timberlake\np19232\nasVgenders\np19233\n(lp19234\nI2\nassVbid_info\np19235\n(dp19236\nV1\np19237\nV65\np19238\nssVstart_time\np19239\nNsVad_status\np19240\nI2\nsVcampaign_id\np19241\nI6005220656165\nsVlocations\np19242\n(lp19243\nI3\nasVcreated_time\np19244\nV2012-05-24T17:19:10+0000\np19245\nsVend_time\np19246\nNsVadgroup_status\np19247\nI8\nsVid\np19248\nV6005227367765\np19249\nsVad_id\np19250\nI6005227367765\nsVimpression_control_map\np19251\n(lp19252\n(dp19253\nVcontrol\np19254\n(dp19255\nVuser_impression_limit_period\np19256\nI24\nsVuser_impression_limit\np19257\nI6\nsVuser_impression_limit_period_unit\np19258\nI0\nsVimpression_control_type\np19259\nI2\nssVlocation\np19260\nI3\nsasVcreative_ids\np19261\n(lp19262\nI6005220656765\nasVmax_bid\np19263\nV65\np19264\nsVadgroup_id\np19265\nI6005227367765\nsVaccount_id\np19266\nI40156177\nsa(dp19267\nVconversion_specs\np19268\n(lp19269\nsVupdated_time\np19270\nV2012-09-21T20:05:34+0000\np19271\nsVbid_type\np19272\nI1\nsVname\np19273\nVNo Way - Check this out!\np19274\nsVtracking_pixel_ids\np19275\n(lp19276\nsVtargeting\np19277\n(dp19278\nVage_max\np19279\nI26\nsVcountries\np19280\n(lp19281\nVUS\np19282\nasVbroad_age\np19283\nI1\nsVage_min\np19284\nI14\nssVbid_info\np19285\n(dp19286\nV1\np19287\nV56\np19288\nssVstart_time\np19289\nNsVad_status\np19290\nI2\nsVcampaign_id\np19291\nI6005227000765\nsVlocations\np19292\n(lp19293\nI3\nasVcreated_time\np19294\nV2012-05-24T16:56:10+0000\np19295\nsVend_time\np19296\nNsVadgroup_status\np19297\nI8\nsVid\np19298\nV6005227001765\np19299\nsVad_id\np19300\nI6005227001765\nsVimpression_control_map\np19301\n(lp19302\n(dp19303\nVcontrol\np19304\n(dp19305\nVuser_impression_limit_period\np19306\nI24\nsVuser_impression_limit\np19307\nI6\nsVuser_impression_limit_period_unit\np19308\nI0\nsVimpression_control_type\np19309\nI2\nssVlocation\np19310\nI3\nsasVcreative_ids\np19311\n(lp19312\nI6005227001365\nasVmax_bid\np19313\nV56\np19314\nsVadgroup_id\np19315\nI6005227001765\nsVaccount_id\np19316\nI40156177\nsa(dp19317\nVconversion_specs\np19318\n(lp19319\nsVupdated_time\np19320\nV2012-09-21T20:05:36+0000\np19321\nsVbid_type\np19322\nI1\nsVname\np19323\nVRemember Kanye's Robbery?\np19324\nsVtracking_pixel_ids\np19325"
p6
sS'hash'
p7
S'b60868847bccf4cb12efa650741a1cd20cc3ec13'
p8
sS'stack'
p9
S''
s.