(dp1
S'args'
p2
S''
sS'methodname'
p3
S''
sS'packet_num'
p4
I147
sS'returnval'
p5
S'ap\np29079\n(lp29080\n(dp29081\nVcontrol\np29082\n(dp29083\nVuser_impression_limit_period\np29084\nI24\nsVuser_impression_limit\np29085\nI6\nsVuser_impression_limit_period_unit\np29086\nI0\nsVimpression_control_type\np29087\nI2\nssVlocation\np29088\nI3\nsasVcreative_ids\np29089\n(lp29090\nI6005313725365\nasVmax_bid\np29091\nV65\np29092\nsVadgroup_id\np29093\nI6005313092365\nsVaccount_id\np29094\nI40156177\nsa(dp29095\nVconversion_specs\np29096\n(lp29097\nsVupdated_time\np29098\nV2012-09-21T20:08:37+0000\np29099\nsVbid_type\np29100\nI1\nsVname\np29101\nVClassic Southern Phrases\np29102\nsVtracking_pixel_ids\np29103\n(lp29104\nsVtargeting\np29105\n(dp29106\nVkeywords\np29107\n(lp29108\nV#Southern Comfort\np29109\naV#South\np29110\naV#Rock and roll\np29111\naV#Southern Living\np29112\naV#Southern rock\np29113\naV#Country rock\np29114\nasVage_max\np29115\nI65\nsVcountries\np29116\n(lp29117\nVUS\np29118\nasVbroad_age\np29119\nI1\nsVage_min\np29120\nI13\nssVbid_info\np29121\n(dp29122\nV1\np29123\nV65\np29124\nssVstart_time\np29125\nNsVad_status\np29126\nI2\nsVcampaign_id\np29127\nI6005313113965\nsVlocations\np29128\n(lp29129\nI3\nasVcreated_time\np29130\nV2012-06-15T18:40:05+0000\np29131\nsVend_time\np29132\nV2012-06-21T03:00:00+0000\np29133\nsVadgroup_status\np29134\nI8\nsVid\np29135\nV6005313114965\np29136\nsVad_id\np29137\nI6005313114965\nsVimpression_control_map\np29138\n(lp29139\n(dp29140\nVcontrol\np29141\n(dp29142\nVuser_impression_limit_period\np29143\nI24\nsVuser_impression_limit\np29144\nI6\nsVuser_impression_limit_period_unit\np29145\nI0\nsVimpression_control_type\np29146\nI2\nssVlocation\np29147\nI3\nsasVcreative_ids\np29148\n(lp29149\nI6005313114565\nasVmax_bid\np29150\nV65\np29151\nsVadgroup_id\np29152\nI6005313114965\nsVaccount_id\np29153\nI40156177\nsa(dp29154\nVconversion_specs\np29155\n(lp29156\nsVupdated_time\np29157\nV2012-09-21T20:08:37+0000\np29158\nsVbid_type\np29159\nI1\nsVname\np29160\nVClassic Southern Phrases 1\np29161\nsVtracking_pixel_ids\np29162\n(lp29163\nsVtargeting\np29164\n(dp29165\nVage_max\np29166\nI65\nsVcountries\np29167\n(lp29168\nVUS\np29169\nasVbroad_age\np29170\nI1\nsVage_min\np29171\nI13\nssVbid_info\np29172\n(dp29173\nV1\np29174\nV65\np29175\nssVstart_time\np29176\nNsVad_status\np29177\nI2\nsVcampaign_id\np29178\nI6005313113965\nsVlocations\np29179\n(lp29180\nI3\nasVcreated_time\np29181\nV2012-06-20T16:03:53+0000\np29182\nsVend_time\np29183\nNsVadgroup_status\np29184\nI8\nsVid\np29185\nV6005334874965\np29186\nsVad_id\np29187\nI6005334874965\nsVimpression_control_map\np29188\n(lp29189\n(dp29190\nVcontrol\np29191\n(dp29192\nVuser_impression_limit_period\np29193\nI24\nsVuser_impression_limit\np29194\nI6\nsVuser_impression_limit_period_unit\np29195\nI0\nsVimpression_control_type\np29196\nI2\nssVlocation\np29197\nI3\nsasVcreative_ids\np29198\n(lp29199\nI6005313114565\nasVmax_bid\np29200\nV65\np29201\nsVadgroup_id\np29202\nI6005334874965\nsVaccount_id\np29203\nI40156177\nsa(dp29204\nVconversion_specs\np29205\n(lp29206\nsVupdated_time\np29207\nV2012-09-21T20:08:39+0000\np29208\nsVbid_type\np29209\nI1\nsVname\np29210\nVAmazing Art on Dirty Cars\np29211\nsVtracking_pixel_ids\np29212\n(lp29213\nsVtargeting\np29214\n(dp29215\nVkeywords\np29216\n(lp29217\nV#The arts\np29218\naV#Artist\np29219\naV#Visual arts\np29220\naV#Art\np29221\naV#Graphic design\np29222\naV#Mural\np29223\naV#Painting\np29224\naV#Cars\np29225\naV#Work of art\np29226\naV#Fine art\np29227\naV#Design\np29228\nasVage_max\np29229\nI65\nsVcountries\np29230\n(lp29231\nVUS\np29232\nasVbroad_age\np29233\nI1\nsVage_min\np29234\nI13\nssVbid_info\np29235\n(dp29236\nV1\np29237\nV75\np29238\nssVstart_time\np29239\nNsVad_status\np29240\nI2\nsVcampaign_id\np29241\nI6005313148365\nsVlocations\np29242\n(lp29243\nI3\nasVcreated_time\np29244\nV2012-06-15T18:58:43+0000\np29245\nsVend_time\np29246\nNsVadgroup_status\np29247\nI8\nsVid\np29248\nV6005313149365\np29249\nsVad_id\np29250\nI6005313149365\nsVimpression_control_map\np29251\n(lp29252\n(dp29253\nVcontrol\np29254\n(dp29255\nVuser_impression_limit_period\np29256\nI24\nsVuser_impression_limit\np29257\nI6\nsVuser_impression_limit_period_unit\np29258\nI0\nsVimpression_control_type\np29259\nI2\nssVlocation\np29260\nI3\nsasVcreative_ids\np29261\n(lp29262\nI6005313148965\nasVmax_bid\np29263\nV75\np29264\nsVadgroup_id\np29265\nI6005313149365\nsVaccount_id\np29266\nI40156177\nsa(dp29267\nVconversion_specs\np29268\n(lp29269\nsVupdated_time\np29270\nV2012-09-21T20:08:39+0000\np29271\nsVbid_type\np29'
p6
sS'hash'
p7
S'b60868847bccf4cb12efa650741a1cd20cc3ec13'
p8
sS'stack'
p9
S''
s.