(dp1
S'args'
p2
S''
sS'methodname'
p3
S''
sS'packet_num'
p4
I1
sS'returnval'
p5
S'6T14:16:08+0000\np209\nsVend_time\np210\nV2012-04-29T06:00:00+0000\np211\nsVadgroup_status\np212\nI9\nsVid\np213\nV6004970086765\np214\nsVad_id\np215\nI6004970086765\nsVimpression_control_map\np216\n(lp217\n(dp218\nVcontrol\np219\n(dp220\nVuser_impression_limit_period\np221\nI24\nsVuser_impression_limit\np222\nI3\nsVuser_impression_limit_period_unit\np223\nI0\nsVimpression_control_type\np224\nI2\nssVlocation\np225\nI3\nsasVcreative_ids\np226\n(lp227\nI6004970086365\nasVmax_bid\np228\nV75\np229\nsVadgroup_id\np230\nI6004970086765\nsVaccount_id\np231\nI40156177\nsa(dp232\nVconversion_specs\np233\n(lp234\nsVupdated_time\np235\nV2012-04-24T21:17:26+0000\np236\nsVbid_type\np237\nI1\nsVname\np238\nVA Talking Chicken!\np239\nsVtracking_pixel_ids\np240\n(lp241\nsVtargeting\np242\n(dp243\nVage_max\np244\nI65\nsVcountries\np245\n(lp246\nVUS\np247\nasVbroad_age\np248\nI1\nsVage_min\np249\nI18\nssVbid_info\np250\n(dp251\nV1\np252\nV75\np253\nssVstart_time\np254\nNsVad_status\np255\nI2\nsVcampaign_id\np256\nI6004963636165\nsVlocations\np257\n(lp258\nI3\nasVcreated_time\np259\nV2012-04-09T00:49:07+0000\np260\nsVend_time\np261\nV2012-04-29T06:00:00+0000\np262\nsVadgroup_status\np263\nI9\nsVid\np264\nV6004979712565\np265\nsVad_id\np266\nI6004979712565\nsVimpression_control_map\np267\n(lp268\n(dp269\nVcontrol\np270\n(dp271\nVuser_impression_limit_period\np272\nI24\nsVuser_impression_limit\np273\nI3\nsVuser_impression_limit_period_unit\np274\nI0\nsVimpression_control_type\np275\nI2\nssVlocation\np276\nI3\nsasVcreative_ids\np277\n(lp278\nI6004990310965\nasVmax_bid\np279\nV75\np280\nsVadgroup_id\np281\nI6004979712565\nsVaccount_id\np282\nI40156177\nsa(dp283\nVconversion_specs\np284\n(lp285\nsVupdated_time\np286\nV2012-04-24T21:17:26+0000\np287\nsVbid_type\np288\nI1\nsVname\np289\nVA Talking Chicken! 1\np290\nsVtracking_pixel_ids\np291\n(lp292\nsVtargeting\np293\n(dp294\nVage_max\np295\nI65\nsVcountries\np296\n(lp297\nVUS\np298\nasVbroad_age\np299\nI1\nsVage_min\np300\nI18\nssVbid_info\np301\n(dp302\nV1\np303\nV75\np304\nssVstart_time\np305\nNsVad_status\np306\nI2\nsVcampaign_id\np307\nI6004963636165\nsVlocations\np308\n(lp309\nI3\nasVcreated_time\np310\nV2012-04-13T16:27:25+0000\np311\nsVend_time\np312\nV2012-04-29T06:00:00+0000\np313\nsVadgroup_status\np314\nI9\nsVid\np315\nV6004996013565\np316\nsVad_id\np317\nI6004996013565\nsVimpression_control_map\np318\n(lp319\n(dp320\nVcontrol\np321\n(dp322\nVuser_impression_limit_period\np323\nI24\nsVuser_impression_limit\np324\nI6\nsVuser_impression_limit_period_unit\np325\nI0\nsVimpression_control_type\np326\nI2\nssVlocation\np327\nI3\nsasVcreative_ids\np328\n(lp329\nI6004996013165\nasVmax_bid\np330\nV75\np331\nsVadgroup_id\np332\nI6004996013565\nsVaccount_id\np333\nI40156177\nsa(dp334\nVconversion_specs\np335\n(lp336\nsVupdated_time\np337\nV2012-04-24T21:17:26+0000\np338\nsVbid_type\np339\nI1\nsVname\np340\nVThe Motivational Chicken!\np341\nsVtracking_pixel_ids\np342\n(lp343\nsVtargeting\np344\n(dp345\nVage_max\np346\nI65\nsVcountries\np347\n(lp348\nVUS\np349\nasVuser_adclusters\np350\n(lp351\n(dp352\nVid\np353\nV6002714884572\np354\nsVname\np355\nVGaming (Social/Online)\np356\nsa(dp357\nVid\np358\nV6002714884772\np359\nsVname\np360\nVGaming (Console)\np361\nsa(dp362\nVid\np363\nV6002714886772\np364\nsVname\np365\nVFood & Dining\np366\nsasVbroad_age\np367\nI1\nsVage_min\np368\nI18\nssVbid_info\np369\n(dp370\nV1\np371\nV75\np372\nssVstart_time\np373\nNsVad_status\np374\nI2\nsVcampaign_id\np375\nI6004963636165\nsVlocations\np376\n(lp377\nI3\nasVcreated_time\np378\nV2012-04-17T20:07:34+0000\np379\nsVend_time\np380\nV2012-04-29T06:00:00+0000\np381\nsVadgroup_status\np382\nI9\nsVid\np383\nV6005008419965\np384\nsVad_id\np385\nI6005008419965\nsVimpression_control_map\np386\n(lp387\n(dp388\nVcontrol\np389\n(dp390\nVuser_impression_limit_period\np391\nI24\nsVuser_impression_limit\np392\nI3\nsVuser_impression_limit_period_unit\np393\nI0\nsVimpression_control_type\np394\nI2\nssVlocation\np395\nI3\nsasVcreative_ids\np396\n(lp397\nI6005008419565\nasVmax_bid\np398\nV75\np399\nsVadgroup_id\np400\nI6005008419965\nsVaccount_id\np401\nI40156177\nsa(dp402\nVconversion_specs\np403\n(lp404\nsVupdated_time\np405\nV2012-04-24T21:17:26+0000\np406\nsVbid_type\np407\nI1\nsVname\np408\nVLife a Little Bland?\np409\nsVtracking_pixel_ids\np410\n(lp411\nsVtargeting\np412\n(dp413\nVage_max\np414\nI65\nsVcountries\np415\n(lp416\nVUS\np417\nasVbroad_age\np418\nI1\nsVage_min\np419\nI18\nssVbid_info\np420\n(dp421\nV1\np422\nV75\np423\nssVstart_time\np424\nNsVad_status\np425\n'
p6
sS'hash'
p7
S'b60868847bccf4cb12efa650741a1cd20cc3ec13'
p8
sS'stack'
p9
S''
s.