(dp1
S'args'
p2
S''
sS'methodname'
p3
S''
sS'packet_num'
p4
I29
sS'returnval'
p5
S"sVaccount_id\np5963\nI40156177\nsa(dp5964\nVconversion_specs\np5965\n(lp5966\nsVupdated_time\np5967\nV2012-09-21T20:02:16+0000\np5968\nsVbid_type\np5969\nI1\nsVname\np5970\nVThe 70's Party Era\np5971\nsVtracking_pixel_ids\np5972\n(lp5973\nsVtargeting\np5974\n(dp5975\nVage_max\np5976\nI65\nsVcountries\np5977\n(lp5978\nVUS\np5979\nasVbroad_age\np5980\nI1\nsVage_min\np5981\nI18\nssVbid_info\np5982\n(dp5983\nV1\np5984\nV75\np5985\nssVstart_time\np5986\nNsVad_status\np5987\nI2\nsVcampaign_id\np5988\nI6004996422765\nsVlocations\np5989\n(lp5990\nI3\nasVcreated_time\np5991\nV2012-04-19T01:29:13+0000\np5992\nsVend_time\np5993\nV2012-04-20T06:00:00+0000\np5994\nsVadgroup_status\np5995\nI8\nsVid\np5996\nV6005013935565\np5997\nsVad_id\np5998\nI6005013935565\nsVimpression_control_map\np5999\n(lp6000\n(dp6001\nVcontrol\np6002\n(dp6003\nVuser_impression_limit_period\np6004\nI24\nsVuser_impression_limit\np6005\nI6\nsVuser_impression_limit_period_unit\np6006\nI0\nsVimpression_control_type\np6007\nI2\nssVlocation\np6008\nI3\nsasVcreative_ids\np6009\n(lp6010\nI6005013935165\nasVmax_bid\np6011\nV75\np6012\nsVadgroup_id\np6013\nI6005013935565\nsVaccount_id\np6014\nI40156177\nsa(dp6015\nVconversion_specs\np6016\n(lp6017\nsVupdated_time\np6018\nV2012-09-21T20:02:16+0000\np6019\nsVbid_type\np6020\nI1\nsVname\np6021\nVThe 80's Party Scene\np6022\nsVtracking_pixel_ids\np6023\n(lp6024\nsVtargeting\np6025\n(dp6026\nVage_max\np6027\nI65\nsVcountries\np6028\n(lp6029\nVUS\np6030\nasVbroad_age\np6031\nI1\nsVage_min\np6032\nI18\nssVbid_info\np6033\n(dp6034\nV1\np6035\nV75\np6036\nssVstart_time\np6037\nNsVad_status\np6038\nI2\nsVcampaign_id\np6039\nI6004996422765\nsVlocations\np6040\n(lp6041\nI3\nasVcreated_time\np6042\nV2012-04-19T01:29:43+0000\np6043\nsVend_time\np6044\nV2012-04-20T06:00:00+0000\np6045\nsVadgroup_status\np6046\nI8\nsVid\np6047\nV6005013937765\np6048\nsVad_id\np6049\nI6005013937765\nsVimpression_control_map\np6050\n(lp6051\n(dp6052\nVcontrol\np6053\n(dp6054\nVuser_impression_limit_period\np6055\nI24\nsVuser_impression_limit\np6056\nI6\nsVuser_impression_limit_period_unit\np6057\nI0\nsVimpression_control_type\np6058\nI2\nssVlocation\np6059\nI3\nsasVcreative_ids\np6060\n(lp6061\nI6005013937365\nasVmax_bid\np6062\nV75\np6063\nsVadgroup_id\np6064\nI6005013937765\nsVaccount_id\np6065\nI40156177\nsa(dp6066\nVconversion_specs\np6067\n(lp6068\nsVupdated_time\np6069\nV2012-04-24T21:18:34+0000\np6070\nsVbid_type\np6071\nI1\nsVname\np6072\nVMonkey Can Use IPad\np6073\nsVtracking_pixel_ids\np6074\n(lp6075\nsVtargeting\np6076\n(dp6077\nVage_max\np6078\nI65\nsVcountries\np6079\n(lp6080\nVUS\np6081\nasVbroad_age\np6082\nI1\nsVage_min\np6083\nI18\nssVbid_info\np6084\n(dp6085\nV1\np6086\nV79\np6087\nssVstart_time\np6088\nNsVad_status\np6089\nI2\nsVcampaign_id\np6090\nI6004996667965\nsVlocations\np6091\n(lp6092\nI3\nasVcreated_time\np6093\nV2012-04-22T20:48:28+0000\np6094\nsVend_time\np6095\nV2012-04-25T06:00:00+0000\np6096\nsVadgroup_status\np6097\nI8\nsVid\np6098\nV6005034136365\np6099\nsVad_id\np6100\nI6005034136365\nsVimpression_control_map\np6101\n(lp6102\n(dp6103\nVcontrol\np6104\n(dp6105\nVuser_impression_limit_period\np6106\nI24\nsVuser_impression_limit\np6107\nI6\nsVuser_impression_limit_period_unit\np6108\nI0\nsVimpression_control_type\np6109\nI2\nssVlocation\np6110\nI3\nsasVcreative_ids\np6111\n(lp6112\nI6005034135965\nasVmax_bid\np6113\nV79\np6114\nsVadgroup_id\np6115\nI6005034136365\nsVaccount_id\np6116\nI40156177\nsa(dp6117\nVconversion_specs\np6118\n(lp6119\nsVupdated_time\np6120\nV2012-04-24T03:15:32+0000\np6121\nsVbid_type\np6122\nI1\nsVname\np6123\nVTalking Monkeys\np6124\nsVtracking_pixel_ids\np6125\n(lp6126\nsVtargeting\np6127\n(dp6128\nVage_max\np6129\nI65\nsVcountries\np6130\n(lp6131\nVUS\np6132\nasVbroad_age\np6133\nI1\nsVage_min\np6134\nI18\nssVbid_info\np6135\n(dp6136\nV1\np6137\nV75\np6138\nssVstart_time\np6139\nNsVad_status\np6140\nI2\nsVcampaign_id\np6141\nI6004996667965\nsVlocations\np6142\n(lp6143\nI3\nasVcreated_time\np6144\nV2012-04-13T20:10:44+0000\np6145\nsVend_time\np6146\nV2012-04-25T06:00:00+0000\np6147\nsVadgroup_status\np6148\nI9\nsVid\np6149\nV6004996668965\np6150\nsVad_id\np6151\nI6004996668965\nsVimpression_control_map\np6152\n(lp6153\n(dp6154\nVcontrol\np6155\n(dp6156\nVuser_impression_limit_period\np6157\nI24\nsVuser_impression_limit\np6158\nI3\nsVuser_impression_limit_period_unit\np6159\nI0\nsVimpression_control_type\np6160\nI2\nssVlocation\np6161\nI3\nsasVcreative_ids\np6162\n(lp6163\nI6004996668565\nasVmax_bid\np6164\nV75\np616"
p6
sS'hash'
p7
S'b60868847bccf4cb12efa650741a1cd20cc3ec13'
p8
sS'stack'
p9
S''
s.