(dp1
S'args'
p2
S''
sS'methodname'
p3
S''
sS'packet_num'
p4
I64
sS'returnval'
p5
S'sVtargeting\np13157\n(dp13158\nVkeywords\np13159\n(lp13160\nV#NHL on NBC\np13161\naV#NHL 2K\np13162\naV#Hockey\np13163\naV#NHL 11\np13164\naV#USA Hockey\np13165\naV#National Hockey League\np13166\naV#NHL 09\np13167\naV#Ice hockey\np13168\naV#New Jersey Devils\np13169\naV#NHL Hockey\np13170\naV#NHL 10\np13171\naV#NHL 12\np13172\nasVage_max\np13173\nI65\nsVcountries\np13174\n(lp13175\nVUS\np13176\nasVbroad_age\np13177\nI1\nsVage_min\np13178\nI14\nssVbid_info\np13179\n(dp13180\nV1\np13181\nV65\np13182\nssVstart_time\np13183\nNsVad_status\np13184\nI2\nsVcampaign_id\np13185\nI6005130626565\nsVlocations\np13186\n(lp13187\nI3\nasVcreated_time\np13188\nV2012-05-08T18:18:06+0000\np13189\nsVend_time\np13190\nV2012-05-10T03:00:00+0000\np13191\nsVadgroup_status\np13192\nI9\nsVid\np13193\nV6005130627565\np13194\nsVad_id\np13195\nI6005130627565\nsVimpression_control_map\np13196\n(lp13197\n(dp13198\nVcontrol\np13199\n(dp13200\nVuser_impression_limit_period\np13201\nI24\nsVuser_impression_limit\np13202\nI3\nsVuser_impression_limit_period_unit\np13203\nI0\nsVimpression_control_type\np13204\nI2\nssVlocation\np13205\nI3\nsasVcreative_ids\np13206\n(lp13207\nI6005130627165\nasVmax_bid\np13208\nV65\np13209\nsVadgroup_id\np13210\nI6005130627565\nsVaccount_id\np13211\nI40156177\nsa(dp13212\nVconversion_specs\np13213\n(lp13214\nsVupdated_time\np13215\nV2012-09-21T20:03:49+0000\np13216\nsVbid_type\np13217\nI1\nsVname\np13218\nV"Call Me Maybe"\np13219\nsVtracking_pixel_ids\np13220\n(lp13221\nsVtargeting\np13222\n(dp13223\nVkeywords\np13224\n(lp13225\nV#MTV\np13226\naV#Carly Rae Jepsen\np13227\naV#Zynga\np13228\naV#Rihanna\np13229\naV#Beyonc\xe9 Knowles\np13230\nasVage_max\np13231\nI65\nsVcountries\np13232\n(lp13233\nVUS\np13234\nasVbroad_age\np13235\nI1\nsVage_min\np13236\nI13\nssVbid_info\np13237\n(dp13238\nV1\np13239\nV52\np13240\nssVstart_time\np13241\nNsVad_status\np13242\nI2\nsVcampaign_id\np13243\nI6005130644565\nsVlocations\np13244\n(lp13245\nI3\nasVcreated_time\np13246\nV2012-06-13T17:40:17+0000\np13247\nsVend_time\np13248\nNsVadgroup_status\np13249\nI8\nsVid\np13250\nV6005300451365\np13251\nsVad_id\np13252\nI6005300451365\nsVimpression_control_map\np13253\n(lp13254\n(dp13255\nVcontrol\np13256\n(dp13257\nVuser_impression_limit_period\np13258\nI24\nsVuser_impression_limit\np13259\nI6\nsVuser_impression_limit_period_unit\np13260\nI0\nsVimpression_control_type\np13261\nI2\nssVlocation\np13262\nI3\nsasVcreative_ids\np13263\n(lp13264\nI6005300450965\nasVmax_bid\np13265\nV52\np13266\nsVadgroup_id\np13267\nI6005300451365\nsVaccount_id\np13268\nI40156177\nsa(dp13269\nVconversion_specs\np13270\n(lp13271\nsVupdated_time\np13272\nV2012-06-13T17:36:16+0000\np13273\nsVbid_type\np13274\nI1\nsVname\np13275\nVWhere Have You Been?\np13276\nsVtracking_pixel_ids\np13277\n(lp13278\nsVtargeting\np13279\n(dp13280\nVkeywords\np13281\n(lp13282\nV#Rihanna\np13283\nasVage_max\np13284\nI65\nsVcountries\np13285\n(lp13286\nVUS\np13287\nasVbroad_age\np13288\nI1\nsVage_min\np13289\nI13\nssVbid_info\np13290\n(dp13291\nV1\np13292\nV52\np13293\nssVstart_time\np13294\nNsVad_status\np13295\nI2\nsVcampaign_id\np13296\nI6005130644565\nsVlocations\np13297\n(lp13298\nI3\nasVcreated_time\np13299\nV2012-05-08T18:31:01+0000\np13300\nsVend_time\np13301\nV2012-06-14T03:00:00+0000\np13302\nsVadgroup_status\np13303\nI9\nsVid\np13304\nV6005130645565\np13305\nsVad_id\np13306\nI6005130645565\nsVimpression_control_map\np13307\n(lp13308\n(dp13309\nVcontrol\np13310\n(dp13311\nVuser_impression_limit_period\np13312\nI24\nsVuser_impression_limit\np13313\nI3\nsVuser_impression_limit_period_unit\np13314\nI0\nsVimpression_control_type\np13315\nI2\nssVlocation\np13316\nI3\nsasVcreative_ids\np13317\n(lp13318\nI6005130645165\nasVmax_bid\np13319\nV52\np13320\nsVadgroup_id\np13321\nI6005130645565\nsVaccount_id\np13322\nI40156177\nsa(dp13323\nVconversion_specs\np13324\n(lp13325\nsVupdated_time\np13326\nV2012-06-13T17:40:47+0000\np13327\nsVbid_type\np13328\nI1\nsVname\np13329\nVWhere Have You Been? 1\np13330\nsVtracking_pixel_ids\np13331\n(lp13332\nsVtargeting\np13333\n(dp13334\nVkeywords\np13335\n(lp13336\nV#Rihanna\np13337\nasVage_max\np13338\nI65\nsVcountries\np13339\n(lp13340\nVUS\np13341\nasVbroad_age\np13342\nI1\nsVage_min\np13343\nI13\nssVbid_info\np13344\n(dp13345\nV1\np13346\nV52\np13347\nssVstart_time\np13348\nNsVad_status\np13349\nI2\nsVcampaign_id\np13350\nI6005130644565\nsVlocations\np13351\n(lp13352\nI3\nasVcreated_time\np13353\nV2012-05-08T18:33:26+0000\np13354\nsVend_time\np13355\nV2012-06-14T03:0'
p6
sS'hash'
p7
S'b60868847bccf4cb12efa650741a1cd20cc3ec13'
p8
sS'stack'
p9
S''
s.