(dp1
S'args'
p2
S''
sS'methodname'
p3
S''
sS'packet_num'
p4
I97
sS'returnval'
p5
S'ed_time\np19525\nV2012-05-24T20:29:43+0000\np19526\nsVend_time\np19527\nV2012-06-14T03:00:00+0000\np19528\nsVadgroup_status\np19529\nI8\nsVid\np19530\nV6005228003565\np19531\nsVad_id\np19532\nI6005228003565\nsVimpression_control_map\np19533\n(lp19534\n(dp19535\nVcontrol\np19536\n(dp19537\nVuser_impression_limit_period\np19538\nI24\nsVuser_impression_limit\np19539\nI6\nsVuser_impression_limit_period_unit\np19540\nI0\nsVimpression_control_type\np19541\nI2\nssVlocation\np19542\nI3\nsasVcreative_ids\np19543\n(lp19544\nI6005228003165\nasVmax_bid\np19545\nV35\np19546\nsVadgroup_id\np19547\nI6005228003565\nsVaccount_id\np19548\nI40156177\nsa(dp19549\nVconversion_specs\np19550\n(lp19551\nsVupdated_time\np19552\nV2012-09-21T20:05:42+0000\np19553\nsVbid_type\np19554\nI1\nsVname\np19555\nVSpace Tourism\np19556\nsVtracking_pixel_ids\np19557\n(lp19558\nsVtargeting\np19559\n(dp19560\nVregions\np19561\n(lp19562\n(dp19563\nVid\np19564\nV53\np19565\nsVname\np19566\nVWashington\np19567\nsasVage_max\np19568\nI65\nsVcountries\np19569\n(lp19570\nVUS\np19571\nasVbroad_age\np19572\nI1\nsVage_min\np19573\nI13\nssVbid_info\np19574\n(dp19575\nV1\np19576\nV75\np19577\nssVstart_time\np19578\nNsVad_status\np19579\nI2\nsVcampaign_id\np19580\nI6005228032165\nsVlocations\np19581\n(lp19582\nI3\nasVcreated_time\np19583\nV2012-05-24T20:53:38+0000\np19584\nsVend_time\np19585\nV2012-06-02T03:30:00+0000\np19586\nsVadgroup_status\np19587\nI8\nsVid\np19588\nV6005228033165\np19589\nsVad_id\np19590\nI6005228033165\nsVimpression_control_map\np19591\n(lp19592\n(dp19593\nVcontrol\np19594\n(dp19595\nVuser_impression_limit_period\np19596\nI24\nsVuser_impression_limit\np19597\nI3\nsVuser_impression_limit_period_unit\np19598\nI0\nsVimpression_control_type\np19599\nI2\nssVlocation\np19600\nI3\nsasVcreative_ids\np19601\n(lp19602\nI6005228266965\nasVmax_bid\np19603\nV75\np19604\nsVadgroup_id\np19605\nI6005228033165\nsVaccount_id\np19606\nI40156177\nsa(dp19607\nVconversion_specs\np19608\n(lp19609\nsVupdated_time\np19610\nV2012-09-21T20:05:42+0000\np19611\nsVbid_type\np19612\nI1\nsVname\np19613\nVBuying Las Vegas\np19614\nsVtracking_pixel_ids\np19615\n(lp19616\nsVtargeting\np19617\n(dp19618\nVregions\np19619\n(lp19620\n(dp19621\nVid\np19622\nV53\np19623\nsVname\np19624\nVWashington\np19625\nsasVage_max\np19626\nI65\nsVcountries\np19627\n(lp19628\nVUS\np19629\nasVbroad_age\np19630\nI1\nsVage_min\np19631\nI13\nssVbid_info\np19632\n(dp19633\nV1\np19634\nV75\np19635\nssVstart_time\np19636\nNsVad_status\np19637\nI2\nsVcampaign_id\np19638\nI6005228032165\nsVlocations\np19639\n(lp19640\nI3\nasVcreated_time\np19641\nV2012-05-24T21:00:54+0000\np19642\nsVend_time\np19643\nV2012-06-02T03:30:00+0000\np19644\nsVadgroup_status\np19645\nI8\nsVid\np19646\nV6005228043165\np19647\nsVad_id\np19648\nI6005228043165\nsVimpression_control_map\np19649\n(lp19650\n(dp19651\nVcontrol\np19652\n(dp19653\nVuser_impression_limit_period\np19654\nI24\nsVuser_impression_limit\np19655\nI3\nsVuser_impression_limit_period_unit\np19656\nI0\nsVimpression_control_type\np19657\nI2\nssVlocation\np19658\nI3\nsasVcreative_ids\np19659\n(lp19660\nI6005228267765\nasVmax_bid\np19661\nV75\np19662\nsVadgroup_id\np19663\nI6005228043165\nsVaccount_id\np19664\nI40156177\nsa(dp19665\nVconversion_specs\np19666\n(lp19667\nsVupdated_time\np19668\nV2012-09-21T20:05:42+0000\np19669\nsVbid_type\np19670\nI1\nsVname\np19671\nVBuying $330K Truffles\np19672\nsVtracking_pixel_ids\np19673\n(lp19674\nsVtargeting\np19675\n(dp19676\nVregions\np19677\n(lp19678\n(dp19679\nVid\np19680\nV53\np19681\nsVname\np19682\nVWashington\np19683\nsasVage_max\np19684\nI65\nsVcountries\np19685\n(lp19686\nVUS\np19687\nasVbroad_age\np19688\nI1\nsVage_min\np19689\nI13\nssVbid_info\np19690\n(dp19691\nV1\np19692\nV75\np19693\nssVstart_time\np19694\nNsVad_status\np19695\nI2\nsVcampaign_id\np19696\nI6005228032165\nsVlocations\np19697\n(lp19698\nI3\nasVcreated_time\np19699\nV2012-05-24T21:02:14+0000\np19700\nsVend_time\np19701\nV2012-06-02T03:30:00+0000\np19702\nsVadgroup_status\np19703\nI8\nsVid\np19704\nV6005228045165\np19705\nsVad_id\np19706\nI6005228045165\nsVimpression_control_map\np19707\n(lp19708\n(dp19709\nVcontrol\np19710\n(dp19711\nVuser_impression_limit_period\np19712\nI24\nsVuser_impression_limit\np19713\nI3\nsVuser_impression_limit_period_unit\np19714\nI0\nsVimpression_control_type\np19715\nI2\nssVlocation\np19716\nI3\nsasVcreative_ids\np19717\n(lp19718\nI6005228265965\nasVmax_bid\np19719\nV75\np19720\nsVadgroup_id\np19721\nI6005228045165\nsVaccount_id\np19'
p6
sS'hash'
p7
S'b60868847bccf4cb12efa650741a1cd20cc3ec13'
p8
sS'stack'
p9
S''
s.