(dp1
S'args'
p2
S''
sS'methodname'
p3
S''
sS'packet_num'
p4
I80
sS'returnval'
p5
S"reated_time\np16239\nV2012-05-18T17:13:57+0000\np16240\nsVend_time\np16241\nV2012-05-22T04:00:00+0000\np16242\nsVadgroup_status\np16243\nI8\nsVid\np16244\nV6005173808365\np16245\nsVad_id\np16246\nI6005173808365\nsVimpression_control_map\np16247\n(lp16248\n(dp16249\nVcontrol\np16250\n(dp16251\nVuser_impression_limit_period\np16252\nI24\nsVuser_impression_limit\np16253\nI6\nsVuser_impression_limit_period_unit\np16254\nI0\nsVimpression_control_type\np16255\nI2\nssVlocation\np16256\nI3\nsasVcreative_ids\np16257\n(lp16258\nI6005173807965\nasVmax_bid\np16259\nV58\np16260\nsVadgroup_id\np16261\nI6005173808365\nsVaccount_id\np16262\nI40156177\nsa(dp16263\nVconversion_specs\np16264\n(lp16265\nsVupdated_time\np16266\nV2012-09-21T20:04:46+0000\np16267\nsVbid_type\np16268\nI1\nsVname\np16269\nVGood Morning Pee Wee!\np16270\nsVtracking_pixel_ids\np16271\n(lp16272\nsVtargeting\np16273\n(dp16274\nVkeywords\np16275\n(lp16276\nV#Pee-wee's Playhouse\np16277\naV#Big Top Pee-wee\np16278\naV#Pee-wee Herman\np16279\naVpee wee herman\np16280\naV#Beetlejuice\np16281\naV#Pee-wee's Big Adventure\np16282\naV#Ben Stiller\np16283\naVpee wee hermans big adventure\np16284\naV#Pee Wee (entertainer)\np16285\naVpeewee herman\np16286\naV#Adam Sandler\np16287\naVpeewees playhouse\np16288\naVpee wee\np16289\naV#Paul Reubens\np16290\naVpee wee herman fan club\np16291\naV#Edward Scissorhands\np16292\nasVage_max\np16293\nI65\nsVcountries\np16294\n(lp16295\nVUS\np16296\nasVbroad_age\np16297\nI1\nsVage_min\np16298\nI13\nssVbid_info\np16299\n(dp16300\nV1\np16301\nV65\np16302\nssVstart_time\np16303\nNsVad_status\np16304\nI2\nsVcampaign_id\np16305\nI6005181320165\nsVlocations\np16306\n(lp16307\nI3\nasVcreated_time\np16308\nV2012-05-21T14:43:24+0000\np16309\nsVend_time\np16310\nV2012-05-28T03:00:00+0000\np16311\nsVadgroup_status\np16312\nI8\nsVid\np16313\nV6005181321165\np16314\nsVad_id\np16315\nI6005181321165\nsVimpression_control_map\np16316\n(lp16317\n(dp16318\nVcontrol\np16319\n(dp16320\nVuser_impression_limit_period\np16321\nI24\nsVuser_impression_limit\np16322\nI6\nsVuser_impression_limit_period_unit\np16323\nI0\nsVimpression_control_type\np16324\nI2\nssVlocation\np16325\nI3\nsasVcreative_ids\np16326\n(lp16327\nI6005181320765\nasVmax_bid\np16328\nV65\np16329\nsVadgroup_id\np16330\nI6005181321165\nsVaccount_id\np16331\nI40156177\nsa(dp16332\nVconversion_specs\np16333\n(lp16334\nsVupdated_time\np16335\nV2012-09-21T20:04:46+0000\np16336\nsVbid_type\np16337\nI1\nsVname\np16338\nVLove Breakfast & Movies?\np16339\nsVtracking_pixel_ids\np16340\n(lp16341\nsVtargeting\np16342\n(dp16343\nVkeywords\np16344\n(lp16345\nV#Movies\np16346\nasVage_max\np16347\nI65\nsVcountries\np16348\n(lp16349\nVUS\np16350\nasVbroad_age\np16351\nI1\nsVage_min\np16352\nI13\nssVbid_info\np16353\n(dp16354\nV1\np16355\nV65\np16356\nssVstart_time\np16357\nNsVad_status\np16358\nI2\nsVcampaign_id\np16359\nI6005181320165\nsVlocations\np16360\n(lp16361\nI3\nasVcreated_time\np16362\nV2012-05-25T17:01:49+0000\np16363\nsVend_time\np16364\nV2012-05-28T03:00:00+0000\np16365\nsVadgroup_status\np16366\nI8\nsVid\np16367\nV6005229949165\np16368\nsVad_id\np16369\nI6005229949165\nsVimpression_control_map\np16370\n(lp16371\n(dp16372\nVcontrol\np16373\n(dp16374\nVuser_impression_limit_period\np16375\nI24\nsVuser_impression_limit\np16376\nI6\nsVuser_impression_limit_period_unit\np16377\nI0\nsVimpression_control_type\np16378\nI2\nssVlocation\np16379\nI3\nsasVcreative_ids\np16380\n(lp16381\nI6005229948765\nasVmax_bid\np16382\nV65\np16383\nsVadgroup_id\np16384\nI6005229949165\nsVaccount_id\np16385\nI40156177\nsa(dp16386\nVconversion_specs\np16387\n(lp16388\nsVupdated_time\np16389\nV2012-09-21T20:04:48+0000\np16390\nsVbid_type\np16391\nI1\nsVname\np16392\nVDo you love breakfast? 1\np16393\nsVtracking_pixel_ids\np16394\n(lp16395\nsVtargeting\np16396\n(dp16397\nVage_max\np16398\nI65\nsVcountries\np16399\n(lp16400\nVUS\np16401\nasVbroad_age\np16402\nI1\nsVage_min\np16403\nI15\nssVbid_info\np16404\n(dp16405\nV1\np16406\nV66\np16407\nssVstart_time\np16408\nNsVad_status\np16409\nI2\nsVcampaign_id\np16410\nI6005181349965\nsVlocations\np16411\n(lp16412\nI3\nasVcreated_time\np16413\nV2012-05-23T21:27:42+0000\np16414\nsVend_time\np16415\nV2012-05-26T03:00:00+0000\np16416\nsVadgroup_status\np16417\nI8\nsVid\np16418\nV6005218685165\np16419\nsVad_id\np16420\nI6005218685165\nsVimpression_control_map\np16421\n(lp16422\n(dp16423\nVcontrol\np16424\n(dp16425\nVuser_impression_limit_period\np16426\nI24\nsVuser_impression_"
p6
sS'hash'
p7
S'b60868847bccf4cb12efa650741a1cd20cc3ec13'
p8
sS'stack'
p9
S''
s.