(dp1
S'args'
p2
S''
sS'methodname'
p3
S''
sS'packet_num'
p4
I6
sS'returnval'
p5
S'\np1288\n(lp1289\nsVupdated_time\np1290\nV2012-09-21T20:01:37+0000\np1291\nsVbid_type\np1292\nI1\nsVname\np1293\nVTop Motivational Images 3\np1294\nsVtracking_pixel_ids\np1295\n(lp1296\nsVtargeting\np1297\n(dp1298\nVage_max\np1299\nI65\nsVcountries\np1300\n(lp1301\nVUS\np1302\nasVbroad_age\np1303\nI1\nsVage_min\np1304\nI18\nssVbid_info\np1305\n(dp1306\nV1\np1307\nV65\np1308\nssVstart_time\np1309\nNsVad_status\np1310\nI2\nsVcampaign_id\np1311\nI6004963992165\nsVlocations\np1312\n(lp1313\nI3\nasVcreated_time\np1314\nV2012-04-09T16:34:25+0000\np1315\nsVend_time\np1316\nV2012-04-21T06:00:00+0000\np1317\nsVadgroup_status\np1318\nI8\nsVid\np1319\nV6004980879965\np1320\nsVad_id\np1321\nI6004980879965\nsVimpression_control_map\np1322\n(lp1323\n(dp1324\nVcontrol\np1325\n(dp1326\nVuser_impression_limit_period\np1327\nI24\nsVuser_impression_limit\np1328\nI3\nsVuser_impression_limit_period_unit\np1329\nI0\nsVimpression_control_type\np1330\nI2\nssVlocation\np1331\nI3\nsasVcreative_ids\np1332\n(lp1333\nI6005023428365\nasVmax_bid\np1334\nV65\np1335\nsVadgroup_id\np1336\nI6004980879965\nsVaccount_id\np1337\nI40156177\nsa(dp1338\nVconversion_specs\np1339\n(lp1340\nsVupdated_time\np1341\nV2012-04-20T18:27:58+0000\np1342\nsVbid_type\np1343\nI1\nsVname\np1344\nVBored? Uninspired?\np1345\nsVtracking_pixel_ids\np1346\n(lp1347\nsVtargeting\np1348\n(dp1349\nVkeywords\np1350\n(lp1351\nV#Michael Jordan\np1352\naV#SportsCenter\np1353\naV#Sport\np1354\naV#Olympic Games\np1355\naV#Michael Phelps\np1356\nasVage_max\np1357\nI65\nsVcountries\np1358\n(lp1359\nVUS\np1360\nasVbroad_age\np1361\nI1\nsVage_min\np1362\nI18\nssVbid_info\np1363\n(dp1364\nV1\np1365\nV48\np1366\nssVstart_time\np1367\nV2012-04-07T13:00:00+0000\np1368\nsVad_status\np1369\nI2\nsVcampaign_id\np1370\nI6004963992165\nsVlocations\np1371\n(lp1372\nI3\nasVcreated_time\np1373\nV2012-04-04T21:25:01+0000\np1374\nsVend_time\np1375\nV2012-04-21T06:00:00+0000\np1376\nsVadgroup_status\np1377\nI9\nsVid\np1378\nV6004963993165\np1379\nsVad_id\np1380\nI6004963993165\nsVimpression_control_map\np1381\n(lp1382\n(dp1383\nVcontrol\np1384\n(dp1385\nVuser_impression_limit_period\np1386\nI24\nsVuser_impression_limit\np1387\nI3\nsVuser_impression_limit_period_unit\np1388\nI0\nsVimpression_control_type\np1389\nI2\nssVlocation\np1390\nI3\nsasVcreative_ids\np1391\n(lp1392\nI6004963992765\nasVmax_bid\np1393\nV48\np1394\nsVadgroup_id\np1395\nI6004963993165\nsVaccount_id\np1396\nI40156177\nsa(dp1397\nVconversion_specs\np1398\n(lp1399\nsVupdated_time\np1400\nV2012-04-20T18:27:58+0000\np1401\nsVbid_type\np1402\nI1\nsVname\np1403\nVBored? Uninspired? 1\np1404\nsVtracking_pixel_ids\np1405\n(lp1406\nsVtargeting\np1407\n(dp1408\nVkeywords\np1409\n(lp1410\nV#SportsCenter\np1411\naV#Sport\np1412\naV#Olympic Games\np1413\naV#Michael Phelps\np1414\nasVage_max\np1415\nI65\nsVcountries\np1416\n(lp1417\nVUS\np1418\nasVbroad_age\np1419\nI1\nsVage_min\np1420\nI18\nssVbid_info\np1421\n(dp1422\nV1\np1423\nV48\np1424\nssVstart_time\np1425\nV2012-04-07T13:00:00+0000\np1426\nsVad_status\np1427\nI2\nsVcampaign_id\np1428\nI6004963992165\nsVlocations\np1429\n(lp1430\nI3\nasVcreated_time\np1431\nV2012-04-04T21:27:18+0000\np1432\nsVend_time\np1433\nV2012-04-21T06:00:00+0000\np1434\nsVadgroup_status\np1435\nI9\nsVid\np1436\nV6004964002965\np1437\nsVad_id\np1438\nI6004964002965\nsVimpression_control_map\np1439\n(lp1440\n(dp1441\nVcontrol\np1442\n(dp1443\nVuser_impression_limit_period\np1444\nI24\nsVuser_impression_limit\np1445\nI3\nsVuser_impression_limit_period_unit\np1446\nI0\nsVimpression_control_type\np1447\nI2\nssVlocation\np1448\nI3\nsasVcreative_ids\np1449\n(lp1450\nI6004964002565\nasVmax_bid\np1451\nV48\np1452\nsVadgroup_id\np1453\nI6004964002965\nsVaccount_id\np1454\nI40156177\nsa(dp1455\nVconversion_specs\np1456\n(lp1457\nsVupdated_time\np1458\nV2012-04-20T18:27:58+0000\np1459\nsVbid_type\np1460\nI1\nsVname\np1461\nVBored? Uninspired? 2\np1462\nsVtracking_pixel_ids\np1463\n(lp1464\nsVtargeting\np1465\n(dp1466\nVkeywords\np1467\n(lp1468\nV#SportsCenter\np1469\naV#Sport\np1470\naV#Olympic Games\np1471\naV#Michael Phelps\np1472\nasVage_max\np1473\nI65\nsVcountries\np1474\n(lp1475\nVUS\np1476\nasVbroad_age\np1477\nI1\nsVage_min\np1478\nI18\nssVbid_info\np1479\n(dp1480\nV1\np1481\nV48\np1482\nssVstart_time\np1483\nV2012-04-07T13:00:00+0000\np1484\nsVad_status\np1485\nI2\nsVcampaign_id\np1486\nI6004963992165\nsVlocations\np1487\n(lp1488\nI3\nasVcreated_time\np1489\nV2012-04-04T21:28:20+0000\np1490\nsVend_time\np1491\nV2012-04-21T06:00:00+0000\np1492\nsVa'
p6
sS'hash'
p7
S'b60868847bccf4cb12efa650741a1cd20cc3ec13'
p8
sS'stack'
p9
S''
s.