(dp1
S'args'
p2
S''
sS'methodname'
p3
S''
sS'packet_num'
p4
I35
sS'returnval'
p5
S"51\nsVbid_type\np6852\nI1\nsVname\np6853\nVKatie & Suri Cruise\np6854\nsVtracking_pixel_ids\np6855\n(lp6856\nsVtargeting\np6857\n(dp6858\nVkeywords\np6859\n(lp6860\nV#MTV\np6861\naV#Celebrity Juice\np6862\naV#Katie Holmes\np6863\naV#E! News\np6864\naV#E News channel\np6865\naV#Tom Cruise\np6866\naV#Us Weekly\np6867\naV#Jezebel\np6868\naV#TMZ.com\np6869\naV#Entertainment Tonight\np6870\naV#Omgpop\np6871\naV#Access Hollywood\np6872\naV#Gawker\np6873\naV#Star (magazine)\np6874\naV#Celebuzz\np6875\naV#Dawson Creek\np6876\naV#People (magazine)\np6877\nasVage_max\np6878\nI65\nsVcountries\np6879\n(lp6880\nVUS\np6881\nasVbroad_age\np6882\nI1\nsVage_min\np6883\nI13\nssVbid_info\np6884\n(dp6885\nV1\np6886\nV65\np6887\nssVstart_time\np6888\nNsVad_status\np6889\nI2\nsVcampaign_id\np6890\nI6005782885365\nsVlocations\np6891\n(lp6892\nI3\nasVcreated_time\np6893\nV2012-09-07T16:09:50+0000\np6894\nsVend_time\np6895\nNsVadgroup_status\np6896\nI8\nsVid\np6897\nV6005782886565\np6898\nsVad_id\np6899\nI6005782886565\nsVimpression_control_map\np6900\n(lp6901\n(dp6902\nVcontrol\np6903\n(dp6904\nVuser_impression_limit_period\np6905\nI24\nsVuser_impression_limit\np6906\nI6\nsVuser_impression_limit_period_unit\np6907\nI0\nsVimpression_control_type\np6908\nI2\nssVlocation\np6909\nI3\nsasVcreative_ids\np6910\n(lp6911\nI6005782885965\nasVmax_bid\np6912\nV65\np6913\nsVadgroup_id\np6914\nI6005782886565\nsVaccount_id\np6915\nI40156177\nsa(dp6916\nVconversion_specs\np6917\n(lp6918\nsVupdated_time\np6919\nV2012-09-21T20:15:56+0000\np6920\nsVbid_type\np6921\nI1\nsVname\np6922\nVLivin' the Posh Life\np6923\nsVtracking_pixel_ids\np6924\n(lp6925\nsVtargeting\np6926\n(dp6927\nVkeywords\np6928\n(lp6929\nV#MTV\np6930\naV#David Beckham\np6931\naV#Celebrity Juice\np6932\naV#Katie Holmes\np6933\naV#E! News\np6934\naV#E News channel\np6935\naV#Us Weekly\np6936\naV#Jezebel\np6937\naV#TMZ.com\np6938\naV#Entertainment Tonight\np6939\naV#Spice Girls\np6940\naV#Omgpop\np6941\naV#Victoria Beckham\np6942\naV#Access Hollywood\np6943\naV#Gawker\np6944\naV#Star (magazine)\np6945\naV#Celebuzz\np6946\naV#People (magazine)\np6947\nasVage_max\np6948\nI65\nsVcountries\np6949\n(lp6950\nVUS\np6951\nasVbroad_age\np6952\nI1\nsVage_min\np6953\nI13\nssVbid_info\np6954\n(dp6955\nV1\np6956\nV65\np6957\nssVstart_time\np6958\nNsVad_status\np6959\nI2\nsVcampaign_id\np6960\nI6005782885365\nsVlocations\np6961\n(lp6962\nI3\nasVcreated_time\np6963\nV2012-09-07T16:12:13+0000\np6964\nsVend_time\np6965\nNsVadgroup_status\np6966\nI8\nsVid\np6967\nV6005782898765\np6968\nsVad_id\np6969\nI6005782898765\nsVimpression_control_map\np6970\n(lp6971\n(dp6972\nVcontrol\np6973\n(dp6974\nVuser_impression_limit_period\np6975\nI24\nsVuser_impression_limit\np6976\nI6\nsVuser_impression_limit_period_unit\np6977\nI0\nsVimpression_control_type\np6978\nI2\nssVlocation\np6979\nI3\nsasVcreative_ids\np6980\n(lp6981\nI6005782898365\nasVmax_bid\np6982\nV65\np6983\nsVadgroup_id\np6984\nI6005782898765\nsVaccount_id\np6985\nI40156177\nsa(dp6986\nVbid_info\np6987\n(dp6988\nV1\np6989\nV45\np6990\nssVcampaign_id\np6991\nI6005782939965\nsVlast_updated_by_app_id\np6992\nI6802152230\nsVcreated_time\np6993\nV2012-09-07T16:24:42+0000\np6994\nsVconversion_specs\np6995\n(lp6996\nsVadgroup_id\np6997\nI6005782941365\nsVtargeting\np6998\n(dp6999\nVcountries\np7000\n(lp7001\nVUS\np7002\nassVid\np7003\nV6005782941365\np7004\nsVmax_bid\np7005\nV45\np7006\nsVad_id\np7007\nI6005782941365\nsVaccount_id\np7008\nI40156177\nsVstart_time\np7009\nNsVlocations\np7010\n(lp7011\nI3\nasVadgroup_status\np7012\nI1\nsVad_status\np7013\nI1\nsVimpression_control_map\np7014\n(lp7015\n(dp7016\nVcontrol\np7017\n(dp7018\nVuser_impression_limit_period\np7019\nI24\nsVuser_impression_limit\np7020\nI6\nsVuser_impression_limit_period_unit\np7021\nI0\nsVimpression_control_type\np7022\nI2\nssVlocation\np7023\nI3\nsasVcreative_ids\np7024\n(lp7025\nI6005782940965\nasVtracking_pixel_ids\np7026\n(lp7027\nsVbid_type\np7028\nI1\nsVname\np7029\nVAd Title\np7030\nsVupdated_time\np7031\nV2012-09-27T14:47:56+0000\np7032\nsVend_time\np7033\nNsa(dp7034\nVconversion_specs\np7035\n(lp7036\nsVupdated_time\np7037\nV2012-09-22T17:55:30+0000\np7038\nsVbid_type\np7039\nI1\nsVname\np7040\nVAd Title\np7041\nsVtracking_pixel_ids\np7042\n(lp7043\nsVtargeting\np7044\n(dp7045\nVcountries\np7046\n(lp7047\nVUS\np7048\nassVbid_info\np7049\n(dp7050\nV1\np7051\nV45\np7052\nssVstart_time\np7053\nNsVad_status\np7054\nI1\nsVcampaign_id\np7055\nI6005783865965\nsVlocations\np7056\n(lp7057\nI3\nasVcreated_time\np7058\nV2012"
p6
sS'hash'
p7
S'b6f1b18a28af6af57608860d73e6aa9fed4b58e0'
p8
sS'stack'
p9
S''
s.