(dp1
S'args'
p2
S''
sS'methodname'
p3
S''
sS'packet_num'
p4
I24
sS'returnval'
p5
S'I6\nsVuser_impression_limit_period_unit\np4695\nI0\nsVimpression_control_type\np4696\nI2\nssVlocation\np4697\nI3\nsasVcreative_ids\np4698\n(lp4699\nI6005770603165\nasVtracking_pixel_ids\np4700\n(lp4701\nsVbid_type\np4702\nI1\nsVname\np4703\nV"All My Single Ladies!"\np4704\nsVupdated_time\np4705\nV2012-09-21T20:15:35+0000\np4706\nsVend_time\np4707\nNsa(dp4708\nVbid_info\np4709\n(dp4710\nV1\np4711\nV49\np4712\nssVcampaign_id\np4713\nI6005770602365\nsVlast_updated_by_app_id\np4714\nI6802152230\nsVcreated_time\np4715\nV2012-09-04T17:29:27+0000\np4716\nsVconversion_specs\np4717\n(lp4718\nsVadgroup_id\np4719\nI6005770607165\nsVtargeting\np4720\n(dp4721\nVkeywords\np4722\n(lp4723\nV#The Colbert Report\np4724\naV#Jimmy Fallon\np4725\naV#Jon Stewart\np4726\naV#The Onion\np4727\naV#NPR\np4728\naV#The Daily Show\np4729\naV#Stephen Colbert (character)\np4730\naV#Comedy Central\np4731\naV#Conan O\'Brien\np4732\naV#Strangers with Candy\np4733\naV#Stephen Colbert\np4734\nasVage_max\np4735\nI65\nsVcountries\np4736\n(lp4737\nVUS\np4738\nasVbroad_age\np4739\nI1\nsVage_min\np4740\nI13\nssVid\np4741\nV6005770607165\np4742\nsVmax_bid\np4743\nV49\np4744\nsVad_id\np4745\nI6005770607165\nsVaccount_id\np4746\nI40156177\nsVstart_time\np4747\nNsVlocations\np4748\n(lp4749\nI3\nasVadgroup_status\np4750\nI9\nsVad_status\np4751\nI2\nsVimpression_control_map\np4752\n(lp4753\n(dp4754\nVcontrol\np4755\n(dp4756\nVuser_impression_limit_period\np4757\nI24\nsVuser_impression_limit\np4758\nI3\nsVuser_impression_limit_period_unit\np4759\nI0\nsVimpression_control_type\np4760\nI2\nssVlocation\np4761\nI3\nsasVcreative_ids\np4762\n(lp4763\nI6005770606765\nasVtracking_pixel_ids\np4764\n(lp4765\nsVbid_type\np4766\nI1\nsVname\np4767\nVDancin\' Colbert\np4768\nsVupdated_time\np4769\nV2012-09-05T19:59:07+0000\np4770\nsVend_time\np4771\nNsa(dp4772\nVbid_info\np4773\n(dp4774\nV1\np4775\nV49\np4776\nssVcampaign_id\np4777\nI6005770602365\nsVlast_updated_by_app_id\np4778\nI6802152230\nsVcreated_time\np4779\nV2012-09-04T18:15:06+0000\np4780\nsVconversion_specs\np4781\n(lp4782\nsVadgroup_id\np4783\nI6005770710765\nsVtargeting\np4784\n(dp4785\nVkeywords\np4786\n(lp4787\nV#Meet Joe Black\np4788\naV#Seven (film)\np4789\naV#Angelina Jolie\np4790\naV#Moneyball (film)\np4791\naV#The Curious Case of Benjamin Button (film)\np4792\naV#Jennifer Aniston\np4793\naVoceans eleven\np4794\naV#Legends of the Fall\np4795\naV#Burn After Reading\np4796\naV#Brad Pitt\np4797\naV#Fight Club (film)\np4798\naV#Coen brothers\np4799\naV#Troy (film)\np4800\naV#Snatch (film)\np4801\naVthelma louise\np4802\naV#The Tree of Life (film)\np4803\naVmr mrs smith\np4804\naV#Interview with the Vampire\np4805\naV#The Inglorious Bastards\np4806\nasVage_max\np4807\nI65\nsVcountries\np4808\n(lp4809\nVUS\np4810\nasVbroad_age\np4811\nI1\nsVage_min\np4812\nI13\nssVid\np4813\nV6005770710765\np4814\nsVmax_bid\np4815\nV49\np4816\nsVad_id\np4817\nI6005770710765\nsVaccount_id\np4818\nI40156177\nsVstart_time\np4819\nNsVlocations\np4820\n(lp4821\nI3\nasVadgroup_status\np4822\nI9\nsVad_status\np4823\nI2\nsVimpression_control_map\np4824\n(lp4825\n(dp4826\nVcontrol\np4827\n(dp4828\nVuser_impression_limit_period\np4829\nI24\nsVuser_impression_limit\np4830\nI3\nsVuser_impression_limit_period_unit\np4831\nI0\nsVimpression_control_type\np4832\nI2\nssVlocation\np4833\nI3\nsasVcreative_ids\np4834\n(lp4835\nI6005770710365\nasVtracking_pixel_ids\np4836\n(lp4837\nsVbid_type\np4838\nI1\nsVname\np4839\nVDancin\' Brad\np4840\nsVupdated_time\np4841\nV2012-09-04T18:53:54+0000\np4842\nsVend_time\np4843\nNsa(dp4844\nVconversion_specs\np4845\n(lp4846\nsVupdated_time\np4847\nV2012-09-21T20:15:37+0000\np4848\nsVbid_type\np4849\nI1\nsVname\np4850\nVPerhaps Some Tongue? 1\np4851\nsVtracking_pixel_ids\np4852\n(lp4853\nsVtargeting\np4854\n(dp4855\nVkeywords\np4856\n(lp4857\nV#Top Chef: Just Desserts\np4858\naV#Discovery Channel\np4859\naV#Top Chef Masters\np4860\naV#Guy Fieri\np4861\naV#Rachael Ray (TV series)\np4862\naVhidden valley ranch\np4863\naV#Food Network\np4864\naV#Man v. Food\np4865\naVbizarre foods\np4866\naV#Paula Deen\np4867\naV#Ranch dressing\np4868\naVexotic food\np4869\naV#Chef\np4870\naV#Anthony Bourdain: No Reservations\np4871\naV#Iron Chef\np4872\naV#Culinary art\np4873\naV#Anthony Bourdain\np4874\naV#Emeril Lagasse\np4875\naV#Travel Channel\np4876\naV#The Next Food Network Star\np4877\naV#Cooking\np4878\naV#Top Chef\np4879\naV#Bizarre Foods with Andrew Zimmern\np4880\naV#Iron Chef America\np4881\nasVage_max\np4882\n'
p6
sS'hash'
p7
S'b6f1b18a28af6af57608860d73e6aa9fed4b58e0'
p8
sS'stack'
p9
S''
s.