(dp1
S'args'
p2
S''
sS'methodname'
p3
S''
sS'packet_num'
p4
I81
sS'returnval'
p5
S"info\np15581\n(dp15582\nV1\np15583\nV65\np15584\nssVstart_time\np15585\nNsVad_status\np15586\nI1\nsVcampaign_id\np15587\nI6005854058765\nsVlocations\np15588\n(lp15589\nI3\nasVcreated_time\np15590\nV2012-09-20T17:48:24+0000\np15591\nsVend_time\np15592\nNsVadgroup_status\np15593\nI1\nsVid\np15594\nV6005854059965\np15595\nsVad_id\np15596\nI6005854059965\nsVimpression_control_map\np15597\n(lp15598\n(dp15599\nVcontrol\np15600\n(dp15601\nVuser_impression_limit_period\np15602\nI24\nsVuser_impression_limit\np15603\nI6\nsVuser_impression_limit_period_unit\np15604\nI0\nsVimpression_control_type\np15605\nI2\nssVlocation\np15606\nI3\nsasVcreative_ids\np15607\n(lp15608\nI6005854059565\nasVmax_bid\np15609\nV65\np15610\nsVadgroup_id\np15611\nI6005854059965\nsVaccount_id\np15612\nI40156177\nsa(dp15613\nVbid_info\np15614\n(dp15615\nV1\np15616\nV65\np15617\nssVcampaign_id\np15618\nI6005858648365\nsVcreated_time\np15619\nV2012-09-24T18:16:45+0000\np15620\nsVconversion_specs\np15621\n(lp15622\nsVadgroup_id\np15623\nI6005889709165\nsVtargeting\np15624\n(dp15625\nVkeywords\np15626\n(lp15627\nV#Scarlett Johansson\np15628\naV#Match Point\np15629\naV#Iron Man 2\np15630\naV#Lost in Translation (film)\np15631\naV#He's Just Not That into You (film)\np15632\naV#The Avengers (2012 film)\np15633\naV#Ghost World (film)\np15634\naV#Vicky Cristina Barcelona\np15635\naV#The Prestige (film)\np15636\nasVage_max\np15637\nI65\nsVcountries\np15638\n(lp15639\nVUS\np15640\nasVbroad_age\np15641\nI1\nsVage_min\np15642\nI13\nssVid\np15643\nV6005889709165\np15644\nsVobjective\np15645\nI2\nsVmax_bid\np15646\nV65\np15647\nsVad_id\np15648\nI6005889709165\nsVaccount_id\np15649\nI40156177\nsVstart_time\np15650\nNsVlocations\np15651\n(lp15652\nI3\nasVadgroup_status\np15653\nI1\nsVad_status\np15654\nI1\nsVimpression_control_map\np15655\n(lp15656\n(dp15657\nVcontrol\np15658\n(dp15659\nVuser_impression_limit_period\np15660\nI24\nsVuser_impression_limit\np15661\nI3\nsVuser_impression_limit_period_unit\np15662\nI0\nsVimpression_control_type\np15663\nI2\nssVlocation\np15664\nI3\nsasVcreative_ids\np15665\n(lp15666\nI6005858691565\nasVtracking_pixel_ids\np15667\n(lp15668\nsVbid_type\np15669\nI1\nsVname\np15670\nVScarJo Twin - None\np15671\nsVupdated_time\np15672\nV2012-09-24T18:17:19+0000\np15673\nsVend_time\np15674\nNsa(dp15675\nVbid_info\np15676\n(dp15677\nV1\np15678\nV65\np15679\nssVcampaign_id\np15680\nI6005858648365\nsVlast_updated_by_app_id\np15681\nI6802152230\nsVcreated_time\np15682\nV2012-09-20T20:02:57+0000\np15683\nsVconversion_specs\np15684\n(lp15685\nsVadgroup_id\np15686\nI6005858676365\nsVtargeting\np15687\n(dp15688\nVkeywords\np15689\n(lp15690\nV#Scarlett Johansson\np15691\naV#Match Point\np15692\naV#Iron Man 2\np15693\naV#Lost in Translation (film)\np15694\naV#He's Just Not That into You (film)\np15695\naV#The Avengers (2012 film)\np15696\naV#Ghost World (film)\np15697\naV#Vicky Cristina Barcelona\np15698\naV#The Prestige (film)\np15699\nasVage_max\np15700\nI65\nsVcountries\np15701\n(lp15702\nVUS\np15703\nasVbroad_age\np15704\nI1\nsVage_min\np15705\nI13\nssVid\np15706\nV6005858676365\np15707\nsVobjective\np15708\nI2\nsVmax_bid\np15709\nV65\np15710\nsVad_id\np15711\nI6005858676365\nsVaccount_id\np15712\nI40156177\nsVstart_time\np15713\nNsVlocations\np15714\n(lp15715\nI3\nasVadgroup_status\np15716\nI9\nsVad_status\np15717\nI2\nsVimpression_control_map\np15718\n(lp15719\n(dp15720\nVcontrol\np15721\n(dp15722\nVuser_impression_limit_period\np15723\nI24\nsVuser_impression_limit\np15724\nI6\nsVuser_impression_limit_period_unit\np15725\nI0\nsVimpression_control_type\np15726\nI2\nssVlocation\np15727\nI3\nsasVcreative_ids\np15728\n(lp15729\nI6005858691565\nasVtracking_pixel_ids\np15730\n(lp15731\nsVbid_type\np15732\nI1\nsVname\np15733\nVScarJo Twin - Social\np15734\nsVupdated_time\np15735\nV2012-09-24T18:21:30+0000\np15736\nsVend_time\np15737\nV2012-09-26T03:30:00+0000\np15738\nsa(dp15739\nVbid_info\np15740\n(dp15741\nV1\np15742\nV65\np15743\nssVcampaign_id\np15744\nI6005858648365\nsVlast_updated_by_app_id\np15745\nI6802152230\nsVcreated_time\np15746\nV2012-09-20T20:07:59+0000\np15747\nsVconversion_specs\np15748\n(lp15749\nsVadgroup_id\np15750\nI6005858688165\nsVtargeting\np15751\n(dp15752\nVkeywords\np15753\n(lp15754\nV#Jack Bauer\np15755\naV#24 (TV series)\np15756\naV#Melancholia (2011 film)\np15757\naVkiefer sutherland jack bauer\np15758\naV#Donald Sutherland\np15759\naV#The Confession (2002 film)\np15760\naV#Kiefer Sutherland\np15761\naV24 ja"
p6
sS'hash'
p7
S'b6f1b18a28af6af57608860d73e6aa9fed4b58e0'
p8
sS'stack'
p9
S''
s.