(dp1
S'args'
p2
S''
sS'methodname'
p3
S''
sS'packet_num'
p4
I55
sS'returnval'
p5
S"n\np10729\nI13\nssVid\np10730\nV6005812246965\np10731\nsVmax_bid\np10732\nV65\np10733\nsVad_id\np10734\nI6005812246965\nsVaccount_id\np10735\nI40156177\nsVstart_time\np10736\nNsVlocations\np10737\n(lp10738\nI3\nasVadgroup_status\np10739\nI9\nsVad_status\np10740\nI2\nsVimpression_control_map\np10741\n(lp10742\n(dp10743\nVcontrol\np10744\n(dp10745\nVuser_impression_limit_period\np10746\nI24\nsVuser_impression_limit\np10747\nI6\nsVuser_impression_limit_period_unit\np10748\nI0\nsVimpression_control_type\np10749\nI2\nssVlocation\np10750\nI3\nsasVcreative_ids\np10751\n(lp10752\nI6005812246365\nasVtracking_pixel_ids\np10753\n(lp10754\nsVbid_type\np10755\nI1\nsVname\np10756\nVSeeing Double? - JLo\np10757\nsVupdated_time\np10758\nV2012-09-13T20:36:39+0000\np10759\nsVend_time\np10760\nNsa(dp10761\nVbid_info\np10762\n(dp10763\nV1\np10764\nV65\np10765\nssVcampaign_id\np10766\nI6005812236565\nsVlast_updated_by_app_id\np10767\nI6802152230\nsVcreated_time\np10768\nV2012-09-13T14:26:42+0000\np10769\nsVconversion_specs\np10770\n(lp10771\nsVadgroup_id\np10772\nI6005812260965\nsVtargeting\np10773\n(dp10774\nVkeywords\np10775\n(lp10776\nV#Meet Joe Black\np10777\naV#Seven (film)\np10778\naV#Angelina Jolie\np10779\naV#Moneyball (film)\np10780\naV#The Curious Case of Benjamin Button (film)\np10781\naV#Legends of the Fall\np10782\naV#Ocean's Twelve\np10783\naV#Brad Pitt\np10784\naV#Ocean's Eleven (2001 film)\np10785\naV#Ocean's Thirteen\np10786\naV#Troy (film)\np10787\naV#The Departed\np10788\naV#12 Monkeys\np10789\naV#Fight Club\np10790\nasVage_max\np10791\nI65\nsVcountries\np10792\n(lp10793\nVUS\np10794\nasVbroad_age\np10795\nI1\nsVage_min\np10796\nI13\nssVid\np10797\nV6005812260965\np10798\nsVmax_bid\np10799\nV65\np10800\nsVad_id\np10801\nI6005812260965\nsVaccount_id\np10802\nI40156177\nsVstart_time\np10803\nNsVlocations\np10804\n(lp10805\nI3\nasVadgroup_status\np10806\nI9\nsVad_status\np10807\nI2\nsVimpression_control_map\np10808\n(lp10809\n(dp10810\nVcontrol\np10811\n(dp10812\nVuser_impression_limit_period\np10813\nI24\nsVuser_impression_limit\np10814\nI6\nsVuser_impression_limit_period_unit\np10815\nI0\nsVimpression_control_type\np10816\nI2\nssVlocation\np10817\nI3\nsasVcreative_ids\np10818\n(lp10819\nI6005812260565\nasVtracking_pixel_ids\np10820\n(lp10821\nsVbid_type\np10822\nI1\nsVname\np10823\nVSeeing Double? - Brad\np10824\nsVupdated_time\np10825\nV2012-09-13T20:36:45+0000\np10826\nsVend_time\np10827\nNsa(dp10828\nVconversion_specs\np10829\n(lp10830\nsVupdated_time\np10831\nV2012-09-21T20:17:08+0000\np10832\nsVbid_type\np10833\nI1\nsVname\np10834\nVBotched Ecce Homo?\np10835\nsVtracking_pixel_ids\np10836\n(lp10837\nsVtargeting\np10838\n(dp10839\nVkeywords\np10840\n(lp10841\nV#Conan (TV series)\np10842\naV#Adult Swim\np10843\naV#CollegeHumor\np10844\naV#Cracked.com\np10845\naV#Jake and Amir\np10846\naV#BuzzFeed\np10847\naV#Gawker\np10848\naV#Comedy Central\np10849\naV#Funny or Die\np10850\naV#Twitter\np10851\nasVage_max\np10852\nI65\nsVcountries\np10853\n(lp10854\nVUS\np10855\nasVbroad_age\np10856\nI1\nsVage_min\np10857\nI13\nssVbid_info\np10858\n(dp10859\nV1\np10860\nV65\np10861\nssVstart_time\np10862\nV2012-09-13T14:48:07+0000\np10863\nsVad_status\np10864\nI2\nsVcampaign_id\np10865\nI6005812270565\nsVlocations\np10866\n(lp10867\nI3\nasVcreated_time\np10868\nV2012-09-13T14:30:23+0000\np10869\nsVend_time\np10870\nNsVadgroup_status\np10871\nI8\nsVid\np10872\nV6005812271565\np10873\nsVad_id\np10874\nI6005812271565\nsVimpression_control_map\np10875\n(lp10876\n(dp10877\nVcontrol\np10878\n(dp10879\nVuser_impression_limit_period\np10880\nI24\nsVuser_impression_limit\np10881\nI6\nsVuser_impression_limit_period_unit\np10882\nI0\nsVimpression_control_type\np10883\nI2\nssVlocation\np10884\nI3\nsasVcreative_ids\np10885\n(lp10886\nI6005812271165\nasVmax_bid\np10887\nV65\np10888\nsVadgroup_id\np10889\nI6005812271565\nsVaccount_id\np10890\nI40156177\nsa(dp10891\nVbid_info\np10892\n(dp10893\nV1\np10894\nV65\np10895\nssVcampaign_id\np10896\nI6005812270565\nsVlast_updated_by_app_id\np10897\nI6802152230\nsVcreated_time\np10898\nV2012-09-13T14:33:00+0000\np10899\nsVconversion_specs\np10900\n(lp10901\nsVadgroup_id\np10902\nI6005812291565\nsVtargeting\np10903\n(dp10904\nVkeywords\np10905\n(lp10906\nV#Conan (TV series)\np10907\naV#Adult Swim\np10908\naV#CollegeHumor\np10909\naV#Cracked.com\np10910\naV#Jake and Amir\np10911\naV#BuzzFeed\np10912\naV#Gawker\np10913\naV#Comedy Central\np10914\naV#Funny or Die\np10915\naV#Twitter\np10916\nasVage_"
p6
sS'hash'
p7
S'b6f1b18a28af6af57608860d73e6aa9fed4b58e0'
p8
sS'stack'
p9
S''
s.