(dp1
S'args'
p2
S''
sS'methodname'
p3
S''
sS'packet_num'
p4
I32
sS'returnval'
p5
S'd_by_app_id\np6261\nI6802152230\nsVcreated_time\np6262\nV2012-09-05T19:33:32+0000\np6263\nsVconversion_specs\np6264\n(lp6265\nsVadgroup_id\np6266\nI6005776635165\nsVtargeting\np6267\n(dp6268\nVkeywords\np6269\n(lp6270\nV#I Can Has Cheezburger?\np6271\naV#Stray Cats\np6272\naV#Money\np6273\naV#Kitten\np6274\naV#Lolcat\np6275\naV#Cat\np6276\naVcats\np6277\naV#Humane society\np6278\naV#Cuteness\np6279\naV#Cats 101\np6280\nasVage_max\np6281\nI65\nsVcountries\np6282\n(lp6283\nVUS\np6284\nasVbroad_age\np6285\nI1\nsVage_min\np6286\nI13\nssVid\np6287\nV6005776635165\np6288\nsVmax_bid\np6289\nV65\np6290\nsVad_id\np6291\nI6005776635165\nsVaccount_id\np6292\nI40156177\nsVstart_time\np6293\nNsVlocations\np6294\n(lp6295\nI3\nasVadgroup_status\np6296\nI9\nsVad_status\np6297\nI2\nsVimpression_control_map\np6298\n(lp6299\n(dp6300\nVcontrol\np6301\n(dp6302\nVuser_impression_limit_period\np6303\nI24\nsVuser_impression_limit\np6304\nI3\nsVuser_impression_limit_period_unit\np6305\nI0\nsVimpression_control_type\np6306\nI2\nssVlocation\np6307\nI3\nsasVcreative_ids\np6308\n(lp6309\nI6005776634765\nasVtracking_pixel_ids\np6310\n(lp6311\nsVbid_type\np6312\nI1\nsVname\np6313\nVGetting Paid\np6314\nsVupdated_time\np6315\nV2012-09-14T13:57:32+0000\np6316\nsVend_time\np6317\nV2012-09-15T06:25:00+0000\np6318\nsa(dp6319\nVbid_info\np6320\n(dp6321\nV1\np6322\nV65\np6323\nssVcampaign_id\np6324\nI6005776594165\nsVlast_updated_by_app_id\np6325\nI6802152230\nsVcreated_time\np6326\nV2012-09-14T13:20:19+0000\np6327\nsVconversion_specs\np6328\n(lp6329\nsVadgroup_id\np6330\nI6005815987365\nsVtargeting\np6331\n(dp6332\nVkeywords\np6333\n(lp6334\nV#Planet Earth (TV series)\np6335\naV#Discovery Channel\np6336\naV#Ax Men\np6337\naV#Employment\np6338\naV#Animal Planet\np6339\naV#Deadliest Catch\np6340\naV#TBS (TV channel)\np6341\naV#Steve Irwin\np6342\naV#Mike Rowe\np6343\naV#National Geographic Channel\np6344\naV#Dirty Jobs\np6345\naV#History (TV channel)\np6346\naV#Modern Marvels\np6347\naV#HBO\np6348\naV#Ice Road Truckers\np6349\naV#NBC\np6350\naV#FX (TV channel)\np6351\nasVage_max\np6352\nI65\nsVcountries\np6353\n(lp6354\nVUS\np6355\nasVbroad_age\np6356\nI1\nsVage_min\np6357\nI13\nssVid\np6358\nV6005815987365\np6359\nsVmax_bid\np6360\nV65\np6361\nsVad_id\np6362\nI6005815987365\nsVaccount_id\np6363\nI40156177\nsVstart_time\np6364\nNsVlocations\np6365\n(lp6366\nI3\nasVadgroup_status\np6367\nI9\nsVad_status\np6368\nI2\nsVimpression_control_map\np6369\n(lp6370\n(dp6371\nVcontrol\np6372\n(dp6373\nVuser_impression_limit_period\np6374\nI24\nsVuser_impression_limit\np6375\nI3\nsVuser_impression_limit_period_unit\np6376\nI0\nsVimpression_control_type\np6377\nI2\nssVlocation\np6378\nI3\nsasVcreative_ids\np6379\n(lp6380\nI6005776609765\nasVtracking_pixel_ids\np6381\n(lp6382\nsVbid_type\np6383\nI1\nsVname\np6384\nVThink Your Job Is Rough? 2\np6385\nsVupdated_time\np6386\nV2012-09-14T20:47:49+0000\np6387\nsVend_time\np6388\nNsa(dp6389\nVconversion_specs\np6390\n(lp6391\nsVupdated_time\np6392\nV2012-09-21T20:15:48+0000\np6393\nsVbid_type\np6394\nI1\nsVname\np6395\nVCardboard Bodykit?\np6396\nsVtracking_pixel_ids\np6397\n(lp6398\nsVtargeting\np6399\n(dp6400\nVkeywords\np6401\n(lp6402\nV#Motor Trend\np6403\naV#The Fast and the Furious (2001 film)\np6404\naV#Chevrolet\np6405\naV#Edmunds.com\np6406\naV#Toyota Supra\np6407\naV#Cars\np6408\naV#The Fast and the Furious: Tokyo Drift\np6409\naV#Kelley Blue Book\np6410\naV#Microsoft\np6411\naV#General Motors\np6412\naV#Ford Mustang\np6413\naV#Honda Civic\np6414\naV#Spoiler (automotive)\np6415\naV#Toyota\np6416\naV#Ford Motor Company\np6417\naV#Instagram\np6418\naV#Car and Driver\np6419\naV#Road & Track\np6420\nasVage_max\np6421\nI65\nsVcountries\np6422\n(lp6423\nVUS\np6424\nasVbroad_age\np6425\nI1\nsVage_min\np6426\nI13\nssVbid_info\np6427\n(dp6428\nV1\np6429\nV65\np6430\nssVstart_time\np6431\nNsVad_status\np6432\nI2\nsVcampaign_id\np6433\nI6005780132365\nsVlocations\np6434\n(lp6435\nI3\nasVcreated_time\np6436\nV2012-09-06T18:24:32+0000\np6437\nsVend_time\np6438\nNsVadgroup_status\np6439\nI8\nsVid\np6440\nV6005780133365\np6441\nsVad_id\np6442\nI6005780133365\nsVimpression_control_map\np6443\n(lp6444\n(dp6445\nVcontrol\np6446\n(dp6447\nVuser_impression_limit_period\np6448\nI24\nsVuser_impression_limit\np6449\nI6\nsVuser_impression_limit_period_unit\np6450\nI0\nsVimpression_control_type\np6451\nI2\nssVlocation\np6452\nI3\nsasVcreative_ids\np6453\n(lp6454\nI6005780132965\nasVmax_bid\np6455\nV65\np6456\nsVadgroup_id\np6457\nI6005780133365\ns'
p6
sS'hash'
p7
S'b6f1b18a28af6af57608860d73e6aa9fed4b58e0'
p8
sS'stack'
p9
S''
s.