(dp1
S'args'
p2
S''
sS'methodname'
p3
S''
sS'packet_num'
p4
I64
sS'returnval'
p5
S'05\n(lp12406\nsVtargeting\np12407\n(dp12408\nVkeywords\np12409\n(lp12410\nV#PetSmart\np12411\naV#Shiba Inu Puppy Cam\np12412\naV#Puppy Bowl\np12413\naV#Petco\np12414\naV#Cesar Millan\np12415\naV#Infant\np12416\naV#Pedigree Petfoods\np12417\naV#Frankenweenie (2012 film)\np12418\naV#Dogs 101\np12419\naV#Instagram\np12420\naV#Shiba Inu\np12421\naV#Dog Whisperer with Cesar Millan\np12422\nasVage_max\np12423\nI65\nsVcountries\np12424\n(lp12425\nVUS\np12426\nasVbroad_age\np12427\nI1\nsVage_min\np12428\nI13\nssVbid_info\np12429\n(dp12430\nV1\np12431\nV65\np12432\nssVstart_time\np12433\nNsVad_status\np12434\nI2\nsVcampaign_id\np12435\nI6005826656565\nsVlocations\np12436\n(lp12437\nI3\nasVcreated_time\np12438\nV2012-09-17T22:47:54+0000\np12439\nsVend_time\np12440\nNsVadgroup_status\np12441\nI8\nsVid\np12442\nV6005826683565\np12443\nsVad_id\np12444\nI6005826683565\nsVimpression_control_map\np12445\n(lp12446\n(dp12447\nVcontrol\np12448\n(dp12449\nVuser_impression_limit_period\np12450\nI24\nsVuser_impression_limit\np12451\nI6\nsVuser_impression_limit_period_unit\np12452\nI0\nsVimpression_control_type\np12453\nI2\nssVlocation\np12454\nI3\nsasVcreative_ids\np12455\n(lp12456\nI6005826683165\nasVmax_bid\np12457\nV65\np12458\nsVadgroup_id\np12459\nI6005826683565\nsVaccount_id\np12460\nI40156177\nsa(dp12461\nVconversion_specs\np12462\n(lp12463\nsVupdated_time\np12464\nV2012-09-21T20:17:33+0000\np12465\nsVbid_type\np12466\nI1\nsVname\np12467\nVDramatic Chipmunk is Back\np12468\nsVtracking_pixel_ids\np12469\n(lp12470\nsVtargeting\np12471\n(dp12472\nVkeywords\np12473\n(lp12474\nV#Animal Planet\np12475\naV#The Oatmeal\np12476\naV#Reddit\np12477\naV#Dancing baby\np12478\naV#Frankenweenie (2012 film)\np12479\naV#BuzzFeed\np12480\naV#Laughing Baby\np12481\naV#Nyan Cat\np12482\naV#Dramatic Chipmunk\np12483\naV#Charlie Bit My Finger\np12484\naV#Take This Lollipop\np12485\nasVage_max\np12486\nI65\nsVcountries\np12487\n(lp12488\nVUS\np12489\nasVbroad_age\np12490\nI1\nsVage_min\np12491\nI13\nssVbid_info\np12492\n(dp12493\nV1\np12494\nV65\np12495\nssVstart_time\np12496\nNsVad_status\np12497\nI2\nsVcampaign_id\np12498\nI6005826656565\nsVlocations\np12499\n(lp12500\nI3\nasVcreated_time\np12501\nV2012-09-17T22:51:27+0000\np12502\nsVend_time\np12503\nNsVadgroup_status\np12504\nI8\nsVid\np12505\nV6005826710765\np12506\nsVad_id\np12507\nI6005826710765\nsVimpression_control_map\np12508\n(lp12509\n(dp12510\nVcontrol\np12511\n(dp12512\nVuser_impression_limit_period\np12513\nI24\nsVuser_impression_limit\np12514\nI6\nsVuser_impression_limit_period_unit\np12515\nI0\nsVimpression_control_type\np12516\nI2\nssVlocation\np12517\nI3\nsasVcreative_ids\np12518\n(lp12519\nI6005826710365\nasVmax_bid\np12520\nV65\np12521\nsVadgroup_id\np12522\nI6005826710765\nsVaccount_id\np12523\nI40156177\nsa(dp12524\nVconversion_specs\np12525\n(lp12526\nsVupdated_time\np12527\nV2012-09-21T21:32:04+0000\np12528\nsVbid_type\np12529\nI1\nsVname\np12530\nVAd Title\np12531\nsVtracking_pixel_ids\np12532\n(lp12533\nsVtargeting\np12534\n(dp12535\nVcountries\np12536\n(lp12537\nVUS\np12538\nassVbid_info\np12539\n(dp12540\nV1\np12541\nV65\np12542\nssVstart_time\np12543\nNsVad_status\np12544\nI1\nsVcampaign_id\np12545\nI6005831458365\nsVlocations\np12546\n(lp12547\nI3\nasVcreated_time\np12548\nV2012-09-18T13:48:26+0000\np12549\nsVend_time\np12550\nNsVadgroup_status\np12551\nI1\nsVid\np12552\nV6005831459565\np12553\nsVad_id\np12554\nI6005831459565\nsVimpression_control_map\np12555\n(lp12556\n(dp12557\nVcontrol\np12558\n(dp12559\nVuser_impression_limit_period\np12560\nI24\nsVuser_impression_limit\np12561\nI6\nsVuser_impression_limit_period_unit\np12562\nI0\nsVimpression_control_type\np12563\nI2\nssVlocation\np12564\nI3\nsasVcreative_ids\np12565\n(lp12566\nI6005831459165\nasVmax_bid\np12567\nV65\np12568\nsVadgroup_id\np12569\nI6005831459565\nsVaccount_id\np12570\nI40156177\nsa(dp12571\nVconversion_specs\np12572\n(lp12573\nsVupdated_time\np12574\nV2012-09-21T20:17:36+0000\np12575\nsVbid_type\np12576\nI1\nsVname\np12577\nVCleaning Up After Himself\np12578\nsVtracking_pixel_ids\np12579\n(lp12580\nsVtargeting\np12581\n(dp12582\nVkeywords\np12583\n(lp12584\nV#I Can Has Cheezburger?\np12585\naV#Dog\np12586\naV#Bulldog\np12587\naV#Bull Terrier\np12588\nasVage_max\np12589\nI65\nsVcountries\np12590\n(lp12591\nVUS\np12592\nasVbroad_age\np12593\nI1\nsVage_min\np12594\nI13\nssVbid_info\np12595\n(dp12596\nV1\np12597\nV65\np12598\nssVstart_time\np12599\nNsVad_status\np12600\nI2\nsVcampaign_id\np12601\nI600583167'
p6
sS'hash'
p7
S'b6f1b18a28af6af57608860d73e6aa9fed4b58e0'
p8
sS'stack'
p9
S''
s.