(dp1
S'args'
p2
S''
sS'methodname'
p3
S''
sS'packet_num'
p4
I57
sS'returnval'
p5
S'\np11112\n(dp11113\nVuser_impression_limit_period\np11114\nI24\nsVuser_impression_limit\np11115\nI6\nsVuser_impression_limit_period_unit\np11116\nI0\nsVimpression_control_type\np11117\nI2\nssVlocation\np11118\nI3\nsasVcreative_ids\np11119\n(lp11120\nI6005812651965\nasVmax_bid\np11121\nV65\np11122\nsVadgroup_id\np11123\nI6005812652365\nsVaccount_id\np11124\nI40156177\nsa(dp11125\nVconversion_specs\np11126\n(lp11127\nsVupdated_time\np11128\nV2012-09-21T20:17:14+0000\np11129\nsVbid_type\np11130\nI1\nsVname\np11131\nVGood For Snuggling...\np11132\nsVtracking_pixel_ids\np11133\n(lp11134\nsVtargeting\np11135\n(dp11136\nVkeywords\np11137\n(lp11138\nV#PetSmart\np11139\naV#Petco\np11140\naV#Cesar Millan\np11141\naV#Infant\np11142\naV#Pedigree Petfoods\np11143\naV#Dogs 101\np11144\naV#Pregnancy\np11145\naV#Babies\np11146\naV#Dog Whisperer with Cesar Millan\np11147\nasVage_max\np11148\nI65\nsVcountries\np11149\n(lp11150\nVUS\np11151\nasVbroad_age\np11152\nI1\nsVage_min\np11153\nI13\nssVbid_info\np11154\n(dp11155\nV1\np11156\nV65\np11157\nssVstart_time\np11158\nNsVad_status\np11159\nI2\nsVcampaign_id\np11160\nI6005812650965\nsVlocations\np11161\n(lp11162\nI3\nasVcreated_time\np11163\nV2012-09-13T16:10:52+0000\np11164\nsVend_time\np11165\nNsVadgroup_status\np11166\nI8\nsVid\np11167\nV6005812660965\np11168\nsVad_id\np11169\nI6005812660965\nsVimpression_control_map\np11170\n(lp11171\n(dp11172\nVcontrol\np11173\n(dp11174\nVuser_impression_limit_period\np11175\nI24\nsVuser_impression_limit\np11176\nI6\nsVuser_impression_limit_period_unit\np11177\nI0\nsVimpression_control_type\np11178\nI2\nssVlocation\np11179\nI3\nsasVcreative_ids\np11180\n(lp11181\nI6005812660565\nasVmax_bid\np11182\nV65\np11183\nsVadgroup_id\np11184\nI6005812660965\nsVaccount_id\np11185\nI40156177\nsa(dp11186\nVconversion_specs\np11187\n(lp11188\nsVupdated_time\np11189\nV2012-10-26T15:31:23+0000\np11190\nsVbid_type\np11191\nI1\nsVname\np11192\nVAd Title\np11193\nsVtracking_pixel_ids\np11194\n(lp11195\nsVtargeting\np11196\n(dp11197\nVcountries\np11198\n(lp11199\nVUS\np11200\nassVbid_info\np11201\n(dp11202\nV1\np11203\nV65\np11204\nssVstart_time\np11205\nNsVad_status\np11206\nI2\nsVcampaign_id\np11207\nI6005812663565\nsVlocations\np11208\n(lp11209\nI3\nasVcreated_time\np11210\nV2012-09-13T16:12:30+0000\np11211\nsVend_time\np11212\nNsVadgroup_status\np11213\nI8\nsVid\np11214\nV6005812664765\np11215\nsVad_id\np11216\nI6005812664765\nsVimpression_control_map\np11217\n(lp11218\n(dp11219\nVcontrol\np11220\n(dp11221\nVuser_impression_limit_period\np11222\nI24\nsVuser_impression_limit\np11223\nI6\nsVuser_impression_limit_period_unit\np11224\nI0\nsVimpression_control_type\np11225\nI2\nssVlocation\np11226\nI3\nsasVcreative_ids\np11227\n(lp11228\nI6005812664365\nasVmax_bid\np11229\nV65\np11230\nsVadgroup_id\np11231\nI6005812664765\nsVaccount_id\np11232\nI40156177\nsa(dp11233\nVconversion_specs\np11234\n(lp11235\nsVupdated_time\np11236\nV2012-09-27T14:49:09+0000\np11237\nsVbid_type\np11238\nI1\nsVname\np11239\nVAd Title\np11240\nsVtracking_pixel_ids\np11241\n(lp11242\nsVtargeting\np11243\n(dp11244\nVcountries\np11245\n(lp11246\nVUS\np11247\nassVbid_info\np11248\n(dp11249\nV1\np11250\nV40\np11251\nssVstart_time\np11252\nNsVad_status\np11253\nI2\nsVcampaign_id\np11254\nI6005813813765\nsVlocations\np11255\n(lp11256\nI3\nasVcreated_time\np11257\nV2012-09-13T22:24:50+0000\np11258\nsVend_time\np11259\nNsVadgroup_status\np11260\nI8\nsVid\np11261\nV6005813814965\np11262\nsVad_id\np11263\nI6005813814965\nsVimpression_control_map\np11264\n(lp11265\n(dp11266\nVcontrol\np11267\n(dp11268\nVuser_impression_limit_period\np11269\nI24\nsVuser_impression_limit\np11270\nI6\nsVuser_impression_limit_period_unit\np11271\nI0\nsVimpression_control_type\np11272\nI2\nssVlocation\np11273\nI3\nsasVcreative_ids\np11274\n(lp11275\nI6005813814565\nasVmax_bid\np11276\nV40\np11277\nsVadgroup_id\np11278\nI6005813814965\nsVaccount_id\np11279\nI40156177\nsa(dp11280\nVconversion_specs\np11281\n(lp11282\nsVupdated_time\np11283\nV2012-09-24T20:44:51+0000\np11284\nsVbid_type\np11285\nI1\nsVname\np11286\nVHate Internet Explorer? - Mom\np11287\nsVtracking_pixel_ids\np11288\n(lp11289\nsVtargeting\np11290\n(dp11291\nVkeywords\np11292\n(lp11293\nV#Google Chrome\np11294\naV#Mozilla\np11295\naV#Mashable\np11296\naV#Wired (magazine)\np11297\naV#Firefox\np11298\naV#IPad\np11299\naV#Internet Explorer 9\np11300\naV#Opera (web browser)\np11301\naV#All Things Digital\np11302\naV#Techmeme\np11303\naV#Apple Inc.\np11304\naV#Goo'
p6
sS'hash'
p7
S'b6f1b18a28af6af57608860d73e6aa9fed4b58e0'
p8
sS'stack'
p9
S''
s.