(dp1
S'args'
p2
S''
sS'methodname'
p3
S''
sS'packet_num'
p4
I69
sS'returnval'
p5
S"NsVad_status\np13348\nI1\nsVcampaign_id\np13349\nI6005835110565\nsVlocations\np13350\n(lp13351\nI3\nasVcreated_time\np13352\nV2012-09-18T21:13:27+0000\np13353\nsVend_time\np13354\nV2012-09-23T03:30:00+0000\np13355\nsVadgroup_status\np13356\nI1\nsVid\np13357\nV6005835126165\np13358\nsVad_id\np13359\nI6005835126165\nsVimpression_control_map\np13360\n(lp13361\n(dp13362\nVcontrol\np13363\n(dp13364\nVuser_impression_limit_period\np13365\nI24\nsVuser_impression_limit\np13366\nI6\nsVuser_impression_limit_period_unit\np13367\nI0\nsVimpression_control_type\np13368\nI2\nssVlocation\np13369\nI3\nsasVcreative_ids\np13370\n(lp13371\nI6005835125765\nasVmax_bid\np13372\nV65\np13373\nsVadgroup_id\np13374\nI6005835126165\nsVaccount_id\np13375\nI40156177\nsa(dp13376\nVconversion_specs\np13377\n(lp13378\nsVupdated_time\np13379\nV2012-09-21T20:17:49+0000\np13380\nsVbid_type\np13381\nI1\nsVname\np13382\nVGeorge Bluth's Kippah\np13383\nsVtracking_pixel_ids\np13384\n(lp13385\nsVtargeting\np13386\n(dp13387\nVkeywords\np13388\n(lp13389\nV#Michael Cera\np13390\naV#30 Rock\np13391\naV#Old Testament\np13392\naV#The Change-Up\np13393\naV#Ron Howard\np13394\naV#Curb Your Enthusiasm\np13395\naV#Synagogue\np13396\naV#Jeffrey Tambor\np13397\naV#Jerusalem\np13398\naV#Israel\np13399\naV#Judaism\np13400\naV#Community (TV series)\np13401\naV#David Cross\np13402\naV#Horrible Bosses\np13403\naVarrested development\np13404\naV#Torah\np13405\naV#Netflix\np13406\naV#Parks and Recreation\np13407\naV#Will Arnett\np13408\naV#Kippah\np13409\naV#Arrested Development (TV series)\np13410\naV#Jason Bateman\np13411\naV#Extract (film)\np13412\nasVage_max\np13413\nI65\nsVcountries\np13414\n(lp13415\nVUS\np13416\nasVbroad_age\np13417\nI1\nsVage_min\np13418\nI13\nssVbid_info\np13419\n(dp13420\nV1\np13421\nV65\np13422\nssVstart_time\np13423\nNsVad_status\np13424\nI2\nsVcampaign_id\np13425\nI6005836135565\nsVlocations\np13426\n(lp13427\nI3\nasVcreated_time\np13428\nV2012-09-18T21:47:40+0000\np13429\nsVend_time\np13430\nNsVadgroup_status\np13431\nI8\nsVid\np13432\nV6005836136565\np13433\nsVad_id\np13434\nI6005836136565\nsVimpression_control_map\np13435\n(lp13436\n(dp13437\nVcontrol\np13438\n(dp13439\nVuser_impression_limit_period\np13440\nI24\nsVuser_impression_limit\np13441\nI6\nsVuser_impression_limit_period_unit\np13442\nI0\nsVimpression_control_type\np13443\nI2\nssVlocation\np13444\nI3\nsasVcreative_ids\np13445\n(lp13446\nI6005836136165\nasVmax_bid\np13447\nV65\np13448\nsVadgroup_id\np13449\nI6005836136565\nsVaccount_id\np13450\nI40156177\nsa(dp13451\nVconversion_specs\np13452\n(lp13453\nsVupdated_time\np13454\nV2012-09-21T20:17:49+0000\np13455\nsVbid_type\np13456\nI1\nsVname\np13457\nVGreen Lantern Kippah?\np13458\nsVtracking_pixel_ids\np13459\n(lp13460\nsVtargeting\np13461\n(dp13462\nVkeywords\np13463\n(lp13464\nV#Superhero\np13465\naV#Marvel Comics\np13466\naV#Avengers (comics)\np13467\naV#Marvel Studios\np13468\naV#Comics\np13469\naV#Israel\np13470\naV#Green Lantern\np13471\naV#Judaism\np13472\naV#Hal Jordan\np13473\naV#Green Lantern: Rise of the Manhunters\np13474\naV#DC Comics\np13475\naV#Stan Lee\np13476\naV#Superman\np13477\naV#Green Lantern Corps\np13478\naV#Iron Man\np13479\naV#The Avengers (2012 film)\np13480\naV#Green Lantern (film)\np13481\naV#Batman\np13482\naV#Green Lantern (comic book)\np13483\naV#Marvel: Avengers Alliance\np13484\nasVage_max\np13485\nI65\nsVcountries\np13486\n(lp13487\nVUS\np13488\nasVbroad_age\np13489\nI1\nsVage_min\np13490\nI13\nssVbid_info\np13491\n(dp13492\nV1\np13493\nV65\np13494\nssVstart_time\np13495\nNsVad_status\np13496\nI2\nsVcampaign_id\np13497\nI6005836135565\nsVlocations\np13498\n(lp13499\nI3\nasVcreated_time\np13500\nV2012-09-18T21:59:03+0000\np13501\nsVend_time\np13502\nNsVadgroup_status\np13503\nI8\nsVid\np13504\nV6005836165965\np13505\nsVad_id\np13506\nI6005836165965\nsVimpression_control_map\np13507\n(lp13508\n(dp13509\nVcontrol\np13510\n(dp13511\nVuser_impression_limit_period\np13512\nI24\nsVuser_impression_limit\np13513\nI6\nsVuser_impression_limit_period_unit\np13514\nI0\nsVimpression_control_type\np13515\nI2\nssVlocation\np13516\nI3\nsasVcreative_ids\np13517\n(lp13518\nI6005836165565\nasVmax_bid\np13519\nV65\np13520\nsVadgroup_id\np13521\nI6005836165965\nsVaccount_id\np13522\nI40156177\nsa(dp13523\nVconversion_specs\np13524\n(lp13525\nsVupdated_time\np13526\nV2012-10-01T18:49:56+0000\np13527\nsVbid_type\np13528\nI1\nsVname\np13529\nVKim Kardashian the Clown?\np13530\nsVtracking_pixel_ids\np13531"
p6
sS'hash'
p7
S'b6f1b18a28af6af57608860d73e6aa9fed4b58e0'
p8
sS'stack'
p9
S''
s.