(dp1
S'args'
p2
S''
sS'methodname'
p3
S''
sS'packet_num'
p4
I43
sS'returnval'
p5
S'imit_period_unit\np8476\nI0\nsVimpression_control_type\np8477\nI2\nssVlocation\np8478\nI3\nsasVcreative_ids\np8479\n(lp8480\nI6005798777365\nasVtracking_pixel_ids\np8481\n(lp8482\nsVbid_type\np8483\nI1\nsVname\np8484\nVTony Hawk Nails the 900\np8485\nsVupdated_time\np8486\nV2012-09-11T22:47:10+0000\np8487\nsVend_time\np8488\nNsa(dp8489\nVconversion_specs\np8490\n(lp8491\nsVupdated_time\np8492\nV2012-09-21T21:33:23+0000\np8493\nsVbid_type\np8494\nI1\nsVname\np8495\nVAd Title\np8496\nsVtracking_pixel_ids\np8497\n(lp8498\nsVtargeting\np8499\n(dp8500\nVcountries\np8501\n(lp8502\nVUS\np8503\nassVbid_info\np8504\n(dp8505\nV1\np8506\nV65\np8507\nssVstart_time\np8508\nNsVad_status\np8509\nI1\nsVcampaign_id\np8510\nI6005801290565\nsVlocations\np8511\n(lp8512\nI3\nasVcreated_time\np8513\nV2012-09-11T14:31:01+0000\np8514\nsVend_time\np8515\nNsVadgroup_status\np8516\nI1\nsVid\np8517\nV6005801291765\np8518\nsVad_id\np8519\nI6005801291765\nsVimpression_control_map\np8520\n(lp8521\n(dp8522\nVcontrol\np8523\n(dp8524\nVuser_impression_limit_period\np8525\nI24\nsVuser_impression_limit\np8526\nI6\nsVuser_impression_limit_period_unit\np8527\nI0\nsVimpression_control_type\np8528\nI2\nssVlocation\np8529\nI3\nsasVcreative_ids\np8530\n(lp8531\nI6005801291365\nasVmax_bid\np8532\nV65\np8533\nsVadgroup_id\np8534\nI6005801291765\nsVaccount_id\np8535\nI40156177\nsa(dp8536\nVconversion_specs\np8537\n(lp8538\nsVupdated_time\np8539\nV2012-09-21T21:33:24+0000\np8540\nsVbid_type\np8541\nI1\nsVname\np8542\nVAd Title\np8543\nsVtracking_pixel_ids\np8544\n(lp8545\nsVtargeting\np8546\n(dp8547\nVcountries\np8548\n(lp8549\nVUS\np8550\nassVbid_info\np8551\n(dp8552\nV1\np8553\nV65\np8554\nssVstart_time\np8555\nNsVad_status\np8556\nI1\nsVcampaign_id\np8557\nI6005801296165\nsVlocations\np8558\n(lp8559\nI3\nasVcreated_time\np8560\nV2012-09-11T14:32:42+0000\np8561\nsVend_time\np8562\nNsVadgroup_status\np8563\nI1\nsVid\np8564\nV6005801297365\np8565\nsVad_id\np8566\nI6005801297365\nsVimpression_control_map\np8567\n(lp8568\n(dp8569\nVcontrol\np8570\n(dp8571\nVuser_impression_limit_period\np8572\nI24\nsVuser_impression_limit\np8573\nI6\nsVuser_impression_limit_period_unit\np8574\nI0\nsVimpression_control_type\np8575\nI2\nssVlocation\np8576\nI3\nsasVcreative_ids\np8577\n(lp8578\nI6005801296965\nasVmax_bid\np8579\nV65\np8580\nsVadgroup_id\np8581\nI6005801297365\nsVaccount_id\np8582\nI40156177\nsa(dp8583\nVconversion_specs\np8584\n(lp8585\nsVupdated_time\np8586\nV2012-09-21T20:16:31+0000\np8587\nsVbid_type\np8588\nI1\nsVname\np8589\nVHey Girl - All\np8590\nsVtracking_pixel_ids\np8591\n(lp8592\nsVtargeting\np8593\n(dp8594\nVkeywords\np8595\n(lp8596\nV#Sheldon Cooper\np8597\naV#Discovery Channel\np8598\naV#The Oatmeal\np8599\naV#Penny (The Big Bang Theory)\np8600\naV#Internet meme\np8601\naV#National Geographic Channel\np8602\naV#History (TV channel)\np8603\naV#Thomas Edison\np8604\naV#The Big Bang Theory\np8605\naV#General Electric\np8606\naV#1001 Inventions\np8607\naV#Geek girl\np8608\naV#Geekologie\np8609\naV#Inventors Digest\np8610\nasVage_max\np8611\nI65\nsVcountries\np8612\n(lp8613\nVUS\np8614\nasVbroad_age\np8615\nI1\nsVage_min\np8616\nI13\nssVbid_info\np8617\n(dp8618\nV1\np8619\nV65\np8620\nssVstart_time\np8621\nNsVad_status\np8622\nI2\nsVcampaign_id\np8623\nI6005801729365\nsVlocations\np8624\n(lp8625\nI3\nasVcreated_time\np8626\nV2012-09-11T15:38:39+0000\np8627\nsVend_time\np8628\nNsVadgroup_status\np8629\nI8\nsVid\np8630\nV6005801730765\np8631\nsVad_id\np8632\nI6005801730765\nsVimpression_control_map\np8633\n(lp8634\n(dp8635\nVcontrol\np8636\n(dp8637\nVuser_impression_limit_period\np8638\nI24\nsVuser_impression_limit\np8639\nI3\nsVuser_impression_limit_period_unit\np8640\nI0\nsVimpression_control_type\np8641\nI2\nssVlocation\np8642\nI3\nsasVcreative_ids\np8643\n(lp8644\nI6005801730165\nasVmax_bid\np8645\nV65\np8646\nsVadgroup_id\np8647\nI6005801730765\nsVaccount_id\np8648\nI40156177\nsa(dp8649\nVbid_info\np8650\n(dp8651\nV1\np8652\nV65\np8653\nssVcampaign_id\np8654\nI6005801729365\nsVlast_updated_by_app_id\np8655\nI6802152230\nsVcreated_time\np8656\nV2012-09-11T15:40:38+0000\np8657\nsVconversion_specs\np8658\n(lp8659\nsVadgroup_id\np8660\nI6005801733965\nsVtargeting\np8661\n(dp8662\nVage_max\np8663\nI65\nsVcountries\np8664\n(lp8665\nVUS\np8666\nasVbroad_age\np8667\nI1\nsVage_min\np8668\nI13\nsVkeywords\np8669\n(lp8670\nV#Sheldon Cooper\np8671\naV#Discovery Channel\np8672\naV#The Oatmeal\np8673\naV#Penny (The Big Bang Theory)\np8674\naV#Internet meme\np8675\naV#National Ge'
p6
sS'hash'
p7
S'b6f1b18a28af6af57608860d73e6aa9fed4b58e0'
p8
sS'stack'
p9
S''
s.