(dp1
S'args'
p2
S''
sS'methodname'
p3
S''
sS'packet_num'
p4
I73
sS'returnval'
p5
S"forever\np14091\naV#Sephora\np14092\naVsmashbox cosmetics\np14093\naV#NARS Cosmetics\np14094\naV#Avon Products\np14095\naV#L'Or\xe9al\np14096\naVmac cosmetics\np14097\naV#Bobbi Brown\np14098\naV#Clinique makeup\np14099\naV#Lanc\xf4me\np14100\naVmac makeup\np14101\naV#Est\xe9e Lauder\np14102\naV#Maybelline\np14103\naV#Make-up Art Cosmetics\np14104\naVbeauty blog\np14105\naV#Revlon\np14106\naV#L'Occitane en Provence\np14107\naV#Benefit Cosmetics\np14108\naV#NARS\np14109\nasVage_max\np14110\nI65\nsVcountries\np14111\n(lp14112\nVUS\np14113\nasVbroad_age\np14114\nI1\nsVage_min\np14115\nI13\nssVid\np14116\nV6005839486965\np14117\nsVobjective\np14118\nI2\nsVmax_bid\np14119\nV65\np14120\nsVad_id\np14121\nI6005839486965\nsVaccount_id\np14122\nI40156177\nsVstart_time\np14123\nNsVlocations\np14124\n(lp14125\nI3\nasVadgroup_status\np14126\nI9\nsVad_status\np14127\nI2\nsVimpression_control_map\np14128\n(lp14129\n(dp14130\nVcontrol\np14131\n(dp14132\nVuser_impression_limit_period\np14133\nI24\nsVuser_impression_limit\np14134\nI3\nsVuser_impression_limit_period_unit\np14135\nI0\nsVimpression_control_type\np14136\nI2\nssVlocation\np14137\nI3\nsasVcreative_ids\np14138\n(lp14139\nI6005839486565\nasVtracking_pixel_ids\np14140\n(lp14141\nsVbid_type\np14142\nI1\nsVname\np14143\nVGhost Lipstick\np14144\nsVupdated_time\np14145\nV2012-10-02T22:22:02+0000\np14146\nsVend_time\np14147\nV2012-10-03T03:30:00+0000\np14148\nsa(dp14149\nVconversion_specs\np14150\n(lp14151\nsVupdated_time\np14152\nV2012-09-25T13:34:38+0000\np14153\nsVbid_type\np14154\nI1\nsVname\np14155\nVEdison vs Tesla\np14156\nsVtracking_pixel_ids\np14157\n(lp14158\nsVtargeting\np14159\n(dp14160\nVkeywords\np14161\n(lp14162\nV#Tesla Roadster\np14163\naV#History (TV channel)\np14164\naV#Tesla Motors\np14165\naV#Thomas Edison\np14166\naV#Modern Marvels\np14167\naV#Nikola Tesla\np14168\naV#Tesla coil\np14169\naV#Electrical engineering\np14170\naV#Alternating current\np14171\naV#How It's Made\np14172\naV#Edison (company)\np14173\naV#The Prestige (film)\np14174\nasVage_max\np14175\nI65\nsVcountries\np14176\n(lp14177\nVUS\np14178\nasVbroad_age\np14179\nI1\nsVage_min\np14180\nI13\nssVbid_info\np14181\n(dp14182\nV1\np14183\nV65\np14184\nssVstart_time\np14185\nNsVad_status\np14186\nI1\nsVcampaign_id\np14187\nI6005840394565\nsVlocations\np14188\n(lp14189\nI3\nasVcreated_time\np14190\nV2012-09-19T18:43:00+0000\np14191\nsVend_time\np14192\nV2012-09-26T06:36:00+0000\np14193\nsVadgroup_status\np14194\nI1\nsVid\np14195\nV6005840413165\np14196\nsVad_id\np14197\nI6005840413165\nsVimpression_control_map\np14198\n(lp14199\n(dp14200\nVcontrol\np14201\n(dp14202\nVuser_impression_limit_period\np14203\nI24\nsVuser_impression_limit\np14204\nI6\nsVuser_impression_limit_period_unit\np14205\nI0\nsVimpression_control_type\np14206\nI2\nssVlocation\np14207\nI3\nsasVcreative_ids\np14208\n(lp14209\nI6005840412765\nasVmax_bid\np14210\nV65\np14211\nsVadgroup_id\np14212\nI6005840413165\nsVaccount_id\np14213\nI40156177\nsa(dp14214\nVbid_info\np14215\n(dp14216\nV1\np14217\nV65\np14218\nssVcampaign_id\np14219\nI6005840394565\nsVlast_updated_by_app_id\np14220\nI6802152230\nsVcreated_time\np14221\nV2012-09-19T18:39:20+0000\np14222\nsVconversion_specs\np14223\n(lp14224\nsVadgroup_id\np14225\nI6005840395965\nsVtargeting\np14226\n(dp14227\nVkeywords\np14228\n(lp14229\nV#National Football League\np14230\naV#Madden NFL\np14231\naV#NFL Live\np14232\naV#Madden NFL 11\np14233\naV#NFL Blitz\np14234\naV#NFL on NBC\np14235\naV#Madden NFL 12\np14236\naV#NFL Football\np14237\naV#Sunday NFL Countdown\np14238\naV#New England Patriots\np14239\naV#New York Giants\np14240\naV#NFL Network\np14241\nasVage_max\np14242\nI65\nsVcountries\np14243\n(lp14244\nVUS\np14245\nasVbroad_age\np14246\nI1\nsVage_min\np14247\nI13\nssVid\np14248\nV6005840395965\np14249\nsVmax_bid\np14250\nV65\np14251\nsVad_id\np14252\nI6005840395965\nsVaccount_id\np14253\nI40156177\nsVstart_time\np14254\nNsVlocations\np14255\n(lp14256\nI3\nasVadgroup_status\np14257\nI9\nsVad_status\np14258\nI2\nsVimpression_control_map\np14259\n(lp14260\n(dp14261\nVcontrol\np14262\n(dp14263\nVuser_impression_limit_period\np14264\nI24\nsVuser_impression_limit\np14265\nI3\nsVuser_impression_limit_period_unit\np14266\nI0\nsVimpression_control_type\np14267\nI2\nssVlocation\np14268\nI3\nsasVcreative_ids\np14269\n(lp14270\nI6005841379565\nasVtracking_pixel_ids\np14271\n(lp14272\nsVbid_type\np14273\nI1\nsVname\np14274\nV2008 Giants Superbowl\np14275\nsVupdated_time\np14276\nV2012-09-25T13:34:"
p6
sS'hash'
p7
S'b6f1b18a28af6af57608860d73e6aa9fed4b58e0'
p8
sS'stack'
p9
S''
s.