(dp1
S'args'
p2
S''
sS'methodname'
p3
S''
sS'packet_num'
p4
I128
sS'returnval'
p5
S"series)\np24232\naV#Resident Evil (film)\np24233\naV#Zombie Lane\np24234\naV#Planet Terror\np24235\naV#Resident Evil: Extinction\np24236\naV#Dawn of the Dead (2004 film)\np24237\naV#Plants vs. Zombies\np24238\naV#Old Norse\np24239\naV#28 Weeks Later\np24240\naV#Resident Evil: Apocalypse\np24241\naV#Shaun of the Dead\np24242\naV#Resident Evil: Retribution\np24243\naV#The Walking Dead (1936 film)\np24244\naV#The Walking Dead (video game)\np24245\naV#Zombie (fictional)\np24246\naV#The Walking Dead (season 3)\np24247\naV#The Walking Dead (comics)\np24248\naV#Norse religion\np24249\nasVage_max\np24250\nI65\nsVcountries\np24251\n(lp24252\nVUS\np24253\nasVbroad_age\np24254\nI1\nsVage_min\np24255\nI13\nssVid\np24256\nV6005955413165\np24257\nsVmax_bid\np24258\nV65\np24259\nsVad_id\np24260\nI6005955413165\nsVaccount_id\np24261\nI40156177\nsVstart_time\np24262\nNsVlocations\np24263\n(lp24264\nI3\nasVadgroup_status\np24265\nI1\nsVad_status\np24266\nI1\nsVimpression_control_map\np24267\n(lp24268\n(dp24269\nVcontrol\np24270\n(dp24271\nVuser_impression_limit_period\np24272\nI24\nsVuser_impression_limit\np24273\nI6\nsVuser_impression_limit_period_unit\np24274\nI0\nsVimpression_control_type\np24275\nI2\nssVlocation\np24276\nI3\nsasVcreative_ids\np24277\n(lp24278\nI6005955412765\nasVtracking_pixel_ids\np24279\n(lp24280\nsVbid_type\np24281\nI1\nsVname\np24282\nVZombie Origins\np24283\nsVupdated_time\np24284\nV2012-10-02T21:22:46+0000\np24285\nsVend_time\np24286\nNsa(dp24287\nVbid_info\np24288\n(dp24289\nV1\np24290\nV65\np24291\nssVcampaign_id\np24292\nI6005955411965\nsVlast_updated_by_app_id\np24293\nI6802152230\nsVcreated_time\np24294\nV2012-10-01T19:42:15+0000\np24295\nsVconversion_specs\np24296\n(lp24297\nsVadgroup_id\np24298\nI6005955479565\nsVtargeting\np24299\n(dp24300\nVkeywords\np24301\n(lp24302\nV#The Zombie Survival Guide\np24303\naV#Resident Evil: Afterlife\np24304\naV#Resident Evil 4\np24305\naV#Zombie walk\np24306\naV#The Walking Dead\np24307\naV#Night of the Living Dead\np24308\naVnazi zombies\np24309\naV#Zombie\np24310\naV#Diary of the Dead\np24311\naV#Thor (Marvel Comics)\np24312\naV#Resident Evil\np24313\naV#History (TV channel)\np24314\naV#The Zombies\np24315\naV#Call of Duty: World at War\np24316\naV#Resident Evil 5\np24317\naV#George Washington\np24318\naV#28 Days Later\np24319\naV#World War Z\np24320\naV#Braindead (film)\np24321\naV#Day of the Dead (1985 film)\np24322\naV#Land of the Dead\np24323\naV#Zombieland\np24324\naV#Resident Evil (film series)\np24325\naV#Pawn Stars\np24326\naV#The Walking Dead (TV series)\np24327\naV#Resident Evil (film)\np24328\naV#Zombie Lane\np24329\naV#Planet Terror\np24330\naV#Resident Evil: Extinction\np24331\naV#Dawn of the Dead (2004 film)\np24332\naV#Plants vs. Zombies\np24333\naV#Old Norse\np24334\naV#28 Weeks Later\np24335\naV#Resident Evil: Apocalypse\np24336\naV#Shaun of the Dead\np24337\naV#Resident Evil: Retribution\np24338\naV#The Walking Dead (1936 film)\np24339\naV#The Walking Dead (video game)\np24340\naV#Zombie (fictional)\np24341\naV#The Walking Dead (season 3)\np24342\naV#The Walking Dead (comics)\np24343\nasVage_max\np24344\nI65\nsVcountries\np24345\n(lp24346\nVUS\np24347\nasVbroad_age\np24348\nI1\nsVage_min\np24349\nI13\nssVid\np24350\nV6005955479565\np24351\nsVmax_bid\np24352\nV65\np24353\nsVad_id\np24354\nI6005955479565\nsVaccount_id\np24355\nI40156177\nsVstart_time\np24356\nNsVlocations\np24357\n(lp24358\nI3\nasVadgroup_status\np24359\nI9\nsVad_status\np24360\nI2\nsVimpression_control_map\np24361\n(lp24362\n(dp24363\nVcontrol\np24364\n(dp24365\nVuser_impression_limit_period\np24366\nI24\nsVuser_impression_limit\np24367\nI3\nsVuser_impression_limit_period_unit\np24368\nI0\nsVimpression_control_type\np24369\nI2\nssVlocation\np24370\nI3\nsasVcreative_ids\np24371\n(lp24372\nI6005955479165\nasVtracking_pixel_ids\np24373\n(lp24374\nsVbid_type\np24375\nI1\nsVname\np24376\nVZombie George Washington?\np24377\nsVupdated_time\np24378\nV2012-10-02T22:02:30+0000\np24379\nsVend_time\np24380\nNsa(dp24381\nVbid_info\np24382\n(dp24383\nV1\np24384\nV65\np24385\nssVcampaign_id\np24386\nI6005955433765\nsVcreated_time\np24387\nV2012-10-01T19:33:34+0000\np24388\nsVconversion_specs\np24389\n(lp24390\nsVadgroup_id\np24391\nI6005955434765\nsVtargeting\np24392\n(dp24393\nVkeywords\np24394\n(lp24395\nV#Risky Business\np24396\naV#Oh No They Didn't\np24397\naV#Just Jared\np24398\naV#Celebrity Juice\np24399\naV#Mission: Impossible (film "
p6
sS'hash'
p7
S'b6f1b18a28af6af57608860d73e6aa9fed4b58e0'
p8
sS'stack'
p9
S''
s.