(dp1
S'args'
p2
S''
sS'methodname'
p3
S''
sS'packet_num'
p4
I91
sS'returnval'
p5
S'p17443\nI6005889659565\nsVimpression_control_map\np17444\n(lp17445\n(dp17446\nVcontrol\np17447\n(dp17448\nVuser_impression_limit_period\np17449\nI24\nsVuser_impression_limit\np17450\nI6\nsVuser_impression_limit_period_unit\np17451\nI0\nsVimpression_control_type\np17452\nI2\nssVlocation\np17453\nI3\nsasVcreative_ids\np17454\n(lp17455\nI6005889659165\nasVmax_bid\np17456\nV65\np17457\nsVadgroup_id\np17458\nI6005889659565\nsVaccount_id\np17459\nI40156177\nsa(dp17460\nVbid_info\np17461\n(dp17462\nV1\np17463\nV65\np17464\nssVcampaign_id\np17465\nI6005889658565\nsVlast_updated_by_app_id\np17466\nI6802152230\nsVcreated_time\np17467\nV2012-09-24T18:04:55+0000\np17468\nsVconversion_specs\np17469\n(lp17470\nsVadgroup_id\np17471\nI6005889670165\nsVtargeting\np17472\n(dp17473\nVkeywords\np17474\n(lp17475\nV#Charlie and the Chocolate Factory (film)\np17476\naV#Willy Wonka & the Chocolate Factory\np17477\naV#The Willy Wonka Candy Company\np17478\naV#Tim Burton\np17479\naV#Frankenweenie (2012 film)\np17480\naV#The Nightmare Before Christmas\np17481\naV#Willy Wonka\np17482\naV#Johnny Depp\np17483\naV#Corpse Bride\np17484\naV#Edward Scissorhands\np17485\naV#Alice in Wonderland (2010 film)\np17486\nasVage_max\np17487\nI65\nsVcountries\np17488\n(lp17489\nVUS\np17490\nasVbroad_age\np17491\nI1\nsVage_min\np17492\nI13\nssVid\np17493\nV6005889670165\np17494\nsVmax_bid\np17495\nV65\np17496\nsVad_id\np17497\nI6005889670165\nsVaccount_id\np17498\nI40156177\nsVstart_time\np17499\nNsVlocations\np17500\n(lp17501\nI3\nasVadgroup_status\np17502\nI9\nsVad_status\np17503\nI2\nsVimpression_control_map\np17504\n(lp17505\n(dp17506\nVcontrol\np17507\n(dp17508\nVuser_impression_limit_period\np17509\nI24\nsVuser_impression_limit\np17510\nI3\nsVuser_impression_limit_period_unit\np17511\nI0\nsVimpression_control_type\np17512\nI2\nssVlocation\np17513\nI3\nsasVcreative_ids\np17514\n(lp17515\nI6005889669765\nasVtracking_pixel_ids\np17516\n(lp17517\nsVbid_type\np17518\nI1\nsVname\np17519\nVWilly Wonka GIF\np17520\nsVupdated_time\np17521\nV2012-10-05T13:38:36+0000\np17522\nsVend_time\np17523\nV2012-10-06T03:30:00+0000\np17524\nsa(dp17525\nVbid_info\np17526\n(dp17527\nV1\np17528\nV65\np17529\nssVcampaign_id\np17530\nI6005889658565\nsVlast_updated_by_app_id\np17531\nI6802152230\nsVcreated_time\np17532\nV2012-09-24T18:06:57+0000\np17533\nsVconversion_specs\np17534\n(lp17535\nsVadgroup_id\np17536\nI6005889678765\nsVtargeting\np17537\n(dp17538\nVkeywords\np17539\n(lp17540\nV#Batman Returns\np17541\naV#Jack Nicholson\np17542\naV#Tim Burton\np17543\naV#Batman Forever\np17544\naV#Batman (1989 film)\np17545\naV#Frankenweenie (2012 film)\np17546\naV#The Nightmare Before Christmas\np17547\naV#Joker (comics)\np17548\naV#Edward Scissorhands\np17549\nasVage_max\np17550\nI65\nsVcountries\np17551\n(lp17552\nVUS\np17553\nasVbroad_age\np17554\nI1\nsVage_min\np17555\nI13\nssVid\np17556\nV6005889678765\np17557\nsVmax_bid\np17558\nV65\np17559\nsVad_id\np17560\nI6005889678765\nsVaccount_id\np17561\nI40156177\nsVstart_time\np17562\nNsVlocations\np17563\n(lp17564\nI3\nasVadgroup_status\np17565\nI9\nsVad_status\np17566\nI2\nsVimpression_control_map\np17567\n(lp17568\n(dp17569\nVcontrol\np17570\n(dp17571\nVuser_impression_limit_period\np17572\nI24\nsVuser_impression_limit\np17573\nI3\nsVuser_impression_limit_period_unit\np17574\nI0\nsVimpression_control_type\np17575\nI2\nssVlocation\np17576\nI3\nsasVcreative_ids\np17577\n(lp17578\nI6005889678365\nasVtracking_pixel_ids\np17579\n(lp17580\nsVbid_type\np17581\nI1\nsVname\np17582\nVJack Nicholson as Joker\np17583\nsVupdated_time\np17584\nV2012-10-05T13:38:35+0000\np17585\nsVend_time\np17586\nV2012-10-06T03:30:00+0000\np17587\nsa(dp17588\nVconversion_specs\np17589\n(lp17590\nsVupdated_time\np17591\nV2012-09-24T22:17:05+0000\np17592\nsVbid_type\np17593\nI1\nsVname\np17594\nVPaul & Zooey!\np17595\nsVtracking_pixel_ids\np17596\n(lp17597\nsVtargeting\np17598\n(dp17599\nVkeywords\np17600\n(lp17601\nV#Elf (film)\np17602\naV#She & Him\np17603\naV#Paul McCartney\np17604\naV#(500) Days of Summer\np17605\naV#The Beatles\np17606\naV#The Beatles (album)\np17607\naV#Zooey Deschanel\np17608\naV#Wings (band)\np17609\naV#New Girl (TV series)\np17610\nasVage_max\np17611\nI65\nsVcountries\np17612\n(lp17613\nVUS\np17614\nasVbroad_age\np17615\nI1\nsVage_min\np17616\nI13\nssVbid_info\np17617\n(dp17618\nV1\np17619\nV65\np17620\nssVstart_time\np17621\nNsVad_status\np17622\nI1\nsVcampaign_id\np17623\nI6005889844165\nsVlocations\np17624\n(lp176'
p6
sS'hash'
p7
S'b6f1b18a28af6af57608860d73e6aa9fed4b58e0'
p8
sS'stack'
p9
S''
s.