(dp1
S'args'
p2
S''
sS'methodname'
p3
S''
sS'packet_num'
p4
I155
sS'returnval'
p5
S'9042\nV65\np29043\nsVad_id\np29044\nI6005983235765\nsVaccount_id\np29045\nI40156177\nsVstart_time\np29046\nNsVlocations\np29047\n(lp29048\nI3\nasVadgroup_status\np29049\nI1\nsVad_status\np29050\nI1\nsVimpression_control_map\np29051\n(lp29052\n(dp29053\nVcontrol\np29054\n(dp29055\nVuser_impression_limit_period\np29056\nI24\nsVuser_impression_limit\np29057\nI6\nsVuser_impression_limit_period_unit\np29058\nI0\nsVimpression_control_type\np29059\nI2\nssVlocation\np29060\nI3\nsasVcreative_ids\np29061\n(lp29062\nI6005983235365\nasVtracking_pixel_ids\np29063\n(lp29064\nsVbid_type\np29065\nI1\nsVname\np29066\nVhttp://www.buzzfeed.com/h1/fbad/gravityfalls/18-working-animals-who-totally-deserve-a-raise - Ad 1\np29067\nsVupdated_time\np29068\nV2012-10-08T18:12:39+0000\np29069\nsVend_time\np29070\nV2012-10-08T18:16:00+0000\np29071\nsa(dp29072\nVbid_info\np29073\n(dp29074\nV1\np29075\nV65\np29076\nssVcampaign_id\np29077\nI6005983356165\nsVcreated_time\np29078\nV2012-10-05T15:55:57+0000\np29079\nsVconversion_specs\np29080\n(lp29081\nsVadgroup_id\np29082\nI6005983357165\nsVtargeting\np29083\n(dp29084\nVkeywords\np29085\n(lp29086\nV#Tattoo\np29087\naV#Marvel Comics\np29088\naV#Marvel Studios\np29089\naV#Spider-Man 3\np29090\naV#Spike (TV channel)\np29091\naV#Spider-Man\np29092\naV#Spider-Man 2\np29093\naV#Spider-Man (2000 video game)\np29094\naV#Spider-Man (film)\np29095\naV#Tattoo artist\np29096\naV#Spider-Man: Shattered Dimensions\np29097\naV#Stan Lee\np29098\naV#The Amazing Spider-Man (2012 film)\np29099\naV#Marvel vs. Capcom (series)\np29100\naV#Peter Parker: Spider-Man\np29101\naV#Spider-Man in film\np29102\naV#Spider-Man (1967 TV series)\np29103\naV#Ink Master (season 1)\np29104\nasVage_max\np29105\nI65\nsVcountries\np29106\n(lp29107\nVUS\np29108\nasVbroad_age\np29109\nI1\nsVage_min\np29110\nI13\nssVid\np29111\nV6005983357165\np29112\nsVobjective\np29113\nI2\nsVmax_bid\np29114\nV65\np29115\nsVad_id\np29116\nI6005983357165\nsVaccount_id\np29117\nI40156177\nsVstart_time\np29118\nNsVlocations\np29119\n(lp29120\nI3\nasVadgroup_status\np29121\nI1\nsVad_status\np29122\nI1\nsVimpression_control_map\np29123\n(lp29124\n(dp29125\nVcontrol\np29126\n(dp29127\nVuser_impression_limit_period\np29128\nI24\nsVuser_impression_limit\np29129\nI6\nsVuser_impression_limit_period_unit\np29130\nI0\nsVimpression_control_type\np29131\nI2\nssVlocation\np29132\nI3\nsasVcreative_ids\np29133\n(lp29134\nI6005983356765\nasVtracking_pixel_ids\np29135\n(lp29136\nsVbid_type\np29137\nI1\nsVname\np29138\nVhttp://www.buzzfeed.com/h1/fbad/inkmaster/13-mind-blowing-and-unusual-tattoo-styles - Ad\np29139\nsVupdated_time\np29140\nV2012-10-05T16:53:26+0000\np29141\nsVend_time\np29142\nNsa(dp29143\nVbid_info\np29144\n(dp29145\nV1\np29146\nV65\np29147\nssVcampaign_id\np29148\nI6005983356165\nsVcreated_time\np29149\nV2012-10-05T15:57:23+0000\np29150\nsVconversion_specs\np29151\n(lp29152\nsVadgroup_id\np29153\nI6005983377965\nsVtargeting\np29154\n(dp29155\nVkeywords\np29156\n(lp29157\nV#LA Ink\np29158\naV#Miami Ink\np29159\naV#Tattoo\np29160\naV#Spike (TV channel)\np29161\naV#Tattoo artist\np29162\naV#Kat Von D\np29163\naV#Stan Lee\np29164\naV#NY Ink\np29165\naV#Ink Master (season 1)\np29166\nasVage_max\np29167\nI65\nsVcountries\np29168\n(lp29169\nVUS\np29170\nasVbroad_age\np29171\nI1\nsVage_min\np29172\nI13\nssVid\np29173\nV6005983377965\np29174\nsVobjective\np29175\nI2\nsVmax_bid\np29176\nV65\np29177\nsVad_id\np29178\nI6005983377965\nsVaccount_id\np29179\nI40156177\nsVstart_time\np29180\nNsVlocations\np29181\n(lp29182\nI3\nasVadgroup_status\np29183\nI1\nsVad_status\np29184\nI1\nsVimpression_control_map\np29185\n(lp29186\n(dp29187\nVcontrol\np29188\n(dp29189\nVuser_impression_limit_period\np29190\nI24\nsVuser_impression_limit\np29191\nI6\nsVuser_impression_limit_period_unit\np29192\nI0\nsVimpression_control_type\np29193\nI2\nssVlocation\np29194\nI3\nsasVcreative_ids\np29195\n(lp29196\nI6005983377565\nasVtracking_pixel_ids\np29197\n(lp29198\nsVbid_type\np29199\nI1\nsVname\np29200\nVhttp://www.buzzfeed.com/h1/fbad/inkmaster/13-mind-blowing-and-unusual-tattoo-styles - Ad 1\np29201\nsVupdated_time\np29202\nV2012-10-05T19:43:41+0000\np29203\nsVend_time\np29204\nNsa(dp29205\nVbid_info\np29206\n(dp29207\nV1\np29208\nV65\np29209\nssVcampaign_id\np29210\nI6005984581765\nsVcreated_time\np29211\nV2012-10-05T18:23:15+0000\np29212\nsVconversion_specs\np29213\n(lp29214\nsVadgroup_id\np29215\nI6005984582765\nsVtargeting\np29216\n(dp29217\nVkeywords\np2'
p6
sS'hash'
p7
S'b6f1b18a28af6af57608860d73e6aa9fed4b58e0'
p8
sS'stack'
p9
S''
s.