(dp1
S'args'
p2
S''
sS'methodname'
p3
S''
sS'packet_num'
p4
I116
sS'returnval'
p5
S"lin\np22048\naV#Barack Obama\np22049\naV#Jon Stewart\np22050\naV#The Onion\np22051\naV#The Daily Show\np22052\naV#The Huffington Post\np22053\naV#Stephen Colbert\np22054\nasVage_max\np22055\nI65\nsVcountries\np22056\n(lp22057\nVUS\np22058\nasVbroad_age\np22059\nI1\nsVage_min\np22060\nI13\nssVid\np22061\nV6005942323565\np22062\nsVobjective\np22063\nI2\nsVmax_bid\np22064\nV65\np22065\nsVad_id\np22066\nI6005942323565\nsVaccount_id\np22067\nI40156177\nsVstart_time\np22068\nNsVlocations\np22069\n(lp22070\nI3\nasVadgroup_status\np22071\nI1\nsVad_status\np22072\nI1\nsVimpression_control_map\np22073\n(lp22074\n(dp22075\nVcontrol\np22076\n(dp22077\nVuser_impression_limit_period\np22078\nI24\nsVuser_impression_limit\np22079\nI3\nsVuser_impression_limit_period_unit\np22080\nI0\nsVimpression_control_type\np22081\nI2\nssVlocation\np22082\nI3\nsasVcreative_ids\np22083\n(lp22084\nI6005942323165\nasVtracking_pixel_ids\np22085\n(lp22086\nsVbid_type\np22087\nI1\nsVname\np22088\nVSarah Palin Loves Russia!\np22089\nsVupdated_time\np22090\nV2012-10-10T20:31:31+0000\np22091\nsVend_time\np22092\nV2012-10-10T03:30:00+0000\np22093\nsa(dp22094\nVbid_info\np22095\n(dp22096\nV1\np22097\nV65\np22098\nssVcampaign_id\np22099\nI6005930921165\nsVlast_updated_by_app_id\np22100\nI6802152230\nsVcreated_time\np22101\nV2012-09-28T15:40:39+0000\np22102\nsVconversion_specs\np22103\n(lp22104\nsVadgroup_id\np22105\nI6005930923765\nsVtargeting\np22106\n(dp22107\nVkeywords\np22108\n(lp22109\nV#Simon Cowell\np22110\naV#The Voice (TV series)\np22111\naV#America's Got Talent\np22112\naV#American Idol\np22113\naV#TMZ.com\np22114\naV#Paula Abdul\np22115\naV#Dancing with the Stars (U.S. TV series)\np22116\naV#Randy Jackson\np22117\naV#TMZ (website)\np22118\nasVage_max\np22119\nI65\nsVcountries\np22120\n(lp22121\nVUS\np22122\nasVbroad_age\np22123\nI1\nsVage_min\np22124\nI13\nssVid\np22125\nV6005930923765\np22126\nsVmax_bid\np22127\nV65\np22128\nsVad_id\np22129\nI6005930923765\nsVaccount_id\np22130\nI40156177\nsVstart_time\np22131\nNsVlocations\np22132\n(lp22133\nI3\nasVadgroup_status\np22134\nI9\nsVad_status\np22135\nI2\nsVimpression_control_map\np22136\n(lp22137\n(dp22138\nVcontrol\np22139\n(dp22140\nVuser_impression_limit_period\np22141\nI24\nsVuser_impression_limit\np22142\nI3\nsVuser_impression_limit_period_unit\np22143\nI0\nsVimpression_control_type\np22144\nI2\nssVlocation\np22145\nI3\nsasVcreative_ids\np22146\n(lp22147\nI6005930922565\nasVtracking_pixel_ids\np22148\n(lp22149\nsVbid_type\np22150\nI1\nsVname\np22151\nVPaula's Crazy Interview\np22152\nsVupdated_time\np22153\nV2012-10-09T14:00:47+0000\np22154\nsVend_time\np22155\nV2012-10-10T03:30:00+0000\np22156\nsa(dp22157\nVbid_info\np22158\n(dp22159\nV1\np22160\nV65\np22161\nssVcampaign_id\np22162\nI6005930921165\nsVlast_updated_by_app_id\np22163\nI6802152230\nsVcreated_time\np22164\nV2012-09-28T15:43:22+0000\np22165\nsVconversion_specs\np22166\n(lp22167\nsVadgroup_id\np22168\nI6005930928365\nsVtargeting\np22169\n(dp22170\nVkeywords\np22171\n(lp22172\nV#Oh No They Didn't\np22173\naV#Young Hollywood\np22174\naV#Extra (TV series)\np22175\naV#The Soup\np22176\naV#Two and a Half Men\np22177\naV#TMZ.com\np22178\naV#Popbitch\np22179\naV#Entertainment Tonight\np22180\naV#Charlie Sheen\np22181\naV#TMZ (website)\np22182\nasVage_max\np22183\nI65\nsVcountries\np22184\n(lp22185\nVUS\np22186\nasVbroad_age\np22187\nI1\nsVage_min\np22188\nI13\nssVid\np22189\nV6005930928365\np22190\nsVmax_bid\np22191\nV65\np22192\nsVad_id\np22193\nI6005930928365\nsVaccount_id\np22194\nI40156177\nsVstart_time\np22195\nNsVlocations\np22196\n(lp22197\nI3\nasVadgroup_status\np22198\nI9\nsVad_status\np22199\nI2\nsVimpression_control_map\np22200\n(lp22201\n(dp22202\nVcontrol\np22203\n(dp22204\nVuser_impression_limit_period\np22205\nI24\nsVuser_impression_limit\np22206\nI3\nsVuser_impression_limit_period_unit\np22207\nI0\nsVimpression_control_type\np22208\nI2\nssVlocation\np22209\nI3\nsasVcreative_ids\np22210\n(lp22211\nI6005930927965\nasVtracking_pixel_ids\np22212\n(lp22213\nsVbid_type\np22214\nI1\nsVname\np22215\nVCharlie Sheen's Interview\np22216\nsVupdated_time\np22217\nV2012-10-09T14:00:47+0000\np22218\nsVend_time\np22219\nV2012-10-10T03:30:00+0000\np22220\nsa(dp22221\nVbid_info\np22222\n(dp22223\nV1\np22224\nV65\np22225\nssVcampaign_id\np22226\nI6005930952365\nsVlast_updated_by_app_id\np22227\nI6802152230\nsVcreated_time\np22228\nV2012-09-28T15:52:50+0000\np22229\nsVconversion_specs\np22230\n(lp22231\nsVadgroup_id\np22232\nI60059"
p6
sS'hash'
p7
S'b6f1b18a28af6af57608860d73e6aa9fed4b58e0'
p8
sS'stack'
p9
S''
s.