(dp1
S'args'
p2
S''
sS'methodname'
p3
S''
sS'packet_num'
p4
I46
sS'returnval'
p5
S"itcher (2007 film)\np9058\naV#The Hills Have Eyes (2006 film)\np9059\naV#Paranormal Activity\np9060\naV#Horror film\np9061\naV#One Missed Call (2008 film)\np9062\naV#Get Scared\np9063\naV#Rob Zombie\np9064\naVhorror\np9065\nasVage_max\np9066\nI65\nsVcountries\np9067\n(lp9068\nVUS\np9069\nasVbroad_age\np9070\nI1\nsVage_min\np9071\nI13\nssVbid_info\np9072\n(dp9073\nV1\np9074\nV65\np9075\nssVstart_time\np9076\nNsVad_status\np9077\nI2\nsVcampaign_id\np9078\nI6005802515765\nsVlocations\np9079\n(lp9080\nI3\nasVcreated_time\np9081\nV2012-09-11T20:06:30+0000\np9082\nsVend_time\np9083\nV2012-09-14T06:56:00+0000\np9084\nsVadgroup_status\np9085\nI8\nsVid\np9086\nV6005802517765\np9087\nsVad_id\np9088\nI6005802517765\nsVimpression_control_map\np9089\n(lp9090\n(dp9091\nVcontrol\np9092\n(dp9093\nVuser_impression_limit_period\np9094\nI24\nsVuser_impression_limit\np9095\nI6\nsVuser_impression_limit_period_unit\np9096\nI0\nsVimpression_control_type\np9097\nI2\nssVlocation\np9098\nI3\nsasVcreative_ids\np9099\n(lp9100\nI6005802517165\nasVmax_bid\np9101\nV65\np9102\nsVadgroup_id\np9103\nI6005802517765\nsVaccount_id\np9104\nI40156177\nsa(dp9105\nVconversion_specs\np9106\n(lp9107\nsVupdated_time\np9108\nV2012-09-21T20:16:42+0000\np9109\nsVbid_type\np9110\nI1\nsVname\np9111\nVThe Horror Returns!\np9112\nsVtracking_pixel_ids\np9113\n(lp9114\nsVtargeting\np9115\n(dp9116\nVkeywords\np9117\n(lp9118\nV#Ghost\np9119\naV#The Omen\np9120\naV#Night of the Living Dead\np9121\naV#Horror fiction\np9122\naV#George A. Romero\np9123\naV#Dawn of the Dead\np9124\naV#The Grudge\np9125\naV#The Texas Chain Saw Massacre\np9126\naV#Saw (franchise)\np9127\naV#American Horror Story\np9128\naV#Halloween Horror Nights\np9129\naV#The Walking Dead (TV series)\np9130\naV#Jennifer's Body\np9131\naV#American Horror Story (season 1)\np9132\naV#The Texas Chainsaw Massacre: The Beginning\np9133\naV#The Texas Chainsaw Massacre (2003 film)\np9134\naV#Saw (film)\np9135\naV#Hostel (2005 film)\np9136\naV#Paranormal Activity\np9137\naV#Horror film\np9138\naV#FX (TV channel)\np9139\nasVage_max\np9140\nI65\nsVcountries\np9141\n(lp9142\nVUS\np9143\nasVbroad_age\np9144\nI1\nsVage_min\np9145\nI13\nssVbid_info\np9146\n(dp9147\nV1\np9148\nV65\np9149\nssVstart_time\np9150\nNsVad_status\np9151\nI2\nsVcampaign_id\np9152\nI6005802601765\nsVlocations\np9153\n(lp9154\nI3\nasVcreated_time\np9155\nV2012-09-11T20:32:51+0000\np9156\nsVend_time\np9157\nV2012-09-18T06:17:00+0000\np9158\nsVadgroup_status\np9159\nI8\nsVid\np9160\nV6005802603165\np9161\nsVad_id\np9162\nI6005802603165\nsVimpression_control_map\np9163\n(lp9164\n(dp9165\nVcontrol\np9166\n(dp9167\nVuser_impression_limit_period\np9168\nI24\nsVuser_impression_limit\np9169\nI6\nsVuser_impression_limit_period_unit\np9170\nI0\nsVimpression_control_type\np9171\nI2\nssVlocation\np9172\nI3\nsasVcreative_ids\np9173\n(lp9174\nI6005802602765\nasVmax_bid\np9175\nV65\np9176\nsVadgroup_id\np9177\nI6005802603165\nsVaccount_id\np9178\nI40156177\nsa(dp9179\nVconversion_specs\np9180\n(lp9181\nsVupdated_time\np9182\nV2012-09-21T20:16:44+0000\np9183\nsVbid_type\np9184\nI1\nsVname\np9185\nVFunny Protest Signs 1\np9186\nsVtracking_pixel_ids\np9187\n(lp9188\nsVtargeting\np9189\n(dp9190\nVkeywords\np9191\n(lp9192\nV#The Onion\np9193\naV#CollegeHumor\np9194\naV#Fark\np9195\naV#Harry Potter (film series)\np9196\naV#BuzzFeed\np9197\naV#Protest\np9198\naV#Funny or Die\np9199\naV#Occupy Wall Street\np9200\naV#Harry Potter\np9201\naV#Anonymous (group)\np9202\naV#Albus Dumbledore\np9203\naV#Dumbledore's Army\np9204\naV#Occupy movement\np9205\nasVage_max\np9206\nI65\nsVcountries\np9207\n(lp9208\nVUS\np9209\nasVbroad_age\np9210\nI1\nsVage_min\np9211\nI13\nssVbid_info\np9212\n(dp9213\nV1\np9214\nV65\np9215\nssVstart_time\np9216\nNsVad_status\np9217\nI2\nsVcampaign_id\np9218\nI6005802820565\nsVlocations\np9219\n(lp9220\nI3\nasVcreated_time\np9221\nV2012-09-11T22:13:45+0000\np9222\nsVend_time\np9223\nNsVadgroup_status\np9224\nI8\nsVid\np9225\nV6005802847365\np9226\nsVad_id\np9227\nI6005802847365\nsVimpression_control_map\np9228\n(lp9229\n(dp9230\nVcontrol\np9231\n(dp9232\nVuser_impression_limit_period\np9233\nI24\nsVuser_impression_limit\np9234\nI6\nsVuser_impression_limit_period_unit\np9235\nI0\nsVimpression_control_type\np9236\nI2\nssVlocation\np9237\nI3\nsasVcreative_ids\np9238\n(lp9239\nI6005802821165\nasVmax_bid\np9240\nV65\np9241\nsVadgroup_id\np9242\nI6005802847365\nsVaccount_id\np9243\nI40156177\nsa(dp9244\nVbid_info\np9245\n(dp9246\nV1\np9247\nV65\np9248\nssVc"
p6
sS'hash'
p7
S'b6f1b18a28af6af57608860d73e6aa9fed4b58e0'
p8
sS'stack'
p9
S''
s.