(dp1
S'args'
p2
S''
sS'methodname'
p3
S''
sS'packet_num'
p4
I97
sS'returnval'
p5
S"25T17:38:44+0000\np18558\nsVconversion_specs\np18559\n(lp18560\nsVadgroup_id\np18561\nI6005904038165\nsVtargeting\np18562\n(dp18563\nVkeywords\np18564\n(lp18565\nV#Bobby Flay\np18566\naV#Pillsbury Company\np18567\naV#Top Chef Masters\np18568\naVhidden valley ranch\np18569\naV#Food Network\np18570\naV#Breakfast\np18571\naV#Paula Deen\np18572\naV#Giada De Laurentiis\np18573\naV#Anthony Bourdain: No Reservations\np18574\naV#Betty Crocker\np18575\naV#Anthony Bourdain\np18576\naV#Emeril Lagasse\np18577\naV#Brunch\np18578\naV#Cooking\np18579\naV#Top Chef\np18580\naVcorned beef hash\np18581\naV#Rachel Ray (novel)\np18582\naV#Allrecipes.com\np18583\nasVage_max\np18584\nI65\nsVcountries\np18585\n(lp18586\nVUS\np18587\nasVbroad_age\np18588\nI1\nsVage_min\np18589\nI13\nssVid\np18590\nV6005904038165\np18591\nsVmax_bid\np18592\nV65\np18593\nsVad_id\np18594\nI6005904038165\nsVaccount_id\np18595\nI40156177\nsVstart_time\np18596\nNsVlocations\np18597\n(lp18598\nI3\nasVadgroup_status\np18599\nI9\nsVad_status\np18600\nI2\nsVimpression_control_map\np18601\n(lp18602\n(dp18603\nVcontrol\np18604\n(dp18605\nVuser_impression_limit_period\np18606\nI24\nsVuser_impression_limit\np18607\nI3\nsVuser_impression_limit_period_unit\np18608\nI0\nsVimpression_control_type\np18609\nI2\nssVlocation\np18610\nI3\nsasVcreative_ids\np18611\n(lp18612\nI6005904037765\nasVtracking_pixel_ids\np18613\n(lp18614\nsVbid_type\np18615\nI1\nsVname\np18616\nVFor Breakfast Lovers!\np18617\nsVupdated_time\np18618\nV2012-09-27T13:23:43+0000\np18619\nsVend_time\np18620\nV2012-09-28T03:30:00+0000\np18621\nsa(dp18622\nVconversion_specs\np18623\n(lp18624\nsVupdated_time\np18625\nV2012-09-25T19:26:25+0000\np18626\nsVbid_type\np18627\nI1\nsVname\np18628\nVPSY as a Furby?\np18629\nsVtracking_pixel_ids\np18630\n(lp18631\nsVtargeting\np18632\n(dp18633\nVkeywords\np18634\n(lp18635\nV#G-Dragon\np18636\naV#2NE1\np18637\naV#Big Bang (South Korean band)\np18638\naV#Epik High\np18639\naV#K'Pop\np18640\naV#Allkpop\np18641\naV#Korean drama\np18642\naV#YG Entertainment\np18643\naV#Furby\np18644\naV#Gangnam Style\np18645\nasVage_max\np18646\nI65\nsVcountries\np18647\n(lp18648\nVUS\np18649\nasVbroad_age\np18650\nI1\nsVage_min\np18651\nI13\nssVbid_info\np18652\n(dp18653\nV1\np18654\nV65\np18655\nssVstart_time\np18656\nNsVad_status\np18657\nI1\nsVcampaign_id\np18658\nI6005904135365\nsVlocations\np18659\n(lp18660\nI3\nasVcreated_time\np18661\nV2012-09-25T18:11:31+0000\np18662\nsVend_time\np18663\nNsVadgroup_status\np18664\nI1\nsVid\np18665\nV6005904136365\np18666\nsVad_id\np18667\nI6005904136365\nsVimpression_control_map\np18668\n(lp18669\n(dp18670\nVcontrol\np18671\n(dp18672\nVuser_impression_limit_period\np18673\nI24\nsVuser_impression_limit\np18674\nI6\nsVuser_impression_limit_period_unit\np18675\nI0\nsVimpression_control_type\np18676\nI2\nssVlocation\np18677\nI3\nsasVcreative_ids\np18678\n(lp18679\nI6005904135965\nasVmax_bid\np18680\nV65\np18681\nsVadgroup_id\np18682\nI6005904136365\nsVaccount_id\np18683\nI40156177\nsa(dp18684\nVconversion_specs\np18685\n(lp18686\nsVupdated_time\np18687\nV2012-09-25T20:27:56+0000\np18688\nsVbid_type\np18689\nI1\nsVname\np18690\nVOne Direction & Furby?\np18691\nsVtracking_pixel_ids\np18692\n(lp18693\nsVtargeting\np18694\n(dp18695\nVkeywords\np18696\n(lp18697\nV#Taylor Swift\np18698\naV#Justin Bieber\np18699\naV#Selena Gomez\np18700\naV#One Direction\np18701\naV#Furby\np18702\naVniall horan\np18703\naV#Gotta Be You (One Direction song)\np18704\naV#One Thing (One Direction song)\np18705\naV#Up All Night (One Direction album)\np18706\nasVage_max\np18707\nI65\nsVcountries\np18708\n(lp18709\nVUS\np18710\nasVbroad_age\np18711\nI1\nsVage_min\np18712\nI13\nssVbid_info\np18713\n(dp18714\nV1\np18715\nV65\np18716\nssVstart_time\np18717\nNsVad_status\np18718\nI1\nsVcampaign_id\np18719\nI6005904135365\nsVlocations\np18720\n(lp18721\nI3\nasVcreated_time\np18722\nV2012-09-25T18:13:39+0000\np18723\nsVend_time\np18724\nNsVadgroup_status\np18725\nI1\nsVid\np18726\nV6005904142965\np18727\nsVad_id\np18728\nI6005904142965\nsVimpression_control_map\np18729\n(lp18730\n(dp18731\nVcontrol\np18732\n(dp18733\nVuser_impression_limit_period\np18734\nI24\nsVuser_impression_limit\np18735\nI6\nsVuser_impression_limit_period_unit\np18736\nI0\nsVimpression_control_type\np18737\nI2\nssVlocation\np18738\nI3\nsasVcreative_ids\np18739\n(lp18740\nI6005904142565\nasVmax_bid\np18741\nV65\np18742\nsVadgroup_id\np18743\nI6005904142965\nsVaccount_id\np18744\nI40156177\nsa(dp18745\nVbid_in"
p6
sS'hash'
p7
S'b6f1b18a28af6af57608860d73e6aa9fed4b58e0'
p8
sS'stack'
p9
S''
s.