(dp1
S'args'
p2
S''
sS'methodname'
p3
S''
sS'packet_num'
p4
I110
sS'returnval'
p5
S"05923526965\nasVtracking_pixel_ids\np20929\n(lp20930\nsVbid_type\np20931\nI1\nsVname\np20932\nVLloyd's Boombox Moment\np20933\nsVupdated_time\np20934\nV2012-09-28T04:24:25+0000\np20935\nsVend_time\np20936\nNsa(dp20937\nVbid_info\np20938\n(dp20939\nV1\np20940\nV65\np20941\nssVcampaign_id\np20942\nI6005923526365\nsVlast_updated_by_app_id\np20943\nI6802152230\nsVcreated_time\np20944\nV2012-09-27T16:12:04+0000\np20945\nsVconversion_specs\np20946\n(lp20947\nsVadgroup_id\np20948\nI6005923539365\nsVtargeting\np20949\n(dp20950\nVkeywords\np20951\n(lp20952\nV#Chandler Bing\np20953\naV#Rachel Green\np20954\naV#David Schwimmer\np20955\naV#Phoebe Buffay\np20956\naV#Jennifer Aniston\np20957\naV#Ross Geller\np20958\naV#Friends\np20959\naV#Monica Geller\np20960\naV#Joey Tribbiani\np20961\nasVage_max\np20962\nI65\nsVcountries\np20963\n(lp20964\nVUS\np20965\nasVbroad_age\np20966\nI1\nsVage_min\np20967\nI13\nssVid\np20968\nV6005923539365\np20969\nsVobjective\np20970\nI2\nsVmax_bid\np20971\nV65\np20972\nsVad_id\np20973\nI6005923539365\nsVaccount_id\np20974\nI40156177\nsVstart_time\np20975\nNsVlocations\np20976\n(lp20977\nI3\nasVadgroup_status\np20978\nI9\nsVad_status\np20979\nI2\nsVimpression_control_map\np20980\n(lp20981\n(dp20982\nVcontrol\np20983\n(dp20984\nVuser_impression_limit_period\np20985\nI24\nsVuser_impression_limit\np20986\nI6\nsVuser_impression_limit_period_unit\np20987\nI0\nsVimpression_control_type\np20988\nI2\nssVlocation\np20989\nI3\nsasVcreative_ids\np20990\n(lp20991\nI6005923538965\nasVtracking_pixel_ids\np20992\n(lp20993\nsVbid_type\np20994\nI1\nsVname\np20995\nVRoss & Rachel\np20996\nsVupdated_time\np20997\nV2012-09-27T21:06:12+0000\np20998\nsVend_time\np20999\nNsa(dp21000\nVbid_info\np21001\n(dp21002\nV1\np21003\nV65\np21004\nssVcampaign_id\np21005\nI6005923572965\nsVcreated_time\np21006\nV2012-09-27T16:21:57+0000\np21007\nsVconversion_specs\np21008\n(lp21009\nsVadgroup_id\np21010\nI6005923573965\nsVtargeting\np21011\n(dp21012\nVkeywords\np21013\n(lp21014\nVromantic films\np21015\naV#Romeo and Juliet\np21016\naV#Romance film\np21017\naV#Claire Danes\np21018\naV#William Shakespeare\np21019\naV#Moulin Rouge!\np21020\naV#Leonardo DiCaprio\np21021\naVromeo juliet\np21022\naV#Baz Luhrmann\np21023\naV#Romeo + Juliet\np21024\nasVage_max\np21025\nI65\nsVcountries\np21026\n(lp21027\nVUS\np21028\nasVbroad_age\np21029\nI1\nsVage_min\np21030\nI13\nssVid\np21031\nV6005923573965\np21032\nsVobjective\np21033\nI2\nsVmax_bid\np21034\nV65\np21035\nsVad_id\np21036\nI6005923573965\nsVaccount_id\np21037\nI40156177\nsVstart_time\np21038\nNsVlocations\np21039\n(lp21040\nI3\nasVadgroup_status\np21041\nI1\nsVad_status\np21042\nI1\nsVimpression_control_map\np21043\n(lp21044\n(dp21045\nVcontrol\np21046\n(dp21047\nVuser_impression_limit_period\np21048\nI24\nsVuser_impression_limit\np21049\nI3\nsVuser_impression_limit_period_unit\np21050\nI0\nsVimpression_control_type\np21051\nI2\nssVlocation\np21052\nI3\nsasVcreative_ids\np21053\n(lp21054\nI6005923573565\nasVtracking_pixel_ids\np21055\n(lp21056\nsVbid_type\np21057\nI1\nsVname\np21058\nVRomeo & Juliet\np21059\nsVupdated_time\np21060\nV2012-09-27T22:34:32+0000\np21061\nsVend_time\np21062\nNsa(dp21063\nVbid_info\np21064\n(dp21065\nV1\np21066\nV65\np21067\nssVcampaign_id\np21068\nI6005923572965\nsVcreated_time\np21069\nV2012-09-27T16:24:20+0000\np21070\nsVconversion_specs\np21071\n(lp21072\nsVadgroup_id\np21073\nI6005923581765\nsVtargeting\np21074\n(dp21075\nVkeywords\np21076\n(lp21077\nV#Aladdin (1992 Disney film)\np21078\naVromantic films\np21079\naV#Cinderella\np21080\naV#Snow White\np21081\naV#The Little Mermaid (1989 film)\np21082\naV#Beauty and the Beast (1991 film)\np21083\naV#The Adventures of Pinocchio\np21084\naV#Lady and the Tramp\np21085\nasVage_max\np21086\nI65\nsVcountries\np21087\n(lp21088\nVUS\np21089\nasVbroad_age\np21090\nI1\nsVage_min\np21091\nI13\nssVid\np21092\nV6005923581765\np21093\nsVobjective\np21094\nI2\nsVmax_bid\np21095\nV65\np21096\nsVad_id\np21097\nI6005923581765\nsVaccount_id\np21098\nI40156177\nsVstart_time\np21099\nNsVlocations\np21100\n(lp21101\nI3\nasVadgroup_status\np21102\nI1\nsVad_status\np21103\nI1\nsVimpression_control_map\np21104\n(lp21105\n(dp21106\nVcontrol\np21107\n(dp21108\nVuser_impression_limit_period\np21109\nI24\nsVuser_impression_limit\np21110\nI3\nsVuser_impression_limit_period_unit\np21111\nI0\nsVimpression_control_type\np21112\nI2\nssVlocation\np21113\nI3\nsasVcreative_ids\np21114\n(lp21115\nI6005923581365\nasVtracking_pixel_ids\np211"
p6
sS'hash'
p7
S'b6f1b18a28af6af57608860d73e6aa9fed4b58e0'
p8
sS'stack'
p9
S''
s.