(dp1
S'args'
p2
S''
sS'methodname'
p3
S''
sS'packet_num'
p4
I82
sS'returnval'
p5
S'ck bauer\np15762\naV#The Lost Boys\np15763\naV#Touch (2012 TV series)\np15764\nasVage_max\np15765\nI65\nsVcountries\np15766\n(lp15767\nVUS\np15768\nasVbroad_age\np15769\nI1\nsVage_min\np15770\nI13\nssVid\np15771\nV6005858688165\np15772\nsVobjective\np15773\nI2\nsVmax_bid\np15774\nV65\np15775\nsVad_id\np15776\nI6005858688165\nsVaccount_id\np15777\nI40156177\nsVstart_time\np15778\nNsVlocations\np15779\n(lp15780\nI3\nasVadgroup_status\np15781\nI9\nsVad_status\np15782\nI2\nsVimpression_control_map\np15783\n(lp15784\n(dp15785\nVcontrol\np15786\n(dp15787\nVuser_impression_limit_period\np15788\nI24\nsVuser_impression_limit\np15789\nI6\nsVuser_impression_limit_period_unit\np15790\nI0\nsVimpression_control_type\np15791\nI2\nssVlocation\np15792\nI3\nsasVcreative_ids\np15793\n(lp15794\nI6005858687765\nasVtracking_pixel_ids\np15795\n(lp15796\nsVbid_type\np15797\nI1\nsVname\np15798\nVKiefer Twin\np15799\nsVupdated_time\np15800\nV2012-09-24T18:21:32+0000\np15801\nsVend_time\np15802\nV2012-09-26T03:30:00+0000\np15803\nsa(dp15804\nVbid_info\np15805\n(dp15806\nV1\np15807\nV65\np15808\nssVcampaign_id\np15809\nI6005858648365\nsVlast_updated_by_app_id\np15810\nI6802152230\nsVcreated_time\np15811\nV2012-09-20T20:11:40+0000\np15812\nsVconversion_specs\np15813\n(lp15814\nsVadgroup_id\np15815\nI6005858696565\nsVtargeting\np15816\n(dp15817\nVkeywords\np15818\n(lp15819\nV#Jon Heder\np15820\naV#Blades of Glory\np15821\naV#MTV\np15822\naV#Superbad (film)\np15823\naVvote for pedro\np15824\naV#When in Rome (2010 film)\np15825\naV#School for Scoundrels (2006 film)\np15826\naV#Comedy Central\np15827\naV#The Benchwarmers\np15828\naV#Napoleon Dynamite\np15829\nasVage_max\np15830\nI65\nsVcountries\np15831\n(lp15832\nVUS\np15833\nasVbroad_age\np15834\nI1\nsVage_min\np15835\nI13\nssVid\np15836\nV6005858696565\np15837\nsVobjective\np15838\nI2\nsVmax_bid\np15839\nV65\np15840\nsVad_id\np15841\nI6005858696565\nsVaccount_id\np15842\nI40156177\nsVstart_time\np15843\nNsVlocations\np15844\n(lp15845\nI3\nasVadgroup_status\np15846\nI9\nsVad_status\np15847\nI2\nsVimpression_control_map\np15848\n(lp15849\n(dp15850\nVcontrol\np15851\n(dp15852\nVuser_impression_limit_period\np15853\nI24\nsVuser_impression_limit\np15854\nI6\nsVuser_impression_limit_period_unit\np15855\nI0\nsVimpression_control_type\np15856\nI2\nssVlocation\np15857\nI3\nsasVcreative_ids\np15858\n(lp15859\nI6005858696165\nasVtracking_pixel_ids\np15860\n(lp15861\nsVbid_type\np15862\nI1\nsVname\np15863\nVJon Heder Twin\np15864\nsVupdated_time\np15865\nV2012-09-24T18:16:29+0000\np15866\nsVend_time\np15867\nV2012-09-26T03:30:00+0000\np15868\nsa(dp15869\nVbid_info\np15870\n(dp15871\nV1\np15872\nV65\np15873\nssVcampaign_id\np15874\nI6005859590565\nsVcreated_time\np15875\nV2012-09-20T20:36:18+0000\np15876\nsVconversion_specs\np15877\n(lp15878\nsVadgroup_id\np15879\nI6005859591565\nsVtargeting\np15880\n(dp15881\nVkeywords\np15882\n(lp15883\nV#Coraline (film)\np15884\naV#Beetlejuice\np15885\naV#Reality Bites\np15886\naV#Tim Burton\np15887\naV#Black Swan (film)\np15888\naV#Frankenweenie (2012 film)\np15889\naV#The Nightmare Before Christmas\np15890\naV#Girl, Interrupted (film)\np15891\naV#Winona Ryder\np15892\naV#Heathers\np15893\naV#Johnny Depp\np15894\naV#Corpse Bride\np15895\naV#A Scanner Darkly (film)\np15896\naV#Edward Scissorhands\np15897\nasVage_max\np15898\nI65\nsVcountries\np15899\n(lp15900\nVUS\np15901\nasVbroad_age\np15902\nI1\nsVage_min\np15903\nI13\nssVid\np15904\nV6005859591565\np15905\nsVobjective\np15906\nI2\nsVmax_bid\np15907\nV65\np15908\nsVad_id\np15909\nI6005859591565\nsVaccount_id\np15910\nI40156177\nsVstart_time\np15911\nNsVlocations\np15912\n(lp15913\nI3\nasVadgroup_status\np15914\nI1\nsVad_status\np15915\nI1\nsVimpression_control_map\np15916\n(lp15917\n(dp15918\nVcontrol\np15919\n(dp15920\nVuser_impression_limit_period\np15921\nI24\nsVuser_impression_limit\np15922\nI6\nsVuser_impression_limit_period_unit\np15923\nI0\nsVimpression_control_type\np15924\nI2\nssVlocation\np15925\nI3\nsasVcreative_ids\np15926\n(lp15927\nI6005859631565\nasVtracking_pixel_ids\np15928\n(lp15929\nsVbid_type\np15930\nI1\nsVname\np15931\nVWinona\np15932\nsVupdated_time\np15933\nV2012-09-21T21:32:06+0000\np15934\nsVend_time\np15935\nV2012-09-23T03:30:00+0000\np15936\nsa(dp15937\nVbid_info\np15938\n(dp15939\nV1\np15940\nV65\np15941\nssVcampaign_id\np15942\nI6005859590565\nsVcreated_time\np15943\nV2012-09-20T20:38:19+0000\np15944\nsVconversion_specs\np15945\n(lp15946\nsVadgroup_id\np15947\nI6005859629565\nsVt'
p6
sS'hash'
p7
S'b6f1b18a28af6af57608860d73e6aa9fed4b58e0'
p8
sS'stack'
p9
S''
s.