(dp1
S'args'
p2
S''
sS'methodname'
p3
S''
sS'packet_num'
p4
I176
sS'returnval'
p5
S"V#Canon (company)\np32909\naV#Instagram\np32910\naV#Panasonic\np32911\nasVage_max\np32912\nI65\nsVcountries\np32913\n(lp32914\nVUS\np32915\nasVbroad_age\np32916\nI1\nsVage_min\np32917\nI13\nssVid\np32918\nV6006012973765\np32919\nsVobjective\np32920\nI2\nsVmax_bid\np32921\nV65\np32922\nsVad_id\np32923\nI6006012973765\nsVaccount_id\np32924\nI40156177\nsVstart_time\np32925\nNsVlocations\np32926\n(lp32927\nI3\nasVadgroup_status\np32928\nI1\nsVad_status\np32929\nI1\nsVimpression_control_map\np32930\n(lp32931\n(dp32932\nVcontrol\np32933\n(dp32934\nVuser_impression_limit_period\np32935\nI24\nsVuser_impression_limit\np32936\nI6\nsVuser_impression_limit_period_unit\np32937\nI0\nsVimpression_control_type\np32938\nI2\nssVlocation\np32939\nI3\nsasVcreative_ids\np32940\n(lp32941\nI6006012978165\nasVtracking_pixel_ids\np32942\n(lp32943\nsVbid_type\np32944\nI1\nsVname\np32945\nVOlympic Rings\np32946\nsVupdated_time\np32947\nV2012-10-30T18:47:19+0000\np32948\nsVend_time\np32949\nV2012-11-01T03:30:00+0000\np32950\nsa(dp32951\nVbid_info\np32952\n(dp32953\nV1\np32954\nV65\np32955\nssVcampaign_id\np32956\nI6006012972765\nsVcreated_time\np32957\nV2012-10-11T18:56:17+0000\np32958\nsVconversion_specs\np32959\n(lp32960\nsVadgroup_id\np32961\nI6006012988965\nsVtargeting\np32962\n(dp32963\nVkeywords\np32964\n(lp32965\nV#Nikon\np32966\naV#Puppy Bowl\np32967\naV#Golden Retriever\np32968\naV#Cuteness\np32969\naV#Eastman Kodak\np32970\naV#Puppy mill\np32971\naV#Dog\np32972\naV#Puppy\np32973\naV#It's Me or the Dog\np32974\naV#Camera magazine\np32975\naV#Beagle\np32976\naV#Flickr\np32977\naV#Pentax cameras\np32978\naV#Polaroid Corporation\np32979\naV#Dogs 101\np32980\naV#Border Collie\np32981\naV#Canon (company)\np32982\naVdslr\np32983\naV#Instagram\np32984\naV#Dog Whisperer with Cesar Millan\np32985\naV#Picasa\np32986\naV#Pug\np32987\naV#Panasonic\np32988\nasVage_max\np32989\nI65\nsVcountries\np32990\n(lp32991\nVUS\np32992\nasVbroad_age\np32993\nI1\nsVage_min\np32994\nI13\nssVid\np32995\nV6006012988965\np32996\nsVobjective\np32997\nI2\nsVmax_bid\np32998\nV65\np32999\nsVad_id\np33000\nI6006012988965\nsVaccount_id\np33001\nI40156177\nsVstart_time\np33002\nNsVlocations\np33003\n(lp33004\nI3\nasVadgroup_status\np33005\nI1\nsVad_status\np33006\nI1\nsVimpression_control_map\np33007\n(lp33008\n(dp33009\nVcontrol\np33010\n(dp33011\nVuser_impression_limit_period\np33012\nI24\nsVuser_impression_limit\np33013\nI3\nsVuser_impression_limit_period_unit\np33014\nI0\nsVimpression_control_type\np33015\nI2\nssVlocation\np33016\nI3\nsasVcreative_ids\np33017\n(lp33018\nI6006012988565\nasVtracking_pixel_ids\np33019\n(lp33020\nsVbid_type\np33021\nI1\nsVname\np33022\nVDog\np33023\nsVupdated_time\np33024\nV2012-10-30T18:47:19+0000\np33025\nsVend_time\np33026\nV2012-11-01T03:30:00+0000\np33027\nsa(dp33028\nVbid_info\np33029\n(dp33030\nV1\np33031\nV65\np33032\nssVcampaign_id\np33033\nI6006012972765\nsVcreated_time\np33034\nV2012-10-11T19:00:21+0000\np33035\nsVconversion_specs\np33036\n(lp33037\nsVadgroup_id\np33038\nI6006013007365\nsVtargeting\np33039\n(dp33040\nVkeywords\np33041\n(lp33042\nV#Nikon\np33043\naV#Fencers Club\np33044\naVdslr club\np33045\naV#Fencing\np33046\naV#Eastman Kodak\np33047\naV#Camera magazine\np33048\naV#Flickr\np33049\naV#Carlos Calder\xf3n (fencer)\np33050\naV#Pentax cameras\np33051\naV#Polaroid Corporation\np33052\naV#Aldo Montano (fencer born 1978)\np33053\naV#Silvio Fern\xe1ndez (fencer born 1979)\np33054\naV#Canon (company)\np33055\naVdslr\np33056\naV#Instagram\np33057\naV#Ahmed Mohamed (fencer)\np33058\naV#Picasa\np33059\naV#Panasonic\np33060\nasVage_max\np33061\nI65\nsVcountries\np33062\n(lp33063\nVUS\np33064\nasVbroad_age\np33065\nI1\nsVage_min\np33066\nI13\nssVid\np33067\nV6006013007365\np33068\nsVobjective\np33069\nI2\nsVmax_bid\np33070\nV65\np33071\nsVad_id\np33072\nI6006013007365\nsVaccount_id\np33073\nI40156177\nsVstart_time\np33074\nNsVlocations\np33075\n(lp33076\nI3\nasVadgroup_status\np33077\nI1\nsVad_status\np33078\nI1\nsVimpression_control_map\np33079\n(lp33080\n(dp33081\nVcontrol\np33082\n(dp33083\nVuser_impression_limit_period\np33084\nI24\nsVuser_impression_limit\np33085\nI3\nsVuser_impression_limit_period_unit\np33086\nI0\nsVimpression_control_type\np33087\nI2\nssVlocation\np33088\nI3\nsasVcreative_ids\np33089\n(lp33090\nI6006013006965\nasVtracking_pixel_ids\np33091\n(lp33092\nsVbid_type\np33093\nI1\nsVname\np33094\nVFencing\np33095\nsVupdated_time\np33096\nV2012-10-30T18:47:19+0000\np33097\nsVend_time\np33098\nV2012-11-01T03:30:"
p6
sS'hash'
p7
S'b6f1b18a28af6af57608860d73e6aa9fed4b58e0'
p8
sS'stack'
p9
S''
s.