(dp1
S'args'
p2
S''
sS'methodname'
p3
S''
sS'packet_num'
p4
I77
sS'returnval'
p5
S'sVcreated_time\np14840\nV2012-09-20T15:35:47+0000\np14841\nsVend_time\np14842\nV2012-09-23T03:30:00+0000\np14843\nsVadgroup_status\np14844\nI1\nsVid\np14845\nV6005853132965\np14846\nsVad_id\np14847\nI6005853132965\nsVimpression_control_map\np14848\n(lp14849\n(dp14850\nVcontrol\np14851\n(dp14852\nVuser_impression_limit_period\np14853\nI24\nsVuser_impression_limit\np14854\nI6\nsVuser_impression_limit_period_unit\np14855\nI0\nsVimpression_control_type\np14856\nI2\nssVlocation\np14857\nI3\nsasVcreative_ids\np14858\n(lp14859\nI6005853311165\nasVmax_bid\np14860\nV65\np14861\nsVadgroup_id\np14862\nI6005853132965\nsVaccount_id\np14863\nI40156177\nsa(dp14864\nVconversion_specs\np14865\n(lp14866\nsVupdated_time\np14867\nV2012-09-22T18:36:51+0000\np14868\nsVbid_type\np14869\nI1\nsVname\np14870\nVRyan Challenges You!\np14871\nsVtracking_pixel_ids\np14872\n(lp14873\nsVtargeting\np14874\n(dp14875\nVkeywords\np14876\n(lp14877\nV#The Ides of March (film)\np14878\naV#Drive (2011 film)\np14879\naV#Lars and the Real Girl\np14880\naV#Rachel McAdams\np14881\naV#Eva Mendes\np14882\naV#The Notebook (film)\np14883\naV#Blue Valentine (film)\np14884\naV#Ryan Gosling\np14885\naV#Crazy, Stupid, Love.\np14886\nasVage_max\np14887\nI65\nsVcountries\np14888\n(lp14889\nVUS\np14890\nasVbroad_age\np14891\nI1\nsVage_min\np14892\nI13\nssVbid_info\np14893\n(dp14894\nV1\np14895\nV65\np14896\nssVstart_time\np14897\nV2012-09-20T16:00:00+0000\np14898\nsVad_status\np14899\nI1\nsVcampaign_id\np14900\nI6005853131965\nsVlocations\np14901\n(lp14902\nI3\nasVcreated_time\np14903\nV2012-09-20T15:39:40+0000\np14904\nsVend_time\np14905\nV2012-09-23T03:30:00+0000\np14906\nsVadgroup_status\np14907\nI1\nsVid\np14908\nV6005853188765\np14909\nsVad_id\np14910\nI6005853188765\nsVimpression_control_map\np14911\n(lp14912\n(dp14913\nVcontrol\np14914\n(dp14915\nVuser_impression_limit_period\np14916\nI24\nsVuser_impression_limit\np14917\nI6\nsVuser_impression_limit_period_unit\np14918\nI0\nsVimpression_control_type\np14919\nI2\nssVlocation\np14920\nI3\nsasVcreative_ids\np14921\n(lp14922\nI6005853308965\nasVmax_bid\np14923\nV65\np14924\nsVadgroup_id\np14925\nI6005853188765\nsVaccount_id\np14926\nI40156177\nsa(dp14927\nVbid_info\np14928\n(dp14929\nV1\np14930\nV65\np14931\nssVcampaign_id\np14932\nI6005853227965\nsVcreated_time\np14933\nV2012-09-24T18:21:41+0000\np14934\nsVconversion_specs\np14935\n(lp14936\nsVadgroup_id\np14937\nI6005889729565\nsVtargeting\np14938\n(dp14939\nVkeywords\np14940\n(lp14941\nVwe love michelle obama\np14942\naV#Michelle Obama\np14943\naV#Barack Obama\np14944\naV#Barack Obama presidential campaign, 2012\np14945\naVbarack obama supporters\np14946\nasVage_max\np14947\nI65\nsVcountries\np14948\n(lp14949\nVUS\np14950\nasVbroad_age\np14951\nI1\nsVage_min\np14952\nI13\nssVid\np14953\nV6005889729565\np14954\nsVobjective\np14955\nI2\nsVmax_bid\np14956\nV65\np14957\nsVad_id\np14958\nI6005889729565\nsVaccount_id\np14959\nI40156177\nsVstart_time\np14960\nNsVlocations\np14961\n(lp14962\nI3\nasVadgroup_status\np14963\nI1\nsVad_status\np14964\nI1\nsVimpression_control_map\np14965\n(lp14966\n(dp14967\nVcontrol\np14968\n(dp14969\nVuser_impression_limit_period\np14970\nI24\nsVuser_impression_limit\np14971\nI3\nsVuser_impression_limit_period_unit\np14972\nI0\nsVimpression_control_type\np14973\nI2\nssVlocation\np14974\nI3\nsasVcreative_ids\np14975\n(lp14976\nI6005853326565\nasVtracking_pixel_ids\np14977\n(lp14978\nsVbid_type\np14979\nI1\nsVname\np14980\nVPicture-Perfect Obamas - None\np14981\nsVupdated_time\np14982\nV2012-09-24T19:54:42+0000\np14983\nsVend_time\np14984\nNsa(dp14985\nVbid_info\np14986\n(dp14987\nV1\np14988\nV65\np14989\nssVcampaign_id\np14990\nI6005853227965\nsVlast_updated_by_app_id\np14991\nI6802152230\nsVcreated_time\np14992\nV2012-09-20T15:45:29+0000\np14993\nsVconversion_specs\np14994\n(lp14995\nsVadgroup_id\np14996\nI6005853228965\nsVtargeting\np14997\n(dp14998\nVkeywords\np14999\n(lp15000\nVwe love michelle obama\np15001\naV#Michelle Obama\np15002\naV#Barack Obama\np15003\naV#Barack Obama presidential campaign, 2012\np15004\naVbarack obama supporters\np15005\nasVage_max\np15006\nI65\nsVcountries\np15007\n(lp15008\nVUS\np15009\nasVbroad_age\np15010\nI1\nsVage_min\np15011\nI13\nssVid\np15012\nV6005853228965\np15013\nsVmax_bid\np15014\nV65\np15015\nsVad_id\np15016\nI6005853228965\nsVaccount_id\np15017\nI40156177\nsVstart_time\np15018\nV2012-09-22T13:30:00+0000\np15019\nsVlocations\np15020\n(lp15021\nI3\nasVadgroup_status\np15022\nI9\nsVa'
p6
sS'hash'
p7
S'b6f1b18a28af6af57608860d73e6aa9fed4b58e0'
p8
sS'stack'
p9
S''
s.