(dp1
S'args'
p2
S''
sS'methodname'
p3
S''
sS'packet_num'
p4
I72
sS'returnval'
p5
S'rt_time\np13633\nNsVlocations\np13634\n(lp13635\nI3\nasVadgroup_status\np13636\nI1\nsVad_status\np13637\nI1\nsVimpression_control_map\np13638\n(lp13639\n(dp13640\nVcontrol\np13641\n(dp13642\nVuser_impression_limit_period\np13643\nI24\nsVuser_impression_limit\np13644\nI3\nsVuser_impression_limit_period_unit\np13645\nI0\nsVimpression_control_type\np13646\nI2\nssVlocation\np13647\nI3\nsasVcreative_ids\np13648\n(lp13649\nI6007843068365\nasVtracking_pixel_ids\np13650\n(lp13651\nsVbid_type\np13652\nI1\nsVname\np13653\nVhttp://mm.sitecompass.com/BurstingPipe/adServer.bs?cn=tf&c=20&mc=click&pli=6099528&PluID=0&o... - Ad\np13654\nsVupdated_time\np13655\nV2013-01-17T15:15:29+0000\np13656\nsVend_time\np13657\nNsa(dp13658\nVbid_info\np13659\n(dp13660\nV1\np13661\nV65\np13662\nssVcampaign_id\np13663\nI6007843067765\nsVlast_updated_by_app_id\np13664\nI209787012415271\nsVcreated_time\np13665\nV2013-01-17T19:01:23+0000\np13666\nsVconversion_specs\np13667\n(lp13668\nsVadgroup_id\np13669\nI6007847066765\nsVtargeting\np13670\n(dp13671\nVkeywords\np13672\n(lp13673\nV#Labrador Retriever\np13674\naV#Golden Retriever\np13675\naV#Westminster Kennel Club Dog Show\np13676\naV#Petco\np13677\naV#Cuteness\np13678\naV#Dog\np13679\naV#Iams\np13680\naV#BuzzFeed\np13681\naV#Pet\np13682\nasVage_max\np13683\nI65\nsVcountries\np13684\n(lp13685\nVUS\np13686\nasVbroad_age\np13687\nI1\nsVage_min\np13688\nI13\nssVid\np13689\nV6007847066765\np13690\nsVobjective\np13691\nI2\nsVmax_bid\np13692\nV65\np13693\nsVad_id\np13694\nI6007847066765\nsVaccount_id\np13695\nI40156177\nsVstart_time\np13696\nNsVlocations\np13697\n(lp13698\nI3\nasVadgroup_status\np13699\nI1\nsVad_status\np13700\nI1\nsVimpression_control_map\np13701\n(lp13702\n(dp13703\nVcontrol\np13704\n(dp13705\nVuser_impression_limit_period\np13706\nI24\nsVuser_impression_limit\np13707\nI3\nsVuser_impression_limit_period_unit\np13708\nI0\nsVimpression_control_type\np13709\nI2\nssVlocation\np13710\nI3\nsasVcreative_ids\np13711\n(lp13712\nI6007843068365\nasVtracking_pixel_ids\np13713\n(lp13714\nsVbid_type\np13715\nI1\nsVname\np13716\nVhttp://mm.sitecompass.com/BurstingPipe/adServer.bs?cn=tf&c=20&mc=click&pli=6099528&PluID=0&o- Ad 1\np13717\nsVupdated_time\np13718\nV2013-01-17T19:05:00+0000\np13719\nsVend_time\np13720\nNsa(dp13721\nVbid_info\np13722\n(dp13723\nV1\np13724\nV65\np13725\nssVcampaign_id\np13726\nI6007843099165\nsVlast_updated_by_app_id\np13727\nI209787012415271\nsVcreated_time\np13728\nV2013-01-17T15:13:38+0000\np13729\nsVconversion_specs\np13730\n(lp13731\nsVadgroup_id\np13732\nI6007843100165\nsVtargeting\np13733\n(dp13734\nVkeywords\np13735\n(lp13736\nV#Community service\np13737\naV#Volunteering\np13738\naV#Peace Corps\np13739\naV#Activism\np13740\naV#Teach For America\np13741\naV#BuzzFeed\np13742\naV#Charity (practice)\np13743\naV#Bible\np13744\naV#Toms Shoes\np13745\nasVage_max\np13746\nI65\nsVcountries\np13747\n(lp13748\nVUS\np13749\nasVbroad_age\np13750\nI1\nsVage_min\np13751\nI13\nssVid\np13752\nV6007843100165\np13753\nsVobjective\np13754\nI2\nsVmax_bid\np13755\nV65\np13756\nsVad_id\np13757\nI6007843100165\nsVaccount_id\np13758\nI40156177\nsVstart_time\np13759\nNsVlocations\np13760\n(lp13761\nI3\nasVadgroup_status\np13762\nI1\nsVad_status\np13763\nI1\nsVimpression_control_map\np13764\n(lp13765\n(dp13766\nVcontrol\np13767\n(dp13768\nVuser_impression_limit_period\np13769\nI24\nsVuser_impression_limit\np13770\nI3\nsVuser_impression_limit_period_unit\np13771\nI0\nsVimpression_control_type\np13772\nI2\nssVlocation\np13773\nI3\nsasVcreative_ids\np13774\n(lp13775\nI6007843099765\nasVtracking_pixel_ids\np13776\n(lp13777\nsVbid_type\np13778\nI1\nsVname\np13779\nVhttp://mm.sitecompass.com/BurstingPipe/adServer.bs?cn=tf&c=20&mc=click&pli=6099528&PluID=0&o... - Ad\np13780\nsVupdated_time\np13781\nV2013-01-17T15:16:58+0000\np13782\nsVend_time\np13783\nNsa(dp13784\nVbid_info\np13785\n(dp13786\nV1\np13787\nV65\np13788\nssVcampaign_id\np13789\nI6007843099165\nsVlast_updated_by_app_id\np13790\nI209787012415271\nsVcreated_time\np13791\nV2013-01-17T19:03:34+0000\np13792\nsVconversion_specs\np13793\n(lp13794\nsVadgroup_id\np13795\nI6007847123565\nsVtargeting\np13796\n(dp13797\nVkeywords\np13798\n(lp13799\nV#Kindness\np13800\naV#Kickstarter\np13801\naV#Volunteering\np13802\naV#Charity (virtue)\np13803\naV#Activism\np13804\naV#Venture capital\np13805\naV#Angel investor\np13806\naV#Pay It Forward\np13807\naV#Newtown, Connecticut\np13808\naV#Charity (practice)\np13809\naV#Girl Sc'
p6
sS'hash'
p7
S'b733a98cdcf14c1c138ef03ccb5a7c2f564bdcf3'
p8
sS'stack'
p9
S''
s.