(dp1
S'args'
p2
S''
sS'methodname'
p3
S''
sS'packet_num'
p4
I90
sS'returnval'
p5
S'Vad_id\np16850\nI6007989065165\nsVaccount_id\np16851\nI40156177\nsVstart_time\np16852\nNsVlocations\np16853\n(lp16854\nI3\nasVadgroup_status\np16855\nI1\nsVad_status\np16856\nI1\nsVimpression_control_map\np16857\n(lp16858\n(dp16859\nVcontrol\np16860\n(dp16861\nVuser_impression_limit_period\np16862\nI24\nsVuser_impression_limit\np16863\nI3\nsVuser_impression_limit_period_unit\np16864\nI0\nsVimpression_control_type\np16865\nI2\nssVlocation\np16866\nI3\nsasVcreative_ids\np16867\n(lp16868\nI6007989064765\nasVtracking_pixel_ids\np16869\n(lp16870\nsVbid_type\np16871\nI1\nsVname\np16872\nVhttp://clk.atdmt.com/ULA/go/431167357/direct/01/?href=http://www.buzzfeed.com/h1/fbad/sevenp... - Ad\np16873\nsVupdated_time\np16874\nV2013-01-25T15:47:42+0000\np16875\nsVend_time\np16876\nV2013-01-26T07:45:00+0000\np16877\nsa(dp16878\nVbid_info\np16879\n(dp16880\nV1\np16881\nV65\np16882\nssVcampaign_id\np16883\nI6007989063965\nsVlast_updated_by_app_id\np16884\nI209787012415271\nsVcreated_time\np16885\nV2013-01-23T19:10:49+0000\np16886\nsVconversion_specs\np16887\n(lp16888\nsVadgroup_id\np16889\nI6007991648365\nsVtargeting\np16890\n(dp16891\nVkeywords\np16892\n(lp16893\nV#The Godfather Part II\np16894\naV#Flixster\np16895\naV#Internet Movie Database\np16896\naV#The Godfather\np16897\naV#Sofia Coppola\np16898\naV#Martin Scorsese\np16899\naV#The Godfather Saga\np16900\naV#A Bronx Tale\np16901\naV#The Godfather Part III\np16902\naV#Al Pacino\np16903\naV#Scarface (1983 film)\np16904\naV#Robert De Niro\np16905\naV#The Godfather: The Game\np16906\naV#Netflix\np16907\naV#Francis Ford Coppola\np16908\naV#Five Families (The Godfather)\np16909\naV#The Godfather II (video game)\np16910\naV#Goodfellas\np16911\naV#The Godfather (novel)\np16912\naV#Rotten Tomatoes\np16913\naV#Casino (film)\np16914\nasVage_max\np16915\nI65\nsVcountries\np16916\n(lp16917\nVUS\np16918\nasVbroad_age\np16919\nI1\nsVage_min\np16920\nI13\nssVid\np16921\nV6007991648365\np16922\nsVobjective\np16923\nI2\nsVmax_bid\np16924\nV65\np16925\nsVad_id\np16926\nI6007991648365\nsVaccount_id\np16927\nI40156177\nsVstart_time\np16928\nNsVlocations\np16929\n(lp16930\nI3\nasVadgroup_status\np16931\nI1\nsVad_status\np16932\nI1\nsVimpression_control_map\np16933\n(lp16934\n(dp16935\nVcontrol\np16936\n(dp16937\nVuser_impression_limit_period\np16938\nI24\nsVuser_impression_limit\np16939\nI3\nsVuser_impression_limit_period_unit\np16940\nI0\nsVimpression_control_type\np16941\nI2\nssVlocation\np16942\nI3\nsasVcreative_ids\np16943\n(lp16944\nI6007991645965\nasVtracking_pixel_ids\np16945\n(lp16946\nsVbid_type\np16947\nI1\nsVname\np16948\nVGodfather\np16949\nsVupdated_time\np16950\nV2013-01-25T15:47:42+0000\np16951\nsVend_time\np16952\nV2013-01-26T07:45:00+0000\np16953\nsa(dp16954\nVbid_info\np16955\n(dp16956\nV1\np16957\nV65\np16958\nssVcampaign_id\np16959\nI6007989121965\nsVlast_updated_by_app_id\np16960\nI209787012415271\nsVcreated_time\np16961\nV2013-01-23T17:05:08+0000\np16962\nsVconversion_specs\np16963\n(lp16964\nsVadgroup_id\np16965\nI6007989123165\nsVtargeting\np16966\n(dp16967\nVkeywords\np16968\n(lp16969\nV#Perez Hilton\np16970\naV#Paparazzi\np16971\naV#Stalking\np16972\naV#TMZ.com\np16973\naV#Celebuzz\np16974\naV#TMZ on TV\np16975\naV#Celebrity\np16976\naV#People (magazine)\np16977\naV#Tabloid (newspaper format)\np16978\naV#Bravo (U.S. TV channel)\np16979\naV#TMZ (website)\np16980\nasVage_max\np16981\nI65\nsVcountries\np16982\n(lp16983\nVUS\np16984\nasVbroad_age\np16985\nI1\nsVage_min\np16986\nI13\nssVid\np16987\nV6007989123165\np16988\nsVobjective\np16989\nI2\nsVmax_bid\np16990\nV65\np16991\nsVad_id\np16992\nI6007989123165\nsVaccount_id\np16993\nI40156177\nsVstart_time\np16994\nNsVlocations\np16995\n(lp16996\nI3\nasVadgroup_status\np16997\nI1\nsVad_status\np16998\nI1\nsVimpression_control_map\np16999\n(lp17000\n(dp17001\nVcontrol\np17002\n(dp17003\nVuser_impression_limit_period\np17004\nI24\nsVuser_impression_limit\np17005\nI3\nsVuser_impression_limit_period_unit\np17006\nI0\nsVimpression_control_type\np17007\nI2\nssVlocation\np17008\nI3\nsasVcreative_ids\np17009\n(lp17010\nI6007994543165\nasVtracking_pixel_ids\np17011\n(lp17012\nsVbid_type\np17013\nI1\nsVname\np17014\nVhttp://clk.atdmt.com/ULA/go/431167357/direct/01/?href=http://www.buzzfeed.com/h1/fbad/sevenp... - Ad\np17015\nsVupdated_time\np17016\nV2013-01-23T22:14:49+0000\np17017\nsVend_time\np17018\nNsa(dp17019\nVbid_info\np17020\n(dp17021\nV1\np17022\nV65\np17023\nssVcampaign_id\np17024\nI60079891219'
p6
sS'hash'
p7
S'b733a98cdcf14c1c138ef03ccb5a7c2f564bdcf3'
p8
sS'stack'
p9
S''
s.