(dp1
S'args'
p2
S''
sS'methodname'
p3
S''
sS'packet_num'
p4
I18
sS'returnval'
p5
S"ol_map\np3377\n(lp3378\n(dp3379\nVcontrol\np3380\n(dp3381\nVuser_impression_limit_period\np3382\nI24\nsVuser_impression_limit\np3383\nI3\nsVuser_impression_limit_period_unit\np3384\nI0\nsVimpression_control_type\np3385\nI2\nssVlocation\np3386\nI3\nsasVcreative_ids\np3387\n(lp3388\nI6007648632765\nasVtracking_pixel_ids\np3389\n(lp3390\nsVbid_type\np3391\nI1\nsVname\np3392\nVhttp://ad.doubleclick.net/clk;267179552;91565483;y?http://www.buzzfeed.com/h1/fbad/kingofthe... - Ad\np3393\nsVupdated_time\np3394\nV2013-01-09T21:31:39+0000\np3395\nsVend_time\np3396\nNsa(dp3397\nVbid_info\np3398\n(dp3399\nV1\np3400\nV65\np3401\nssVcampaign_id\np3402\nI6007648632165\nsVlast_updated_by_app_id\np3403\nI209787012415271\nsVcreated_time\np3404\nV2013-01-10T15:07:49+0000\np3405\nsVconversion_specs\np3406\n(lp3407\nsVadgroup_id\np3408\nI6007670342565\nsVtargeting\np3409\n(dp3410\nVkeywords\np3411\n(lp3412\nV#Nintendo\np3413\naV#Super Mario Bros.\np3414\naV#Super Nintendo Entertainment System\np3415\naV#Super Mario Kart\np3416\naV#Super Mario Galaxy 2\np3417\naV#New Super Mario Bros. Wii\np3418\naV#Super Mario Bros. 3\np3419\naV#Mario Kart Wii\np3420\naV#Super Mario Galaxy\np3421\naV#Mario\np3422\naV#Nintendo Entertainment System\np3423\naV#Super Mario 64\np3424\naV#Yoshi\np3425\naV#Luigi\np3426\naV#Super Mario World\np3427\naV#Mario Kart\np3428\naV#Mario Kart 64\np3429\naV#Super Mario (series)\np3430\naV#Mario (franchise)\np3431\nasVage_max\np3432\nI65\nsVcountries\np3433\n(lp3434\nVUS\np3435\nasVbroad_age\np3436\nI1\nsVage_min\np3437\nI13\nssVid\np3438\nV6007670342565\np3439\nsVobjective\np3440\nI2\nsVmax_bid\np3441\nV65\np3442\nsVad_id\np3443\nI6007670342565\nsVaccount_id\np3444\nI40156177\nsVstart_time\np3445\nNsVlocations\np3446\n(lp3447\nI3\nasVadgroup_status\np3448\nI1\nsVad_status\np3449\nI1\nsVimpression_control_map\np3450\n(lp3451\n(dp3452\nVcontrol\np3453\n(dp3454\nVuser_impression_limit_period\np3455\nI24\nsVuser_impression_limit\np3456\nI3\nsVuser_impression_limit_period_unit\np3457\nI0\nsVimpression_control_type\np3458\nI2\nssVlocation\np3459\nI3\nsasVcreative_ids\np3460\n(lp3461\nI6007670342165\nasVtracking_pixel_ids\np3462\n(lp3463\nsVbid_type\np3464\nI1\nsVname\np3465\nVMario\np3466\nsVupdated_time\np3467\nV2013-01-10T17:23:25+0000\np3468\nsVend_time\np3469\nNsa(dp3470\nVbid_info\np3471\n(dp3472\nV1\np3473\nV65\np3474\nssVcampaign_id\np3475\nI6007648968965\nsVlast_updated_by_app_id\np3476\nI6802152230\nsVcreated_time\np3477\nV2013-01-09T21:51:30+0000\np3478\nsVconversion_specs\np3479\n(lp3480\nsVadgroup_id\np3481\nI6007649019765\nsVtargeting\np3482\n(dp3483\nVkeywords\np3484\n(lp3485\nV#Crunch (exercise)\np3486\naV#CrossFit\np3487\naV#CollegeHumor\np3488\naV#Cracked.com\np3489\naV#Reddit\np3490\naV#Diet (nutrition)\np3491\naV#Dieting\np3492\naV#EBaum's World\np3493\naV#BuzzFeed\np3494\naV#Funny or Die\np3495\nasVage_max\np3496\nI65\nsVcountries\np3497\n(lp3498\nVUS\np3499\nasVbroad_age\np3500\nI1\nsVage_min\np3501\nI13\nssVid\np3502\nV6007649019765\np3503\nsVobjective\np3504\nI2\nsVmax_bid\np3505\nV65\np3506\nsVad_id\np3507\nI6007649019765\nsVaccount_id\np3508\nI40156177\nsVstart_time\np3509\nNsVlocations\np3510\n(lp3511\nI3\nasVadgroup_status\np3512\nI1\nsVad_status\np3513\nI1\nsVimpression_control_map\np3514\n(lp3515\n(dp3516\nVcontrol\np3517\n(dp3518\nVuser_impression_limit_period\np3519\nI24\nsVuser_impression_limit\np3520\nI6\nsVuser_impression_limit_period_unit\np3521\nI0\nsVimpression_control_type\np3522\nI2\nssVlocation\np3523\nI3\nsasVcreative_ids\np3524\n(lp3525\nI6007648969565\nasVtracking_pixel_ids\np3526\n(lp3527\nsVbid_type\np3528\nI1\nsVname\np3529\nVdiet 1\np3530\nsVupdated_time\np3531\nV2013-01-10T20:03:51+0000\np3532\nsVend_time\np3533\nNsa(dp3534\nVbid_info\np3535\n(dp3536\nV1\np3537\nV65\np3538\nssVcampaign_id\np3539\nI6007648968965\nsVlast_updated_by_app_id\np3540\nI6802152230\nsVcreated_time\np3541\nV2013-01-09T21:51:57+0000\np3542\nsVconversion_specs\np3543\n(lp3544\nsVadgroup_id\np3545\nI6007649028565\nsVtargeting\np3546\n(dp3547\nVkeywords\np3548\n(lp3549\nV#Crunch (exercise)\np3550\naV#CrossFit\np3551\naV#CollegeHumor\np3552\naV#Cracked.com\np3553\naV#Reddit\np3554\naV#Diet (nutrition)\np3555\naV#Dieting\np3556\naV#EBaum's World\np3557\naV#BuzzFeed\np3558\naV#Funny or Die\np3559\nasVage_max\np3560\nI65\nsVcountries\np3561\n(lp3562\nVUS\np3563\nasVbroad_age\np3564\nI1\nsVage_min\np3565\nI13\nssVid\np3566\nV6007649028565\np3567\nsVobjective\np3568\nI2\nsVmax_bid\np3569\nV65\np3570\nsVad_id\np3571\nI60"
p6
sS'hash'
p7
S'b733a98cdcf14c1c138ef03ccb5a7c2f564bdcf3'
p8
sS'stack'
p9
S''
s.