(dp1
S'args'
p2
S''
sS'methodname'
p3
S''
sS'packet_num'
p4
I95
sS'returnval'
p5
S'4+0000\np17762\nsVconversion_specs\np17763\n(lp17764\nsVadgroup_id\np17765\nI6008009289365\nsVtargeting\np17766\n(dp17767\nVkeywords\np17768\n(lp17769\nV#National Football League\np17770\naV#Madden NFL\np17771\naV#ESPNU\np17772\naV#ESPN2\np17773\naV#NFL on CBS\np17774\naV#ESPN\np17775\naV#Fox NFL Sunday\np17776\naV#Madden NFL 11\np17777\naV#NFL on NBC\np17778\naV#NFL on Fox\np17779\naV#Madden NFL 12\np17780\naV#NBA on ESPN\np17781\naV#Sunday NFL Countdown\np17782\naV#ESPN on ABC\np17783\naV#NFL on television\np17784\naV#ESPN (United States)\np17785\naV#NFL Network\np17786\nasVage_max\np17787\nI65\nsVcountries\np17788\n(lp17789\nVUS\np17790\nasVbroad_age\np17791\nI1\nsVage_min\np17792\nI13\nssVid\np17793\nV6008009289365\np17794\nsVobjective\np17795\nI2\nsVmax_bid\np17796\nV65\np17797\nsVad_id\np17798\nI6008009289365\nsVaccount_id\np17799\nI40156177\nsVstart_time\np17800\nNsVlocations\np17801\n(lp17802\nI3\nasVadgroup_status\np17803\nI1\nsVad_status\np17804\nI1\nsVimpression_control_map\np17805\n(lp17806\n(dp17807\nVcontrol\np17808\n(dp17809\nVuser_impression_limit_period\np17810\nI24\nsVuser_impression_limit\np17811\nI6\nsVuser_impression_limit_period_unit\np17812\nI0\nsVimpression_control_type\np17813\nI2\nssVlocation\np17814\nI3\nsasVcreative_ids\np17815\n(lp17816\nI6008009288965\nasVtracking_pixel_ids\np17817\n(lp17818\nsVbid_type\np17819\nI1\nsVname\np17820\nVhttp://www.buzzfeed.com/h1/fbad/scope/24-courageous-sport-fans-you-wish-you-could-be - Ad 2\np17821\nsVupdated_time\np17822\nV2013-01-25T19:55:55+0000\np17823\nsVend_time\np17824\nNsas.'
p6
sS'hash'
p7
S'b733a98cdcf14c1c138ef03ccb5a7c2f564bdcf3'
p8
sS'stack'
p9
S'__json_response /home/orozco/development/django/buzzfeed/local/lib/python2.7/site-packages/caliendo/facade.py cache /home/orozco/development/django/buzzfeed/pyfacebook/pyfacebook/__init__.py get /home/orozco/development/django/buzzfeed/pyfacebook/pyfacebook/__init__.py get_all /home/orozco/development/django/buzzfeed/pyfacebook/pyfacebook/__init__.py get_list_from_fb /home/orozco/development/django/buzzfeed/pyfacebook/pyfacebook/api/adgroup.py find_by_adaccount_id /home/orozco/development/django/buzzfeed/pyfacebook/test/adgroup_test.py test_find_by_adaccount_id /home/orozco/development/django/buzzfeed/local/lib/python2.7/site-packages/nose/case.py runTest /usr/lib/python2.7/unittest/case.py run /usr/lib/python2.7/unittest/case.py __call__ /home/orozco/development/django/buzzfeed/local/lib/python2.7/site-packages/nose/case.py runTest /home/orozco/development/django/buzzfeed/local/lib/python2.7/site-packages/nose/case.py run /home/orozco/development/django/buzzfeed/local/lib/python2.7/site-packages/nose/case.py __call__ /home/orozco/development/django/buzzfeed/local/lib/python2.7/site-packages/nose/suite.py run /home/orozco/development/django/buzzfeed/local/lib/python2.7/site-packages/nose/suite.py __call__ /home/orozco/development/django/buzzfeed/local/lib/python2.7/site-packages/nose/suite.py run /home/orozco/development/django/buzzfeed/local/lib/python2.7/site-packages/nose/suite.py __call__ /home/orozco/development/django/buzzfeed/local/lib/python2.7/site-packages/nose/suite.py run /home/orozco/development/django/buzzfeed/local/lib/python2.7/site-packages/nose/suite.py __call__ /home/orozco/development/django/buzzfeed/local/lib/python2.7/site-packages/nose/suite.py run /home/orozco/development/django/buzzfeed/local/lib/python2.7/site-packages/nose/suite.py __call__ /home/orozco/development/django/buzzfeed/local/lib/python2.7/site-packages/nose/suite.py run /home/orozco/development/django/buzzfeed/local/lib/python2.7/site-packages/nose/suite.py __call__ /home/orozco/development/django/buzzfeed/local/lib/python2.7/site-packages/nose/suite.py run /home/orozco/development/django/buzzfeed/local/lib/python2.7/site-packages/nose/suite.py __call__ /home/orozco/development/django/buzzfeed/local/lib/python2.7/site-packages/nose/suite.py run /home/orozco/development/django/buzzfeed/local/lib/python2.7/site-packages/nose/suite.py __call__ /home/orozco/development/django/buzzfeed/local/lib/python2.7/site-packages/nose/suite.py run /home/orozco/development/django/buzzfeed/local/lib/python2.7/site-packages/nose/suite.py __call__ /home/orozco/development/django/buzzfeed/local/lib/python2.7/site-packages/nose/core.py run /home'
p10
s.