(dp1
S'args'
p2
S''
sS'methodname'
p3
S''
sS'packet_num'
p4
I27
sS'returnval'
p5
S'nan o brien\np5106\naV#Arctic Monkeys\np5107\naV#Hot Fuzz\np5108\naVsteven colbert\np5109\naV#Office Space\np5110\naV#Streetlight Manifesto\np5111\naVinglorious basterds\np5112\naV#Jon Lajoie\np5113\naV#Daft Punk\np5114\naV#Ratatat (album)\np5115\naV#Inglourious Basterds\np5116\naV#Workaholics\np5117\naV#Nick Swardson\np5118\naVmost interesting man in world\np5119\naVepic beard man\np5120\naV#I Am America (And So Can You!)\np5121\naV#Coheed and Cambria\np5122\naV#Tucker Max\np5123\naVwilfred\np5124\naV#Brand New\np5125\naV#Demetri Martin\np5126\nasVage_max\np5127\nI65\nsVcountries\np5128\n(lp5129\nVUS\np5130\nasVbroad_age\np5131\nI1\nsVage_min\np5132\nI13\nssVid\np5133\nV6007673890165\np5134\nsVobjective\np5135\nI2\nsVmax_bid\np5136\nV65\np5137\nsVad_id\np5138\nI6007673890165\nsVaccount_id\np5139\nI40156177\nsVstart_time\np5140\nNsVlocations\np5141\n(lp5142\nI3\nasVadgroup_status\np5143\nI1\nsVad_status\np5144\nI1\nsVimpression_control_map\np5145\n(lp5146\n(dp5147\nVcontrol\np5148\n(dp5149\nVuser_impression_limit_period\np5150\nI24\nsVuser_impression_limit\np5151\nI6\nsVuser_impression_limit_period_unit\np5152\nI0\nsVimpression_control_type\np5153\nI2\nssVlocation\np5154\nI3\nsasVcreative_ids\np5155\n(lp5156\nI6007673889765\nasVtracking_pixel_ids\np5157\n(lp5158\nsVbid_type\np5159\nI1\nsVname\np5160\nVwork + optimal\np5161\nsVupdated_time\np5162\nV2013-01-10T18:25:50+0000\np5163\nsVend_time\np5164\nNsa(dp5165\nVbid_info\np5166\n(dp5167\nV1\np5168\nV65\np5169\nssVcampaign_id\np5170\nI6007673889165\nsVlast_updated_by_app_id\np5171\nI6802152230\nsVcreated_time\np5172\nV2013-01-10T18:22:58+0000\np5173\nsVconversion_specs\np5174\n(lp5175\nsVadgroup_id\np5176\nI6007673909565\nsVtargeting\np5177\n(dp5178\nVkeywords\np5179\n(lp5180\nV#The Office (U.S. TV series)\np5181\naV#Office Space\np5182\naV#CollegeHumor\np5183\naV#Workaholics\np5184\naV#Funny or Die\np5185\nasVage_max\np5186\nI65\nsVcountries\np5187\n(lp5188\nVUS\np5189\nasVbroad_age\np5190\nI1\nsVage_min\np5191\nI13\nssVid\np5192\nV6007673909565\np5193\nsVobjective\np5194\nI2\nsVmax_bid\np5195\nV65\np5196\nsVad_id\np5197\nI6007673909565\nsVaccount_id\np5198\nI40156177\nsVstart_time\np5199\nNsVlocations\np5200\n(lp5201\nI3\nasVadgroup_status\np5202\nI1\nsVad_status\np5203\nI1\nsVimpression_control_map\np5204\n(lp5205\n(dp5206\nVcontrol\np5207\n(dp5208\nVuser_impression_limit_period\np5209\nI24\nsVuser_impression_limit\np5210\nI6\nsVuser_impression_limit_period_unit\np5211\nI0\nsVimpression_control_type\np5212\nI2\nssVlocation\np5213\nI3\nsasVcreative_ids\np5214\n(lp5215\nI6007673889765\nasVtracking_pixel_ids\np5216\n(lp5217\nsVbid_type\np5218\nI1\nsVname\np5219\nVwork\np5220\nsVupdated_time\np5221\nV2013-01-10T18:27:18+0000\np5222\nsVend_time\np5223\nNsa(dp5224\nVbid_info\np5225\n(dp5226\nV1\np5227\nV65\np5228\nssVcampaign_id\np5229\nI6007674082165\nsVlast_updated_by_app_id\np5230\nI6802152230\nsVcreated_time\np5231\nV2013-01-10T18:34:22+0000\np5232\nsVconversion_specs\np5233\n(lp5234\nsVadgroup_id\np5235\nI6007674083165\nsVtargeting\np5236\n(dp5237\nVkeywords\np5238\n(lp5239\nV#The Hangover\np5240\naV#Community (TV series)\np5241\naV#Comedy Central\np5242\naV#Ken Jeong\np5243\naV#The Hangover Part II\np5244\nasVage_max\np5245\nI65\nsVcountries\np5246\n(lp5247\nVUS\np5248\nasVbroad_age\np5249\nI1\nsVage_min\np5250\nI13\nssVid\np5251\nV6007674083165\np5252\nsVobjective\np5253\nI2\nsVmax_bid\np5254\nV65\np5255\nsVad_id\np5256\nI6007674083165\nsVaccount_id\np5257\nI40156177\nsVstart_time\np5258\nNsVlocations\np5259\n(lp5260\nI3\nasVadgroup_status\np5261\nI1\nsVad_status\np5262\nI1\nsVimpression_control_map\np5263\n(lp5264\n(dp5265\nVcontrol\np5266\n(dp5267\nVuser_impression_limit_period\np5268\nI24\nsVuser_impression_limit\np5269\nI6\nsVuser_impression_limit_period_unit\np5270\nI0\nsVimpression_control_type\np5271\nI2\nssVlocation\np5272\nI3\nsasVcreative_ids\np5273\n(lp5274\nI6007674082765\nasVtracking_pixel_ids\np5275\n(lp5276\nsVbid_type\np5277\nI1\nsVname\np5278\nVken jeong\np5279\nsVupdated_time\np5280\nV2013-01-10T18:37:47+0000\np5281\nsVend_time\np5282\nNsa(dp5283\nVbid_info\np5284\n(dp5285\nV1\np5286\nV65\np5287\nssVcampaign_id\np5288\nI6007674082165\nsVlast_updated_by_app_id\np5289\nI6802152230\nsVcreated_time\np5290\nV2013-01-10T18:36:17+0000\np5291\nsVconversion_specs\np5292\n(lp5293\nsVadgroup_id\np5294\nI6007674125365\nsVtargeting\np5295\n(dp5296\nVkeywords\np5297\n(lp5298\nV#Best Week Ever\np5299\naV#VH1\np5300\naV#Comedy Central\np5301\naV#Paul Scheer\np5302\naV#The L'
p6
sS'hash'
p7
S'b733a98cdcf14c1c138ef03ccb5a7c2f564bdcf3'
p8
sS'stack'
p9
S''
s.