(dp1
S'args'
p2
S''
sS'methodname'
p3
S''
sS'packet_num'
p4
I31
sS'returnval'
p5
S"ic Award\np5878\nasVage_max\np5879\nI65\nsVcountries\np5880\n(lp5881\nVUS\np5882\nasVbroad_age\np5883\nI1\nsVage_min\np5884\nI13\nssVid\np5885\nV6007846777565\np5886\nsVobjective\np5887\nI2\nsVmax_bid\np5888\nV65\np5889\nsVad_id\np5890\nI6007846777565\nsVaccount_id\np5891\nI40156177\nsVstart_time\np5892\nNsVlocations\np5893\n(lp5894\nI3\nasVadgroup_status\np5895\nI1\nsVad_status\np5896\nI1\nsVimpression_control_map\np5897\n(lp5898\n(dp5899\nVcontrol\np5900\n(dp5901\nVuser_impression_limit_period\np5902\nI24\nsVuser_impression_limit\np5903\nI6\nsVuser_impression_limit_period_unit\np5904\nI0\nsVimpression_control_type\np5905\nI2\nssVlocation\np5906\nI3\nsasVcreative_ids\np5907\n(lp5908\nI6007846777165\nasVtracking_pixel_ids\np5909\n(lp5910\nsVbid_type\np5911\nI1\nsVname\np5912\nVkanye\np5913\nsVupdated_time\np5914\nV2013-01-17T18:47:06+0000\np5915\nsVend_time\np5916\nNsa(dp5917\nVbid_info\np5918\n(dp5919\nV1\np5920\nV65\np5921\nssVcampaign_id\np5922\nI6007675594365\nsVlast_updated_by_app_id\np5923\nI6802152230\nsVcreated_time\np5924\nV2013-01-10T20:01:16+0000\np5925\nsVconversion_specs\np5926\n(lp5927\nsVadgroup_id\np5928\nI6007675595365\nsVtargeting\np5929\n(dp5930\nVkeywords\np5931\n(lp5932\nV#The Fray\np5933\naV#Natasha Bedingfield\np5934\naVsonic drivein\np5935\naVchain restaurants\np5936\naVmary poppins\np5937\naVcharlotte russe\np5938\naV#E! News\np5939\naVwhat not wear\np5940\naVlittle rascals\np5941\naVdiamonds\np5942\naVtlc\np5943\naV#Lip balm\np5944\naV#True Life\np5945\naVmade\np5946\naV#Leonardo DiCaprio\np5947\naV#Pussycat Dolls\np5948\naV#Full House\np5949\naVfriends with benefits\np5950\naV#Kings of Leon\np5951\naV#Rugrats\np5952\nasVage_max\np5953\nI65\nsVcountries\np5954\n(lp5955\nVUS\np5956\nasVbroad_age\np5957\nI1\nsVage_min\np5958\nI13\nssVid\np5959\nV6007675595365\np5960\nsVobjective\np5961\nI2\nsVmax_bid\np5962\nV65\np5963\nsVad_id\np5964\nI6007675595365\nsVaccount_id\np5965\nI40156177\nsVstart_time\np5966\nNsVlocations\np5967\n(lp5968\nI3\nasVadgroup_status\np5969\nI9\nsVad_status\np5970\nI2\nsVimpression_control_map\np5971\n(lp5972\n(dp5973\nVcontrol\np5974\n(dp5975\nVuser_impression_limit_period\np5976\nI24\nsVuser_impression_limit\np5977\nI3\nsVuser_impression_limit_period_unit\np5978\nI0\nsVimpression_control_type\np5979\nI2\nssVlocation\np5980\nI3\nsasVcreative_ids\np5981\n(lp5982\nI6007675594965\nasVtracking_pixel_ids\np5983\n(lp5984\nsVbid_type\np5985\nI1\nsVname\np5986\nVjessie + optimal\np5987\nsVupdated_time\np5988\nV2013-01-17T18:39:20+0000\np5989\nsVend_time\np5990\nNsa(dp5991\nVbid_info\np5992\n(dp5993\nV1\np5994\nV65\np5995\nssVcampaign_id\np5996\nI6007675594365\nsVlast_updated_by_app_id\np5997\nI6802152230\nsVcreated_time\np5998\nV2013-01-10T20:05:17+0000\np5999\nsVconversion_specs\np6000\n(lp6001\nsVadgroup_id\np6002\nI6007675658365\nsVtargeting\np6003\n(dp6004\nVkeywords\np6005\n(lp6006\nV#The O.C.\np6007\naV#Mario Lopez\np6008\naV#The Real World\np6009\naV#The Wonder Years\np6010\naV#Sabrina, the Teenage Witch (TV series)\np6011\naV#Mark-Paul Gosselaar\np6012\naV#One Tree Hill (TV series)\np6013\naV#Saved by the Bell: The College Years\np6014\naV#Saved by the Bell\np6015\naV#Full House\np6016\naV#90210 (TV series)\np6017\naV#Boy Meets World\np6018\naV#Step by Step (TV series)\np6019\naV#The '90s Are All That\np6020\naV#90s\np6021\nasVage_max\np6022\nI65\nsVcountries\np6023\n(lp6024\nVUS\np6025\nasVbroad_age\np6026\nI1\nsVage_min\np6027\nI13\nssVid\np6028\nV6007675658365\np6029\nsVobjective\np6030\nI2\nsVmax_bid\np6031\nV65\np6032\nsVad_id\np6033\nI6007675658365\nsVaccount_id\np6034\nI40156177\nsVstart_time\np6035\nNsVlocations\np6036\n(lp6037\nI3\nasVadgroup_status\np6038\nI9\nsVad_status\np6039\nI2\nsVimpression_control_map\np6040\n(lp6041\n(dp6042\nVcontrol\np6043\n(dp6044\nVuser_impression_limit_period\np6045\nI24\nsVuser_impression_limit\np6046\nI6\nsVuser_impression_limit_period_unit\np6047\nI0\nsVimpression_control_type\np6048\nI2\nssVlocation\np6049\nI3\nsasVcreative_ids\np6050\n(lp6051\nI6007675594965\nasVtracking_pixel_ids\np6052\n(lp6053\nsVbid_type\np6054\nI1\nsVname\np6055\nVjessie\np6056\nsVupdated_time\np6057\nV2013-01-17T18:39:18+0000\np6058\nsVend_time\np6059\nNsa(dp6060\nVbid_info\np6061\n(dp6062\nV1\np6063\nV65\np6064\nssVcampaign_id\np6065\nI6007675594365\nsVlast_updated_by_app_id\np6066\nI6802152230\nsVcreated_time\np6067\nV2013-01-10T20:09:10+0000\np6068\nsVconversion_specs\np6069\n(lp6070\nsVadgroup_id\np6071\nI6007675739165\nsVtargeting\np6072\n(dp6073\nVkeywords\np6"
p6
sS'hash'
p7
S'b733a98cdcf14c1c138ef03ccb5a7c2f564bdcf3'
p8
sS'stack'
p9
S''
s.