(dp1
S'args'
p2
S''
sS'methodname'
p3
S''
sS'packet_num'
p4
I65
sS'returnval'
p5
S'imit_period_unit\np12341\nI0\nsVimpression_control_type\np12342\nI2\nssVlocation\np12343\nI3\nsasVcreative_ids\np12344\n(lp12345\nI6007789623365\nasVtracking_pixel_ids\np12346\n(lp12347\nsVbid_type\np12348\nI1\nsVname\np12349\nVdance\np12350\nsVupdated_time\np12351\nV2013-01-15T16:14:17+0000\np12352\nsVend_time\np12353\nNsa(dp12354\nVbid_info\np12355\n(dp12356\nV1\np12357\nV65\np12358\nssVcampaign_id\np12359\nI6007789622765\nsVlast_updated_by_app_id\np12360\nI6802152230\nsVcreated_time\np12361\nV2013-01-15T16:11:01+0000\np12362\nsVconversion_specs\np12363\n(lp12364\nsVadgroup_id\np12365\nI6007789630965\nsVtargeting\np12366\n(dp12367\nVkeywords\np12368\n(lp12369\nV#Mashable\np12370\naV#Country Music Association Awards\np12371\naV#Redneck\np12372\naV#Internet meme\np12373\naV#Digg\np12374\naV#The Onion\np12375\naV#CollegeHumor\np12376\naV#CMT Music Awards\np12377\naV#Cracked.com\np12378\naV#My Big Redneck Wedding\np12379\naV#Reddit\np12380\naV#BuzzFeed\np12381\naVrednecks\np12382\naV#Funny or Die\np12383\nasVage_max\np12384\nI65\nsVcountries\np12385\n(lp12386\nVUS\np12387\nasVbroad_age\np12388\nI1\nsVage_min\np12389\nI13\nssVid\np12390\nV6007789630965\np12391\nsVobjective\np12392\nI2\nsVmax_bid\np12393\nV65\np12394\nsVad_id\np12395\nI6007789630965\nsVaccount_id\np12396\nI40156177\nsVstart_time\np12397\nNsVlocations\np12398\n(lp12399\nI3\nasVadgroup_status\np12400\nI1\nsVad_status\np12401\nI1\nsVimpression_control_map\np12402\n(lp12403\n(dp12404\nVcontrol\np12405\n(dp12406\nVuser_impression_limit_period\np12407\nI24\nsVuser_impression_limit\np12408\nI6\nsVuser_impression_limit_period_unit\np12409\nI0\nsVimpression_control_type\np12410\nI2\nssVlocation\np12411\nI3\nsasVcreative_ids\np12412\n(lp12413\nI6007789630565\nasVtracking_pixel_ids\np12414\n(lp12415\nsVbid_type\np12416\nI1\nsVname\np12417\nVwildlife\np12418\nsVupdated_time\np12419\nV2013-01-15T16:26:51+0000\np12420\nsVend_time\np12421\nNsa(dp12422\nVbid_info\np12423\n(dp12424\nV1\np12425\nV65\np12426\nssVcampaign_id\np12427\nI6007790655765\nsVlast_updated_by_app_id\np12428\nI6802152230\nsVcreated_time\np12429\nV2013-01-15T17:08:51+0000\np12430\nsVconversion_specs\np12431\n(lp12432\nsVadgroup_id\np12433\nI6007790656765\nsVtargeting\np12434\n(dp12435\nVkeywords\np12436\n(lp12437\nV#The X-Files (film)\np12438\naV#The X-Files franchise\np12439\naV#Aliens vs. Predator: Requiem\np12440\naV#Extraterrestrials in fiction\np12441\naV#E.T. the Extra-Terrestrial\np12442\naV#Alien abduction\np12443\naV#Ancient Aliens\np12444\naV#Roswell (TV series)\np12445\naV#Science fiction\np12446\naV#Alien vs. Predator (film)\np12447\naV#Roswell UFO incident\np12448\naV#The X-Files\np12449\naV#The Outer Limits (1963 TV series)\np12450\naV#Alien (film)\np12451\naV#Search for extraterrestrial intelligence\np12452\naV#Ashtar (extraterrestrial being)\np12453\naV#Aliens (film)\np12454\naV#Aliens: Colonial Marines\np12455\naV#Extraterrestrial life\np12456\naV#The Outer Limits (1995 TV series)\np12457\nasVage_max\np12458\nI65\nsVcountries\np12459\n(lp12460\nVUS\np12461\nasVbroad_age\np12462\nI1\nsVage_min\np12463\nI13\nssVid\np12464\nV6007790656765\np12465\nsVobjective\np12466\nI2\nsVmax_bid\np12467\nV65\np12468\nsVad_id\np12469\nI6007790656765\nsVaccount_id\np12470\nI40156177\nsVstart_time\np12471\nNsVlocations\np12472\n(lp12473\nI3\nasVadgroup_status\np12474\nI1\nsVad_status\np12475\nI1\nsVimpression_control_map\np12476\n(lp12477\n(dp12478\nVcontrol\np12479\n(dp12480\nVuser_impression_limit_period\np12481\nI24\nsVuser_impression_limit\np12482\nI6\nsVuser_impression_limit_period_unit\np12483\nI0\nsVimpression_control_type\np12484\nI2\nssVlocation\np12485\nI3\nsasVcreative_ids\np12486\n(lp12487\nI6007790656365\nasVtracking_pixel_ids\np12488\n(lp12489\nsVbid_type\np12490\nI1\nsVname\np12491\nVUS - targeted\np12492\nsVupdated_time\np12493\nV2013-01-15T17:12:42+0000\np12494\nsVend_time\np12495\nNsa(dp12496\nVbid_info\np12497\n(dp12498\nV1\np12499\nV65\np12500\nssVcampaign_id\np12501\nI6007790655765\nsVlast_updated_by_app_id\np12502\nI6802152230\nsVcreated_time\np12503\nV2013-01-15T17:11:54+0000\np12504\nsVconversion_specs\np12505\n(lp12506\nsVadgroup_id\np12507\nI6007790692365\nsVtargeting\np12508\n(dp12509\nVregions\np12510\n(lp12511\n(dp12512\nVid\np12513\nV32\np12514\nsVname\np12515\nVNevada\np12516\nsasVage_max\np12517\nI65\nsVcountries\np12518\n(lp12519\nVUS\np12520\nasVbroad_age\np12521\nI1\nsVage_min\np12522\nI13\nssVid\np12523\nV6007790692365\np12524\nsVobjective\np12525\nI2'
p6
sS'hash'
p7
S'b733a98cdcf14c1c138ef03ccb5a7c2f564bdcf3'
p8
sS'stack'
p9
S''
s.