(dp1
S'args'
p2
S''
sS'methodname'
p3
S''
sS'packet_num'
p4
I11
sS'returnval'
p5
S'Delta)\np1743\nsVstart_time\np1744\nV2011-11-14T13:00:00-0800\np1745\nsVcampaign_id\np1746\nI6004015544365\nsVfrequency_cap\np1747\nI0\nsVdaily_imps\np1748\nI0\nsVlifetime_budget\np1749\nI5000\nsVend_time\np1750\nV2011-11-14T20:30:00-0800\np1751\nsVcreated_time\np1752\nV2011-11-14T12:27:55-0800\np1753\nsVupdated_time\np1754\nV2012-09-21T12:56:00-0700\np1755\nsVcampaign_status\np1756\nI2\nsVid\np1757\nV6004015544365\np1758\nsVaccount_id\np1759\nI40156177\nsa(dp1760\nVname\np1761\nVGE: Top 11 Minecraft Landmarks\np1762\nsVstart_time\np1763\nV2011-11-14T15:45:00-0800\np1764\nsVcampaign_id\np1765\nI6004016016165\nsVfrequency_cap\np1766\nI0\nsVdaily_imps\np1767\nI0\nsVlifetime_budget\np1768\nI37500\nsVend_time\np1769\nV2011-11-14T20:30:00-0800\np1770\nsVcreated_time\np1771\nV2011-11-14T15:31:59-0800\np1772\nsVupdated_time\np1773\nV2012-09-21T12:56:02-0700\np1774\nsVcampaign_status\np1775\nI2\nsVid\np1776\nV6004016016165\np1777\nsVaccount_id\np1778\nI40156177\nsa(dp1779\nVname\np1780\nVGE: Top 11 Minecraft Super Structures\np1781\nsVstart_time\np1782\nV2011-11-15T06:00:00-0800\np1783\nsVcampaign_id\np1784\nI6004016020765\nsVfrequency_cap\np1785\nI0\nsVdaily_imps\np1786\nI0\nsVlifetime_budget\np1787\nI37500\nsVend_time\np1788\nV2011-11-15T20:30:00-0800\np1789\nsVcreated_time\np1790\nV2011-11-14T15:36:41-0800\np1791\nsVupdated_time\np1792\nV2012-09-21T12:56:03-0700\np1793\nsVcampaign_status\np1794\nI2\nsVid\np1795\nV6004016020765\np1796\nsVaccount_id\np1797\nI40156177\nsa(dp1798\nVname\np1799\nVGE: 7 Wonders on Minecraft\np1800\nsVstart_time\np1801\nV2011-11-16T06:00:00-0800\np1802\nsVcampaign_id\np1803\nI6004016043565\nsVfrequency_cap\np1804\nI0\nsVdaily_imps\np1805\nI0\nsVlifetime_budget\np1806\nI37500\nsVend_time\np1807\nV2011-11-16T20:30:00-0800\np1808\nsVcreated_time\np1809\nV2011-11-14T15:39:35-0800\np1810\nsVupdated_time\np1811\nV2012-09-21T12:56:05-0700\np1812\nsVcampaign_status\np1813\nI2\nsVid\np1814\nV6004016043565\np1815\nsVaccount_id\np1816\nI40156177\nsa(dp1817\nVname\np1818\nVGE: Amazing Aerial Views\np1819\nsVstart_time\np1820\nV2011-11-17T06:00:00-0800\np1821\nsVcampaign_id\np1822\nI6004016063365\nsVfrequency_cap\np1823\nI0\nsVdaily_imps\np1824\nI0\nsVlifetime_budget\np1825\nI37500\nsVend_time\np1826\nV2011-11-17T20:30:00-0800\np1827\nsVcreated_time\np1828\nV2011-11-14T15:47:54-0800\np1829\nsVupdated_time\np1830\nV2011-11-17T07:16:44-0800\np1831\nsVcampaign_status\np1832\nI2\nsVid\np1833\nV6004016063365\np1834\nsVaccount_id\np1835\nI40156177\nsa(dp1836\nVname\np1837\nVSailor Jerry: Modern Day Renaissance Man (Partner Page)\np1838\nsVstart_time\np1839\nV2011-11-15T07:45:00-0800\np1840\nsVcampaign_id\np1841\nI6004017370965\nsVfrequency_cap\np1842\nI0\nsVdaily_imps\np1843\nI0\nsVlifetime_budget\np1844\nI34000\nsVend_time\np1845\nV2011-11-15T17:00:00-0800\np1846\nsVcreated_time\np1847\nV2011-11-15T07:12:59-0800\np1848\nsVupdated_time\np1849\nV2012-09-21T12:56:07-0700\np1850\nsVcampaign_status\np1851\nI2\nsVid\np1852\nV6004017370965\np1853\nsVaccount_id\np1854\nI40156177\nsa(dp1855\nVname\np1856\nVSailor Jerry: Modern Day Renaissance Man - Steve Jobs (Partner Page)\np1857\nsVstart_time\np1858\nV2011-11-15T09:45:00-0800\np1859\nsVcampaign_id\np1860\nI6004019318765\nsVfrequency_cap\np1861\nI0\nsVdaily_imps\np1862\nI0\nsVlifetime_budget\np1863\nI1000\nsVend_time\np1864\nV2011-11-15T14:00:00-0800\np1865\nsVcreated_time\np1866\nV2011-11-15T09:30:40-0800\np1867\nsVupdated_time\np1868\nV2012-09-21T12:56:09-0700\np1869\nsVcampaign_status\np1870\nI2\nsVid\np1871\nV6004019318765\np1872\nsVaccount_id\np1873\nI40156177\nsa(dp1874\nVname\np1875\nVSailor Jerry: Modern Day Renaissance Man - Ryan Gosling (Partner Page)\np1876\nsVstart_time\np1877\nV2011-11-15T12:29:59-0800\np1878\nsVcampaign_id\np1879\nI6004019733765\nsVfrequency_cap\np1880\nI0\nsVdaily_imps\np1881\nI0\nsVlifetime_budget\np1882\nI2500\nsVend_time\np1883\nV2011-11-15T14:00:00-0800\np1884\nsVcreated_time\np1885\nV2011-11-15T12:13:11-0800\np1886\nsVupdated_time\np1887\nV2012-09-21T12:56:11-0700\np1888\nsVcampaign_status\np1889\nI2\nsVid\np1890\nV6004019733765\np1891\nsVaccount_id\np1892\nI40156177\nsa(dp1893\nVname\np1894\nVExperian: Prices of the Hottest Toys (Partner Page)\np1895\nsVstart_time\np1896\nV2011-11-16T07:00:30-0800\np1897\nsVcampaign_id\np1898\nI6004021044765\nsVfrequency_cap\np1899\nI0\nsVdaily_imps\np1900\nI0\nsVlifetime_budget\np1901\nI20000\nsVend_time\np1902\nV2011-11-16T20:30:00-0800\np1903\nsVcreated_time\np'
p6
sS'hash'
p7
S'b92a11521fa5e5043b0ca698c1c31e5f05209c35'
p8
sS'stack'
p9
S''
s.