(dp1
S'args'
p2
S''
sS'methodname'
p3
S''
sS'packet_num'
p4
I39
sS'returnval'
p5
S'80/708176_6006844590965_38004_n.jpg\np5291\nsVcount_current_adgroups\np5292\nI1\nsVrun_status\np5293\nI1\nsVtype\np5294\nI1\nsVlink_url\np5295\nVhttp://www.buzzfeed.com/h1/fbad/mioenergy/nobody-looks-cool-yawning\np5296\nsVview_tag\np5297\ng36\nsa(dp5298\nValt_view_tags\np5299\n(lp5300\nsVbody\np5301\nVOregon man legally changes name to \'Captain Awesome\' - See more headlines on BuzzFeed\np5302\nsVimage_hash\np5303\nVd76d4a2c5ff24eda94eff21a6301754f\np5304\nsVname\np5305\nVYou have to see this?\np5306\nsVtitle\np5307\nVYou have to see this?\np5308\nsVcreative_id\np5309\nV6005034083165\np5310\nsVpreview_url\np5311\nVhttp://www.facebook.com/ads/api/creative_preview.php?cid=6005034083165\np5312\nsVid\np5313\nV6005034083165\np5314\nsVimage_url\np5315\nVhttps://fbcdn-creative-a.akamaihd.net/hads-ak-prn1/s110x80/708161_6006845340165_34676_n.jpg\np5316\nsVcount_current_adgroups\np5317\nI2\nsVrun_status\np5318\nI1\nsVtype\np5319\nI1\nsVlink_url\np5320\nVhttp://www.buzzfeed.com/h1/fbad/pepsinext/30-truly-unbelievable-headlines\np5321\nsVview_tag\np5322\ng36\nsa(dp5323\nValt_view_tags\np5324\n(lp5325\nsVbody\np5326\nVFoxfire that\'s what. Check the"10 Amazing Naturally Occurring Phenomena You Need To See"\np5327\nsVimage_hash\np5328\nVf8b14b871b1b4914cb8f73f8513763b5\np5329\nsVname\np5330\nVWhat is this?-00\np5331\nsVtitle\np5332\nVWhat is this?\np5333\nsVcreative_id\np5334\nV6005023539165\np5335\nsVpreview_url\np5336\nVhttp://www.facebook.com/ads/api/creative_preview.php?cid=6005023539165\np5337\nsVid\np5338\nV6005023539165\np5339\nsVimage_url\np5340\nVhttps://fbcdn-creative-a.akamaihd.net/hads-ak-prn1/s110x80/708189_6006845557965_8948_n.jpg\np5341\nsVcount_current_adgroups\np5342\nI1\nsVrun_status\np5343\nI1\nsVtype\np5344\nI1\nsVlink_url\np5345\nVhttp://www.buzzfeed.com/H1/FBAD/pepsinext/10-amazing-naturally-occurring-phenomena-you-need\np5346\nsVview_tag\np5347\ng36\nsa(dp5348\nValt_view_tags\np5349\n(lp5350\nsVbody\np5351\nVCheck out more pics of the amazing Aurora Borealis\np5352\nsVimage_hash\np5353\nV2d36e91e9df617dc8952d97f7715552b\np5354\nsVname\np5355\nVHave you seen the Aurora?\np5356\nsVtitle\np5357\nVHave you seen the Aurora?\np5358\nsVcreative_id\np5359\nV6005023540965\np5360\nsVpreview_url\np5361\nVhttp://www.facebook.com/ads/api/creative_preview.php?cid=6005023540965\np5362\nsVid\np5363\nV6005023540965\np5364\nsVimage_url\np5365\nVhttps://fbcdn-creative-a.akamaihd.net/hads-ak-prn1/s110x80/708194_6006844325165_15955_n.jpg\np5366\nsVcount_current_adgroups\np5367\nI1\nsVrun_status\np5368\nI1\nsVtype\np5369\nI1\nsVlink_url\np5370\nVhttp://www.buzzfeed.com/H1/FBAD/pepsinext/10-amazing-naturally-occurring-phenomena-you-need\np5371\nsVview_tag\np5372\ng36\nsa(dp5373\nValt_view_tags\np5374\n(lp5375\nsVbody\np5376\nVRangers Goalie Henrik Lundqvist. See more in our list of the "Hottest Guys In The NHL" \np5377\nsVimage_hash\np5378\nVd093a232a235c54c455e0b2590074276\np5379\nsVname\np5380\nVWho is he?\np5381\nsVtitle\np5382\nVWho is he?\np5383\nsVcreative_id\np5384\nV6005145859165\np5385\nsVpreview_url\np5386\nVhttp://www.facebook.com/ads/api/creative_preview.php?cid=6005145859165\np5387\nsVid\np5388\nV6005145859165\np5389\nsVimage_url\np5390\nVhttps://fbcdn-creative-a.akamaihd.net/hads-ak-prn1/s110x80/708192_6006845298565_46751_n.jpg\np5391\nsVcount_current_adgroups\np5392\nI1\nsVrun_status\np5393\nI1\nsVtype\np5394\nI1\nsVlink_url\np5395\nVhttp://www.buzzfeed.com/h1/fbad/nhl/the-hottest-players-in-the-nhl-2ag2\np5396\nsVview_tag\np5397\ng36\nsa(dp5398\nValt_view_tags\np5399\n(lp5400\nsVbody\np5401\nVThis talking chicken will pump you up.Discover Motivational Chicken today!\np5402\nsVimage_hash\np5403\nVb69da4a59ad7bfd989f7757bfc8f6c13\np5404\nsVname\np5405\nVHave you seen this?\np5406\nsVtitle\np5407\nVHave you seen this?\np5408\nsVcreative_id\np5409\nV6005023460765\np5410\nsVpreview_url\np5411\nVhttp://www.facebook.com/ads/api/creative_preview.php?cid=6005023460765\np5412\nsVid\np5413\nV6005023460765\np5414\nsVimage_url\np5415\nVhttps://fbcdn-creative-a.akamaihd.net/hads-ak-prn1/s110x80/708173_6006845148565_42826_n.jpg\np5416\nsVcount_current_adgroups\np5417\nI3\nsVrun_status\np5418\nI1\nsVtype\np5419\nI1\nsVlink_url\np5420\nVhttp://ad.doubleclick.net/clk;255395655;79140662;t;pc=[TPAS_ID]\np5421\nsVview_tag\np5422\ng36\nsa(dp5423\nValt_view_tags\np5424\n(lp5425\nsVbody\np5426\nVTony\'s rise to power make'
p6
sS'hash'
p7
S'bde4b494c19a23dddd8687aa80926882ecc120bc'
p8
sS'stack'
p9
S''
s.