(dp1
S'args'
p2
S''
sS'methodname'
p3
S''
sS'packet_num'
p4
I84
sS'returnval'
p5
S'lp you live the fresh and positive way of life!\np11059\nsVimage_hash\np11060\nV0a2465a015eca3bb81a3410f3f66b473\np11061\nsVname\np11062\nVEat Your Way To Happiness\np11063\nsVtitle\np11064\nVEat Your Way To Happiness\np11065\nsVcreative_id\np11066\nV6004335402765\np11067\nsVpreview_url\np11068\nVhttp://www.facebook.com/ads/api/creative_preview.php?cid=6004335402765\np11069\nsVid\np11070\nV6004335402765\np11071\nsVimage_url\np11072\nVhttps://fbcdn-creative-a.akamaihd.net/hads-ak-prn1/s110x80/708193_6006844110165_53290_n.jpg\np11073\nsVcount_current_adgroups\np11074\nI2\nsVrun_status\np11075\nI1\nsVtype\np11076\nI1\nsVlink_url\np11077\nVhttp://www.buzzfeed.com/h1/fba/mentos/eat-these-foods-and-you-will-be-happy\np11078\nsVview_tag\np11079\ng36\nsa(dp11080\nValt_view_tags\np11081\n(lp11082\nsVbody\np11083\nVCheck out BuzzFeed\'s "Eat These Foods And You Will Be Happy" and see what foods will help you live the fresh and positive way of life!\np11084\nsVimage_hash\np11085\nV107fb3ccf51e86b26f959249ce96ce86\np11086\nsVname\np11087\nVEat Your Way To Happiness-00\np11088\nsVtitle\np11089\nVEat Your Way To Happiness\np11090\nsVcreative_id\np11091\nV6004335407365\np11092\nsVpreview_url\np11093\nVhttp://www.facebook.com/ads/api/creative_preview.php?cid=6004335407365\np11094\nsVid\np11095\nV6004335407365\np11096\nsVimage_url\np11097\nVhttps://fbcdn-creative-a.akamaihd.net/hads-ak-prn1/s110x80/708177_6006844154365_39175_n.jpg\np11098\nsVcount_current_adgroups\np11099\nI2\nsVrun_status\np11100\nI1\nsVtype\np11101\nI1\nsVlink_url\np11102\nVhttp://www.buzzfeed.com/h1/fba/mentos/eat-these-foods-and-you-will-be-happy\np11103\nsVview_tag\np11104\ng36\nsa(dp11105\nValt_view_tags\np11106\n(lp11107\nsVbody\np11108\nVCheck out "The 10 Most Politically Incorrect Moments On TV Shows". This is one of them - check out the rest!\np11109\nsVimage_hash\np11110\nV8b311da7d9549e75eac2c09e6ff73250\np11111\nsVname\np11112\nVBuzzFeed-32\np11113\nsVtitle\np11114\ng36\nsVcreative_id\np11115\nV6004329867765\np11116\nsVpreview_url\np11117\nVhttp://www.facebook.com/ads/api/creative_preview.php?cid=6004329867765\np11118\nsVobject_id\np11119\nI21898300328\nsVid\np11120\nV6004329867765\np11121\nsVimage_url\np11122\nVhttps://fbcdn-creative-a.akamaihd.net/hads-ak-ash3/s110x80/708199_6006844882165_31455_n.jpg\np11123\nsVcount_current_adgroups\np11124\nI1\nsVrun_status\np11125\nI1\nsVtype\np11126\nI2\nsVlink_url\np11127\nVhttp://www.facebook.com/BuzzFeed?sk=wall\np11128\nsVview_tag\np11129\ng36\nsa(dp11130\nValt_view_tags\np11131\n(lp11132\nsVbody\np11133\nVCheck out "The 10 Most Politically Incorrect Moments On TV Shows". This is one of them - check out the rest!\np11134\nsVimage_hash\np11135\nV403778b6209de6bdfd82da9250d3c03e\np11136\nsVname\np11137\nVBuzzFeed-33\np11138\nsVtitle\np11139\ng36\nsVcreative_id\np11140\nV6004329871965\np11141\nsVpreview_url\np11142\nVhttp://www.facebook.com/ads/api/creative_preview.php?cid=6004329871965\np11143\nsVobject_id\np11144\nI21898300328\nsVid\np11145\nV6004329871965\np11146\nsVimage_url\np11147\nVhttps://fbcdn-creative-a.akamaihd.net/hads-ak-prn1/s110x80/708192_6006844428565_11542_n.jpg\np11148\nsVcount_current_adgroups\np11149\nI1\nsVrun_status\np11150\nI1\nsVtype\np11151\nI2\nsVlink_url\np11152\nVhttp://www.facebook.com/BuzzFeed?sk=wall\np11153\nsVview_tag\np11154\ng36\nsa(dp11155\nValt_view_tags\np11156\n(lp11157\nsVbody\np11158\nVCheck out "The 10 Most Politically Incorrect Moments On TV Shows". This is one of them - check out the rest!\np11159\nsVimage_hash\np11160\nV1553115cb3559ace299ef2a73bb40b00\np11161\nsVname\np11162\nVBuzzFeed-34\np11163\nsVtitle\np11164\ng36\nsVcreative_id\np11165\nV6004330487965\np11166\nsVpreview_url\np11167\nVhttp://www.facebook.com/ads/api/creative_preview.php?cid=6004330487965\np11168\nsVobject_id\np11169\nI21898300328\nsVid\np11170\nV6004330487965\np11171\nsVimage_url\np11172\nVhttps://fbcdn-creative-a.akamaihd.net/hads-ak-prn1/s110x80/708170_6006844183165_64678_n.jpg\np11173\nsVcount_current_adgroups\np11174\nI1\nsVrun_status\np11175\nI1\nsVtype\np11176\nI2\nsVlink_url\np11177\nVhttp://www.facebook.com/BuzzFeed?sk=wall\np11178\nsVview_tag\np11179\ng36\nsa(dp11180\nValt_view_tags\np11181\n(lp11182\nsVbody\np11183\nVCheck out "The 10 Most Politically Incorrect Moments On TV Shows". This is one of them - check out the rest!\np11184\nsVimage_hash\np11185\nV71'
p6
sS'hash'
p7
S'bde4b494c19a23dddd8687aa80926882ecc120bc'
p8
sS'stack'
p9
S''
s.