(dp1
S'args'
p2
S''
sS'methodname'
p3
S''
sS'packet_num'
p4
I16
sS'returnval'
p5
S'never-expect-to-see-ever-60me\np2256\nsVview_tag\np2257\ng36\nsa(dp2258\nValt_view_tags\np2259\n(lp2260\nsVbody\np2261\nVThis and more in "20 Things You Would Never Expect To See Ever" See them all on BuzzFeed\np2262\nsVimage_hash\np2263\nV088d791ddc1f28b72166865b9091f382\np2264\nsVname\np2265\nVA Tiger Nursing Piglets-00\np2266\nsVtitle\np2267\nVCooper Holds 39 Pound Cat\np2268\nsVcreative_id\np2269\nV6005271456965\np2270\nsVpreview_url\np2271\nVhttp://www.facebook.com/ads/api/creative_preview.php?cid=6005271456965\np2272\nsVid\np2273\nV6005271456965\np2274\nsVimage_url\np2275\nVhttps://fbcdn-creative-a.akamaihd.net/hads-ak-prn1/s110x80/701897_6006844098965_35077_n.jpg\np2276\nsVcount_current_adgroups\np2277\nI1\nsVrun_status\np2278\nI1\nsVtype\np2279\nI1\nsVlink_url\np2280\nVhttp://www.buzzfeed.com/h1/fbad/vitaminwater/20-things-you-would-never-expect-to-see-ever-60me\np2281\nsVview_tag\np2282\ng36\nsa(dp2283\nValt_view_tags\np2284\n(lp2285\nsVbody\np2286\nVIt\'s one of the "10 Things You\'d Never Think To Do If You Won The Lottery". See The Rest!\np2287\nsVimage_hash\np2288\nVc9fcd98a987b032e60ec579aad967a8a\np2289\nsVname\np2290\nVMech Suit For Your Cat\np2291\nsVtitle\np2292\nVMech Suit For Your Cat\np2293\nsVcreative_id\np2294\nV6005271345165\np2295\nsVpreview_url\np2296\nVhttp://www.facebook.com/ads/api/creative_preview.php?cid=6005271345165\np2297\nsVid\np2298\nV6005271345165\np2299\nsVimage_url\np2300\nVhttps://fbcdn-creative-a.akamaihd.net/hads-ak-ash3/s110x80/701898_6006845262165_3998_n.jpg\np2301\nsVcount_current_adgroups\np2302\nI2\nsVrun_status\np2303\nI1\nsVtype\np2304\nI1\nsVlink_url\np2305\nVhttp://www.buzzfeed.com/h1/fbad/wslottery/10-things-youd-never-think-to-do-if-you-won-the-l-68vg\np2306\nsVview_tag\np2307\ng36\nsa(dp2308\nValt_view_tags\np2309\n(lp2310\nsVbody\np2311\nVIn your house? Yup! If you won the lottery, what would -you- do? Check out these ideas.\np2312\nsVimage_hash\np2313\nV1af50f6c24be0aa640328da8a56c5326\np2314\nsVname\np2315\nVMech Suit For Your Cat-00\np2316\nsVtitle\np2317\nVRock Climbing Wall\np2318\nsVcreative_id\np2319\nV6005271361165\np2320\nsVpreview_url\np2321\nVhttp://www.facebook.com/ads/api/creative_preview.php?cid=6005271361165\np2322\nsVid\np2323\nV6005271361165\np2324\nsVimage_url\np2325\nVhttps://fbcdn-creative-a.akamaihd.net/hads-ak-prn1/s110x80/701896_6006844221165_63519_n.jpg\np2326\nsVcount_current_adgroups\np2327\nI1\nsVrun_status\np2328\nI1\nsVtype\np2329\nI1\nsVlink_url\np2330\nVhttp://www.buzzfeed.com/h1/fbad/wslottery/10-things-youd-never-think-to-do-if-you-won-the-l-68vg\np2331\nsVview_tag\np2332\ng36\nsa(dp2333\nValt_view_tags\np2334\n(lp2335\nsVbody\np2336\nVIt\'s one of the "10 Things You\'d Never Think To Do If You Won The Lottery". See the rest!\np2337\nsVimage_hash\np2338\nVb208e6114d27b1f01da656e1a14d7090\np2339\nsVname\np2340\nVMech Suit For Your Cat-00-00\np2341\nsVtitle\np2342\nVDip Your Sneakers in Gold\np2343\nsVcreative_id\np2344\nV6005271459365\np2345\nsVpreview_url\np2346\nVhttp://www.facebook.com/ads/api/creative_preview.php?cid=6005271459365\np2347\nsVid\np2348\nV6005271459365\np2349\nsVimage_url\np2350\nVhttps://fbcdn-creative-a.akamaihd.net/hads-ak-ash3/s110x80/701894_6006845122165_19212_n.jpg\np2351\nsVcount_current_adgroups\np2352\nI2\nsVrun_status\np2353\nI1\nsVtype\np2354\nI1\nsVlink_url\np2355\nVhttp://www.buzzfeed.com/h1/fbad/wslottery/10-things-youd-never-think-to-do-if-you-won-the-l-68vg\np2356\nsVview_tag\np2357\ng36\nsa(dp2358\nVrelated_fan_page\np2359\nI1\nsVname\np2360\nVSponsored story #6005269382765\np2361\nsVcreative_id\np2362\nV6005269382765\np2363\nsVpreview_url\np2364\nVhttp://www.facebook.com/ads/api/creative_preview.php?cid=6005269382765\np2365\nsVaction_spec\np2366\n(dp2367\nVobject\np2368\nVhttp://www.buzzfeed.com/vitaminwater/20-things-you-would-never-expect-to-see-ever-60me\np2369\nsVaction.type\np2370\nVlike\np2371\nssVcluster_id\np2372\nI6005269382565\nsVcount_current_adgroups\np2373\nI1\nsVrun_status\np2374\nI1\nsVtype\np2375\nI25\nsVid\np2376\nV6005269382765\np2377\nsa(dp2378\nVrelated_fan_page\np2379\nI1\nsVname\np2380\nVSponsored story #6005269362565\np2381\nsVcreative_id\np2382\nV6005269362565\np2383\nsVpreview_url\np2384\nVhttp://www.facebook.com/ads/api/creative_preview.php?cid=6005269362565\np2385\nsVaction_spec\np2386\n(dp2387\nVobject\np2388\nVhttp://www.buzzfeed.com/virginmobilel'
p6
sS'hash'
p7
S'bde4b494c19a23dddd8687aa80926882ecc120bc'
p8
sS'stack'
p9
S''
s.