(dp1
S'args'
p2
S''
sS'methodname'
p3
S''
sS'packet_num'
p4
I90
sS'returnval'
p5
S'ame\np11812\nVBlue Screen Of Death!-03\np11813\nsVtitle\np11814\nVBlue Screen Of Death!\np11815\nsVcreative_id\np11816\nV6004224878165\np11817\nsVpreview_url\np11818\nVhttp://www.facebook.com/ads/api/creative_preview.php?cid=6004224878165\np11819\nsVid\np11820\nV6004224878165\np11821\nsVimage_url\np11822\nVhttps://fbcdn-creative-a.akamaihd.net/hads-ak-prn1/s110x80/708192_6006845203765_64206_n.jpg\np11823\nsVcount_current_adgroups\np11824\nI1\nsVrun_status\np11825\nI1\nsVtype\np11826\nI1\nsVlink_url\np11827\nVhttp://www.buzzfeed.com/h1/fba/drobo/the-error-messages-that-every-computer-user-fears\np11828\nsVview_tag\np11829\ng36\nsa(dp11830\nValt_view_tags\np11831\n(lp11832\nsVbody\np11833\nVCheck out "The Error Messages That Every Computer User Fears" by BuzzFeed to see the screens too look out for on your computer!\np11834\nsVimage_hash\np11835\nVc01127a043ad0f7628b44413aa918bfc\np11836\nsVname\np11837\nVBlue Screen Of Death!-04\np11838\nsVtitle\np11839\nVBlue Screen Of Death!\np11840\nsVcreative_id\np11841\nV6004224878965\np11842\nsVpreview_url\np11843\nVhttp://www.facebook.com/ads/api/creative_preview.php?cid=6004224878965\np11844\nsVid\np11845\nV6004224878965\np11846\nsVimage_url\np11847\nVhttps://fbcdn-creative-a.akamaihd.net/hads-ak-prn1/s110x80/708192_6006845203765_64206_n.jpg\np11848\nsVcount_current_adgroups\np11849\nI1\nsVrun_status\np11850\nI1\nsVtype\np11851\nI1\nsVlink_url\np11852\nVhttp://www.buzzfeed.com/h1/fba/drobo/the-error-messages-that-every-computer-user-fears\np11853\nsVview_tag\np11854\ng36\nsa(dp11855\nValt_view_tags\np11856\n(lp11857\nsVbody\np11858\nVAll computers get error messages. Check out "The Error Messages That Every Computer User Fears" on BuzzFeed to see them all!\np11859\nsVimage_hash\np11860\nVc01127a043ad0f7628b44413aa918bfc\np11861\nsVname\np11862\nVMac OS Most Feared Screen-02\np11863\nsVtitle\np11864\nVMac OS Most Feared Screen\np11865\nsVcreative_id\np11866\nV6004224882965\np11867\nsVpreview_url\np11868\nVhttp://www.facebook.com/ads/api/creative_preview.php?cid=6004224882965\np11869\nsVid\np11870\nV6004224882965\np11871\nsVimage_url\np11872\nVhttps://fbcdn-creative-a.akamaihd.net/hads-ak-prn1/s110x80/708192_6006845203765_64206_n.jpg\np11873\nsVcount_current_adgroups\np11874\nI1\nsVrun_status\np11875\nI1\nsVtype\np11876\nI1\nsVlink_url\np11877\nVhttp://www.buzzfeed.com/h1/fba/drobo/the-error-messages-that-every-computer-user-fears\np11878\nsVview_tag\np11879\ng36\nsa(dp11880\nValt_view_tags\np11881\n(lp11882\nsVbody\np11883\nVTry to forget about the negative things in your life and focus on relaxing. "Animals Chillaxing" by Mentos is a good place to start!\np11884\nsVimage_hash\np11885\nVac672180d8d35bf31e2b79732b4c8e13\np11886\nsVname\np11887\nVCats Know How To Relax!\np11888\nsVtitle\np11889\nVCats Know How To Relax!\np11890\nsVcreative_id\np11891\nV6004201958165\np11892\nsVpreview_url\np11893\nVhttp://www.facebook.com/ads/api/creative_preview.php?cid=6004201958165\np11894\nsVid\np11895\nV6004201958165\np11896\nsVimage_url\np11897\nVhttps://fbcdn-creative-a.akamaihd.net/hads-ak-ash3/s110x80/708189_6006845087965_12553_n.jpg\np11898\nsVcount_current_adgroups\np11899\nI1\nsVrun_status\np11900\nI1\nsVtype\np11901\nI1\nsVlink_url\np11902\nVhttp://www.buzzfeed.com/h1/fba/mentos/animals-chillaxing\np11903\nsVview_tag\np11904\ng36\nsa(dp11905\nValt_view_tags\np11906\n(lp11907\nsVbody\np11908\nVCheck out some hula dancers, geisha\'s, and pirates in "The 15 Most Iconic Sailor Jerry Pin-Up Tattoos" by BuzzFeed\np11909\nsVimage_hash\np11910\nV7c7b53365fee8caa9262141b8d2c2b8e\np11911\nsVname\np11912\nV15 Iconic Pin-Up Tattoos!\np11913\nsVtitle\np11914\nV15 Iconic Pin-Up Tattoos!\np11915\nsVcreative_id\np11916\nV6004201896165\np11917\nsVpreview_url\np11918\nVhttp://www.facebook.com/ads/api/creative_preview.php?cid=6004201896165\np11919\nsVid\np11920\nV6004201896165\np11921\nsVimage_url\np11922\nVhttps://fbcdn-creative-a.akamaihd.net/hads-ak-prn1/s110x80/708182_6006844795965_63797_n.jpg\np11923\nsVcount_current_adgroups\np11924\nI1\nsVrun_status\np11925\nI1\nsVtype\np11926\nI1\nsVlink_url\np11927\nVhttp://www.buzzfeed.com/h2/fba/sailorjerryrum/the-15-most-iconic-sailor-jerry-pin-up-tattoos\np11928\nsVview_tag\np11929\ng36\nsa(dp11930\nValt_view_tags\np11931\n(lp11932\nsVbody\np11933\nVCheck out "The 15 Most Iconic Sailor Jerry Pin-Up Tattoos" by'
p6
sS'hash'
p7
S'bde4b494c19a23dddd8687aa80926882ecc120bc'
p8
sS'stack'
p9
S''
s.