(dp1
S'args'
p2
S''
sS'methodname'
p3
S''
sS'packet_num'
p4
I28
sS'returnval'
p5
S'.jpg\np3841\nsVcount_current_adgroups\np3842\nI1\nsVrun_status\np3843\nI1\nsVtype\np3844\nI1\nsVlink_url\np3845\nVhttp://www.buzzfeed.com/h1/fbad/hiphopsquares/hip-hops-smartest-college-grads-67td\np3846\nsVview_tag\np3847\ng36\nsa(dp3848\nValt_view_tags\np3849\n(lp3850\nsVbody\np3851\nVAnd 19 other "Things You Should Share On Facebook."  Only on BuzzFeed. \np3852\nsVimage_hash\np3853\nV39815b6d88f1e695bed448a67e236dc5\np3854\nsVname\np3855\nVCheck Out This Sloth!\np3856\nsVtitle\np3857\nVCheck Out This Sloth!\np3858\nsVcreative_id\np3859\nV6005168584765\np3860\nsVpreview_url\np3861\nVhttp://www.facebook.com/ads/api/creative_preview.php?cid=6005168584765\np3862\nsVid\np3863\nV6005168584765\np3864\nsVimage_url\np3865\nVhttps://fbcdn-creative-a.akamaihd.net/hads-ak-ash3/s110x80/701904_6006844385965_21746_n.jpg\np3866\nsVcount_current_adgroups\np3867\nI1\nsVrun_status\np3868\nI1\nsVtype\np3869\nI1\nsVlink_url\np3870\nVhttp://www.buzzfeed.com/h1/fbad/internetexplorer9/20-things-you-should-share-on-facebook\np3871\nsVview_tag\np3872\ng36\nsa(dp3873\nValt_view_tags\np3874\n(lp3875\nsVbody\np3876\nVAnd 19 other "Things You Should Share On Facebook."  Only on BuzzFeed. \np3877\nsVimage_hash\np3878\nVdbe37d19b4d1d4e577e3d8730fcd85f2\np3879\nsVname\np3880\nVCheck Out This Sloth!-00\np3881\nsVtitle\np3882\nVWho Doesn\'t Love Kittens?\np3883\nsVcreative_id\np3884\nV6005168591165\np3885\nsVpreview_url\np3886\nVhttp://www.facebook.com/ads/api/creative_preview.php?cid=6005168591165\np3887\nsVid\np3888\nV6005168591165\np3889\nsVimage_url\np3890\nVhttps://fbcdn-creative-a.akamaihd.net/hads-ak-prn1/s110x80/708191_6006845367565_38737_n.jpg\np3891\nsVcount_current_adgroups\np3892\nI1\nsVrun_status\np3893\nI1\nsVtype\np3894\nI1\nsVlink_url\np3895\nVhttp://www.buzzfeed.com/h1/fbad/internetexplorer9/20-things-you-should-share-on-facebook\np3896\nsVview_tag\np3897\ng36\nsa(dp3898\nValt_view_tags\np3899\n(lp3900\nsVbody\np3901\nVMakes our list of the "25 Most Ridiculously Dressed Dictators." See the rest on BuzzFeed.\np3902\nsVimage_hash\np3903\nV7d1141c71829d09b9373fecac8d1fd56\np3904\nsVname\np3905\nVRobert Mugabe-00\np3906\nsVtitle\np3907\nVRobert Mugabe\np3908\nsVcreative_id\np3909\nV6005167348365\np3910\nsVpreview_url\np3911\nVhttp://www.facebook.com/ads/api/creative_preview.php?cid=6005167348365\np3912\nsVid\np3913\nV6005167348365\np3914\nsVimage_url\np3915\nVhttps://fbcdn-creative-a.akamaihd.net/hads-ak-prn1/s110x80/708182_6006844798965_58309_n.jpg\np3916\nsVcount_current_adgroups\np3917\nI1\nsVrun_status\np3918\nI1\nsVtype\np3919\nI1\nsVlink_url\np3920\nVhttp://www.buzzfeed.com/h1/fbad/thedictator/the-most-ridiculously-dressed-dictators\np3921\nsVview_tag\np3922\ng36\nsa(dp3923\nValt_view_tags\np3924\n(lp3925\nsVbody\np3926\nVMaybe this will help. Check out this guy and more animals in unusual sleeping potions.\\u000a\np3927\nsVimage_hash\np3928\nVe98f2ae5992b10be4c9903c7fecd9a97\np3929\nsVname\np3930\nVNeed a nap?\np3931\nsVtitle\np3932\nVNeed a nap?\np3933\nsVcreative_id\np3934\nV6005164218965\np3935\nsVpreview_url\np3936\nVhttp://www.facebook.com/ads/api/creative_preview.php?cid=6005164218965\np3937\nsVid\np3938\nV6005164218965\np3939\nsVimage_url\np3940\nVhttps://fbcdn-creative-a.akamaihd.net/hads-ak-prn1/s110x80/708199_6006845463365_57238_n.jpg\np3941\nsVcount_current_adgroups\np3942\nI1\nsVrun_status\np3943\nI1\nsVtype\np3944\nI1\nsVlink_url\np3945\nVhttp://www.buzzfeed.com/h1/fbad/freal/20-animals-in-milkshake-comas-5k2r\np3946\nsVview_tag\np3947\ng36\nsa(dp3948\nValt_view_tags\np3949\n(lp3950\nsVbody\np3951\nVMaybe this will help. Check out this guy and more animals in unusual sleeping potions.\\u000a\np3952\nsVimage_hash\np3953\nV72481ab330012e4b28f4fcb46a8b571d\np3954\nsVname\np3955\nVNeed a nap?-00\np3956\nsVtitle\np3957\nVNeed a nap?\np3958\nsVcreative_id\np3959\nV6005164223565\np3960\nsVpreview_url\np3961\nVhttp://www.facebook.com/ads/api/creative_preview.php?cid=6005164223565\np3962\nsVid\np3963\nV6005164223565\np3964\nsVimage_url\np3965\nVhttps://fbcdn-creative-a.akamaihd.net/hads-ak-ash3/s110x80/708190_6006844738165_25835_n.jpg\np3966\nsVcount_current_adgroups\np3967\nI1\nsVrun_status\np3968\nI1\nsVtype\np3969\nI1\nsVlink_url\np3970\nVhttp://www.buzzfeed.com/h1/fbad/freal/20-animals-in-milkshake-comas-5k2r\np3971\nsVview_tag\np3972\ng36\nsa(dp3973\nValt_view_tags\np3974\n(lp3975\nsVbody\np3976\nVSee him'
p6
sS'hash'
p7
S'bde4b494c19a23dddd8687aa80926882ecc120bc'
p8
sS'stack'
p9
S''
s.