(dp1
S'args'
p2
S''
sS'methodname'
p3
S''
sS'packet_num'
p4
I81
sS'returnval'
p5
S'06844156965_41028_n.jpg\np10698\nsVcount_current_adgroups\np10699\nI1\nsVrun_status\np10700\nI1\nsVtype\np10701\nI1\nsVlink_url\np10702\nVhttp://www.buzzfeed.com/h1/fba/billyonthestreet/10-things-youd-hope-to-see-in-new-york\np10703\nsVview_tag\np10704\ng36\nsa(dp10705\nValt_view_tags\np10706\n(lp10707\nsVbody\np10708\nVCheck out BuzzFeed\'s "What Would Archer Do?" and let Archer show you how to deal with dating, family secrets, office parties, and more!\np10709\nsVimage_hash\np10710\nV837d6b9c6d32961dbb9ddcb5fa820115\np10711\nsVname\np10712\nVSterling Archer In Action-00\np10713\nsVtitle\np10714\nVSterling Archer In Action\np10715\nsVcreative_id\np10716\nV6004382807365\np10717\nsVpreview_url\np10718\nVhttp://www.facebook.com/ads/api/creative_preview.php?cid=6004382807365\np10719\nsVid\np10720\nV6004382807365\np10721\nsVimage_url\np10722\nVhttps://fbcdn-creative-a.akamaihd.net/hads-ak-prn1/s110x80/708180_6006844838165_7392_n.jpg\np10723\nsVcount_current_adgroups\np10724\nI1\nsVrun_status\np10725\nI1\nsVtype\np10726\nI1\nsVlink_url\np10727\nVhttp://www.buzzfeed.com/h1/fba/archer/what-would-archer-do-4vas\np10728\nsVview_tag\np10729\ng36\nsa(dp10730\nValt_view_tags\np10731\n(lp10732\nsVbody\np10733\nVLet Archer show you how to deal with dating, family secrets, office parties, and more in BuzzFeed\'s "What Would Archer Do?"\np10734\nsVimage_hash\np10735\nV837d6b9c6d32961dbb9ddcb5fa820115\np10736\nsVname\np10737\nVSterling Archer In Action\np10738\nsVtitle\np10739\nVSterling Archer In Action\np10740\nsVcreative_id\np10741\nV6004382803765\np10742\nsVpreview_url\np10743\nVhttp://www.facebook.com/ads/api/creative_preview.php?cid=6004382803765\np10744\nsVid\np10745\nV6004382803765\np10746\nsVimage_url\np10747\nVhttps://fbcdn-creative-a.akamaihd.net/hads-ak-prn1/s110x80/708180_6006844838165_7392_n.jpg\np10748\nsVcount_current_adgroups\np10749\nI1\nsVrun_status\np10750\nI1\nsVtype\np10751\nI1\nsVlink_url\np10752\nVhttp://www.buzzfeed.com/h1/fba/archer/what-would-archer-do-4vas\np10753\nsVview_tag\np10754\ng36\nsa(dp10755\nValt_view_tags\np10756\n(lp10757\nsVbody\np10758\nVCheck out "Awesome Amateur Commercials That We Wish Aired In The Super Bowl" by Doritos and make sure to vote for a chance to win!\np10759\nsVimage_hash\np10760\nVedbae3822c5b32aa1aca19b1ace33ad4\np10761\nsVname\np10762\nVVote For A Chance To Win!\np10763\nsVtitle\np10764\nVVote For A Chance To Win!\np10765\nsVcreative_id\np10766\nV6004382856365\np10767\nsVpreview_url\np10768\nVhttp://www.facebook.com/ads/api/creative_preview.php?cid=6004382856365\np10769\nsVid\np10770\nV6004382856365\np10771\nsVimage_url\np10772\nVhttps://fbcdn-creative-a.akamaihd.net/hads-ak-ash3/s110x80/708169_6006845490165_41611_n.jpg\np10773\nsVcount_current_adgroups\np10774\nI2\nsVrun_status\np10775\nI1\nsVtype\np10776\nI1\nsVlink_url\np10777\nVhttp://www.buzzfeed.com/h1/fba/crashthesuperbowl/awesome-amateur-commercials-that-we-wish-aired-in\np10778\nsVview_tag\np10779\ng36\nsa(dp10780\nValt_view_tags\np10781\n(lp10782\nsVbody\np10783\nVFor a good laugh, watch Dave Attell, Billy Eichner, and more of your favorite comedians do what they do best on the streets!\np10784\nsVimage_hash\np10785\nV526d1d0d9491c450835328b5b819e960\np10786\nsVname\np10787\nVBest Man On The Street!-02\np10788\nsVtitle\np10789\nVBest Man On The Street!\np10790\nsVcreative_id\np10791\nV6004377491765\np10792\nsVpreview_url\np10793\nVhttp://www.facebook.com/ads/api/creative_preview.php?cid=6004377491765\np10794\nsVid\np10795\nV6004377491765\np10796\nsVimage_url\np10797\nVhttps://fbcdn-creative-a.akamaihd.net/hads-ak-ash3/s110x80/701899_6006844568165_59177_n.jpg\np10798\nsVcount_current_adgroups\np10799\nI1\nsVrun_status\np10800\nI1\nsVtype\np10801\nI1\nsVlink_url\np10802\nVhttp://www.buzzfeed.com/h1/fba/billyonthestreet/the-best-man-on-the-street-videos-4x71\np10803\nsVview_tag\np10804\ng36\nsa(dp10805\nValt_view_tags\np10806\n(lp10807\nsVbody\np10808\nVFor a good laugh, watch Jay Leno, Billy Eichner, and more of your favorite comedians do what they do best on the streets!\np10809\nsVimage_hash\np10810\nVd1b8f63a71ceda5677240ddd05cd9c7f\np10811\nsVname\np10812\nVBest Man On The Street!-03\np10813\nsVtitle\np10814\nVBest Man On The Street!\np10815\nsVcreative_id\np10816\nV6004377494565\np10817\nsVpreview_url\np10818\nVhttp://www.facebook.com/ads/api/creative_preview.php?'
p6
sS'hash'
p7
S'bde4b494c19a23dddd8687aa80926882ecc120bc'
p8
sS'stack'
p9
S''
s.