(dp1
S'args'
p2
S''
sS'methodname'
p3
S''
sS'packet_num'
p4
I58
sS'returnval'
p5
S'dn-creative-a.akamaihd.net/hads-ak-prn1/s110x80/708191_6006845367365_48896_n.jpg\np7748\nsVcount_current_adgroups\np7749\nI1\nsVrun_status\np7750\nI1\nsVtype\np7751\nI1\nsVlink_url\np7752\nVhttp://www.buzzfeed.com/h1/FBAD/tgc/the-best-feherty-isms\np7753\nsVview_tag\np7754\ng36\nsa(dp7755\nValt_view_tags\np7756\n(lp7757\nsVbody\np7758\nVThis is one of "The 60 Most Beautiful Cinemagraph GIFs". Check them all out on BuzzFeed!\np7759\nsVimage_hash\np7760\nVc4a60d23e947d372c0175eb439d6f8a2\np7761\nsVname\np7762\nVAmazing Cinematic GIFs\np7763\nsVtitle\np7764\nVAmazing Cinematic GIFs\np7765\nsVcreative_id\np7766\nV6004807424165\np7767\nsVpreview_url\np7768\nVhttp://www.facebook.com/ads/api/creative_preview.php?cid=6004807424165\np7769\nsVid\np7770\nV6004807424165\np7771\nsVimage_url\np7772\nVhttps://fbcdn-creative-a.akamaihd.net/hads-ak-ash3/s110x80/701899_6006845229965_7247_n.jpg\np7773\nsVcount_current_adgroups\np7774\nI1\nsVrun_status\np7775\nI1\nsVtype\np7776\nI1\nsVlink_url\np7777\nVhttp://www.buzzfeed.com/h1/FBAD/thegeshow/the-60-most-beautiful-cinemagraph-gifs\np7778\nsVview_tag\np7779\ng36\nsa(dp7780\nValt_view_tags\np7781\n(lp7782\nsVbody\np7783\nVThis is one of "The 60 Most Beautiful Cinemagraph GIFs". Check them all out on BuzzFeed!\np7784\nsVimage_hash\np7785\nVd61e29a152e3fe47e757d4204bc66509\np7786\nsVname\np7787\nVAmazing Cinematic GIFs-00\np7788\nsVtitle\np7789\nVAmazing Cinematic GIFs\np7790\nsVcreative_id\np7791\nV6004807539365\np7792\nsVpreview_url\np7793\nVhttp://www.facebook.com/ads/api/creative_preview.php?cid=6004807539365\np7794\nsVid\np7795\nV6004807539365\np7796\nsVimage_url\np7797\nVhttps://fbcdn-creative-a.akamaihd.net/hads-ak-ash3/s110x80/708189_6006845331365_44935_n.jpg\np7798\nsVcount_current_adgroups\np7799\nI1\nsVrun_status\np7800\nI1\nsVtype\np7801\nI1\nsVlink_url\np7802\nVhttp://www.buzzfeed.com/h1/FBAD/thegeshow/the-60-most-beautiful-cinemagraph-gifs\np7803\nsVview_tag\np7804\ng36\nsa(dp7805\nValt_view_tags\np7806\n(lp7807\nsVbody\np7808\nVThis is one of "The 60 Most Beautiful Cinemagraph GIFs". Check them all out on BuzzFeed!\np7809\nsVimage_hash\np7810\nVd0af7fec844f9fa34490f1372850428e\np7811\nsVname\np7812\nVAmazing Cinematic GIFs-01\np7813\nsVtitle\np7814\nVAmazing Cinematic GIFs\np7815\nsVcreative_id\np7816\nV6004807542165\np7817\nsVpreview_url\np7818\nVhttp://www.facebook.com/ads/api/creative_preview.php?cid=6004807542165\np7819\nsVid\np7820\nV6004807542165\np7821\nsVimage_url\np7822\nVhttps://fbcdn-creative-a.akamaihd.net/hads-ak-prn1/s110x80/708192_6006845299365_3714_n.jpg\np7823\nsVcount_current_adgroups\np7824\nI1\nsVrun_status\np7825\nI1\nsVtype\np7826\nI1\nsVlink_url\np7827\nVhttp://www.buzzfeed.com/h1/FBAD/thegeshow/the-60-most-beautiful-cinemagraph-gifs\np7828\nsVview_tag\np7829\ng36\nsa(dp7830\nValt_view_tags\np7831\n(lp7832\nsVbody\np7833\nVIt\'s probably not what you think! Find out what this is, and check out how other everyday objects are made.\np7834\nsVimage_hash\np7835\nV0017976019bf0d48ec651844706e2641\np7836\nsVname\np7837\nVKnow What This Is?-00\np7838\nsVtitle\np7839\nVKnow What This Is?\np7840\nsVcreative_id\np7841\nV6004807125565\np7842\nsVpreview_url\np7843\nVhttp://www.facebook.com/ads/api/creative_preview.php?cid=6004807125565\np7844\nsVid\np7845\nV6004807125565\np7846\nsVimage_url\np7847\nVhttps://fbcdn-creative-a.akamaihd.net/hads-ak-prn1/s110x80/708187_6006844049565_16241_n.jpg\np7848\nsVcount_current_adgroups\np7849\nI2\nsVrun_status\np7850\nI1\nsVtype\np7851\nI1\nsVlink_url\np7852\nVhttp://www.buzzfeed.com/h1/FBAD/thegeshow/can-you-guess-how-its-made\np7853\nsVview_tag\np7854\ng36\nsa(dp7855\nValt_view_tags\np7856\n(lp7857\nsVbody\np7858\nVIt\'s probably not what you think! Find out what this is, and check out how other everyday objects are made.\np7859\nsVimage_hash\np7860\nV6812d9bf891fa59b038f9b05b9dd47ea\np7861\nsVname\np7862\nVKnow What This Is?-01\np7863\nsVtitle\np7864\nVKnow What This Is?\np7865\nsVcreative_id\np7866\nV6004807129965\np7867\nsVpreview_url\np7868\nVhttp://www.facebook.com/ads/api/creative_preview.php?cid=6004807129965\np7869\nsVid\np7870\nV6004807129965\np7871\nsVimage_url\np7872\nVhttps://fbcdn-creative-a.akamaihd.net/hads-ak-prn1/s110x80/708186_6006844679565_40967_n.jpg\np7873\nsVcount_current_adgroups\np7874\nI2\nsVrun_status\np7875\nI1\nsVtype\np7876\nI1\nsVlink_url\np7877\nVhttp://www.buzzfeed.co'
p6
sS'hash'
p7
S'bde4b494c19a23dddd8687aa80926882ecc120bc'
p8
sS'stack'
p9
S''
s.