(dp1
S'args'
p2
S''
sS'methodname'
p3
S''
sS'packet_num'
p4
I1
sS'returnval'
p5
S'w_tags\np138\n(lp139\nsVbody\np140\nVDoes "Banana Stand Mascot" make our list of worst of TV jobs? Find out on BuzzFeed.\np141\nsVimage_hash\np142\nV4c07c586502d8895d8440088f5eed88c\np143\nsVname\np144\nVBanana Stand Mascot -00\np145\nsVtitle\np146\nVMoney in the Banana Stand\np147\nsVcreative_id\np148\nV6005389158765\np149\nsVpreview_url\np150\nVhttp://www.facebook.com/ads/api/creative_preview.php?cid=6005389158765\np151\nsVid\np152\nV6005389158765\np153\nsVimage_url\np154\nVhttps://fbcdn-creative-a.akamaihd.net/hads-ak-ash3/s110x80/708166_6006844511765_9542_n.jpg\np155\nsVcount_current_adgroups\np156\nI1\nsVrun_status\np157\nI1\nsVtype\np158\nI1\nsVlink_url\np159\nVhttp://www.buzzfeed.com/h1/fbad/virginmobilelive/20-soul-crushing-summer-jobs-from-pop-culture-5l87\np160\nsVview_tag\np161\ng36\nsa(dp162\nValt_view_tags\np163\n(lp164\nsVbody\np165\nVCheck out this and other awesome musical performances in unexpected places on BuzzFeed!\np166\nsVimage_hash\np167\nV22ea3cb760390513d58500ea486dd08f\np168\nsVname\np169\nVBeatles Rooftop Show!\np170\nsVtitle\np171\nVBeatles Rooftop Show!\np172\nsVcreative_id\np173\nV6005357947165\np174\nsVpreview_url\np175\nVhttp://www.facebook.com/ads/api/creative_preview.php?cid=6005357947165\np176\nsVid\np177\nV6005357947165\np178\nsVimage_url\np179\nVhttps://fbcdn-creative-a.akamaihd.net/hads-ak-prn1/s110x80/708167_6006844270765_63228_n.jpg\np180\nsVcount_current_adgroups\np181\nI1\nsVrun_status\np182\nI1\nsVtype\np183\nI1\nsVlink_url\np184\nVhttp://www.buzzfeed.com/h1/fbad/rockyoursummer/12-awesome-musical-performances-in-unexpected-plac\np185\nsVview_tag\np186\ng36\nsa(dp187\nValt_view_tags\np188\n(lp189\nsVbody\np190\nVThis BSB hit is one of "The Best Music Videos From Boy Bands In The 90s". See the rest!\np191\nsVimage_hash\np192\nV4905b07e066935f619c8c6a119ac1f5e\np193\nsVname\np194\nVAs Long As You Love Me\np195\nsVtitle\np196\nVAs Long As You Love Me\np197\nsVcreative_id\np198\nV6005335489565\np199\nsVpreview_url\np200\nVhttp://www.facebook.com/ads/api/creative_preview.php?cid=6005335489565\np201\nsVid\np202\nV6005335489565\np203\nsVimage_url\np204\nVhttps://fbcdn-creative-a.akamaihd.net/hads-ak-ash3/s110x80/708187_6006844492965_3941_n.jpg\np205\nsVcount_current_adgroups\np206\nI1\nsVrun_status\np207\nI1\nsVtype\np208\nI1\nsVlink_url\np209\nVhttp://www.buzzfeed.com/h1/fbad/oldnavy/the-best-music-videos-from-boy-bands-in-the-90s-6clx\np210\nsVview_tag\np211\ng36\nsa(dp212\nValt_view_tags\np213\n(lp214\nsVbody\np215\nVThis NKOTB hit is one of "The Best Music Videos From Boy Bands In The 90s". See the rest!\np216\nsVimage_hash\np217\nV4905b07e066935f619c8c6a119ac1f5e\np218\nsVname\np219\nVAs Long As You Love Me-00\np220\nsVtitle\np221\nVNKOTB - "Step by Step"\np222\nsVcreative_id\np223\nV6005335511765\np224\nsVpreview_url\np225\nVhttp://www.facebook.com/ads/api/creative_preview.php?cid=6005335511765\np226\nsVid\np227\nV6005335511765\np228\nsVimage_url\np229\nVhttps://fbcdn-creative-a.akamaihd.net/hads-ak-ash3/s110x80/708187_6006844492965_3941_n.jpg\np230\nsVcount_current_adgroups\np231\nI1\nsVrun_status\np232\nI1\nsVtype\np233\nI1\nsVlink_url\np234\nVhttp://www.buzzfeed.com/h1/fbad/oldnavy/the-best-music-videos-from-boy-bands-in-the-90s-6clx\np235\nsVview_tag\np236\ng36\nsa(dp237\nValt_view_tags\np238\n(lp239\nsVbody\np240\nVThis N*SYNC hit is one of "The Best Music Videos From Boy Bands In The 90s". See the rest!\np241\nsVimage_hash\np242\nVd717373a77e5b115f77ddfb14c9d6e9f\np243\nsVname\np244\nVAs Long As You Love Me-00-00\np245\nsVtitle\np246\nVN*SYNC - I Want You Back!\np247\nsVcreative_id\np248\nV6005335514165\np249\nsVpreview_url\np250\nVhttp://www.facebook.com/ads/api/creative_preview.php?cid=6005335514165\np251\nsVid\np252\nV6005335514165\np253\nsVimage_url\np254\nVhttps://fbcdn-creative-a.akamaihd.net/hads-ak-prn1/s110x80/708189_6006845334165_6565_n.jpg\np255\nsVcount_current_adgroups\np256\nI1\nsVrun_status\np257\nI1\nsVtype\np258\nI1\nsVlink_url\np259\nVhttp://www.buzzfeed.com/h1/fbad/oldnavy/the-best-music-videos-from-boy-bands-in-the-90s-6clx\np260\nsVview_tag\np261\ng36\nsa(dp262\nValt_view_tags\np263\n(lp264\nsVbody\np265\nVIt\'s one of the songs on your iPod that you shouldn\'t be embarassed of! See the rest!\np266\nsVimage_hash\np267\nV90c696e51e464f8ef902ba8ce5cb80d5\np268\nsVname\np269\nVNKOTB - "Step by Step"\np270\nsVtitle\np271\nVNKOTB - '
p6
sS'hash'
p7
S'bde4b494c19a23dddd8687aa80926882ecc120bc'
p8
sS'stack'
p9
S''
s.