(dp1
S'args'
p2
S''
sS'methodname'
p3
S''
sS'packet_num'
p4
I5
sS'returnval'
p5
S'sVrun_status\np681\nI1\nsVtype\np682\nI1\nsVlink_url\np683\nVhttp://www.buzzfeed.com/h1/fbad/virginmobilelive/the-25-raddest-dads-from-television-5l87\np684\nsVview_tag\np685\ng36\nsa(dp686\nValt_view_tags\np687\n(lp688\nsVbody\np689\nVSimply amazing.  Check out the rest of these stunning portraits.\np690\nsVimage_hash\np691\nV5a34ee90f9c1b51ff4be2dc9d66f5152\np692\nsVname\np693\nVAmazing Art on Dirty Cars\np694\nsVtitle\np695\nVAmazing Art on Dirty Cars\np696\nsVcreative_id\np697\nV6005313148965\np698\nsVpreview_url\np699\nVhttp://www.facebook.com/ads/api/creative_preview.php?cid=6005313148965\np700\nsVid\np701\nV6005313148965\np702\nsVimage_url\np703\nVhttps://fbcdn-creative-a.akamaihd.net/hads-ak-prn1/s110x80/708164_6006844608765_31520_n.jpg\np704\nsVcount_current_adgroups\np705\nI1\nsVrun_status\np706\nI1\nsVtype\np707\nI1\nsVlink_url\np708\nVhttp://www.buzzfeed.com/h1/fbad/greenworks/the-most-amazing-art-made-on-dirty-cars-5czl\np709\nsVview_tag\np710\ng36\nsa(dp711\nValt_view_tags\np712\n(lp713\nsVbody\np714\nVSimply amazing.  Check out the rest of these stunning portraits.\np715\nsVimage_hash\np716\nVdc1aef7d94e657bb50701cfb00793ba6\np717\nsVname\np718\nVAmazing Art on Dirty Cars-00\np719\nsVtitle\np720\nVAmazing Art on Dirty Cars\np721\nsVcreative_id\np722\nV6005313151565\np723\nsVpreview_url\np724\nVhttp://www.facebook.com/ads/api/creative_preview.php?cid=6005313151565\np725\nsVid\np726\nV6005313151565\np727\nsVimage_url\np728\nVhttps://fbcdn-creative-a.akamaihd.net/hads-ak-ash3/s110x80/708191_6006845368565_9616_n.jpg\np729\nsVcount_current_adgroups\np730\nI1\nsVrun_status\np731\nI1\nsVtype\np732\nI1\nsVlink_url\np733\nVhttp://www.buzzfeed.com/h1/fbad/greenworks/the-most-amazing-art-made-on-dirty-cars-5czl\np734\nsVview_tag\np735\ng36\nsa(dp736\nValt_view_tags\np737\n(lp738\nsVbody\np739\nVSimply amazing.  Check out the rest of these stunning portraits.\np740\nsVimage_hash\np741\nVf5a70c0b47577d9c3c29a8f49dfe2221\np742\nsVname\np743\nVAmazing Art on Dirty Cars-00-00\np744\nsVtitle\np745\nVAmazing Art on Dirty Cars\np746\nsVcreative_id\np747\nV6005313156965\np748\nsVpreview_url\np749\nVhttp://www.facebook.com/ads/api/creative_preview.php?cid=6005313156965\np750\nsVid\np751\nV6005313156965\np752\nsVimage_url\np753\nVhttps://fbcdn-creative-a.akamaihd.net/hads-ak-ash3/s110x80/708186_6006845535565_38704_n.jpg\np754\nsVcount_current_adgroups\np755\nI1\nsVrun_status\np756\nI1\nsVtype\np757\nI1\nsVlink_url\np758\nVhttp://www.buzzfeed.com/h1/fbad/greenworks/the-most-amazing-art-made-on-dirty-cars-5czl\np759\nsVview_tag\np760\ng36\nsa(dp761\nValt_view_tags\np762\n(lp763\nsVbody\np764\nV"It\'s hotter than two rabbits making babies in a sock." More awesome phrases here!\np765\nsVimage_hash\np766\nVdc3b72befe32a5a658da708c11d18f8d\np767\nsVname\np768\nVClassic Southern Phrases\np769\nsVtitle\np770\nVClassic Southern Phrases\np771\nsVcreative_id\np772\nV6005313114565\np773\nsVpreview_url\np774\nVhttp://www.facebook.com/ads/api/creative_preview.php?cid=6005313114565\np775\nsVid\np776\nV6005313114565\np777\nsVimage_url\np778\nVhttps://fbcdn-creative-a.akamaihd.net/hads-ak-prn1/s110x80/708191_6006845369365_26114_n.jpg\np779\nsVcount_current_adgroups\np780\nI2\nsVrun_status\np781\nI1\nsVtype\np782\nI1\nsVlink_url\np783\nVhttp://www.buzzfeed.com/h1/fbad/jeremiahweed/classic-southern-phrases-everyone-should-be-using\np784\nsVview_tag\np785\ng36\nsa(dp786\nValt_view_tags\np787\n(lp788\nsVbody\np789\nVYou\'re favorite function was an invention of the South. See this and more on BuzzFeed.\\u000a\np790\nsVimage_hash\np791\nVdc34edc9032baa39b30fc2438e7daeb2\np792\nsVname\np793\nVDid you kinow?-00\np794\nsVtitle\np795\nVDid you know?\np796\nsVcreative_id\np797\nV6005313725365\np798\nsVpreview_url\np799\nVhttp://www.facebook.com/ads/api/creative_preview.php?cid=6005313725365\np800\nsVid\np801\nV6005313725365\np802\nsVimage_url\np803\nVhttps://fbcdn-creative-a.akamaihd.net/hads-ak-prn1/s110x80/708191_6006845369165_20028_n.jpg\np804\nsVcount_current_adgroups\np805\nI1\nsVrun_status\np806\nI1\nsVtype\np807\nI1\nsVlink_url\np808\nVhttp://www.buzzfeed.com/h1/fbad/jeremiahweed/the-souths-most-important-contributions-to-societ\np809\nsVview_tag\np810\ng36\nsa(dp811\nVrelated_fan_page\np812\nI1\nsVname\np813\nVSponsored story #6005309400965\np814\nsVurl_tags\np815\nVfb_ref=HFBSS1\np816\nsVcreative_id\np817\nV6005309400965\np818\nsVp'
p6
sS'hash'
p7
S'bde4b494c19a23dddd8687aa80926882ecc120bc'
p8
sS'stack'
p9
S''
s.