(dp1
S'args'
p2
S''
sS'methodname'
p3
S''
sS'packet_num'
p4
I74
sS'returnval'
p5
S'\nV6004669305965\np9821\nsVimage_url\np9822\nVhttps://fbcdn-creative-a.akamaihd.net/hads-ak-prn1/s110x80/708173_6006845148965_26797_n.jpg\np9823\nsVcount_current_adgroups\np9824\nI1\nsVrun_status\np9825\nI1\nsVtype\np9826\nI1\nsVlink_url\np9827\nVhttp://www.buzzfeed.com/h1/fba/tosh.0/the-naked-daniel-tosh-supercut-is-the-nakedest-sup\np9828\nsVview_tag\np9829\ng36\nsa(dp9830\nValt_view_tags\np9831\n(lp9832\nsVbody\np9833\nVThis is one of "Tosh.0\'s Top 10 Most Redeeming Web Redemptions".  Check out BuzzFeed to see the rest!\np9834\nsVimage_hash\np9835\nV1561419bb7a9c79c617b86ecaa3fe8f7\np9836\nsVname\np9837\nVRisky Business Girls\np9838\nsVtitle\np9839\nVRisky Business Girls\np9840\nsVcreative_id\np9841\nV6004667098165\np9842\nsVpreview_url\np9843\nVhttp://www.facebook.com/ads/api/creative_preview.php?cid=6004667098165\np9844\nsVid\np9845\nV6004667098165\np9846\nsVimage_url\np9847\nVhttps://fbcdn-creative-a.akamaihd.net/hads-ak-ash3/s110x80/708170_6006844183365_29602_n.jpg\np9848\nsVcount_current_adgroups\np9849\nI1\nsVrun_status\np9850\nI1\nsVtype\np9851\nI1\nsVlink_url\np9852\nVhttp://www.buzzfeed.com/h1/fba/tosh.0/tosh0s-top-10-most-redeeming-web-redemptions\np9853\nsVview_tag\np9854\ng36\nsa(dp9855\nValt_view_tags\np9856\n(lp9857\nsVbody\np9858\nVHe\'s one of "Tosh.0\'s Top 10 Most Redeeming Web Redemptions".  Check out BuzzFeed to see the rest!\np9859\nsVimage_hash\np9860\nV360e14dac7f82e9306434279ef73cae1\np9861\nsVname\np9862\nVRemember The Tron Guy?\np9863\nsVtitle\np9864\nVRemember The Tron Guy?\np9865\nsVcreative_id\np9866\nV6004667083565\np9867\nsVpreview_url\np9868\nVhttp://www.facebook.com/ads/api/creative_preview.php?cid=6004667083565\np9869\nsVid\np9870\nV6004667083565\np9871\nsVimage_url\np9872\nVhttps://fbcdn-creative-a.akamaihd.net/hads-ak-prn1/s110x80/708191_6006844367565_37203_n.jpg\np9873\nsVcount_current_adgroups\np9874\nI1\nsVrun_status\np9875\nI1\nsVtype\np9876\nI1\nsVlink_url\np9877\nVhttp://www.buzzfeed.com/h1/fba/tosh.0/tosh0s-top-10-most-redeeming-web-redemptions\np9878\nsVview_tag\np9879\ng36\nsa(dp9880\nValt_view_tags\np9881\n(lp9882\nsVbody\np9883\nVCheck out this list of "Tosh.0\'s Top 10 Most Redeeming Web Redemptions" on BuzzFeed.  The new season starts 1/31!\np9884\nsVimage_hash\np9885\nV360e14dac7f82e9306434279ef73cae1\np9886\nsVname\np9887\nVTosh.0 Web Redemptions-00\np9888\nsVtitle\np9889\nVTosh.0 Web Redemptions\np9890\nsVcreative_id\np9891\nV6004667088165\np9892\nsVpreview_url\np9893\nVhttp://www.facebook.com/ads/api/creative_preview.php?cid=6004667088165\np9894\nsVid\np9895\nV6004667088165\np9896\nsVimage_url\np9897\nVhttps://fbcdn-creative-a.akamaihd.net/hads-ak-prn1/s110x80/708191_6006844367565_37203_n.jpg\np9898\nsVcount_current_adgroups\np9899\nI1\nsVrun_status\np9900\nI1\nsVtype\np9901\nI1\nsVlink_url\np9902\nVhttp://www.buzzfeed.com/h1/fba/tosh.0/tosh0s-top-10-most-redeeming-web-redemptions\np9903\nsVview_tag\np9904\ng36\nsa(dp9905\nValt_view_tags\np9906\n(lp9907\nsVbody\np9908\nVSee what\'s got Billy Eichner saying "Lady Gaga Needs To Get Out Of My Damn Face" on BuzzFeed!\np9909\nsVimage_hash\np9910\nV7bb669f7858b91ed71f580ce6355c5e8\np9911\nsVname\np9912\nVFunny Or Die\'s New Show!-03\np9913\nsVtitle\np9914\nVFunny Or Die\'s New Show!\np9915\nsVcreative_id\np9916\nV6004663677365\np9917\nsVpreview_url\np9918\nVhttp://www.facebook.com/ads/api/creative_preview.php?cid=6004663677365\np9919\nsVid\np9920\nV6004663677365\np9921\nsVimage_url\np9922\nVhttps://fbcdn-creative-a.akamaihd.net/hads-ak-prn1/s110x80/708182_6006844794565_35655_n.jpg\np9923\nsVcount_current_adgroups\np9924\nI2\nsVrun_status\np9925\nI1\nsVtype\np9926\nI1\nsVlink_url\np9927\nVhttp://www.buzzfeed.com/h1/fba/billyonthestreet/billy-on-the-street-do-you-think-rihanna-looks-4x71\np9928\nsVview_tag\np9929\ng36\nsa(dp9930\nValt_view_tags\np9931\n(lp9932\nsVbody\np9933\nVCheck out "The 10 Best Super Bowl Commercials Of All time".  Which one is your favorite?\np9934\nsVimage_hash\np9935\nV31efd2ea67a33767c030f863ee7cd1f0\np9936\nsVname\np9937\nVBuzzFeed-43\np9938\nsVtitle\np9939\nVBuzzFeed\np9940\nsVcreative_id\np9941\nV6004663490765\np9942\nsVpreview_url\np9943\nVhttp://www.facebook.com/ads/api/creative_preview.php?cid=6004663490765\np9944\nsVid\np9945\nV6004663490765\np9946\nsVimage_url\np9947\nVhttps://fbcdn-creative-a.akamaihd.net/hads-ak-ash3/s110x80/701901_6006844344965_38883_n.'
p6
sS'hash'
p7
S'bde4b494c19a23dddd8687aa80926882ecc120bc'
p8
sS'stack'
p9
S''
s.