(dp1
S'args'
p2
S''
sS'methodname'
p3
S''
sS'packet_num'
p4
I68
sS'returnval'
p5
S'ag\np9029\ng36\nsa(dp9030\nValt_view_tags\np9031\n(lp9032\nsVbody\np9033\nVThe didn\'t complain when they were injured! Check out all the other reasons on BuzzFeed.\np9034\nsVimage_hash\np9035\nVf0d04832d179dffe9918c74761973f34\np9036\nsVname\np9037\nVWhy Cavemen Were Badass!\np9038\nsVtitle\np9039\nVWhy Cavemen Were Badass!\np9040\nsVcreative_id\np9041\nV6004735533765\np9042\nsVpreview_url\np9043\nVhttp://www.facebook.com/ads/api/creative_preview.php?cid=6004735533765\np9044\nsVid\np9045\nV6004735533765\np9046\nsVimage_url\np9047\nVhttps://fbcdn-creative-a.akamaihd.net/hads-ak-prn1/s110x80/708178_6006845508765_59761_n.jpg\np9048\nsVcount_current_adgroups\np9049\nI2\nsVrun_status\np9050\nI1\nsVtype\np9051\nI1\nsVlink_url\np9052\nVhttp://www.buzzfeed.com/h1/FBAD/thecavemandiet/10-reasons-cavemen-were-badasses-5bnp\np9053\nsVview_tag\np9054\ng36\nsa(dp9055\nValt_view_tags\np9056\n(lp9057\nsVbody\np9058\nVThey hunted gigantic animals! Check out all the other reasons on BuzzFeed.\np9059\nsVimage_hash\np9060\nVd663fe4543a2f2b8b548d36472e63649\np9061\nsVname\np9062\nVWhy Cavemen Were Badass!-00\np9063\nsVtitle\np9064\nVWhy Cavemen Were Badass!\np9065\nsVcreative_id\np9066\nV6004735536365\np9067\nsVpreview_url\np9068\nVhttp://www.facebook.com/ads/api/creative_preview.php?cid=6004735536365\np9069\nsVid\np9070\nV6004735536365\np9071\nsVimage_url\np9072\nVhttps://fbcdn-creative-a.akamaihd.net/hads-ak-prn1/s110x80/708189_6006845331765_29186_n.jpg\np9073\nsVcount_current_adgroups\np9074\nI2\nsVrun_status\np9075\nI1\nsVtype\np9076\nI1\nsVlink_url\np9077\nVhttp://www.buzzfeed.com/h1/FBAD/thecavemandiet/10-reasons-cavemen-were-badasses-5bnp\np9078\nsVview_tag\np9079\ng36\nsa(dp9080\nValt_view_tags\np9081\n(lp9082\nsVbody\np9083\nVGoldie Hawn & Kurt Russell made BuzzFeed\'s list of "10 Power Couples That Still Got It". Did your favorite couple make it?\np9084\nsVimage_hash\np9085\nVf46d98aae359d84017456ab519b18f56\np9086\nsVname\np9087\nV10 Power Couples! \np9088\nsVtitle\np9089\nV10 Power Couples! \np9090\nsVcreative_id\np9091\nV6004735498765\np9092\nsVpreview_url\np9093\nVhttp://www.facebook.com/ads/api/creative_preview.php?cid=6004735498765\np9094\nsVid\np9095\nV6004735498765\np9096\nsVimage_url\np9097\nVhttps://fbcdn-creative-a.akamaihd.net/hads-ak-prn1/s110x80/701891_6006845526765_47248_n.jpg\np9098\nsVcount_current_adgroups\np9099\nI1\nsVrun_status\np9100\nI1\nsVtype\np9101\nI1\nsVlink_url\np9102\nVhttp://www.buzzfeed.com/h1/FBAD/kydatenight/10-power-couples-that-still-got-it\np9103\nsVview_tag\np9104\ng36\nsa(dp9105\nValt_view_tags\np9106\n(lp9107\nsVbody\np9108\nVOzzy & Sharon made BuzzFeed\'s list of "10 Power Couples That Still Got It". Did your favorite couple make it?\np9109\nsVimage_hash\np9110\nV57bb537f35ff7a7567d08fb033b396c8\np9111\nsVname\np9112\nV10 Power Couples! -01\np9113\nsVtitle\np9114\nV10 Power Couples! \np9115\nsVcreative_id\np9116\nV6004735503365\np9117\nsVpreview_url\np9118\nVhttp://www.facebook.com/ads/api/creative_preview.php?cid=6004735503365\np9119\nsVid\np9120\nV6004735503365\np9121\nsVimage_url\np9122\nVhttps://fbcdn-creative-a.akamaihd.net/hads-ak-prn1/s110x80/708176_6006844594365_52828_n.jpg\np9123\nsVcount_current_adgroups\np9124\nI1\nsVrun_status\np9125\nI1\nsVtype\np9126\nI1\nsVlink_url\np9127\nVhttp://www.buzzfeed.com/h1/FBAD/kydatenight/10-power-couples-that-still-got-it\np9128\nsVview_tag\np9129\ng36\nsa(dp9130\nValt_view_tags\np9131\n(lp9132\nsVbody\np9133\nVOprah & Stedman made BuzzFeed\'s list of "10 Power Couples That Still Got It". Did your favorite couple make it?\np9134\nsVimage_hash\np9135\nV472e121a21ca8b3203107d0e039ec930\np9136\nsVname\np9137\nV10 Power Couples! -02\np9138\nsVtitle\np9139\nV10 Power Couples! \np9140\nsVcreative_id\np9141\nV6004735505165\np9142\nsVpreview_url\np9143\nVhttp://www.facebook.com/ads/api/creative_preview.php?cid=6004735505165\np9144\nsVid\np9145\nV6004735505165\np9146\nsVimage_url\np9147\nVhttps://fbcdn-creative-a.akamaihd.net/hads-ak-prn1/s110x80/701889_6006844479365_37317_n.jpg\np9148\nsVcount_current_adgroups\np9149\nI1\nsVrun_status\np9150\nI1\nsVtype\np9151\nI1\nsVlink_url\np9152\nVhttp://www.buzzfeed.com/h1/FBAD/kydatenight/10-power-couples-that-still-got-it\np9153\nsVview_tag\np9154\ng36\nsa(dp9155\nValt_view_tags\np9156\n(lp9157\nsVbody\np9158\nVDavid Bowie & Iman made BuzzFeed\'s list of "10 Power Couples That Still'
p6
sS'hash'
p7
S'bde4b494c19a23dddd8687aa80926882ecc120bc'
p8
sS'stack'
p9
S''
s.