(dp1
S'args'
p2
S''
sS'methodname'
p3
S''
sS'packet_num'
p4
I66
sS'returnval'
p5
S'FBAD/kydatenight/10-upcoming-movies-that-are-perfect-for-date-night-541p\np8778\nsVview_tag\np8779\ng36\nsa(dp8780\nValt_view_tags\np8781\n(lp8782\nsVbody\np8783\nVMen In Black 3 made our list of "10 Upcoming Movies That Are Perfect For Date Nights". See the rest on BuzzFeed!\np8784\nsVimage_hash\np8785\nV7eb5affec38f91d8c6a53ababc6fe49e\np8786\nsVname\np8787\nVDate Night Movies!-01\np8788\nsVtitle\np8789\nVDate Night Movies!\np8790\nsVcreative_id\np8791\nV6004746713365\np8792\nsVpreview_url\np8793\nVhttp://www.facebook.com/ads/api/creative_preview.php?cid=6004746713365\np8794\nsVid\np8795\nV6004746713365\np8796\nsVimage_url\np8797\nVhttps://fbcdn-creative-a.akamaihd.net/hads-ak-prn1/s110x80/708186_6006844807765_52668_n.jpg\np8798\nsVcount_current_adgroups\np8799\nI1\nsVrun_status\np8800\nI1\nsVtype\np8801\nI1\nsVlink_url\np8802\nVhttp://www.buzzfeed.com/h1/FBAD/kydatenight/10-upcoming-movies-that-are-perfect-for-date-night-541p\np8803\nsVview_tag\np8804\ng36\nsa(dp8805\nValt_view_tags\np8806\n(lp8807\nsVbody\np8808\nVWatching these guys might make you feel better!  Check out "The Most Embarrassing Golf Fails" on BuzzFeed.\np8809\nsVimage_hash\np8810\nV7bb47168942fec9fcf2bf3aa02372a2f\np8811\nsVname\np8812\nVAre You Bad at Golf?-00\np8813\nsVtitle\np8814\nVAre You Bad at Golf?\np8815\nsVcreative_id\np8816\nV6004746674365\np8817\nsVpreview_url\np8818\nVhttp://www.facebook.com/ads/api/creative_preview.php?cid=6004746674365\np8819\nsVid\np8820\nV6004746674365\np8821\nsVimage_url\np8822\nVhttps://fbcdn-creative-a.akamaihd.net/hads-ak-ash3/s110x80/708196_6006844790565_23788_n.jpg\np8823\nsVcount_current_adgroups\np8824\nI1\nsVrun_status\np8825\nI1\nsVtype\np8826\nI1\nsVlink_url\np8827\nVhttp://www.buzzfeed.com/h1/FBAD/tgc/the-most-embarrassing-golf-fails-5bdg\np8828\nsVview_tag\np8829\ng36\nsa(dp8830\nValt_view_tags\np8831\n(lp8832\nsVbody\np8833\nVUummannaq Ice Golf Course in Greenland made our list of "The Craziest Golf Courses In The World".  See the rest on BuzzFeed!\np8834\nsVimage_hash\np8835\nV26486a9cfb8f29f92b278593dc684be9\np8836\nsVname\np8837\nVCraziest Golf Courses!\np8838\nsVtitle\np8839\nVCraziest Golf Courses!\np8840\nsVcreative_id\np8841\nV6004746652165\np8842\nsVpreview_url\np8843\nVhttp://www.facebook.com/ads/api/creative_preview.php?cid=6004746652165\np8844\nsVid\np8845\nV6004746652165\np8846\nsVimage_url\np8847\nVhttps://fbcdn-creative-a.akamaihd.net/hads-ak-prn1/s110x80/701890_6006844290165_34210_n.jpg\np8848\nsVcount_current_adgroups\np8849\nI1\nsVrun_status\np8850\nI1\nsVtype\np8851\nI1\nsVlink_url\np8852\nVhttp://www.buzzfeed.com/h1/FBAD/tgc/the-craziest-golf-courses-in-the-world-5bdg\np8853\nsVview_tag\np8854\ng36\nsa(dp8855\nValt_view_tags\np8856\n(lp8857\nsVbody\np8858\nVThe Lost City Golf Course in South Africa made our list of "The Craziest Golf Courses In The World".  See the rest on BuzzFeed!\np8859\nsVimage_hash\np8860\nVbb090671d835773309833f406ebd04e9\np8861\nsVname\np8862\nVCraziest Golf Courses!-00\np8863\nsVtitle\np8864\nVCraziest Golf Courses!\np8865\nsVcreative_id\np8866\nV6004746663565\np8867\nsVpreview_url\np8868\nVhttp://www.facebook.com/ads/api/creative_preview.php?cid=6004746663565\np8869\nsVid\np8870\nV6004746663565\np8871\nsVimage_url\np8872\nVhttps://fbcdn-creative-a.akamaihd.net/hads-ak-ash3/s110x80/708201_6006845173565_243_n.jpg\np8873\nsVcount_current_adgroups\np8874\nI1\nsVrun_status\np8875\nI1\nsVtype\np8876\nI1\nsVlink_url\np8877\nVhttp://www.buzzfeed.com/h1/FBAD/tgc/the-craziest-golf-courses-in-the-world-5bdg\np8878\nsVview_tag\np8879\ng36\nsa(dp8880\nValt_view_tags\np8881\n(lp8882\nsVbody\np8883\nVCheck out the "10 Things Cavemen Did That We Should Still Do Today". We could learn a thing or two from them!\np8884\nsVimage_hash\np8885\nVd2556b159a8b79ad0f9e8d77bf444968\np8886\nsVname\np8887\nVThings Cavemen Did...\np8888\nsVtitle\np8889\nVThings Cavemen Did...\np8890\nsVcreative_id\np8891\nV6004735648765\np8892\nsVpreview_url\np8893\nVhttp://www.facebook.com/ads/api/creative_preview.php?cid=6004735648765\np8894\nsVid\np8895\nV6004735648765\np8896\nsVimage_url\np8897\nVhttps://fbcdn-creative-a.akamaihd.net/hads-ak-ash3/s110x80/701888_6006845307965_20776_n.jpg\np8898\nsVcount_current_adgroups\np8899\nI2\nsVrun_status\np8900\nI1\nsVtype\np8901\nI1\nsVlink_url\np8902\nVhttp://www.buzzfeed.com/h1/FBAD/thecavemandiet/10-things-caveme'
p6
sS'hash'
p7
S'bde4b494c19a23dddd8687aa80926882ecc120bc'
p8
sS'stack'
p9
S''
s.