(dp1
S'args'
p2
S''
sS'methodname'
p3
S''
sS'packet_num'
p4
I91
sS'returnval'
p5
S' BuzzFeed to see tattoos of hula dancers, geisha\'s, pirates, and more!\np11934\nsVimage_hash\np11935\nV365450d475bd06008d32165b3e02881b\np11936\nsVname\np11937\nVAmazing Pin-Up Tattoos!\np11938\nsVtitle\np11939\nVAmazing Pin-Up Tattoos!\np11940\nsVcreative_id\np11941\nV6004217389165\np11942\nsVpreview_url\np11943\nVhttp://www.facebook.com/ads/api/creative_preview.php?cid=6004217389165\np11944\nsVid\np11945\nV6004217389165\np11946\nsVimage_url\np11947\nVhttps://fbcdn-creative-a.akamaihd.net/hads-ak-prn1/s110x80/708191_6006844368365_56410_n.jpg\np11948\nsVcount_current_adgroups\np11949\nI1\nsVrun_status\np11950\nI1\nsVtype\np11951\nI1\nsVlink_url\np11952\nVhttp://www.buzzfeed.com/h2/fba/sailorjerryrum/the-15-most-iconic-sailor-jerry-pin-up-tattoos\np11953\nsVview_tag\np11954\ng36\nsa(dp11955\nValt_view_tags\np11956\n(lp11957\nsVbody\np11958\nVCheck out BuzzFeed\'s list of "The Cheapest Bars In The Most Expensive Cities" and see if there is a local and affordable bar near you!\np11959\nsVimage_hash\np11960\nV42fe327482cfdac1006fd70a0ec8f2a9\np11961\nsVname\np11962\nVCheapest Bars In Maimi!\np11963\nsVtitle\np11964\nVCheapest Bars In Maimi!\np11965\nsVcreative_id\np11966\nV6004201857165\np11967\nsVpreview_url\np11968\nVhttp://www.facebook.com/ads/api/creative_preview.php?cid=6004201857165\np11969\nsVid\np11970\nV6004201857165\np11971\nsVimage_url\np11972\nVhttps://fbcdn-creative-a.akamaihd.net/hads-ak-prn1/s110x80/708194_6006844457965_3825_n.jpg\np11973\nsVcount_current_adgroups\np11974\nI1\nsVrun_status\np11975\nI1\nsVtype\np11976\nI1\nsVlink_url\np11977\nVhttp://www.buzzfeed.com/h1/fba/freecreditscore/the-cheapest-bars-in-the-most-expensive-cities\np11978\nsVview_tag\np11979\ng36\nsa(dp11980\nValt_view_tags\np11981\n(lp11982\nsVbody\np11983\nVCheck out "The Cheapest Bars In The Most Expensive Cities" to see a list of cheap bars in New York and other major cities in the U.S.\np11984\nsVimage_hash\np11985\nV088f3b0b28194680990de1e275ed7cb2\np11986\nsVname\np11987\nVCheap Bars In Big Cities!\np11988\nsVtitle\np11989\nVCheap Bars In Big Cities!\np11990\nsVcreative_id\np11991\nV6004217413765\np11992\nsVpreview_url\np11993\nVhttp://www.facebook.com/ads/api/creative_preview.php?cid=6004217413765\np11994\nsVid\np11995\nV6004217413765\np11996\nsVimage_url\np11997\nVhttps://fbcdn-creative-a.akamaihd.net/hads-ak-ash3/s110x80/701897_6006844099165_45107_n.jpg\np11998\nsVcount_current_adgroups\np11999\nI1\nsVrun_status\np12000\nI1\nsVtype\np12001\nI1\nsVlink_url\np12002\nVhttp://www.buzzfeed.com/h1/fba/freecreditscore/the-cheapest-bars-in-the-most-expensive-cities\np12003\nsVview_tag\np12004\ng36\nsa(dp12005\nValt_view_tags\np12006\n(lp12007\nsVbody\np12008\nVCheck out "The Cheapest Bars In The Most Expensive Cities" to see a list of affordable bars in Miami and other major cities in the U.S.\np12009\nsVimage_hash\np12010\nV42fe327482cfdac1006fd70a0ec8f2a9\np12011\nsVname\np12012\nVCheapest Bar In Miami!\np12013\nsVtitle\np12014\nVCheapest Bar In Miami!\np12015\nsVcreative_id\np12016\nV6004217416365\np12017\nsVpreview_url\np12018\nVhttp://www.facebook.com/ads/api/creative_preview.php?cid=6004217416365\np12019\nsVid\np12020\nV6004217416365\np12021\nsVimage_url\np12022\nVhttps://fbcdn-creative-a.akamaihd.net/hads-ak-prn1/s110x80/708194_6006844457965_3825_n.jpg\np12023\nsVcount_current_adgroups\np12024\nI1\nsVrun_status\np12025\nI1\nsVtype\np12026\nI1\nsVlink_url\np12027\nVhttp://www.buzzfeed.com/h1/fba/freecreditscore/the-cheapest-bars-in-the-most-expensive-cities\np12028\nsVview_tag\np12029\ng36\nsa(dp12030\nValt_view_tags\np12031\n(lp12032\nsVbody\np12033\nVCheck out "The Cheapest Bars In The Most Expensive Cities" to see the cheapest bars in San Francisco and other major cities in the U.S.\np12034\nsVimage_hash\np12035\nV42fe327482cfdac1006fd70a0ec8f2a9\np12036\nsVname\np12037\nVBest Bar In San Francisco\np12038\nsVtitle\np12039\nVBest Bar In San Francisco\np12040\nsVcreative_id\np12041\nV6004217421165\np12042\nsVpreview_url\np12043\nVhttp://www.facebook.com/ads/api/creative_preview.php?cid=6004217421165\np12044\nsVid\np12045\nV6004217421165\np12046\nsVimage_url\np12047\nVhttps://fbcdn-creative-a.akamaihd.net/hads-ak-prn1/s110x80/708194_6006844457965_3825_n.jpg\np12048\nsVcount_current_adgroups\np12049\nI1\nsVrun_status\np12050\nI1\nsVtype\np12051\nI1\nsVlink_url\np12052\nVhttp://'
p6
sS'hash'
p7
S'bde4b494c19a23dddd8687aa80926882ecc120bc'
p8
sS'stack'
p9
S''
s.