(dp1
S'args'
p2
S''
sS'methodname'
p3
S''
sS'packet_num'
p4
I43
sS'returnval'
p5
S'iew_tag\np5822\ng36\nsa(dp5823\nValt_view_tags\np5824\n(lp5825\nsVbody\np5826\nVOne of "5 Ways The World Might End In The Mayan Apocalypse" Check out the rest on BuzzFeed\np5827\nsVimage_hash\np5828\nV5209df1c93e0e57ca57aaa67d95784b8\np5829\nsVname\np5830\nVAsteriods!\np5831\nsVtitle\np5832\nVAsteriods!\np5833\nsVcreative_id\np5834\nV6004985874765\np5835\nsVpreview_url\np5836\nVhttp://www.facebook.com/ads/api/creative_preview.php?cid=6004985874765\np5837\nsVid\np5838\nV6004985874765\np5839\nsVimage_url\np5840\nVhttps://fbcdn-creative-a.akamaihd.net/hads-ak-snc7/s110x80/701899_6006844566965_23183_n.jpg\np5841\nsVcount_current_adgroups\np5842\nI2\nsVrun_status\np5843\nI1\nsVtype\np5844\nI1\nsVlink_url\np5845\nVhttp://www.buzzfeed.com/H1/FBAD/factorfaked/ways-the-world-might-end-in-the-mayan-apocalypse\np5846\nsVview_tag\np5847\ng36\nsa(dp5848\nValt_view_tags\np5849\n(lp5850\nsVbody\np5851\nVHenrik Zetterberg made our list for "The Best Hair in Hockey".  Wondering who else made it? Check it out on BuzzFeed!\np5852\nsVimage_hash\np5853\nVbb007930a28424821ce47fd46f45ac9e\np5854\nsVname\np5855\nVThe Best Hair in Hockey!-00\np5856\nsVtitle\np5857\nVThe Best Hair in Hockey!\np5858\nsVcreative_id\np5859\nV6004981716965\np5860\nsVpreview_url\np5861\nVhttp://www.facebook.com/ads/api/creative_preview.php?cid=6004981716965\np5862\nsVid\np5863\nV6004981716965\np5864\nsVimage_url\np5865\nVhttps://fbcdn-creative-a.akamaihd.net/hads-ak-prn1/s110x80/708201_6006845173165_51168_n.jpg\np5866\nsVcount_current_adgroups\np5867\nI1\nsVrun_status\np5868\nI1\nsVtype\np5869\nI1\nsVlink_url\np5870\nVhttp://www.buzzfeed.com/H1/FBAD/nhl/the-best-hair-in-hockey-2ag2\np5871\nsVview_tag\np5872\ng36\nsa(dp5873\nValt_view_tags\np5874\n(lp5875\nsVbody\np5876\nVPatrick Kane made our list for "The Best Hair in Hockey".  Wondering who else made it? Check it out on BuzzFeed!\np5877\nsVimage_hash\np5878\nV009babe907cb7576e30e78332d8e210d\np5879\nsVname\np5880\nVThe Best Hair in Hockey!-01\np5881\nsVtitle\np5882\nVThe Best Hair in Hockey!\np5883\nsVcreative_id\np5884\nV6004981719765\np5885\nsVpreview_url\np5886\nVhttp://www.facebook.com/ads/api/creative_preview.php?cid=6004981719765\np5887\nsVid\np5888\nV6004981719765\np5889\nsVimage_url\np5890\nVhttps://fbcdn-creative-a.akamaihd.net/hads-ak-ash3/s110x80/708174_6006844054765_1229_n.jpg\np5891\nsVcount_current_adgroups\np5892\nI1\nsVrun_status\np5893\nI1\nsVtype\np5894\nI1\nsVlink_url\np5895\nVhttp://www.buzzfeed.com/H1/FBAD/nhl/the-best-hair-in-hockey-2ag2\np5896\nsVview_tag\np5897\ng36\nsa(dp5898\nValt_view_tags\np5899\n(lp5900\nsVbody\np5901\nVThe Bridges make our list of "10 Reasons Why New York City Works" See the rest on BuzzFeed. \np5902\nsVimage_hash\np5903\nV1657c0522f81d4010fe2d65a73621839\np5904\nsVname\np5905\nVNew York City Bridges\np5906\nsVtitle\np5907\nVNew York City Bridges\np5908\nsVcreative_id\np5909\nV6004981519165\np5910\nsVpreview_url\np5911\nVhttp://www.facebook.com/ads/api/creative_preview.php?cid=6004981519165\np5912\nsVid\np5913\nV6004981519165\np5914\nsVimage_url\np5915\nVhttps://fbcdn-creative-a.akamaihd.net/hads-ak-prn1/s110x80/708166_6006844190565_30657_n.jpg\np5916\nsVcount_current_adgroups\np5917\nI1\nsVrun_status\np5918\nI1\nsVtype\np5919\nI1\nsVlink_url\np5920\nVhttp://www.buzzfeed.com/H1/FBAD/gewhatworks/10-reasons-why-new-york-city-works\np5921\nsVview_tag\np5922\ng36\nsa(dp5923\nValt_view_tags\np5924\n(lp5925\nsVbody\np5926\nVNew Yorkers love their Coffee. That\'s why it makes our list of "10 Reasons Why New York City Works" See the rest on BuzzFeed. \np5927\nsVimage_hash\np5928\nV51d2b5c08d3d4be987bd485171333f40\np5929\nsVname\np5930\nVWorlds Best Cup of Coffee\np5931\nsVtitle\np5932\nVWorlds Best Cup of Coffee\np5933\nsVcreative_id\np5934\nV6004981524365\np5935\nsVpreview_url\np5936\nVhttp://www.facebook.com/ads/api/creative_preview.php?cid=6004981524365\np5937\nsVid\np5938\nV6004981524365\np5939\nsVimage_url\np5940\nVhttps://fbcdn-creative-a.akamaihd.net/hads-ak-ash3/s110x80/701899_6006844565565_60205_n.jpg\np5941\nsVcount_current_adgroups\np5942\nI2\nsVrun_status\np5943\nI1\nsVtype\np5944\nI1\nsVlink_url\np5945\nVhttp://www.buzzfeed.com/H1/FBAD/gewhatworks/10-reasons-why-new-york-city-works\np5946\nsVview_tag\np5947\ng36\nsa(dp5948\nValt_view_tags\np5949\n(lp5950\nsVbody\np5951\nVCheck out this and 10 other things Cellphones have made Irr'
p6
sS'hash'
p7
S'bde4b494c19a23dddd8687aa80926882ecc120bc'
p8
sS'stack'
p9
S''
s.