(dp1
S'args'
p2
S''
sS'methodname'
p3
S''
sS'packet_num'
p4
I69
sS'returnval'
p5
S' Got It". Did your favorite couple make it?\np9159\nsVimage_hash\np9160\nV2cd3e390b47c8f1f2e6eff5a40abb224\np9161\nsVname\np9162\nV10 Power Couples! -03\np9163\nsVtitle\np9164\nV10 Power Couples! \np9165\nsVcreative_id\np9166\nV6004735507765\np9167\nsVpreview_url\np9168\nVhttp://www.facebook.com/ads/api/creative_preview.php?cid=6004735507765\np9169\nsVid\np9170\nV6004735507765\np9171\nsVimage_url\np9172\nVhttps://fbcdn-creative-a.akamaihd.net/hads-ak-prn1/s110x80/708194_6006844323365_50869_n.jpg\np9173\nsVcount_current_adgroups\np9174\nI1\nsVrun_status\np9175\nI1\nsVtype\np9176\nI1\nsVlink_url\np9177\nVhttp://www.buzzfeed.com/h1/FBAD/kydatenight/10-power-couples-that-still-got-it\np9178\nsVview_tag\np9179\ng36\nsa(dp9180\nValt_view_tags\np9181\n(lp9182\nsVbody\np9183\nVSo do we! Check out the "10 Reasons Why Meryl Streep Is The World\'s Greatest Actress" on BuzzFeed!\np9184\nsVimage_hash\np9185\nVeacbe607ccda5cef7033721f845510ba\np9186\nsVname\np9187\nVDo You Like Meryl Streep?\np9188\nsVtitle\np9189\nVDo You Like Meryl Streep?\np9190\nsVcreative_id\np9191\nV6004735465565\np9192\nsVpreview_url\np9193\nVhttp://www.facebook.com/ads/api/creative_preview.php?cid=6004735465565\np9194\nsVid\np9195\nV6004735465565\np9196\nsVimage_url\np9197\nVhttps://fbcdn-creative-a.akamaihd.net/hads-ak-prn1/s110x80/708164_6006845471365_11757_n.jpg\np9198\nsVcount_current_adgroups\np9199\nI2\nsVrun_status\np9200\nI1\nsVtype\np9201\nI1\nsVlink_url\np9202\nVhttp://www.buzzfeed.com/h1/fba/billyonthestreet/10-reasons-why-meryl-streep-is-the-worlds-gre-4x71\np9203\nsVview_tag\np9204\ng36\nsa(dp9205\nValt_view_tags\np9206\n(lp9207\nsVbody\np9208\nVSo do we! Check out the "10 Reasons Why Meryl Streep Is The World\'s Greatest Actress" on BuzzFeed!\np9209\nsVimage_hash\np9210\nV2776f2320d2ec7a316252df12b7ce97c\np9211\nsVname\np9212\nVDo You Like Meryl Streep?-00\np9213\nsVtitle\np9214\nVDo You Like Meryl Streep?\np9215\nsVcreative_id\np9216\nV6004735476165\np9217\nsVpreview_url\np9218\nVhttp://www.facebook.com/ads/api/creative_preview.php?cid=6004735476165\np9219\nsVid\np9220\nV6004735476165\np9221\nsVimage_url\np9222\nVhttps://fbcdn-creative-a.akamaihd.net/hads-ak-prn1/s110x80/708161_6006844297565_55890_n.jpg\np9223\nsVcount_current_adgroups\np9224\nI2\nsVrun_status\np9225\nI1\nsVtype\np9226\nI1\nsVlink_url\np9227\nVhttp://www.buzzfeed.com/h1/fba/billyonthestreet/10-reasons-why-meryl-streep-is-the-worlds-gre-4x71\np9228\nsVview_tag\np9229\ng36\nsa(dp9230\nValt_view_tags\np9231\n(lp9232\nsVbody\np9233\nVWe think so! Check out the "10 Reasons Why P!nk Is A Very Talented Woman" on BuzzFeed.\np9234\nsVimage_hash\np9235\nV36cf5c340374ac4ec87d939ec982735b\np9236\nsVname\np9237\nVIs Pink Talented?\np9238\nsVtitle\np9239\nVIs Pink Talented?\np9240\nsVcreative_id\np9241\nV6004735427565\np9242\nsVpreview_url\np9243\nVhttp://www.facebook.com/ads/api/creative_preview.php?cid=6004735427565\np9244\nsVid\np9245\nV6004735427565\np9246\nsVimage_url\np9247\nVhttps://fbcdn-creative-a.akamaihd.net/hads-ak-ash3/s110x80/708191_6006844369965_37504_n.jpg\np9248\nsVcount_current_adgroups\np9249\nI2\nsVrun_status\np9250\nI1\nsVtype\np9251\nI1\nsVlink_url\np9252\nVhttp://www.buzzfeed.com/h1/fba/billyonthestreet/10-reasons-why-pnk-is-a-very-talented-woman-4x71\np9253\nsVview_tag\np9254\ng36\nsa(dp9255\nValt_view_tags\np9256\n(lp9257\nsVbody\np9258\nVWe think so! Check out the "10 Reasons Why P!nk Is A Very Talented Woman" on BuzzFeed.\np9259\nsVimage_hash\np9260\nVfec2347df1c00bd89bdf36b9e954d81a\np9261\nsVname\np9262\nVIs Pink Talented?-00\np9263\nsVtitle\np9264\nVIs Pink Talented?\np9265\nsVcreative_id\np9266\nV6004735432165\np9267\nsVpreview_url\np9268\nVhttp://www.facebook.com/ads/api/creative_preview.php?cid=6004735432165\np9269\nsVid\np9270\nV6004735432165\np9271\nsVimage_url\np9272\nVhttps://fbcdn-creative-a.akamaihd.net/hads-ak-prn1/s110x80/708201_6006845593365_38687_n.jpg\np9273\nsVcount_current_adgroups\np9274\nI2\nsVrun_status\np9275\nI1\nsVtype\np9276\nI1\nsVlink_url\np9277\nVhttp://www.buzzfeed.com/h1/fba/billyonthestreet/10-reasons-why-pnk-is-a-very-talented-woman-4x71\np9278\nsVview_tag\np9279\ng36\nsa(dp9280\nValt_view_tags\np9281\n(lp9282\nsVbody\np9283\nVCheech & Chong made our list of "10 Funny Comedic Duos Throughout History". See the rest on BuzzFeed!\np9284\nsVimage_hash\np9285\nV8f042735437b1741d5df101e5ea96764\np9286'
p6
sS'hash'
p7
S'bde4b494c19a23dddd8687aa80926882ecc120bc'
p8
sS'stack'
p9
S''
s.