(dp1
S'args'
p2
S''
sS'methodname'
p3
S''
sS'packet_num'
p4
I55
sS'returnval'
p5
S'ttp://www.facebook.com/ads/api/creative_preview.php?cid=6004898641165\np7369\nsVid\np7370\nV6004898641165\np7371\nsVimage_url\np7372\nVhttps://fbcdn-creative-a.akamaihd.net/hads-ak-ash3/s110x80/708178_6006845508165_35705_n.jpg\np7373\nsVcount_current_adgroups\np7374\nI2\nsVrun_status\np7375\nI1\nsVtype\np7376\nI1\nsVlink_url\np7377\nVhttp://www.buzzfeed.com/H1/FBAD/mioenergy/the-most-energized-spokesmen-of-our-time\np7378\nsVview_tag\np7379\ng36\nsa(dp7380\nValt_view_tags\np7381\n(lp7382\nsVbody\np7383\nVWhat do you get when you combine art and fast food? Here\'s a sneak peak - Check out BuzzFeed for the rest.\np7384\nsVimage_hash\np7385\nV4843018f0efd5784ea2b8455c37ff124\np7386\nsVname\np7387\nVThe Art of Fast Food\np7388\nsVtitle\np7389\nVThe Art of Fast Food\np7390\nsVcreative_id\np7391\nV6004892661565\np7392\nsVpreview_url\np7393\nVhttp://www.facebook.com/ads/api/creative_preview.php?cid=6004892661565\np7394\nsVid\np7395\nV6004892661565\np7396\nsVimage_url\np7397\nVhttps://fbcdn-creative-a.akamaihd.net/hads-ak-prn1/s110x80/708181_6006844486965_43428_n.jpg\np7398\nsVcount_current_adgroups\np7399\nI2\nsVrun_status\np7400\nI1\nsVtype\np7401\nI1\nsVlink_url\np7402\nVhttp://www.buzzfeed.com/H1/FBAD/arbys/the-art-of-fast-food\np7403\nsVview_tag\np7404\ng36\nsa(dp7405\nValt_view_tags\np7406\n(lp7407\nsVbody\np7408\nVThis is one of the "10 Things Kids Today Never Have To Worry About". Check out BuzzFeed to see the rest!\np7409\nsVimage_hash\np7410\nV3969dfbcf6f2b3917bad20d09f323b14\np7411\nsVname\np7412\nVTexting Full Words\np7413\nsVtitle\np7414\nVTexting Full Words\np7415\nsVcreative_id\np7416\nV6004887111165\np7417\nsVpreview_url\np7418\nVhttp://www.facebook.com/ads/api/creative_preview.php?cid=6004887111165\np7419\nsVid\np7420\nV6004887111165\np7421\nsVimage_url\np7422\nVhttps://fbcdn-creative-a.akamaihd.net/hads-ak-snc7/s110x80/701904_6006844385165_20477_n.jpg\np7423\nsVcount_current_adgroups\np7424\nI1\nsVrun_status\np7425\nI1\nsVtype\np7426\nI1\nsVlink_url\np7427\nVhttp://www.buzzfeed.com/h1/FBAD/microsofthotmail/10-things-kids-today-never-have-to-worry-about-4iv0\np7428\nsVview_tag\np7429\ng36\nsa(dp7430\nValt_view_tags\np7431\n(lp7432\nsVbody\np7433\nVThis is one of the "10 Things Kids Today Never Have To Worry About". Check out BuzzFeed to see the rest!\np7434\nsVimage_hash\np7435\nVfdd7334ef94be2126369fbfbcb3792cc\np7436\nsVname\np7437\nVReading For School\np7438\nsVtitle\np7439\nVReading For School\np7440\nsVcreative_id\np7441\nV6004887118365\np7442\nsVpreview_url\np7443\nVhttp://www.facebook.com/ads/api/creative_preview.php?cid=6004887118365\np7444\nsVid\np7445\nV6004887118365\np7446\nsVimage_url\np7447\nVhttps://fbcdn-creative-a.akamaihd.net/hads-ak-ash3/s110x80/708187_6006845587165_2013_n.jpg\np7448\nsVcount_current_adgroups\np7449\nI1\nsVrun_status\np7450\nI1\nsVtype\np7451\nI1\nsVlink_url\np7452\nVhttp://www.buzzfeed.com/h1/FBAD/microsofthotmail/10-things-kids-today-never-have-to-worry-about-4iv0\np7453\nsVview_tag\np7454\ng36\nsa(dp7455\nValt_view_tags\np7456\n(lp7457\nsVbody\np7458\nVThe Irish jig is making a comeback in the form of a hot new viral trend called #Shamrocking. Check it out on BuzzFeed!\np7459\nsVimage_hash\np7460\nV52ba69d85269e20140296e5bf7c5c416\np7461\nsVname\np7462\nVTried Shamrocking Yet?\np7463\nsVtitle\np7464\nVTried Shamrocking Yet?\np7465\nsVcreative_id\np7466\nV6004881169565\np7467\nsVpreview_url\np7468\nVhttp://www.facebook.com/ads/api/creative_preview.php?cid=6004881169565\np7469\nsVid\np7470\nV6004881169565\np7471\nsVimage_url\np7472\nVhttps://fbcdn-creative-a.akamaihd.net/hads-ak-ash3/s110x80/701899_6006844569565_10703_n.jpg\np7473\nsVcount_current_adgroups\np7474\nI1\nsVrun_status\np7475\nI1\nsVtype\np7476\nI1\nsVlink_url\np7477\nVhttp://www.buzzfeed.com/h1/FBAD/mcdonalds/have-you-tried-shamrocking-yet-3tnh\np7478\nsVview_tag\np7479\ng36\nsa(dp7480\nValt_view_tags\np7481\n(lp7482\nsVbody\np7483\nVThe Irish jig is making a comeback in the form of a hot new viral trend called #Shamrocking. Check it out on BuzzFeed!\np7484\nsVimage_hash\np7485\nVf2cd5096859e850fcfedb057cb17a9f4\np7486\nsVname\np7487\nVTried Shamrocking Yet?-00\np7488\nsVtitle\np7489\nVTried Shamrocking Yet?\np7490\nsVcreative_id\np7491\nV6004881416365\np7492\nsVpreview_url\np7493\nVhttp://www.facebook.com/ads/api/creative_preview.php?cid=6004881416365\np7494\nsVid\np7495\n'
p6
sS'hash'
p7
S'bde4b494c19a23dddd8687aa80926882ecc120bc'
p8
sS'stack'
p9
S''
s.