(dp1
S'args'
p2
S''
sS'methodname'
p3
S''
sS'packet_num'
p4
I17
sS'returnval'
p5
S'ive/10-genius-celebrity-equations-5l87\np2389\nsVaction.type\np2390\nVlike\np2391\nssVcluster_id\np2392\nI6005269362365\nsVcount_current_adgroups\np2393\nI1\nsVrun_status\np2394\nI1\nsVtype\np2395\nI25\nsVid\np2396\nV6005269362565\np2397\nsa(dp2398\nVrelated_fan_page\np2399\nI1\nsVname\np2400\nVSponsored story #6005269326965\np2401\nsVcreative_id\np2402\nV6005269326965\np2403\nsVpreview_url\np2404\nVhttp://www.facebook.com/ads/api/creative_preview.php?cid=6005269326965\np2405\nsVaction_spec\np2406\n(dp2407\nVobject\np2408\nVhttp://www.buzzfeed.com/jeremiahweed/how-to-be-a-badass-like-zz-top\np2409\nsVaction.type\np2410\nVlike\np2411\nssVcluster_id\np2412\nI6005269326765\nsVcount_current_adgroups\np2413\nI1\nsVrun_status\np2414\nI1\nsVtype\np2415\nI25\nsVid\np2416\nV6005269326965\np2417\nsa(dp2418\nValt_view_tags\np2419\n(lp2420\nsVbody\np2421\nVLike these grilled peaches with mozzarella and prosciutto. See more summer recipes here!\np2422\nsVimage_hash\np2423\nV776bd3416b8daaa20530299faf92c684\np2424\nsVname\np2425\nVRecpies You Must Try!-00\np2426\nsVtitle\np2427\nVGourmet Summer Recipes\np2428\nsVcreative_id\np2429\nV6005280212765\np2430\nsVpreview_url\np2431\nVhttp://www.facebook.com/ads/api/creative_preview.php?cid=6005280212765\np2432\nsVid\np2433\nV6005280212765\np2434\nsVimage_url\np2435\nVhttps://fbcdn-creative-a.akamaihd.net/hads-ak-snc7/s110x80/701899_6006844772165_20026_n.jpg\np2436\nsVcount_current_adgroups\np2437\nI1\nsVrun_status\np2438\nI1\nsVtype\np2439\nI1\nsVlink_url\np2440\nVhttp://www.buzzfeed.com/h1/fbad/tostitos/10-unique-recipes-to-get-you-excited-for-summer-4hwd\np2441\nsVview_tag\np2442\ng36\nsa(dp2443\nValt_view_tags\np2444\n(lp2445\nsVbody\np2446\nVCheck out the "10 Most Badass Jobs We Wish We Had" See them all on BuzzFeed!\np2447\nsVimage_hash\np2448\nV0acff20bbf2672c7c52f52535848d926\np2449\nsVname\np2450\nVWant to be a Lead Singer?\np2451\nsVtitle\np2452\nVWant to be a Lead Singer?\np2453\nsVcreative_id\np2454\nV6005265025565\np2455\nsVpreview_url\np2456\nVhttp://www.facebook.com/ads/api/creative_preview.php?cid=6005265025565\np2457\nsVid\np2458\nV6005265025565\np2459\nsVimage_url\np2460\nVhttps://fbcdn-creative-a.akamaihd.net/hads-ak-ash3/s110x80/708170_6006844117565_9484_n.jpg\np2461\nsVcount_current_adgroups\np2462\nI1\nsVrun_status\np2463\nI1\nsVtype\np2464\nI1\nsVlink_url\np2465\nVhttp://www.buzzfeed.com/h1/fbad/jackhoney/10-most-badass-jobs-we-wish-we-had-68t2\np2466\nsVview_tag\np2467\ng36\nsa(dp2468\nValt_view_tags\np2469\n(lp2470\nsVbody\np2471\nVThe Okie Noodling Tournament make our list of the "15 Crazy Summer Events You Can\'t Miss"\\u000a\np2472\nsVimage_hash\np2473\nV0500232524e5ac051a256f1efab85f81\np2474\nsVname\np2475\nVNow That\'s a Big Fish!\np2476\nsVtitle\np2477\nVNow That\'s a Big Fish!\np2478\nsVcreative_id\np2479\nV6005264958965\np2480\nsVpreview_url\np2481\nVhttp://www.facebook.com/ads/api/creative_preview.php?cid=6005264958965\np2482\nsVid\np2483\nV6005264958965\np2484\nsVimage_url\np2485\nVhttps://fbcdn-creative-a.akamaihd.net/hads-ak-ash3/s110x80/708186_6006844075965_35389_n.jpg\np2486\nsVcount_current_adgroups\np2487\nI1\nsVrun_status\np2488\nI1\nsVtype\np2489\nI1\nsVlink_url\np2490\nVhttp://www.buzzfeed.com/h1/fbad/jackhoney/15-crazy-summer-events-you-cant-miss-68t2\np2491\nsVview_tag\np2492\ng36\nsa(dp2493\nValt_view_tags\np2494\n(lp2495\nsVbody\np2496\nVSummer is here and we\'ve got the "Top 10 Strangest Summer Sports" See them all on BuzzFeed\np2497\nsVimage_hash\np2498\nV76a021d4647ffe52615b941a4c00f2bc\np2499\nsVname\np2500\nVElephant Polo Anyone?\np2501\nsVtitle\np2502\nVElephant Polo Anyone?\np2503\nsVcreative_id\np2504\nV6005264933165\np2505\nsVpreview_url\np2506\nVhttp://www.facebook.com/ads/api/creative_preview.php?cid=6005264933165\np2507\nsVid\np2508\nV6005264933165\np2509\nsVimage_url\np2510\nVhttps://fbcdn-creative-a.akamaihd.net/hads-ak-ash3/s110x80/701899_6006844768965_36705_n.jpg\np2511\nsVcount_current_adgroups\np2512\nI1\nsVrun_status\np2513\nI1\nsVtype\np2514\nI1\nsVlink_url\np2515\nVhttp://www.buzzfeed.com/h1/fbad/jackhoney/top-10-strangest-summer-sports-68t2\np2516\nsVview_tag\np2517\ng36\nsa(dp2518\nValt_view_tags\np2519\n(lp2520\nsVbody\np2521\nVCheck out these "Drunk Text Expectations vs. Drunk Text Realities" Only on BuzzFeed!\np2522\nsVimage_hash\np2523\nV202207a2e8d42b2616a468ae862bec0b\np2524\nsVname\np2525\nVDrunk Text'
p6
sS'hash'
p7
S'bde4b494c19a23dddd8687aa80926882ecc120bc'
p8
sS'stack'
p9
S''
s.