(dp1
S'args'
p2
S''
sS'methodname'
p3
S''
sS'packet_num'
p4
I11
sS'returnval'
p5
S'reative_preview.php?cid=6005297352365\np1578\nsVaction_spec\np1579\n(dp1580\nVobject\np1581\nVhttp://www.buzzfeed.com/mjs538/13-simple-steps-to-get-you-through-a-rough-day\np1582\nsVaction.type\np1583\nVlike\np1584\nssVcluster_id\np1585\nI6005297352165\nsVcount_current_adgroups\np1586\nI1\nsVrun_status\np1587\nI1\nsVtype\np1588\nI25\nsVid\np1589\nV6005297352365\np1590\nsa(dp1591\nValt_view_tags\np1592\n(lp1593\nsVbody\np1594\nVIt\'s one of the "10 Things That Will Get You Through A Boring Day At Work". See the rest!\np1595\nsVimage_hash\np1596\nVf40df7b53e3d85280f198e3560a70037\np1597\nsVname\np1598\nVPlay Draw Something!\np1599\nsVtitle\np1600\nVPlay Draw Something!\np1601\nsVcreative_id\np1602\nV6005290804565\np1603\nsVpreview_url\np1604\nVhttp://www.facebook.com/ads/api/creative_preview.php?cid=6005290804565\np1605\nsVid\np1606\nV6005290804565\np1607\nsVimage_url\np1608\nVhttps://fbcdn-creative-a.akamaihd.net/hads-ak-prn1/s110x80/701891_6006845525365_59914_n.jpg\np1609\nsVcount_current_adgroups\np1610\nI2\nsVrun_status\np1611\nI1\nsVtype\np1612\nI1\nsVlink_url\np1613\nVhttp://www.buzzfeed.com/h1/fbad/microsoftbing/10-things-that-will-get-you-through-a-boring-day-a\np1614\nsVview_tag\np1615\ng36\nsa(dp1616\nValt_view_tags\np1617\n(lp1618\nsVbody\np1619\nVCheck out these "10 Awesome Board Games You Probably Haven\'t Heard Of". See the list here!\np1620\nsVimage_hash\np1621\nVbd30ccd950ffa5039e1b77b889ee3c3c\np1622\nsVname\np1623\nVLove Board Games?\np1624\nsVtitle\np1625\nVLove Board Games?\np1626\nsVcreative_id\np1627\nV6005287607565\np1628\nsVpreview_url\np1629\nVhttp://www.facebook.com/ads/api/creative_preview.php?cid=6005287607565\np1630\nsVid\np1631\nV6005287607565\np1632\nsVimage_url\np1633\nVhttps://fbcdn-creative-a.akamaihd.net/hads-ak-prn1/s110x80/708189_6006845186765_36450_n.jpg\np1634\nsVcount_current_adgroups\np1635\nI1\nsVrun_status\np1636\nI1\nsVtype\np1637\nI1\nsVlink_url\np1638\nVhttp://www.buzzfeed.com/h1/fbad/trident/10-awesome-board-games-you-probably-havent-heard\np1639\nsVview_tag\np1640\ng36\nsa(dp1641\nValt_view_tags\np1642\n(lp1643\nsVbody\np1644\nVCheck out these awesome flash mobs caught on tape. Grand Central stands still and more!\np1645\nsVimage_hash\np1646\nVb32ff43e28d10203461d11b183d1eb3a\np1647\nsVname\np1648\nVGrand Central Freezes!\np1649\nsVtitle\np1650\nVGrand Central Freezes!\np1651\nsVcreative_id\np1652\nV6005287556165\np1653\nsVpreview_url\np1654\nVhttp://www.facebook.com/ads/api/creative_preview.php?cid=6005287556165\np1655\nsVid\np1656\nV6005287556165\np1657\nsVimage_url\np1658\nVhttps://fbcdn-creative-a.akamaihd.net/hads-ak-prn1/s110x80/708188_6006845130765_32101_n.jpg\np1659\nsVcount_current_adgroups\np1660\nI1\nsVrun_status\np1661\nI1\nsVtype\np1662\nI1\nsVlink_url\np1663\nVhttp://www.buzzfeed.com/h1/fbad/vitaminwater/10-flash-mobs-that-caught-everyone-by-surprise\np1664\nsVview_tag\np1665\ng36\nsa(dp1666\nValt_view_tags\np1667\n(lp1668\nsVbody\np1669\nVThe Ice Hotel\'s Bar makes our list of the "World\'s Most Incredible Bars" See the rest!\np1670\nsVimage_hash\np1671\nV43df238680611fb77a6ff1fd1e6a4541\np1672\nsVname\np1673\nVBar Under the Sea!-00\np1674\nsVtitle\np1675\nVNow that\'s an Ice Bar\np1676\nsVcreative_id\np1677\nV6005290595765\np1678\nsVpreview_url\np1679\nVhttp://www.facebook.com/ads/api/creative_preview.php?cid=6005290595765\np1680\nsVid\np1681\nV6005290595765\np1682\nsVimage_url\np1683\nVhttps://fbcdn-creative-a.akamaihd.net/hads-ak-ash3/s110x80/708194_6006844460165_18285_n.jpg\np1684\nsVcount_current_adgroups\np1685\nI2\nsVrun_status\np1686\nI1\nsVtype\np1687\nI1\nsVlink_url\np1688\nVhttp://www.buzzfeed.com/h1/fbad/jackhoney/the-worlds-most-incredible-bars-68t2\np1689\nsVview_tag\np1690\ng36\nsa(dp1691\nValt_view_tags\np1692\n(lp1693\nsVbody\np1694\nVFeels something like this, right? Check out these awesomely true dating Gifs. #SusanGlenn\np1695\nsVimage_hash\np1696\nV0a7334e063d1e18641ccf7d45cdb5f4e\np1697\nsVname\np1698\nVSo She Has A Boyfriend!-00-00\np1699\nsVtitle\np1700\nVMentions Her Boyfriend\np1701\nsVcreative_id\np1702\nV6005290631365\np1703\nsVpreview_url\np1704\nVhttp://www.facebook.com/ads/api/creative_preview.php?cid=6005290631365\np1705\nsVid\np1706\nV6005290631365\np1707\nsVimage_url\np1708\nVhttps://fbcdn-creative-a.akamaihd.net/hads-ak-ash3/s110x80/708193_6006844111165_27951_n.jpg\np1709\nsVcount_current_adgroups\np'
p6
sS'hash'
p7
S'bde4b494c19a23dddd8687aa80926882ecc120bc'
p8
sS'stack'
p9
S''
s.