(dp1
S'args'
p2
S''
sS'methodname'
p3
S''
sS'packet_num'
p4
I82
sS'returnval'
p5
S'cid=6004377494565\np10819\nsVid\np10820\nV6004377494565\np10821\nsVimage_url\np10822\nVhttps://fbcdn-creative-a.akamaihd.net/hads-ak-ash3/s110x80/701888_6006845305765_59250_n.jpg\np10823\nsVcount_current_adgroups\np10824\nI1\nsVrun_status\np10825\nI1\nsVtype\np10826\nI1\nsVlink_url\np10827\nVhttp://www.buzzfeed.com/h1/fba/billyonthestreet/the-best-man-on-the-street-videos-4x71\np10828\nsVview_tag\np10829\ng36\nsa(dp10830\nValt_view_tags\np10831\n(lp10832\nsVbody\np10833\nVFor a good laugh, watch Jon Stewart, Billy Eichner, and more of your favorite comedians do what they do best on the streets!\np10834\nsVimage_hash\np10835\nVc3f666b040c93fc73fc87d4877c0d077\np10836\nsVname\np10837\nVBest Man On The Street!-05\np10838\nsVtitle\np10839\nVBest Man On The Street!\np10840\nsVcreative_id\np10841\nV6004380188565\np10842\nsVpreview_url\np10843\nVhttp://www.facebook.com/ads/api/creative_preview.php?cid=6004380188565\np10844\nsVid\np10845\nV6004380188565\np10846\nsVimage_url\np10847\nVhttps://fbcdn-creative-a.akamaihd.net/hads-ak-ash3/s110x80/701899_6006845227165_25658_n.jpg\np10848\nsVcount_current_adgroups\np10849\nI1\nsVrun_status\np10850\nI1\nsVtype\np10851\nI1\nsVlink_url\np10852\nVhttp://www.buzzfeed.com/h1/fba/billyonthestreet/the-best-man-on-the-street-videos-4x71\np10853\nsVview_tag\np10854\ng36\nsa(dp10855\nValt_view_tags\np10856\n(lp10857\nsVbody\np10858\nVCheck out BuzzFeed\'s "10 Hilarious Comedians You (Probably) Haven\'t Heard Of" to see some of the most underrated comedians around!\np10859\nsVimage_hash\np10860\nVf78a694bd6b62b9dc14b168e1a960d1d\np10861\nsVname\np10862\nVBest Unknown Comedians!\np10863\nsVtitle\np10864\nVBest Unknown Comedians!\np10865\nsVcreative_id\np10866\nV6004382720365\np10867\nsVpreview_url\np10868\nVhttp://www.facebook.com/ads/api/creative_preview.php?cid=6004382720365\np10869\nsVid\np10870\nV6004382720365\np10871\nsVimage_url\np10872\nVhttps://fbcdn-creative-a.akamaihd.net/hads-ak-prn1/s110x80/708162_6006845550165_19333_n.jpg\np10873\nsVcount_current_adgroups\np10874\nI1\nsVrun_status\np10875\nI1\nsVtype\np10876\nI1\nsVlink_url\np10877\nVhttp://www.buzzfeed.com/h1/fba/angryboys/10-hilarious-comedians-you-probably-havent-he-2ne5\np10878\nsVview_tag\np10879\ng36\nsa(dp10880\nValt_view_tags\np10881\n(lp10882\nsVbody\np10883\nVMost actors will stop at nothing to ace their character. Check out BuzzFeed\'s "10 Actors Who Have Cross-Dressed For Roles"\np10884\nsVimage_hash\np10885\nV5e208b1c5721c8d6f8c5ca05fef8c907\np10886\nsVname\np10887\nVCross-Dressing Actors-00\np10888\nsVtitle\np10889\nVCross-Dressing Actors\np10890\nsVcreative_id\np10891\nV6004335562165\np10892\nsVpreview_url\np10893\nVhttp://www.facebook.com/ads/api/creative_preview.php?cid=6004335562165\np10894\nsVid\np10895\nV6004335562165\np10896\nsVimage_url\np10897\nVhttps://fbcdn-creative-a.akamaihd.net/hads-ak-ash3/s110x80/701899_6006844631765_53978_n.jpg\np10898\nsVcount_current_adgroups\np10899\nI1\nsVrun_status\np10900\nI1\nsVtype\np10901\nI1\nsVlink_url\np10902\nVhttp://www.buzzfeed.com/h1/fba/angryboys/10-actors-who-have-cross-dressed-for-roles-2ne5\np10903\nsVview_tag\np10904\ng36\nsa(dp10905\nValt_view_tags\np10906\n(lp10907\nsVbody\np10908\nVActors like John Travolta will stop at nothing to ace their character.  Check out "10 Actors Who Have Cross-Dressed For Roles"\np10909\nsVimage_hash\np10910\nV0ef82bebfa2bddc255f2071f32578a97\np10911\nsVname\np10912\nVTravolta Cross-Dressing?\np10913\nsVtitle\np10914\nVTravolta Cross-Dressing?\np10915\nsVcreative_id\np10916\nV6004335564565\np10917\nsVpreview_url\np10918\nVhttp://www.facebook.com/ads/api/creative_preview.php?cid=6004335564565\np10919\nsVid\np10920\nV6004335564565\np10921\nsVimage_url\np10922\nVhttps://fbcdn-creative-a.akamaihd.net/hads-ak-ash3/s110x80/708181_6006844138965_17928_n.jpg\np10923\nsVcount_current_adgroups\np10924\nI1\nsVrun_status\np10925\nI1\nsVtype\np10926\nI1\nsVlink_url\np10927\nVhttp://www.buzzfeed.com/h1/fba/angryboys/10-actors-who-have-cross-dressed-for-roles-2ne5\np10928\nsVview_tag\np10929\ng36\nsa(dp10930\nValt_view_tags\np10931\n(lp10932\nsVbody\np10933\nVCheck out "The Most Badass Bulls In Bull Riding" by BuzzFeed to see the names of the top 10 bulls in bull riding history!\np10934\nsVimage_hash\np10935\nVbe10af588ba49362d2c4d791948e0d33\np10936\nsVname\np10937\nVThe Bulls Of Bull Riding-00\np10'
p6
sS'hash'
p7
S'bde4b494c19a23dddd8687aa80926882ecc120bc'
p8
sS'stack'
p9
S''
s.