(dp1
S'args'
p2
S''
sS'methodname'
p3
S''
sS'packet_num'
p4
I61
sS'returnval'
p5
S'ake the list?\np8134\nsVimage_hash\np8135\nVd563b2139da0b26f439ba5d21a82bb75\np8136\nsVname\np8137\nV10 Most Romantic Cities-02\np8138\nsVtitle\np8139\nV10 Most Romantic Cities\np8140\nsVcreative_id\np8141\nV6004802402365\np8142\nsVpreview_url\np8143\nVhttp://www.facebook.com/ads/api/creative_preview.php?cid=6004802402365\np8144\nsVid\np8145\nV6004802402365\np8146\nsVimage_url\np8147\nVhttps://fbcdn-creative-a.akamaihd.net/hads-ak-prn1/s110x80/708164_6006845325565_62345_n.jpg\np8148\nsVcount_current_adgroups\np8149\nI1\nsVrun_status\np8150\nI1\nsVtype\np8151\nI1\nsVlink_url\np8152\nVhttp://www.buzzfeed.com/h1/FBAD/kydatenight/the-10-most-romantic-cities-on-earth-541p\np8153\nsVview_tag\np8154\ng36\nsa(dp8155\nValt_view_tags\np8156\n(lp8157\nsVbody\np8158\nVJaipur, India is one of "The 10 Most Romantic Cities On Earth". Did your favorite city make the list?\np8159\nsVimage_hash\np8160\nV4b6910fa75e80adc37508df612f78990\np8161\nsVname\np8162\nV10 Most Romantic Cities-03\np8163\nsVtitle\np8164\nV10 Most Romantic Cities\np8165\nsVcreative_id\np8166\nV6004802407165\np8167\nsVpreview_url\np8168\nVhttp://www.facebook.com/ads/api/creative_preview.php?cid=6004802407165\np8169\nsVid\np8170\nV6004802407165\np8171\nsVimage_url\np8172\nVhttps://fbcdn-creative-a.akamaihd.net/hads-ak-ash3/s110x80/708166_6006844509165_59174_n.jpg\np8173\nsVcount_current_adgroups\np8174\nI1\nsVrun_status\np8175\nI1\nsVtype\np8176\nI1\nsVlink_url\np8177\nVhttp://www.buzzfeed.com/h1/FBAD/kydatenight/the-10-most-romantic-cities-on-earth-541p\np8178\nsVview_tag\np8179\ng36\nsa(dp8180\nValt_view_tags\np8181\n(lp8182\nsVbody\np8183\nVCheck out "The Evolution Of The Oscar Couple" on BuzzFeed. See which other iconic couples made the list!\np8184\nsVimage_hash\np8185\nVf07b46b6e21fdc678c99dd5e83c6e0e8\np8186\nsVname\np8187\nVIconic Oscar Couples\np8188\nsVtitle\np8189\nVIconic Oscar Couples\np8190\nsVcreative_id\np8191\nV6004802370365\np8192\nsVpreview_url\np8193\nVhttp://www.facebook.com/ads/api/creative_preview.php?cid=6004802370365\np8194\nsVid\np8195\nV6004802370365\np8196\nsVimage_url\np8197\nVhttps://fbcdn-creative-a.akamaihd.net/hads-ak-prn1/s110x80/708178_6006845507965_49907_n.jpg\np8198\nsVcount_current_adgroups\np8199\nI1\nsVrun_status\np8200\nI1\nsVtype\np8201\nI1\nsVlink_url\np8202\nVhttp://www.buzzfeed.com/h1/FBAD/kydatenight/the-evolution-of-the-oscar-couple-541p\np8203\nsVview_tag\np8204\ng36\nsa(dp8205\nValt_view_tags\np8206\n(lp8207\nsVbody\np8208\nVCheck out "The Evolution Of The Oscar Couple" on BuzzFeed. See which other iconic couples made the list!\np8209\nsVimage_hash\np8210\nV59ab1efd63f37da0e3ac050f339ac590\np8211\nsVname\np8212\nVIconic Oscar Couples-00\np8213\nsVtitle\np8214\nVIconic Oscar Couples\np8215\nsVcreative_id\np8216\nV6004802374165\np8217\nsVpreview_url\np8218\nVhttp://www.facebook.com/ads/api/creative_preview.php?cid=6004802374165\np8219\nsVid\np8220\nV6004802374165\np8221\nsVimage_url\np8222\nVhttps://fbcdn-creative-a.akamaihd.net/hads-ak-ash3/s110x80/708164_6006844607165_26253_n.jpg\np8223\nsVcount_current_adgroups\np8224\nI1\nsVrun_status\np8225\nI1\nsVtype\np8226\nI1\nsVlink_url\np8227\nVhttp://www.buzzfeed.com/h1/FBAD/kydatenight/the-evolution-of-the-oscar-couple-541p\np8228\nsVview_tag\np8229\ng36\nsa(dp8230\nValt_view_tags\np8231\n(lp8232\nsVbody\np8233\nVCheck out "The Evolution Of The Oscar Couple" on BuzzFeed. See which other iconic couples made the list!\np8234\nsVimage_hash\np8235\nVf12992d50211b15b9c70268d21657f0c\np8236\nsVname\np8237\nVIconic Oscar Couples-01\np8238\nsVtitle\np8239\nVIconic Oscar Couples\np8240\nsVcreative_id\np8241\nV6004802376165\np8242\nsVpreview_url\np8243\nVhttp://www.facebook.com/ads/api/creative_preview.php?cid=6004802376165\np8244\nsVid\np8245\nV6004802376165\np8246\nsVimage_url\np8247\nVhttps://fbcdn-creative-a.akamaihd.net/hads-ak-prn1/s110x80/708178_6006845510765_17894_n.jpg\np8248\nsVcount_current_adgroups\np8249\nI1\nsVrun_status\np8250\nI1\nsVtype\np8251\nI1\nsVlink_url\np8252\nVhttp://www.buzzfeed.com/h1/FBAD/kydatenight/the-evolution-of-the-oscar-couple-541p\np8253\nsVview_tag\np8254\ng36\nsa(dp8255\nValt_view_tags\np8256\n(lp8257\nsVbody\np8258\nVCheck out "The Evolution Of The Oscar Couple" on BuzzFeed. See which other iconic couples made the list!\np8259\nsVimage_hash\np8260\nV4488ebd1feed0b42f20342056e07762d\np8261\nsVname\np8262\nVIconic'
p6
sS'hash'
p7
S'bde4b494c19a23dddd8687aa80926882ecc120bc'
p8
sS'stack'
p9
S''
s.