(dp1
S'args'
p2
S''
sS'methodname'
p3
S''
sS'packet_num'
p4
I50
sS'returnval'
p5
S'!\np6727\nsVimage_hash\np6728\nV5a610825fac59c77b216baa5c1c0fd03\np6729\nsVname\np6730\nVMost Memorable Parties-00\np6731\nsVtitle\np6732\nVMost Memorable Parties\np6733\nsVcreative_id\np6734\nV6004946149565\np6735\nsVpreview_url\np6736\nVhttp://www.facebook.com/ads/api/creative_preview.php?cid=6004946149565\np6737\nsVid\np6738\nV6004946149565\np6739\nsVimage_url\np6740\nVhttps://fbcdn-creative-a.akamaihd.net/hads-ak-prn1/s110x80/708164_6006844609765_54744_n.jpg\np6741\nsVcount_current_adgroups\np6742\nI1\nsVrun_status\np6743\nI1\nsVtype\np6744\nI1\nsVlink_url\np6745\nVhttp://www.buzzfeed.com/H1/FBAD/tostitos/the-most-memorable-parties-in-history-4hwd\np6746\nsVview_tag\np6747\ng36\nsa(dp6748\nValt_view_tags\np6749\n(lp6750\nsVbody\np6751\nVShe\'s one of "The 5 Most Notorious Urban Legends". Check out the rest on BuzzFeed - maybe you\'ll learn a fact or two.\np6752\nsVimage_hash\np6753\nV141556221f28ac4928d34acb0f37bdb5\np6754\nsVname\np6755\nVThe Loch Ness Monster\np6756\nsVtitle\np6757\nVThe Loch Ness Monster\np6758\nsVcreative_id\np6759\nV6004946048965\np6760\nsVpreview_url\np6761\nVhttp://www.facebook.com/ads/api/creative_preview.php?cid=6004946048965\np6762\nsVid\np6763\nV6004946048965\np6764\nsVimage_url\np6765\nVhttps://fbcdn-creative-a.akamaihd.net/hads-ak-prn1/s110x80/708194_6006844174765_25960_n.jpg\np6766\nsVcount_current_adgroups\np6767\nI1\nsVrun_status\np6768\nI1\nsVtype\np6769\nI1\nsVlink_url\np6770\nVhttp://www.buzzfeed.com/H1/FBAD/factorfaked/the-most-notorious-urban-legends\np6771\nsVview_tag\np6772\ng36\nsa(dp6773\nValt_view_tags\np6774\n(lp6775\nsVbody\np6776\nVHe\'s one of "The 5 Most Notorious Urban Legends". Check out the rest on BuzzFeed - maybe you\'ll learn a fact or two.\np6777\nsVimage_hash\np6778\nV421a982af15292c74ffdf16ae2e70548\np6779\nsVname\np6780\nVThe Legendary Bigfoot\np6781\nsVtitle\np6782\nVThe Legendary Bigfoot\np6783\nsVcreative_id\np6784\nV6004946139365\np6785\nsVpreview_url\np6786\nVhttp://www.facebook.com/ads/api/creative_preview.php?cid=6004946139365\np6787\nsVid\np6788\nV6004946139365\np6789\nsVimage_url\np6790\nVhttps://fbcdn-creative-a.akamaihd.net/hads-ak-ash3/s110x80/708205_6006844449765_44606_n.jpg\np6791\nsVcount_current_adgroups\np6792\nI1\nsVrun_status\np6793\nI1\nsVtype\np6794\nI1\nsVlink_url\np6795\nVhttp://www.buzzfeed.com/H1/FBAD/factorfaked/the-most-notorious-urban-legends\np6796\nsVview_tag\np6797\ng36\nsa(dp6798\nVname\np6799\nVAd from a Page post #6004945676565\np6800\nsVstory_id\np6801\nV107166929417306\np6802\nsVcreative_id\np6803\nV6004945676565\np6804\nsVpreview_url\np6805\nVhttp://www.facebook.com/ads/api/creative_preview.php?cid=6004945676565\np6806\nsVobject_id\np6807\nV238205562866018\np6808\nsVcount_current_adgroups\np6809\nI2\nsVrun_status\np6810\nI1\nsVtype\np6811\nI27\nsVid\np6812\nV6004945676565\np6813\nsa(dp6814\nValt_view_tags\np6815\n(lp6816\nsVbody\np6817\nVLeaving a baby on his doorstep is one of the "9 Ways We\'d Like To Punk Justin Bieber". See the rest on BuzzFeed!\np6818\nsVimage_hash\np6819\nVab634ee3f9026e9e185b7d634c35d62c\np6820\nsVname\np6821\nV"Punk"ing Justin Bieber\np6822\nsVtitle\np6823\nV"Punk"ing Justin Bieber\np6824\nsVcreative_id\np6825\nV6004945520965\np6826\nsVpreview_url\np6827\nVhttp://www.facebook.com/ads/api/creative_preview.php?cid=6004945520965\np6828\nsVid\np6829\nV6004945520965\np6830\nsVimage_url\np6831\nVhttps://fbcdn-creative-a.akamaihd.net/hads-ak-snc7/s110x80/701898_6006845079565_42168_n.jpg\np6832\nsVcount_current_adgroups\np6833\nI1\nsVrun_status\np6834\nI1\nsVtype\np6835\nI1\nsVlink_url\np6836\nVhttp://www.buzzfeed.com/h1/FBAD/punkd/9-ways-wed-like-to-punk-justin-bieber\np6837\nsVview_tag\np6838\ng36\nsa(dp6839\nValt_view_tags\np6840\n(lp6841\nsVbody\np6842\nVRemember Justin Timberlake crying to his mom on the phone? Check out BuzzFeed to see the other "Best Moments in Punk\'d History"\np6843\nsVimage_hash\np6844\nV9b6175cbdd6589dd98354f70ba4a8272\np6845\nsVname\np6846\nVBest Moments in "Punk\'d"-00\np6847\nsVtitle\np6848\nVBest Moments in "Punk\'d"\np6849\nsVcreative_id\np6850\nV6004945321765\np6851\nsVpreview_url\np6852\nVhttp://www.facebook.com/ads/api/creative_preview.php?cid=6004945321765\np6853\nsVid\np6854\nV6004945321765\np6855\nsVimage_url\np6856\nVhttps://fbcdn-creative-a.akamaihd.net/hads-ak-ash3/s110x80/701900_6006844977765_9604_n.jpg\np6857\nsVcount_current_adgroups\np68'
p6
sS'hash'
p7
S'bde4b494c19a23dddd8687aa80926882ecc120bc'
p8
sS'stack'
p9
S''
s.