(dp1
S'args'
p2
S''
sS'methodname'
p3
S''
sS'packet_num'
p4
I14
sS'returnval'
p5
S'p1974\nV6005276657765\np1975\nsVpreview_url\np1976\nVhttp://www.facebook.com/ads/api/creative_preview.php?cid=6005276657765\np1977\nsVid\np1978\nV6005276657765\np1979\nsVimage_url\np1980\nVhttps://fbcdn-creative-a.akamaihd.net/hads-ak-prn1/s110x80/708184_6006845061965_18878_n.jpg\np1981\nsVcount_current_adgroups\np1982\nI1\nsVrun_status\np1983\nI1\nsVtype\np1984\nI1\nsVlink_url\np1985\nVhttp://www.buzzfeed.com/h1/fbad/microsoftbing/the-most-awesome-hotels-around-the-world-67r9\np1986\nsVview_tag\np1987\ng36\nsa(dp1988\nValt_view_tags\np1989\n(lp1990\nsVbody\np1991\nVCoco Palm Bodu Hithi in the Maldives made the list. Check out the rest!\np1992\nsVimage_hash\np1993\nVab080b05b37c789860e15ed6cecbea26\np1994\nsVname\np1995\nVMost Awesome Hotels-00\np1996\nsVtitle\np1997\nVMost Awesome Hotels\np1998\nsVcreative_id\np1999\nV6005276660765\np2000\nsVpreview_url\np2001\nVhttp://www.facebook.com/ads/api/creative_preview.php?cid=6005276660765\np2002\nsVid\np2003\nV6005276660765\np2004\nsVimage_url\np2005\nVhttps://fbcdn-creative-a.akamaihd.net/hads-ak-ash3/s110x80/701898_6006845078565_54863_n.jpg\np2006\nsVcount_current_adgroups\np2007\nI1\nsVrun_status\np2008\nI1\nsVtype\np2009\nI1\nsVlink_url\np2010\nVhttp://www.buzzfeed.com/h1/fbad/microsoftbing/the-most-awesome-hotels-around-the-world-67r9\np2011\nsVview_tag\np2012\ng36\nsa(dp2013\nVrelated_fan_page\np2014\nI1\nsVname\np2015\nVSponsored story #6005275286565\np2016\nsVcreative_id\np2017\nV6005275286565\np2018\nsVpreview_url\np2019\nVhttp://www.facebook.com/ads/api/creative_preview.php?cid=6005275286565\np2020\nsVaction_spec\np2021\n(dp2022\nVobject\np2023\nVhttp://www.buzzfeed.com/samir/things-that-will-drive-your-ocd-self-insane\np2024\nsVaction.type\np2025\nVlike\np2026\nssVcluster_id\np2027\nI6005275286365\nsVcount_current_adgroups\np2028\nI1\nsVrun_status\np2029\nI1\nsVtype\np2030\nI25\nsVid\np2031\nV6005275286565\np2032\nsa(dp2033\nVrelated_fan_page\np2034\nI1\nsVname\np2035\nVSponsored story #6005275274165\np2036\nsVcreative_id\np2037\nV6005275274165\np2038\nsVpreview_url\np2039\nVhttp://www.facebook.com/ads/api/creative_preview.php?cid=6005275274165\np2040\nsVaction_spec\np2041\n(dp2042\nVobject\np2043\nVhttp://www.buzzfeed.com/ryanhatesthis/people-being-massive-jerks-for-no-reason-presente\np2044\nsVaction.type\np2045\nVlike\np2046\nssVcluster_id\np2047\nI6005275273965\nsVcount_current_adgroups\np2048\nI1\nsVrun_status\np2049\nI1\nsVtype\np2050\nI25\nsVid\np2051\nV6005275274165\np2052\nsa(dp2053\nVrelated_fan_page\np2054\nI1\nsVname\np2055\nVSponsored story #6005275261565\np2056\nsVcreative_id\np2057\nV6005275261565\np2058\nsVpreview_url\np2059\nVhttp://www.facebook.com/ads/api/creative_preview.php?cid=6005275261565\np2060\nsVaction_spec\np2061\n(dp2062\nVobject\np2063\nVhttp://www.buzzfeed.com/daves4/27-unexplainable-dating-site-screencaps\np2064\nsVaction.type\np2065\nVlike\np2066\nssVcluster_id\np2067\nI6005275261365\nsVcount_current_adgroups\np2068\nI1\nsVrun_status\np2069\nI1\nsVtype\np2070\nI25\nsVid\np2071\nV6005275261565\np2072\nsa(dp2073\nVrelated_fan_page\np2074\nI1\nsVname\np2075\nVSponsored story #6005275253965\np2076\nsVcreative_id\np2077\nV6005275253965\np2078\nsVpreview_url\np2079\nVhttp://www.facebook.com/ads/api/creative_preview.php?cid=6005275253965\np2080\nsVaction_spec\np2081\n(dp2082\nVobject\np2083\nVhttp://www.buzzfeed.com/microsoftbing/the-most-awesome-hotels-around-the-world-67r9\np2084\nsVaction.type\np2085\nVlike\np2086\nssVcluster_id\np2087\nI6005275253765\nsVcount_current_adgroups\np2088\nI1\nsVrun_status\np2089\nI1\nsVtype\np2090\nI25\nsVid\np2091\nV6005275253965\np2092\nsa(dp2093\nVrelated_fan_page\np2094\nI1\nsVname\np2095\nVSponsored story #6005275239565\np2096\nsVcreative_id\np2097\nV6005275239565\np2098\nsVpreview_url\np2099\nVhttp://www.facebook.com/ads/api/creative_preview.php?cid=6005275239565\np2100\nsVaction_spec\np2101\n(dp2102\nVobject\np2103\nVhttp://www.buzzfeed.com/samsonite/what-your-bag-says-about-you\np2104\nsVaction.type\np2105\nVlike\np2106\nssVcluster_id\np2107\nI6005275238765\nsVcount_current_adgroups\np2108\nI1\nsVrun_status\np2109\nI1\nsVtype\np2110\nI25\nsVid\np2111\nV6005275239565\np2112\nsa(dp2113\nValt_view_tags\np2114\n(lp2115\nsVbody\np2116\nVThat\'s how you say "Party" in Hawaiann. See how more people say "Party" around the world.\np2117\nsVimage_hash\np2118\nV23e6cb0a0807357909688554cf5e9c89\np2119\nsVname\np2120\nV'
p6
sS'hash'
p7
S'bde4b494c19a23dddd8687aa80926882ecc120bc'
p8
sS'stack'
p9
S''
s.