(dp1
S'args'
p2
S''
sS'methodname'
p3
S''
sS'packet_num'
p4
I26
sS'returnval'
p5
S'book.com/ads/api/creative_preview.php?cid=6005189805765\np3587\nsVid\np3588\nV6005189805765\np3589\nsVimage_url\np3590\nVhttps://fbcdn-creative-a.akamaihd.net/hads-ak-prn1/s110x80/708178_6006845191365_24971_n.jpg\np3591\nsVcount_current_adgroups\np3592\nI1\nsVrun_status\np3593\nI1\nsVtype\np3594\nI1\nsVlink_url\np3595\nVhttp://www.buzzfeed.com/h1/fbad/vitaminwater/20-guys-you-want-to-see-in-suspenders-60me\np3596\nsVview_tag\np3597\ng36\nsa(dp3598\nValt_view_tags\np3599\n(lp3600\nsVbody\np3601\nVSee the new poster staring Catwoman and Bane\np3602\nsVimage_hash\np3603\nV9f3967b8a56b6ea807bb8e4a42bb6991\np3604\nsVname\np3605\nVDark Knight Rises Posters\np3606\nsVtitle\np3607\nVDark Knight Rises Posters\np3608\nsVcreative_id\np3609\nV6005186795365\np3610\nsVpreview_url\np3611\nVhttp://www.facebook.com/ads/api/creative_preview.php?cid=6005186795365\np3612\nsVid\np3613\nV6005186795365\np3614\nsVimage_url\np3615\nVhttps://fbcdn-creative-a.akamaihd.net/hads-ak-prn1/s110x80/708180_6006845006365_8152_n.jpg\np3616\nsVcount_current_adgroups\np3617\nI1\nsVrun_status\np3618\nI1\nsVtype\np3619\nI1\nsVlink_url\np3620\nVhttp://buzz-us-east-1a-610948098.us-east-1.elb.amazonaws.com/rd?type=103&user=stacylambe&buzz=the-dark-knight-rises-releases-new-character-pos&url=http%3A%2F%2Fwww.buzzfeed.com%2Fstacylambe%2Fthe-dark-knight-rises-releases-new-character-pos&c=76L4HF7&u=717URX7&z=1337721427627&rd=http://www.buzzfeed.com/stacylambe/the-dark-knight-rises-releases-new-character-pos\np3621\nsVview_tag\np3622\ng36\nsa(dp3623\nValt_view_tags\np3624\n(lp3625\nsVbody\np3626\nVSky White makes the list hands down. See the who else made it. Only on BuzzFeed!\np3627\nsVimage_hash\np3628\nV3c4d52416e2eda64503901e2e16fc945\np3629\nsVname\np3630\nVThe Best Beards in Music-00-00-00\np3631\nsVtitle\np3632\nVThe Best Beards in Music\np3633\nsVcreative_id\np3634\nV6005337453565\np3635\nsVpreview_url\np3636\nVhttp://www.facebook.com/ads/api/creative_preview.php?cid=6005337453565\np3637\nsVid\np3638\nV6005337453565\np3639\nsVimage_url\np3640\nVhttps://fbcdn-creative-a.akamaihd.net/hads-ak-ash3/s110x80/701890_6006844404765_289_n.jpg\np3641\nsVcount_current_adgroups\np3642\nI1\nsVrun_status\np3643\nI1\nsVtype\np3644\nI1\nsVlink_url\np3645\nVhttp://www.buzzfeed.com/h1/fbad/jeremiahweed/the-15-best-beards-in-music-2j8r\np3646\nsVview_tag\np3647\ng36\nsa(dp3648\nValt_view_tags\np3649\n(lp3650\nsVbody\np3651\nVCheck out our look book of "The Best Bicycle Chic Street Style" - Add your own pics!\np3652\nsVimage_hash\np3653\nV5196527ecd14763b497bf4a15211e235\np3654\nsVname\np3655\nVBest Summer Accessory -00\np3656\nsVtitle\np3657\nVBest Summer Accessory \np3658\nsVcreative_id\np3659\nV6005186818365\np3660\nsVpreview_url\np3661\nVhttp://www.facebook.com/ads/api/creative_preview.php?cid=6005186818365\np3662\nsVid\np3663\nV6005186818365\np3664\nsVimage_url\np3665\nVhttps://fbcdn-creative-a.akamaihd.net/hads-ak-snc7/s110x80/701899_6006844564365_16529_n.jpg\np3666\nsVcount_current_adgroups\np3667\nI1\nsVrun_status\np3668\nI1\nsVtype\np3669\nI1\nsVlink_url\np3670\nVhttp://www.buzzfeed.com/h1/fbad/schwinn/the-best-bicycle-chic-street-style\np3671\nsVview_tag\np3672\ng36\nsa(dp3673\nValt_view_tags\np3674\n(lp3675\nsVbody\np3676\nVCheck out these great ideas for your summer photographs!\\u000a\np3677\nsVimage_hash\np3678\nV1759ba282397980fe451d61ac81114ad\np3679\nsVname\np3680\nVYou have to see this!\np3681\nsVtitle\np3682\nVYou have to see this!\np3683\nsVcreative_id\np3684\nV6005186028565\np3685\nsVpreview_url\np3686\nVhttp://www.facebook.com/ads/api/creative_preview.php?cid=6005186028565\np3687\nsVid\np3688\nV6005186028565\np3689\nsVimage_url\np3690\nVhttps://fbcdn-creative-a.akamaihd.net/hads-ak-prn1/s110x80/708166_6006844193965_32309_n.jpg\np3691\nsVcount_current_adgroups\np3692\nI1\nsVrun_status\np3693\nI1\nsVtype\np3694\nI1\nsVlink_url\np3695\nVhttp://www.buzzfeed.com/h1/fbad/rockyoursummer/top-10-things-you-should-be-photographing-this-sum-67ra\np3696\nsVview_tag\np3697\ng36\nsa(dp3698\nValt_view_tags\np3699\n(lp3700\nsVbody\np3701\nVLMFAO\'s Party Rock makes our list of the "Absolute Best Misheard Song Lyrics"\np3702\nsVimage_hash\np3703\nV1d4fded58bbf3145e90e538d601f27da\np3704\nsVname\np3705\nVParty Rockets?\np3706\nsVtitle\np3707\nVParty Rockets?\np3708\nsVcreative_id\np3709\nV6005185997365\np3710\nsVpreview_url\np3711\nV'
p6
sS'hash'
p7
S'bde4b494c19a23dddd8687aa80926882ecc120bc'
p8
sS'stack'
p9
S''
s.