(dp1
S'args'
p2
S''
sS'methodname'
p3
S''
sS'packet_num'
p4
I4
sS'returnval'
p5
S'nd How To Find Them." Only on BuzzFeed!\np541\nsVimage_hash\np542\nV9eee11c0460c4a2213acca3c1e9c8c7b\np543\nsVname\np544\nVShrimp Pimp Truck in LA-01\np545\nsVtitle\np546\nVShake Shack - NYC\np547\nsVcreative_id\np548\nV6005324822965\np549\nsVpreview_url\np550\nVhttp://www.facebook.com/ads/api/creative_preview.php?cid=6005324822965\np551\nsVid\np552\nV6005324822965\np553\nsVimage_url\np554\nVhttps://fbcdn-creative-a.akamaihd.net/hads-ak-prn1/s110x80/708180_6006845003765_4618_n.jpg\np555\nsVcount_current_adgroups\np556\nI1\nsVrun_status\np557\nI1\nsVtype\np558\nI1\nsVlink_url\np559\nVhttp://www.buzzfeed.com/h1/fbad/microsoftbing/cheap-and-delicious-eats-and-how-to-find-them\np560\nsVview_tag\np561\ng36\nsa(dp562\nValt_view_tags\np563\n(lp564\nsVbody\np565\nVCheck out "Cheap And Delicious Eats And How To Find Them." Only on BuzzFeed!\np566\nsVimage_hash\np567\nVcf2fe9dee9552252b3a32c414e6b8875\np568\nsVname\np569\nVShrimp Pimp Truck in LA-02\np570\nsVtitle\np571\nVLove Great Food & Travel?\np572\nsVcreative_id\np573\nV6005324827565\np574\nsVpreview_url\np575\nVhttp://www.facebook.com/ads/api/creative_preview.php?cid=6005324827565\np576\nsVid\np577\nV6005324827565\np578\nsVimage_url\np579\nVhttps://fbcdn-creative-a.akamaihd.net/hads-ak-prn1/s110x80/708196_6006845291365_32098_n.jpg\np580\nsVcount_current_adgroups\np581\nI1\nsVrun_status\np582\nI1\nsVtype\np583\nI1\nsVlink_url\np584\nVhttp://www.buzzfeed.com/h1/fbad/microsoftbing/cheap-and-delicious-eats-and-how-to-find-them\np585\nsVview_tag\np586\ng36\nsa(dp587\nValt_view_tags\np588\n(lp589\nsVbody\np590\nVThis is one of the "14 Types Of Friends You Have On Facebook". See the rest!\np591\nsVimage_hash\np592\nV05311d25fac735aff79cb11e2f6e9276\np593\nsVname\np594\nV14 Types of Friends\np595\nsVtitle\np596\nV14 Types of Friends\np597\nsVcreative_id\np598\nV6005324760365\np599\nsVpreview_url\np600\nVhttp://www.facebook.com/ads/api/creative_preview.php?cid=6005324760365\np601\nsVid\np602\nV6005324760365\np603\nsVimage_url\np604\nVhttps://fbcdn-creative-a.akamaihd.net/hads-ak-ash3/s110x80/708186_6006844076365_39367_n.jpg\np605\nsVcount_current_adgroups\np606\nI1\nsVrun_status\np607\nI1\nsVtype\np608\nI1\nsVlink_url\np609\nVhttp://www.buzzfeed.com/h1/fbad/microsoftbing/14-types-of-friends-you-have-on-facebook\np610\nsVview_tag\np611\ng36\nsa(dp612\nValt_view_tags\np613\n(lp614\nsVbody\np615\nVThis is one of the "14 Types Of Friends You Have On Facebook". See the rest!\np616\nsVimage_hash\np617\nV73c967e7474e35ee5670f5fa49f76ab1\np618\nsVname\np619\nV14 Types of Friends-00\np620\nsVtitle\np621\nV14 Types of Friends\np622\nsVcreative_id\np623\nV6005324763965\np624\nsVpreview_url\np625\nVhttp://www.facebook.com/ads/api/creative_preview.php?cid=6005324763965\np626\nsVid\np627\nV6005324763965\np628\nsVimage_url\np629\nVhttps://fbcdn-creative-a.akamaihd.net/hads-ak-prn1/s110x80/708168_6006844746965_32125_n.jpg\np630\nsVcount_current_adgroups\np631\nI1\nsVrun_status\np632\nI1\nsVtype\np633\nI1\nsVlink_url\np634\nVhttp://www.buzzfeed.com/h1/fbad/microsoftbing/14-types-of-friends-you-have-on-facebook\np635\nsVview_tag\np636\ng36\nsa(dp637\nVrelated_fan_page\np638\nI1\nsVname\np639\nVSponsored story #6005323727365\np640\nsVtitle\np641\nV11 Things They Don\'t Teach You In Business School\np642\nsVurl_tags\np643\nVfb_ref%3dHFBSS\np644\nsVcreative_id\np645\nV6005323727365\np646\nsVpreview_url\np647\nVhttp://www.facebook.com/ads/api/creative_preview.php?cid=6005323727365\np648\nsVaction_spec\np649\n(dp650\nVobject\np651\nVhttp://www.buzzfeed.com/samir/things-they-dont-teach-you-in-business-school\np652\nsVaction.type\np653\nVlike\np654\nssVcluster_id\np655\nI6005323727165\nsVcount_current_adgroups\np656\nI1\nsVrun_status\np657\nI1\nsVtype\np658\nI25\nsVid\np659\nV6005323727365\np660\nsa(dp661\nValt_view_tags\np662\n(lp663\nsVbody\np664\nVWish your Dad a Happy Fathers Day with this awesome list!\np665\nsVimage_hash\np666\nVd1a70ee2d1c0d861ae162ee3d5fc14b3\np667\nsVname\np668\nVThe 25 Raddest TV Dads-00-00\np669\nsVtitle\np670\nVThe 25 Raddest TV Dads\np671\nsVcreative_id\np672\nV6005313877965\np673\nsVpreview_url\np674\nVhttp://www.facebook.com/ads/api/creative_preview.php?cid=6005313877965\np675\nsVid\np676\nV6005313877965\np677\nsVimage_url\np678\nVhttps://fbcdn-creative-a.akamaihd.net/hads-ak-ash3/s110x80/701888_6006845305565_1528_n.jpg\np679\nsVcount_current_adgroups\np680\nI1\n'
p6
sS'hash'
p7
S'bde4b494c19a23dddd8687aa80926882ecc120bc'
p8
sS'stack'
p9
S''
s.