(dp1
S'args'
p2
S''
sS'methodname'
p3
S''
sS'packet_num'
p4
I86
sS'returnval'
p5
S'you guess them all?\np11309\nsVimage_hash\np11310\nVea7fe2bb96a1a47fdb28029371b9accd\np11311\nsVname\np11312\nVBuzzFeed-28\np11313\nsVtitle\np11314\ng36\nsVcreative_id\np11315\nV6004324557565\np11316\nsVpreview_url\np11317\nVhttp://www.facebook.com/ads/api/creative_preview.php?cid=6004324557565\np11318\nsVobject_id\np11319\nI21898300328\nsVid\np11320\nV6004324557565\np11321\nsVimage_url\np11322\nVhttps://fbcdn-creative-a.akamaihd.net/hads-ak-prn1/s110x80/708199_6006845466565_54318_n.jpg\np11323\nsVcount_current_adgroups\np11324\nI1\nsVrun_status\np11325\nI1\nsVtype\np11326\nI2\nsVlink_url\np11327\nVhttp://www.facebook.com/BuzzFeed?sk=wall\np11328\nsVview_tag\np11329\ng36\nsa(dp11330\nValt_view_tags\np11331\n(lp11332\nsVbody\np11333\nVCheck out BuzzFeed\'s list of "The 10 Most Tattooed Cities In America". Can you guess them all?\np11334\nsVimage_hash\np11335\nVde3baaf537a48e34fb4fe81c80cf049e\np11336\nsVname\np11337\nVBuzzFeed-29\np11338\nsVtitle\np11339\ng36\nsVcreative_id\np11340\nV6004324559765\np11341\nsVpreview_url\np11342\nVhttp://www.facebook.com/ads/api/creative_preview.php?cid=6004324559765\np11343\nsVobject_id\np11344\nI21898300328\nsVid\np11345\nV6004324559765\np11346\nsVimage_url\np11347\nVhttps://fbcdn-creative-a.akamaihd.net/hads-ak-prn1/s110x80/708179_6006845384565_42172_n.jpg\np11348\nsVcount_current_adgroups\np11349\nI1\nsVrun_status\np11350\nI1\nsVtype\np11351\nI2\nsVlink_url\np11352\nVhttp://www.facebook.com/BuzzFeed?sk=wall\np11353\nsVview_tag\np11354\ng36\nsa(dp11355\nValt_view_tags\np11356\n(lp11357\nsVbody\np11358\nVCheck out BuzzFeed\'s list of "The 10 Most Tattooed Cities In America". Your city is on the list! Can you guess the rest?\np11359\nsVimage_hash\np11360\nVde3baaf537a48e34fb4fe81c80cf049e\np11361\nsVname\np11362\nVBuzzFeed-30\np11363\nsVtitle\np11364\ng36\nsVcreative_id\np11365\nV6004324562165\np11366\nsVpreview_url\np11367\nVhttp://www.facebook.com/ads/api/creative_preview.php?cid=6004324562165\np11368\nsVobject_id\np11369\nI21898300328\nsVid\np11370\nV6004324562165\np11371\nsVimage_url\np11372\nVhttps://fbcdn-creative-a.akamaihd.net/hads-ak-prn1/s110x80/708179_6006845384565_42172_n.jpg\np11373\nsVcount_current_adgroups\np11374\nI1\nsVrun_status\np11375\nI1\nsVtype\np11376\nI2\nsVlink_url\np11377\nVhttp://www.facebook.com/BuzzFeed?sk=wall\np11378\nsVview_tag\np11379\ng36\nsa(dp11380\nValt_view_tags\np11381\n(lp11382\nsVbody\np11383\nVCheck out BuzzFeed\'s list of "The 10 Most Tattooed Cities In America". Your city is on the list! Can you guess the rest?\np11384\nsVimage_hash\np11385\nVea7fe2bb96a1a47fdb28029371b9accd\np11386\nsVname\np11387\nVBuzzFeed-31\np11388\nsVtitle\np11389\ng36\nsVcreative_id\np11390\nV6004324564365\np11391\nsVpreview_url\np11392\nVhttp://www.facebook.com/ads/api/creative_preview.php?cid=6004324564365\np11393\nsVobject_id\np11394\nI21898300328\nsVid\np11395\nV6004324564365\np11396\nsVimage_url\np11397\nVhttps://fbcdn-creative-a.akamaihd.net/hads-ak-prn1/s110x80/708199_6006845466565_54318_n.jpg\np11398\nsVcount_current_adgroups\np11399\nI1\nsVrun_status\np11400\nI1\nsVtype\np11401\nI2\nsVlink_url\np11402\nVhttp://www.facebook.com/BuzzFeed?sk=wall\np11403\nsVview_tag\np11404\ng36\nsa(dp11405\nValt_view_tags\np11406\n(lp11407\nsVbody\np11408\nVA whole army of Jedis and Sith squared off in NYC yesterday, and even managed to get some bystanders into the fight. Check it out!\np11409\nsVimage_hash\np11410\nV616fb5bf8b5f8790458c0c3f61b0853b\np11411\nsVname\np11412\nVBuzzFeed-27\np11413\nsVtitle\np11414\ng36\nsVcreative_id\np11415\nV6004300744765\np11416\nsVpreview_url\np11417\nVhttp://www.facebook.com/ads/api/creative_preview.php?cid=6004300744765\np11418\nsVobject_id\np11419\nI21898300328\nsVid\np11420\nV6004300744765\np11421\nsVimage_url\np11422\nVhttps://fbcdn-creative-a.akamaihd.net/hads-ak-ash3/s110x80/701903_6006844645365_48116_n.jpg\np11423\nsVcount_current_adgroups\np11424\nI2\nsVrun_status\np11425\nI1\nsVtype\np11426\nI2\nsVlink_url\np11427\nVhttp://www.facebook.com/BuzzFeed?sk=wall\np11428\nsVview_tag\np11429\ng36\nsa(dp11430\nValt_view_tags\np11431\n(lp11432\nsVbody\np11433\nVCheck out "20 Pictures That Will Give You Holiday Cheer" by BuzzFeed.  These pictures are bound to put a smile on your face!\np11434\nsVimage_hash\np11435\nVe04b6143c07db022699565404d609707\np11436\nsVname\np11437\nV20 Reasons To Smile!-00\np11438\nsVtitle\np11439\nV20 '
p6
sS'hash'
p7
S'bde4b494c19a23dddd8687aa80926882ecc120bc'
p8
sS'stack'
p9
S''
s.