(dp1
S'args'
p2
S''
sS'methodname'
p3
S''
sS'packet_num'
p4
I64
sS'returnval'
p5
S"\np12695\nI65\nsVcountries\np12696\n(lp12697\nVUS\np12698\nasVbroad_age\np12699\nI1\nsVage_min\np12700\nI13\nssVbid_info\np12701\n(dp12702\nV1\np12703\nV65\np12704\nssVstart_time\np12705\nNsVad_status\np12706\nI2\nsVcampaign_id\np12707\nI6005543516365\nsVlocations\np12708\n(lp12709\nI3\nasVcreated_time\np12710\nV2012-07-25T19:02:04+0000\np12711\nsVend_time\np12712\nNsVadgroup_status\np12713\nI9\nsVid\np12714\nV6005554165365\np12715\nsVad_id\np12716\nI6005554165365\nsVimpression_control_map\np12717\n(lp12718\n(dp12719\nVcontrol\np12720\n(dp12721\nVuser_impression_limit_period\np12722\nI24\nsVuser_impression_limit\np12723\nI3\nsVuser_impression_limit_period_unit\np12724\nI0\nsVimpression_control_type\np12725\nI2\nssVlocation\np12726\nI3\nsasVcreative_ids\np12727\n(lp12728\nI6005543516965\nasVmax_bid\np12729\nV65\np12730\nsVadgroup_id\np12731\nI6005554165365\nsVaccount_id\np12732\nI40156177\nsa(dp12733\nVconversion_specs\np12734\n(lp12735\nsVupdated_time\np12736\nV2012-09-21T20:11:14+0000\np12737\nsVbid_type\np12738\nI1\nsVname\np12739\nVCat\np12740\nsVtracking_pixel_ids\np12741\n(lp12742\nsVtargeting\np12743\n(dp12744\nVkeywords\np12745\n(lp12746\nV#Kitten\np12747\naV#Cat\np12748\nasVage_max\np12749\nI65\nsVcountries\np12750\n(lp12751\nVUS\np12752\nasVbroad_age\np12753\nI1\nsVage_min\np12754\nI13\nssVbid_info\np12755\n(dp12756\nV1\np12757\nV85\np12758\nssVstart_time\np12759\nNsVad_status\np12760\nI2\nsVcampaign_id\np12761\nI6005545427965\nsVlocations\np12762\n(lp12763\nI3\nasVcreated_time\np12764\nV2012-07-24T15:55:32+0000\np12765\nsVend_time\np12766\nV2012-08-04T03:30:00+0000\np12767\nsVadgroup_status\np12768\nI8\nsVid\np12769\nV6005545491165\np12770\nsVad_id\np12771\nI6005545491165\nsVimpression_control_map\np12772\n(lp12773\n(dp12774\nVcontrol\np12775\n(dp12776\nVuser_impression_limit_period\np12777\nI24\nsVuser_impression_limit\np12778\nI3\nsVuser_impression_limit_period_unit\np12779\nI0\nsVimpression_control_type\np12780\nI2\nssVlocation\np12781\nI3\nsasVcreative_ids\np12782\n(lp12783\nI6005545490765\nasVmax_bid\np12784\nV85\np12785\nsVadgroup_id\np12786\nI6005545491165\nsVaccount_id\np12787\nI40156177\nsa(dp12788\nVconversion_specs\np12789\n(lp12790\nsVupdated_time\np12791\nV2012-08-01T16:44:51+0000\np12792\nsVbid_type\np12793\nI1\nsVname\np12794\nVDog\np12795\nsVtracking_pixel_ids\np12796\n(lp12797\nsVtargeting\np12798\n(dp12799\nVkeywords\np12800\n(lp12801\nV#Dog\np12802\nasVage_max\np12803\nI65\nsVcountries\np12804\n(lp12805\nVUS\np12806\nasVbroad_age\np12807\nI1\nsVage_min\np12808\nI13\nssVbid_info\np12809\n(dp12810\nV1\np12811\nV85\np12812\nssVstart_time\np12813\nNsVad_status\np12814\nI2\nsVcampaign_id\np12815\nI6005545427965\nsVlocations\np12816\n(lp12817\nI3\nasVcreated_time\np12818\nV2012-07-24T15:35:41+0000\np12819\nsVend_time\np12820\nV2012-08-04T03:30:00+0000\np12821\nsVadgroup_status\np12822\nI9\nsVid\np12823\nV6005545428965\np12824\nsVad_id\np12825\nI6005545428965\nsVimpression_control_map\np12826\n(lp12827\n(dp12828\nVcontrol\np12829\n(dp12830\nVuser_impression_limit_period\np12831\nI24\nsVuser_impression_limit\np12832\nI6\nsVuser_impression_limit_period_unit\np12833\nI0\nsVimpression_control_type\np12834\nI2\nssVlocation\np12835\nI3\nsasVcreative_ids\np12836\n(lp12837\nI6005545428565\nasVmax_bid\np12838\nV85\np12839\nsVadgroup_id\np12840\nI6005545428965\nsVaccount_id\np12841\nI40156177\nsa(dp12842\nVconversion_specs\np12843\n(lp12844\nsVupdated_time\np12845\nV2012-08-03T18:22:46+0000\np12846\nsVbid_type\np12847\nI1\nsVname\np12848\nVWhat's Going On Here?\np12849\nsVtracking_pixel_ids\np12850\n(lp12851\nsVtargeting\np12852\n(dp12853\nVkeywords\np12854\n(lp12855\nV#PetSmart\np12856\naV#Dog Chow\np12857\naV#Westminster Kennel Club Dog Show\np12858\naVpuppies\np12859\naV#Humane society\np12860\naV#Puppy love\np12861\naV#Humane Society of the United States\np12862\naV#Dog\np12863\naV#Puppy\np12864\nasVage_max\np12865\nI65\nsVcountries\np12866\n(lp12867\nVUS\np12868\nasVbroad_age\np12869\nI1\nsVage_min\np12870\nI13\nssVbid_info\np12871\n(dp12872\nV1\np12873\nV85\np12874\nssVstart_time\np12875\nNsVad_status\np12876\nI2\nsVcampaign_id\np12877\nI6005545427965\nsVlocations\np12878\n(lp12879\nI3\nasVcreated_time\np12880\nV2012-08-01T16:44:31+0000\np12881\nsVend_time\np12882\nNsVadgroup_status\np12883\nI9\nsVid\np12884\nV6005583092165\np12885\nsVad_id\np12886\nI6005583092165\nsVimpression_control_map\np12887\n(lp12888\n(dp12889\nVcontrol\np12890\n(dp12891\nVuser_impression_limit_period\np12892\nI24\nsVuser_impression_li"
p6
sS'hash'
p7
S'c6dde17efe2bef3771476bb988980887eb001dad'
p8
sS'stack'
p9
S''
s.