(dp1
S'args'
p2
S''
sS'methodname'
p3
S''
sS'packet_num'
p4
I266
sS'returnval'
p5
S'p50258\nI3\nasVadgroup_status\np50259\nI9\nsVad_status\np50260\nI2\nsVimpression_control_map\np50261\n(lp50262\n(dp50263\nVcontrol\np50264\n(dp50265\nVuser_impression_limit_period\np50266\nI24\nsVuser_impression_limit\np50267\nI3\nsVuser_impression_limit_period_unit\np50268\nI0\nsVimpression_control_type\np50269\nI2\nssVlocation\np50270\nI3\nsasVcreative_ids\np50271\n(lp50272\nI6005889669765\nasVtracking_pixel_ids\np50273\n(lp50274\nsVbid_type\np50275\nI1\nsVname\np50276\nVWilly Wonka GIF\np50277\nsVupdated_time\np50278\nV2012-10-05T13:38:36+0000\np50279\nsVend_time\np50280\nV2012-10-06T03:30:00+0000\np50281\nsa(dp50282\nVbid_info\np50283\n(dp50284\nV1\np50285\nV65\np50286\nssVcampaign_id\np50287\nI6005889658565\nsVlast_updated_by_app_id\np50288\nI6802152230\nsVcreated_time\np50289\nV2012-09-24T18:06:57+0000\np50290\nsVconversion_specs\np50291\n(lp50292\nsVadgroup_id\np50293\nI6005889678765\nsVtargeting\np50294\n(dp50295\nVkeywords\np50296\n(lp50297\nV#Batman Returns\np50298\naV#Jack Nicholson\np50299\naV#Tim Burton\np50300\naV#Batman Forever\np50301\naV#Batman (1989 film)\np50302\naV#Frankenweenie (2012 film)\np50303\naV#The Nightmare Before Christmas\np50304\naV#Joker (comics)\np50305\naV#Edward Scissorhands\np50306\nasVage_max\np50307\nI65\nsVcountries\np50308\n(lp50309\nVUS\np50310\nasVbroad_age\np50311\nI1\nsVage_min\np50312\nI13\nssVid\np50313\nV6005889678765\np50314\nsVmax_bid\np50315\nV65\np50316\nsVad_id\np50317\nI6005889678765\nsVaccount_id\np50318\nI40156177\nsVstart_time\np50319\nNsVlocations\np50320\n(lp50321\nI3\nasVadgroup_status\np50322\nI9\nsVad_status\np50323\nI2\nsVimpression_control_map\np50324\n(lp50325\n(dp50326\nVcontrol\np50327\n(dp50328\nVuser_impression_limit_period\np50329\nI24\nsVuser_impression_limit\np50330\nI3\nsVuser_impression_limit_period_unit\np50331\nI0\nsVimpression_control_type\np50332\nI2\nssVlocation\np50333\nI3\nsasVcreative_ids\np50334\n(lp50335\nI6005889678365\nasVtracking_pixel_ids\np50336\n(lp50337\nsVbid_type\np50338\nI1\nsVname\np50339\nVJack Nicholson as Joker\np50340\nsVupdated_time\np50341\nV2012-10-05T13:38:35+0000\np50342\nsVend_time\np50343\nV2012-10-06T03:30:00+0000\np50344\nsa(dp50345\nVconversion_specs\np50346\n(lp50347\nsVupdated_time\np50348\nV2012-09-24T22:17:05+0000\np50349\nsVbid_type\np50350\nI1\nsVname\np50351\nVPaul & Zooey!\np50352\nsVtracking_pixel_ids\np50353\n(lp50354\nsVtargeting\np50355\n(dp50356\nVkeywords\np50357\n(lp50358\nV#Elf (film)\np50359\naV#She & Him\np50360\naV#Paul McCartney\np50361\naV#(500) Days of Summer\np50362\naV#The Beatles\np50363\naV#The Beatles (album)\np50364\naV#Zooey Deschanel\np50365\naV#Wings (band)\np50366\naV#New Girl (TV series)\np50367\nasVage_max\np50368\nI65\nsVcountries\np50369\n(lp50370\nVUS\np50371\nasVbroad_age\np50372\nI1\nsVage_min\np50373\nI13\nssVbid_info\np50374\n(dp50375\nV1\np50376\nV65\np50377\nssVstart_time\np50378\nNsVad_status\np50379\nI1\nsVcampaign_id\np50380\nI6005889844165\nsVlocations\np50381\n(lp50382\nI3\nasVcreated_time\np50383\nV2012-09-24T18:59:16+0000\np50384\nsVend_time\np50385\nNsVadgroup_status\np50386\nI1\nsVid\np50387\nV6005889845165\np50388\nsVad_id\np50389\nI6005889845165\nsVimpression_control_map\np50390\n(lp50391\n(dp50392\nVcontrol\np50393\n(dp50394\nVuser_impression_limit_period\np50395\nI24\nsVuser_impression_limit\np50396\nI6\nsVuser_impression_limit_period_unit\np50397\nI0\nsVimpression_control_type\np50398\nI2\nssVlocation\np50399\nI3\nsasVcreative_ids\np50400\n(lp50401\nI6005889844765\nasVmax_bid\np50402\nV65\np50403\nsVadgroup_id\np50404\nI6005889845165\nsVaccount_id\np50405\nI40156177\nsa(dp50406\nVconversion_specs\np50407\n(lp50408\nsVupdated_time\np50409\nV2012-09-24T19:53:57+0000\np50410\nsVbid_type\np50411\nI1\nsVname\np50412\nVIs that NPH & Colbert?\np50413\nsVtracking_pixel_ids\np50414\n(lp50415\nsVtargeting\np50416\n(dp50417\nVkeywords\np50418\n(lp50419\nV#The Colbert Report\np50420\naV#How I Met Your Mother\np50421\naV#Jon Stewart\np50422\naV#Doogie Howser, M.D.\np50423\naV#Company (musical)\np50424\naV#Stephen Colbert (character)\np50425\naV#Neil Patrick Harris\np50426\naV#Stephen Colbert\np50427\nasVage_max\np50428\nI65\nsVcountries\np50429\n(lp50430\nVUS\np50431\nasVbroad_age\np50432\nI1\nsVage_min\np50433\nI13\nssVbid_info\np50434\n(dp50435\nV1\np50436\nV65\np50437\nssVstart_time\np50438\nNsVad_status\np50439\nI1\nsVcampaign_id\np50440\nI6005889844165\nsVlocations\np50441\n(lp50442\nI3\nasVcreated_time\np50443\nV2012-09-24T19:04:27+0000\np50444'
p6
sS'hash'
p7
S'c6dde17efe2bef3771476bb988980887eb001dad'
p8
sS'stack'
p9
S''
s.