(dp1
S'args'
p2
S''
sS'methodname'
p3
S''
sS'packet_num'
p4
I114
sS'returnval'
p5
S' channel)\np22103\naV#Xbox\np22104\nasVage_max\np22105\nI65\nsVcountries\np22106\n(lp22107\nVUS\np22108\nasVbroad_age\np22109\nI1\nsVage_min\np22110\nI13\nssVid\np22111\nV6005615520165\np22112\nsVmax_bid\np22113\nV67\np22114\nsVad_id\np22115\nI6005615520165\nsVaccount_id\np22116\nI40156177\nsVstart_time\np22117\nNsVlocations\np22118\n(lp22119\nI3\nasVadgroup_status\np22120\nI9\nsVad_status\np22121\nI2\nsVimpression_control_map\np22122\n(lp22123\n(dp22124\nVcontrol\np22125\n(dp22126\nVuser_impression_limit_period\np22127\nI24\nsVuser_impression_limit\np22128\nI3\nsVuser_impression_limit_period_unit\np22129\nI0\nsVimpression_control_type\np22130\nI2\nssVlocation\np22131\nI3\nsasVcreative_ids\np22132\n(lp22133\nI6005615519765\nasVtracking_pixel_ids\np22134\n(lp22135\nsVbid_type\np22136\nI1\nsVname\np22137\nVOld School Mug Shots!\np22138\nsVupdated_time\np22139\nV2012-08-15T13:38:58+0000\np22140\nsVend_time\np22141\nV2012-08-17T03:30:00+0000\np22142\nsa(dp22143\nVconversion_specs\np22144\n(lp22145\nsVupdated_time\np22146\nV2012-08-09T19:22:56+0000\np22147\nsVbid_type\np22148\nI1\nsVname\np22149\nVRob Pattinson!\np22150\nsVtracking_pixel_ids\np22151\n(lp22152\nsVtargeting\np22153\n(dp22154\nVkeywords\np22155\n(lp22156\nVnew moon\np22157\naVteam twilight\np22158\naV#The Twilight Saga (film series)\np22159\naV#Edward Cullen\np22160\naV#Kristen Stewart\np22161\naV#New Moon (novel)\np22162\naV#Robert Pattinson\np22163\nasVage_max\np22164\nI30\nsVcountries\np22165\n(lp22166\nVUS\np22167\nasVbroad_age\np22168\nI1\nsVage_min\np22169\nI13\nssVbid_info\np22170\n(dp22171\nV1\np22172\nV75\np22173\nssVstart_time\np22174\nNsVad_status\np22175\nI2\nsVcampaign_id\np22176\nI6005615799565\nsVlocations\np22177\n(lp22178\nI3\nasVcreated_time\np22179\nV2012-08-08T17:59:31+0000\np22180\nsVend_time\np22181\nNsVadgroup_status\np22182\nI8\nsVid\np22183\nV6005615800565\np22184\nsVad_id\np22185\nI6005615800565\nsVimpression_control_map\np22186\n(lp22187\n(dp22188\nVcontrol\np22189\n(dp22190\nVuser_impression_limit_period\np22191\nI24\nsVuser_impression_limit\np22192\nI6\nsVuser_impression_limit_period_unit\np22193\nI0\nsVimpression_control_type\np22194\nI2\nssVlocation\np22195\nI3\nsasVcreative_ids\np22196\n(lp22197\nI6005615800165\nasVmax_bid\np22198\nV75\np22199\nsVadgroup_id\np22200\nI6005615800565\nsVaccount_id\np22201\nI40156177\nsa(dp22202\nVbid_info\np22203\n(dp22204\nV1\np22205\nV75\np22206\nssVcampaign_id\np22207\nI6005615992965\nsVlast_updated_by_app_id\np22208\nI6802152230\nsVcreated_time\np22209\nV2012-08-08T19:24:03+0000\np22210\nsVconversion_specs\np22211\n(lp22212\nsVadgroup_id\np22213\nI6005615993965\nsVtargeting\np22214\n(dp22215\nVkeywords\np22216\n(lp22217\nV#Modern Family\np22218\naV#Weeds (TV series)\np22219\naV#Pretty Little Liars (TV series)\np22220\naV#Mad Men\np22221\naV#Glee (TV series)\np22222\naV#Parenthood (2010 TV series)\np22223\naV#Gossip Girl\np22224\nasVage_max\np22225\nI65\nsVcountries\np22226\n(lp22227\nVUS\np22228\nasVbroad_age\np22229\nI1\nsVage_min\np22230\nI13\nssVid\np22231\nV6005615993965\np22232\nsVmax_bid\np22233\nV75\np22234\nsVad_id\np22235\nI6005615993965\nsVaccount_id\np22236\nI40156177\nsVstart_time\np22237\nNsVlocations\np22238\n(lp22239\nI3\nasVadgroup_status\np22240\nI8\nsVad_status\np22241\nI2\nsVimpression_control_map\np22242\n(lp22243\n(dp22244\nVcontrol\np22245\n(dp22246\nVuser_impression_limit_period\np22247\nI24\nsVuser_impression_limit\np22248\nI3\nsVuser_impression_limit_period_unit\np22249\nI0\nsVimpression_control_type\np22250\nI2\nssVlocation\np22251\nI3\nsasVcreative_ids\np22252\n(lp22253\nI6005615993565\nasVtracking_pixel_ids\np22254\n(lp22255\nsVbid_type\np22256\nI1\nsVname\np22257\nVSofia - All Targets\np22258\nsVupdated_time\np22259\nV2012-09-21T20:13:07+0000\np22260\nsVend_time\np22261\nNsa(dp22262\nVconversion_specs\np22263\n(lp22264\nsVupdated_time\np22265\nV2012-09-21T20:13:07+0000\np22266\nsVbid_type\np22267\nI1\nsVname\np22268\nVSofia - Male Targets\np22269\nsVtracking_pixel_ids\np22270\n(lp22271\nsVtargeting\np22272\n(dp22273\nVage_max\np22274\nI65\nsVcountries\np22275\n(lp22276\nVUS\np22277\nasVbroad_age\np22278\nI1\nsVage_min\np22279\nI13\nsVkeywords\np22280\n(lp22281\nV#Modern Family\np22282\naV#Weeds (TV series)\np22283\naV#Pretty Little Liars (TV series)\np22284\naV#Mad Men\np22285\naV#Glee (TV series)\np22286\naV#Parenthood (2010 TV series)\np22287\naV#Gossip Girl\np22288\nasVgenders\np22289\n(lp22290\nI1\nassVbid_info\np22291\n(dp22292\nV1\np22293\nV75\np22294\ns'
p6
sS'hash'
p7
S'c6dde17efe2bef3771476bb988980887eb001dad'
p8
sS'stack'
p9
S''
s.