(dp1
S'args'
p2
S''
sS'methodname'
p3
S''
sS'packet_num'
p4
I295
sS'returnval'
p5
S"5630\naV#Breakfast\np55631\naV#Pink's Hot Dogs\np55632\naV#Hillbilly Hot Dogs\np55633\naV#Pizza Hut\np55634\naV#Paula Deen\np55635\naV#Ranch dressing\np55636\naV#Giada De Laurentiis\np55637\naV#Anthony Bourdain: No Reservations\np55638\naV#Betty Crocker\np55639\naV#Anthony Bourdain\np55640\naV#Emeril Lagasse\np55641\naV#Brunch\np55642\naV#Cooking\np55643\naV#Top Chef\np55644\naV#Rachel Ray (novel)\np55645\naV#Allrecipes.com\np55646\nasVage_max\np55647\nI65\nsVcountries\np55648\n(lp55649\nVUS\np55650\nasVbroad_age\np55651\nI1\nsVage_min\np55652\nI13\nssVid\np55653\nV6005942314165\np55654\nsVobjective\np55655\nI2\nsVmax_bid\np55656\nV65\np55657\nsVad_id\np55658\nI6005942314165\nsVaccount_id\np55659\nI40156177\nsVstart_time\np55660\nNsVlocations\np55661\n(lp55662\nI3\nasVadgroup_status\np55663\nI1\nsVad_status\np55664\nI1\nsVimpression_control_map\np55665\n(lp55666\n(dp55667\nVcontrol\np55668\n(dp55669\nVuser_impression_limit_period\np55670\nI24\nsVuser_impression_limit\np55671\nI3\nsVuser_impression_limit_period_unit\np55672\nI0\nsVimpression_control_type\np55673\nI2\nssVlocation\np55674\nI3\nsasVcreative_ids\np55675\n(lp55676\nI6005942313765\nasVtracking_pixel_ids\np55677\n(lp55678\nsVbid_type\np55679\nI1\nsVname\np55680\nVHot Dog w/Ranch?\np55681\nsVupdated_time\np55682\nV2012-09-29T20:38:03+0000\np55683\nsVend_time\np55684\nNsa(dp55685\nVconversion_specs\np55686\n(lp55687\nsVupdated_time\np55688\nV2012-10-03T18:51:08+0000\np55689\nsVbid_type\np55690\nI1\nsVname\np55691\nVDonald Glover\np55692\nsVtracking_pixel_ids\np55693\n(lp55694\nsVtargeting\np55695\n(dp55696\nVkeywords\np55697\n(lp55698\nV#It's Always Sunny in Philadelphia\np55699\naV#30 Rock\np55700\naV#The Soup\np55701\naV#Community (TV series)\np55702\naV#The Office (U.S. TV series)\np55703\naV#Chevy Chase\np55704\naVparks recreation\np55705\naVcommunity\np55706\naVarrested development\np55707\naV#Donald Glover\np55708\naV#Parks and Recreation\np55709\naV#Joel McHale\np55710\naV#Tina Fey\np55711\naV#Alison Brie\np55712\naV#Danny Pudi\np55713\naVchildish gambino\np55714\naV#Arrested Development (TV series)\np55715\nasVage_max\np55716\nI65\nsVcountries\np55717\n(lp55718\nVUS\np55719\nasVbroad_age\np55720\nI1\nsVage_min\np55721\nI13\nssVbid_info\np55722\n(dp55723\nV1\np55724\nV65\np55725\nssVstart_time\np55726\nNsVad_status\np55727\nI1\nsVcampaign_id\np55728\nI6005954248365\nsVlocations\np55729\n(lp55730\nI3\nasVcreated_time\np55731\nV2012-10-01T14:16:37+0000\np55732\nsVend_time\np55733\nV2012-10-04T06:25:00+0000\np55734\nsVadgroup_status\np55735\nI1\nsVid\np55736\nV6005954343165\np55737\nsVad_id\np55738\nI6005954343165\nsVimpression_control_map\np55739\n(lp55740\n(dp55741\nVcontrol\np55742\n(dp55743\nVuser_impression_limit_period\np55744\nI24\nsVuser_impression_limit\np55745\nI6\nsVuser_impression_limit_period_unit\np55746\nI0\nsVimpression_control_type\np55747\nI2\nssVlocation\np55748\nI3\nsasVcreative_ids\np55749\n(lp55750\nI6005954342765\nasVmax_bid\np55751\nV65\np55752\nsVadgroup_id\np55753\nI6005954343165\nsVaccount_id\np55754\nI40156177\nsa(dp55755\nVbid_info\np55756\n(dp55757\nV1\np55758\nV65\np55759\nssVcampaign_id\np55760\nI6005954248365\nsVlast_updated_by_app_id\np55761\nI6802152230\nsVcreated_time\np55762\nV2012-10-01T13:36:48+0000\np55763\nsVconversion_specs\np55764\n(lp55765\nsVadgroup_id\np55766\nI6005954249365\nsVtargeting\np55767\n(dp55768\nVkeywords\np55769\n(lp55770\nV#I Can Has Cheezburger?\np55771\naV#Cats (film)\np55772\naV#Maru (cat)\np55773\naV#Stray Cats\np55774\naV#Kitten\np55775\naV#Hello Kitty\np55776\naV#Lolcat\np55777\naV#Cat\np55778\naV#Internet meme\np55779\naV#Digg\np55780\naV#Hello Kitty Online\np55781\naV#Cats 101\np55782\naV#LOLCat Bible Translation Project\np55783\naV#Reddit\np55784\naV#EBaum's World\np55785\naV#Cats and Kittens\np55786\naV#Cats Protection\np55787\naV#4chan\np55788\naV#Nyan Cat\np55789\nasVage_max\np55790\nI65\nsVcountries\np55791\n(lp55792\nVUS\np55793\nasVbroad_age\np55794\nI1\nsVage_min\np55795\nI13\nssVid\np55796\nV6005954249365\np55797\nsVmax_bid\np55798\nV65\np55799\nsVad_id\np55800\nI6005954249365\nsVaccount_id\np55801\nI40156177\nsVstart_time\np55802\nNsVlocations\np55803\n(lp55804\nI3\nasVadgroup_status\np55805\nI9\nsVad_status\np55806\nI2\nsVimpression_control_map\np55807\n(lp55808\n(dp55809\nVcontrol\np55810\n(dp55811\nVuser_impression_limit_period\np55812\nI24\nsVuser_impression_limit\np55813\nI3\nsVuser_impression_limit_period_unit\np55814\nI0\nsVimpression_control_type\np55815\nI2"
p6
sS'hash'
p7
S'c6dde17efe2bef3771476bb988980887eb001dad'
p8
sS'stack'
p9
S''
s.