(dp1
S'args'
p2
S''
sS'methodname'
p3
S''
sS'packet_num'
p4
I300
sS'returnval'
p5
S"ssion_control_type\np56508\nI2\nssVlocation\np56509\nI3\nsasVcreative_ids\np56510\n(lp56511\nI6005954988565\nasVtracking_pixel_ids\np56512\n(lp56513\nsVbid_type\np56514\nI1\nsVname\np56515\nVTollbooth Accidents?\np56516\nsVupdated_time\np56517\nV2012-10-03T15:44:44+0000\np56518\nsVend_time\np56519\nV2012-10-04T06:35:00+0000\np56520\nsa(dp56521\nVbid_info\np56522\n(dp56523\nV1\np56524\nV65\np56525\nssVcampaign_id\np56526\nI6005954987965\nsVlast_updated_by_app_id\np56527\nI6802152230\nsVcreated_time\np56528\nV2012-10-01T16:47:03+0000\np56529\nsVconversion_specs\np56530\n(lp56531\nsVadgroup_id\np56532\nI6005954999165\nsVtargeting\np56533\n(dp56534\nVkeywords\np56535\n(lp56536\nV#Rory McIlroy\np56537\naV#PGA European Tour\np56538\naV#Jack Nicklaus\np56539\naV#Tiger Woods PGA Tour 11\np56540\naV#Professional golf tours\np56541\naV#Phil Mickelson\np56542\naV#Golf course\np56543\naV#Tiger Woods\np56544\naV#Tiger Woods PGA Tour 2005\np56545\naV#Masters Tournament\np56546\naVtaylormade golf\np56547\naV#Tiger Woods PGA Tour 10\np56548\naV#Nike, Inc.\np56549\naV#PGA Tour series\np56550\naV#Tiger Woods PGA Tour Online\np56551\naV#Tiger Woods PGA Tour 07\np56552\naV#Titleist\np56553\naV#Volkswagen Golf\np56554\naV#PGA Tour\np56555\naV#Callaway Golf Company\np56556\naV#Golf\np56557\naV#Tiger Woods PGA Tour 12\np56558\naV#LPGA\np56559\naV#Tiger Woods PGA Tour 09\np56560\naV#Ping (golf)\np56561\naV#Michelle Wie\np56562\naV#PGA Championship\np56563\naV#TaylorMade-Adidas\np56564\nasVage_max\np56565\nI65\nsVcountries\np56566\n(lp56567\nVUS\np56568\nasVbroad_age\np56569\nI1\nsVage_min\np56570\nI13\nssVid\np56571\nV6005954999165\np56572\nsVmax_bid\np56573\nV65\np56574\nsVad_id\np56575\nI6005954999165\nsVaccount_id\np56576\nI40156177\nsVstart_time\np56577\nNsVlocations\np56578\n(lp56579\nI3\nasVadgroup_status\np56580\nI9\nsVad_status\np56581\nI2\nsVimpression_control_map\np56582\n(lp56583\n(dp56584\nVcontrol\np56585\n(dp56586\nVuser_impression_limit_period\np56587\nI24\nsVuser_impression_limit\np56588\nI3\nsVuser_impression_limit_period_unit\np56589\nI0\nsVimpression_control_type\np56590\nI2\nssVlocation\np56591\nI3\nsasVcreative_ids\np56592\n(lp56593\nI6005954998765\nasVtracking_pixel_ids\np56594\n(lp56595\nsVbid_type\np56596\nI1\nsVname\np56597\nVLuxury Golf Clubs?\np56598\nsVupdated_time\np56599\nV2012-10-03T15:44:42+0000\np56600\nsVend_time\np56601\nV2012-10-04T06:35:00+0000\np56602\nsa(dp56603\nVconversion_specs\np56604\n(lp56605\nsVupdated_time\np56606\nV2012-10-02T13:28:23+0000\np56607\nsVbid_type\np56608\nI1\nsVname\np56609\nVA Wild Pikachu ?\np56610\nsVtracking_pixel_ids\np56611\n(lp56612\nsVtargeting\np56613\n(dp56614\nVkeywords\np56615\n(lp56616\nV#Pok\xe9mon Ruby and Sapphire\np56617\naV#Pok\xe9mon (video game series)\np56618\naV#Pok\xe9mon HeartGold and SoulSilver\np56619\naV#Pok\xe9mon Platinum\np56620\naV#Pok\xe9mon FireRed and LeafGreen\np56621\naV#Pok\xe9mon crime syndicates\np56622\naV#Pok\xe9mon Black and White\np56623\naV#Ash Ketchum\np56624\naV#Pok\xe9Park Wii: Pikachu's Adventure\np56625\naV#Pok\xe9mon Gold and Silver\np56626\naV#Cat\np56627\naV#Pok\xe9mon Diamond and Pearl\np56628\naV#Pok\xe9mon\np56629\naV#Cuteness\np56630\naV#Pok\xe9mon (anime)\np56631\naV#Hey You, Pikachu!\np56632\naV#Pok\xe9mon Trading Card Game\np56633\naV#Brock (Pok\xe9mon)\np56634\naV#Pikachu\np56635\naV#Pok\xe9mon (manga)\np56636\naV#Pok\xe9mon Trainer\np56637\naV#Misty (Pok\xe9mon)\np56638\naV#Gameplay of Pok\xe9mon\np56639\naV#Charizard\np56640\nasVage_max\np56641\nI65\nsVcountries\np56642\n(lp56643\nVUS\np56644\nasVbroad_age\np56645\nI1\nsVage_min\np56646\nI13\nssVbid_info\np56647\n(dp56648\nV1\np56649\nV65\np56650\nssVstart_time\np56651\nNsVad_status\np56652\nI1\nsVcampaign_id\np56653\nI6005955140565\nsVlocations\np56654\n(lp56655\nI3\nasVcreated_time\np56656\nV2012-10-01T17:53:33+0000\np56657\nsVend_time\np56658\nNsVadgroup_status\np56659\nI1\nsVid\np56660\nV6005955146565\np56661\nsVad_id\np56662\nI6005955146565\nsVimpression_control_map\np56663\n(lp56664\n(dp56665\nVcontrol\np56666\n(dp56667\nVuser_impression_limit_period\np56668\nI24\nsVuser_impression_limit\np56669\nI6\nsVuser_impression_limit_period_unit\np56670\nI0\nsVimpression_control_type\np56671\nI2\nssVlocation\np56672\nI3\nsasVcreative_ids\np56673\n(lp56674\nI6005955146165\nasVmax_bid\np56675\nV65\np56676\nsVadgroup_id\np56677\nI6005955146565\nsVaccount_id\np56678\nI40156177\nsa(dp56679\nVbid_info\np56680\n(dp56681\nV1\np56682\nV65\np56683\nssVcampaign_id\np56684\nI6005955140565\nsVlast_upda"
p6
sS'hash'
p7
S'c6dde17efe2bef3771476bb988980887eb001dad'
p8
sS'stack'
p9
S''
s.