(dp1
S'args'
p2
S''
sS'methodname'
p3
S''
sS'packet_num'
p4
I247
sS'returnval'
p5
S"6724\nV65\np46725\nsVad_id\np46726\nI6005839479765\nsVaccount_id\np46727\nI40156177\nsVstart_time\np46728\nNsVlocations\np46729\n(lp46730\nI3\nasVadgroup_status\np46731\nI9\nsVad_status\np46732\nI2\nsVimpression_control_map\np46733\n(lp46734\n(dp46735\nVcontrol\np46736\n(dp46737\nVuser_impression_limit_period\np46738\nI24\nsVuser_impression_limit\np46739\nI3\nsVuser_impression_limit_period_unit\np46740\nI0\nsVimpression_control_type\np46741\nI2\nssVlocation\np46742\nI3\nsasVcreative_ids\np46743\n(lp46744\nI6005858912365\nasVtracking_pixel_ids\np46745\n(lp46746\nsVbid_type\np46747\nI1\nsVname\np46748\nVCrazy Eyebrows - Social\np46749\nsVupdated_time\np46750\nV2012-10-02T22:22:02+0000\np46751\nsVend_time\np46752\nV2012-10-03T03:30:00+0000\np46753\nsa(dp46754\nVbid_info\np46755\n(dp46756\nV1\np46757\nV65\np46758\nssVcampaign_id\np46759\nI6005839478765\nsVlast_updated_by_app_id\np46760\nI6802152230\nsVcreated_time\np46761\nV2012-09-19T16:41:03+0000\np46762\nsVconversion_specs\np46763\n(lp46764\nsVadgroup_id\np46765\nI6005839483365\nsVtargeting\np46766\n(dp46767\nVkeywords\np46768\n(lp46769\nV#Urban decay\np46770\naV#Make-up artist\np46771\naVmake up forever\np46772\naV#Sephora\np46773\naVsmashbox cosmetics\np46774\naV#NARS Cosmetics\np46775\naV#Avon Products\np46776\naV#L'Or\xe9al\np46777\naVmac cosmetics\np46778\naV#Bobbi Brown\np46779\naV#Clinique makeup\np46780\naV#Lanc\xf4me\np46781\naVmac makeup\np46782\naV#Est\xe9e Lauder\np46783\naV#Maybelline\np46784\naV#Make-up Art Cosmetics\np46785\naVbeauty blog\np46786\naV#Revlon\np46787\naV#L'Occitane en Provence\np46788\naV#Benefit Cosmetics\np46789\naV#NARS\np46790\nasVage_max\np46791\nI65\nsVcountries\np46792\n(lp46793\nVUS\np46794\nasVbroad_age\np46795\nI1\nsVage_min\np46796\nI13\nssVid\np46797\nV6005839483365\np46798\nsVobjective\np46799\nI2\nsVmax_bid\np46800\nV65\np46801\nsVad_id\np46802\nI6005839483365\nsVaccount_id\np46803\nI40156177\nsVstart_time\np46804\nNsVlocations\np46805\n(lp46806\nI3\nasVadgroup_status\np46807\nI9\nsVad_status\np46808\nI2\nsVimpression_control_map\np46809\n(lp46810\n(dp46811\nVcontrol\np46812\n(dp46813\nVuser_impression_limit_period\np46814\nI24\nsVuser_impression_limit\np46815\nI3\nsVuser_impression_limit_period_unit\np46816\nI0\nsVimpression_control_type\np46817\nI2\nssVlocation\np46818\nI3\nsasVcreative_ids\np46819\n(lp46820\nI6005839482965\nasVtracking_pixel_ids\np46821\n(lp46822\nsVbid_type\np46823\nI1\nsVname\np46824\nVGoth Lips\np46825\nsVupdated_time\np46826\nV2012-10-02T22:22:02+0000\np46827\nsVend_time\np46828\nV2012-10-03T03:30:00+0000\np46829\nsa(dp46830\nVbid_info\np46831\n(dp46832\nV1\np46833\nV65\np46834\nssVcampaign_id\np46835\nI6005839478765\nsVlast_updated_by_app_id\np46836\nI6802152230\nsVcreated_time\np46837\nV2012-09-19T16:42:16+0000\np46838\nsVconversion_specs\np46839\n(lp46840\nsVadgroup_id\np46841\nI6005839486965\nsVtargeting\np46842\n(dp46843\nVkeywords\np46844\n(lp46845\nV#Urban decay\np46846\naV#Make-up artist\np46847\naVmake up forever\np46848\naV#Sephora\np46849\naVsmashbox cosmetics\np46850\naV#NARS Cosmetics\np46851\naV#Avon Products\np46852\naV#L'Or\xe9al\np46853\naVmac cosmetics\np46854\naV#Bobbi Brown\np46855\naV#Clinique makeup\np46856\naV#Lanc\xf4me\np46857\naVmac makeup\np46858\naV#Est\xe9e Lauder\np46859\naV#Maybelline\np46860\naV#Make-up Art Cosmetics\np46861\naVbeauty blog\np46862\naV#Revlon\np46863\naV#L'Occitane en Provence\np46864\naV#Benefit Cosmetics\np46865\naV#NARS\np46866\nasVage_max\np46867\nI65\nsVcountries\np46868\n(lp46869\nVUS\np46870\nasVbroad_age\np46871\nI1\nsVage_min\np46872\nI13\nssVid\np46873\nV6005839486965\np46874\nsVobjective\np46875\nI2\nsVmax_bid\np46876\nV65\np46877\nsVad_id\np46878\nI6005839486965\nsVaccount_id\np46879\nI40156177\nsVstart_time\np46880\nNsVlocations\np46881\n(lp46882\nI3\nasVadgroup_status\np46883\nI9\nsVad_status\np46884\nI2\nsVimpression_control_map\np46885\n(lp46886\n(dp46887\nVcontrol\np46888\n(dp46889\nVuser_impression_limit_period\np46890\nI24\nsVuser_impression_limit\np46891\nI3\nsVuser_impression_limit_period_unit\np46892\nI0\nsVimpression_control_type\np46893\nI2\nssVlocation\np46894\nI3\nsasVcreative_ids\np46895\n(lp46896\nI6005839486565\nasVtracking_pixel_ids\np46897\n(lp46898\nsVbid_type\np46899\nI1\nsVname\np46900\nVGhost Lipstick\np46901\nsVupdated_time\np46902\nV2012-10-02T22:22:02+0000\np46903\nsVend_time\np46904\nV2012-10-03T03:30:00+0000\np46905\nsa(dp46906\nVconversion_specs\np46907\n(lp46908\nsVupdated_time\np46909\nV2012-09-25T13:34:38+0000\np46"
p6
sS'hash'
p7
S'c6dde17efe2bef3771476bb988980887eb001dad'
p8
sS'stack'
p9
S''
s.