(dp1
S'args'
p2
S''
sS'methodname'
p3
S''
sS'packet_num'
p4
I294
sS'returnval'
p5
S"es\np55437\n(lp55438\nVUS\np55439\nassVbid_info\np55440\n(dp55441\nV1\np55442\nV0\np55443\nsV55\np55444\nV1000\np55445\nsV44\np55446\nV0\np55447\nsV38\np55448\nV0\np55449\nssVstart_time\np55450\nNsVad_status\np55451\nI1\nsVcampaign_id\np55452\nI6005933849765\nsVlocations\np55453\n(lp55454\nI3\nasVcreated_time\np55455\nV2012-09-28T21:02:54+0000\np55456\nsVend_time\np55457\nV2012-09-30T07:00:00+0000\np55458\nsVadgroup_status\np55459\nI1\nsVid\np55460\nV6005933850765\np55461\nsVad_id\np55462\nI6005933850765\nsVimpression_control_map\np55463\n(lp55464\n(dp55465\nVcontrol\np55466\n(dp55467\nVuser_impression_limit_period\np55468\nI24\nsVuser_impression_limit\np55469\nI6\nsVuser_impression_limit_period_unit\np55470\nI0\nsVimpression_control_type\np55471\nI2\nssVlocation\np55472\nI3\nsasVcreative_ids\np55473\n(lp55474\nI6005933850365\nasVmax_bid\np55475\nV1000\np55476\nsVadgroup_id\np55477\nI6005933850765\nsVaccount_id\np55478\nI40156177\nsa(dp55479\nVconversion_specs\np55480\n(lp55481\n(dp55482\nVpage\np55483\nI238205562866018\nsVaction.type\np55484\nVpage_engagement\np55485\nsasVupdated_time\np55486\nV2012-09-29T14:48:57+0000\np55487\nsVbid_type\np55488\nI1\nsVname\np55489\nVMy Ad\np55490\nsVtracking_pixel_ids\np55491\n(lp55492\nsVtargeting\np55493\n(dp55494\nVage_max\np55495\nI65\nsVcountries\np55496\n(lp55497\nVUS\np55498\nasVbroad_age\np55499\nI1\nsVage_min\np55500\nI13\nssVbid_info\np55501\n(dp55502\nV1\np55503\nV35\np55504\nssVstart_time\np55505\nNsVad_status\np55506\nI1\nsVcampaign_id\np55507\nI6005933849765\nsVlocations\np55508\n(lp55509\nI3\nasVcreated_time\np55510\nV2012-09-29T14:48:01+0000\np55511\nsVend_time\np55512\nNsVadgroup_status\np55513\nI1\nsVid\np55514\nV6005942461765\np55515\nsVad_id\np55516\nI6005942461765\nsVimpression_control_map\np55517\n(lp55518\n(dp55519\nVcontrol\np55520\n(dp55521\nVuser_impression_limit_period\np55522\nI24\nsVuser_impression_limit\np55523\nI6\nsVuser_impression_limit_period_unit\np55524\nI0\nsVimpression_control_type\np55525\nI2\nssVlocation\np55526\nI3\nsasVcreative_ids\np55527\n(lp55528\nI6005942461165\nasVmax_bid\np55529\nV35\np55530\nsVadgroup_id\np55531\nI6005942461765\nsVaccount_id\np55532\nI40156177\nsa(dp55533\nVbid_info\np55534\n(dp55535\nV1\np55536\nV65\np55537\nssVcampaign_id\np55538\nI6005942308365\nsVcreated_time\np55539\nV2012-09-29T12:36:59+0000\np55540\nsVconversion_specs\np55541\n(lp55542\nsVadgroup_id\np55543\nI6005942309365\nsVtargeting\np55544\n(dp55545\nVkeywords\np55546\n(lp55547\nV#Papa John's Pizza\np55548\naV#Domino's Pizza\np55549\naV#Bobby Flay\np55550\naV#Pillsbury Company\np55551\naV#Top Chef Masters\np55552\naVhidden valley ranch\np55553\naV#Food Network\np55554\naV#Breakfast\np55555\naV#Pizza Hut\np55556\naV#Paula Deen\np55557\naV#Ranch dressing\np55558\naV#Giada De Laurentiis\np55559\naV#Anthony Bourdain: No Reservations\np55560\naV#Betty Crocker\np55561\naV#Anthony Bourdain\np55562\naV#Emeril Lagasse\np55563\naV#Brunch\np55564\naV#Cooking\np55565\naV#Top Chef\np55566\naV#Rachel Ray (novel)\np55567\naV#Allrecipes.com\np55568\nasVage_max\np55569\nI65\nsVcountries\np55570\n(lp55571\nVUS\np55572\nasVbroad_age\np55573\nI1\nsVage_min\np55574\nI13\nssVid\np55575\nV6005942309365\np55576\nsVobjective\np55577\nI2\nsVmax_bid\np55578\nV65\np55579\nsVad_id\np55580\nI6005942309365\nsVaccount_id\np55581\nI40156177\nsVstart_time\np55582\nNsVlocations\np55583\n(lp55584\nI3\nasVadgroup_status\np55585\nI1\nsVad_status\np55586\nI1\nsVimpression_control_map\np55587\n(lp55588\n(dp55589\nVcontrol\np55590\n(dp55591\nVuser_impression_limit_period\np55592\nI24\nsVuser_impression_limit\np55593\nI3\nsVuser_impression_limit_period_unit\np55594\nI0\nsVimpression_control_type\np55595\nI2\nssVlocation\np55596\nI3\nsasVcreative_ids\np55597\n(lp55598\nI6005942308965\nasVtracking_pixel_ids\np55599\n(lp55600\nsVbid_type\np55601\nI1\nsVname\np55602\nVPizza w/Ranch?\np55603\nsVupdated_time\np55604\nV2012-09-29T15:38:06+0000\np55605\nsVend_time\np55606\nNsa(dp55607\nVbid_info\np55608\n(dp55609\nV1\np55610\nV65\np55611\nssVcampaign_id\np55612\nI6005942308365\nsVcreated_time\np55613\nV2012-09-29T12:40:33+0000\np55614\nsVconversion_specs\np55615\n(lp55616\nsVadgroup_id\np55617\nI6005942314165\nsVtargeting\np55618\n(dp55619\nVkeywords\np55620\n(lp55621\nV#Bobby Flay\np55622\naV#Pillsbury Company\np55623\naV#Hot Dog on a Stick\np55624\naV#Top Chef Masters\np55625\naVhot dogs\np55626\naVhidden valley ranch\np55627\naV#Ted's Hot Dogs\np55628\naV#Nathan's Famous\np55629\naV#Food Network\np5"
p6
sS'hash'
p7
S'c6dde17efe2bef3771476bb988980887eb001dad'
p8
sS'stack'
p9
S''
s.