(dp1
S'args'
p2
S''
sS'methodname'
p3
S''
sS'packet_num'
p4
I283
sS'returnval'
p5
S"nchise)\np53408\naV#American Horror Story\np53409\naV#Halloween Horror Nights\np53410\naV#The Walking Dead (TV series)\np53411\naV#Jennifer's Body\np53412\naV#American Horror Story (season 1)\np53413\naV#The Texas Chainsaw Massacre: The Beginning\np53414\naV#The Texas Chainsaw Massacre (2003 film)\np53415\naV#Saw (film)\np53416\naV#Hostel (2005 film)\np53417\naV#Paranormal Activity\np53418\nasVage_max\np53419\nI65\nsVcountries\np53420\n(lp53421\nVUS\np53422\nasVbroad_age\np53423\nI1\nsVage_min\np53424\nI13\nssVbid_info\np53425\n(dp53426\nV1\np53427\nV65\np53428\nssVstart_time\np53429\nNsVad_status\np53430\nI1\nsVcampaign_id\np53431\nI6005923326565\nsVlocations\np53432\n(lp53433\nI3\nasVcreated_time\np53434\nV2012-09-27T15:05:40+0000\np53435\nsVend_time\np53436\nNsVadgroup_status\np53437\nI1\nsVid\np53438\nV6005923327565\np53439\nsVad_id\np53440\nI6005923327565\nsVimpression_control_map\np53441\n(lp53442\n(dp53443\nVcontrol\np53444\n(dp53445\nVuser_impression_limit_period\np53446\nI24\nsVuser_impression_limit\np53447\nI6\nsVuser_impression_limit_period_unit\np53448\nI0\nsVimpression_control_type\np53449\nI2\nssVlocation\np53450\nI3\nsasVcreative_ids\np53451\n(lp53452\nI6005923327165\nasVmax_bid\np53453\nV65\np53454\nsVadgroup_id\np53455\nI6005923327565\nsVaccount_id\np53456\nI40156177\nsa(dp53457\nVconversion_specs\np53458\n(lp53459\nsVupdated_time\np53460\nV2012-09-27T15:15:24+0000\np53461\nsVbid_type\np53462\nI1\nsVname\np53463\nVAmerican Horror Story \np53464\nsVtracking_pixel_ids\np53465\n(lp53466\nsVtargeting\np53467\n(dp53468\nVkeywords\np53469\n(lp53470\nV#Ghost\np53471\naV#The Cabin in the Woods\np53472\naV#The Grudge 2\np53473\naV#Night of the Living Dead\np53474\naV#A Nightmare on Elm Street 4: The Dream Master\np53475\naV#A Nightmare on Elm Street 3: Dream Warriors\np53476\naV#Horror fiction\np53477\naV#Halloween (1978 film)\np53478\naV#George A. Romero\np53479\naV#Zombie\np53480\naV#A Nightmare on Elm Street\np53481\naV#Saw VI\np53482\naV#Dawn of the Dead\np53483\naV#Saw V\np53484\naV#The Exorcism of Emily Rose\np53485\naV#The Grudge 3\np53486\naV#The Collector (2009 film)\np53487\naV#The Grudge\np53488\naV#The Texas Chain Saw Massacre\np53489\naV#Saw 3D\np53490\naV#Halloween (2007 film)\np53491\naV#Saw (franchise)\np53492\naV#Dario Argento's World of Horror\np53493\naV#American Horror Story\np53494\naV#The Exorcist series\np53495\naV#Saw IV\np53496\naV#28 Days Later\np53497\naV#Day of the Dead (2008 film)\np53498\naV#Child's Play 2\np53499\naV#Day of the Dead (1985 film)\np53500\naV#Land of the Dead\np53501\naV#Halloween Horror Nights\np53502\naV#Saw II\np53503\naV#The Walking Dead (TV series)\np53504\naV#The Apparition\np53505\naV#A Nightmare on Elm Street 5: The Dream Child\np53506\naV#The Grudge (film series)\np53507\naV#The Nightmare Before Christmas\np53508\naV#Child's Play (film series)\np53509\naV#American Horror Story (season 1)\np53510\naV#A Nightmare on Elm Street 2: Freddy's Revenge\np53511\naV#Dawn of the Dead (2004 film)\np53512\naV#The Texas Chainsaw Massacre: The Beginning\np53513\naV#The Texas Chainsaw Massacre (2003 film)\np53514\naV#A Nightmare on Elm Street (franchise)\np53515\naV#Saw (film)\np53516\naV#Chucky (Child's Play)\np53517\naV#Friday the 13th (franchise)\np53518\naV#The Exorcist (film)\np53519\naV#28 Weeks Later\np53520\naV#Halloween (franchise)\np53521\naV#The Texas Chainsaw Massacre (franchise)\np53522\naV#A Nightmare on Elm Street (2010 film)\np53523\naV#Child's Play 3\np53524\naV#Horror film\np53525\naV#Child's Play (1988 film)\np53526\naV#Saw III\np53527\naV#American Horror Story: Asylum\np53528\nasVage_max\np53529\nI65\nsVcountries\np53530\n(lp53531\nVUS\np53532\nasVbroad_age\np53533\nI1\nsVage_min\np53534\nI13\nssVbid_info\np53535\n(dp53536\nV1\np53537\nV65\np53538\nssVstart_time\np53539\nNsVad_status\np53540\nI1\nsVcampaign_id\np53541\nI6005923347165\nsVlocations\np53542\n(lp53543\nI3\nasVcreated_time\np53544\nV2012-09-27T15:14:54+0000\np53545\nsVend_time\np53546\nNsVadgroup_status\np53547\nI1\nsVid\np53548\nV6005923348365\np53549\nsVad_id\np53550\nI6005923348365\nsVimpression_control_map\np53551\n(lp53552\n(dp53553\nVcontrol\np53554\n(dp53555\nVuser_impression_limit_period\np53556\nI24\nsVuser_impression_limit\np53557\nI6\nsVuser_impression_limit_period_unit\np53558\nI0\nsVimpression_control_type\np53559\nI2\nssVlocation\np53560\nI3\nsasVcreative_ids\np53561\n(lp53562\nI6005923347965\nas"
p6
sS'hash'
p7
S'c6dde17efe2bef3771476bb988980887eb001dad'
p8
sS'stack'
p9
S''
s.