(dp1
S'args'
p2
S''
sS'methodname'
p3
S''
sS'packet_num'
p4
I324
sS'returnval'
p5
S'60750\nI1\nsVname\np60751\nVhttp://www.buzzfeed.com/h1/fbad/totinos/the-12-best-foods-that-come-in-pocket-form-2wvj - Ad 1\np60752\nsVupdated_time\np60753\nV2012-10-04T03:44:36+0000\np60754\nsVend_time\np60755\nNsa(dp60756\nVbid_info\np60757\n(dp60758\nV1\np60759\nV55\np60760\nssVcampaign_id\np60761\nI6005964274965\nsVcreated_time\np60762\nV2012-10-04T06:57:24+0000\np60763\nsVconversion_specs\np60764\n(lp60765\nsVadgroup_id\np60766\nI6005964606765\nsVtargeting\np60767\n(dp60768\nVage_max\np60769\nI65\nsVcountries\np60770\n(lp60771\nVUS\np60772\nasVbroad_age\np60773\nI1\nsVage_min\np60774\nI13\nssVid\np60775\nV6005964606765\np60776\nsVobjective\np60777\nI2\nsVmax_bid\np60778\nV55\np60779\nsVad_id\np60780\nI6005964606765\nsVaccount_id\np60781\nI40156177\nsVstart_time\np60782\nNsVlocations\np60783\n(lp60784\nI3\nasVadgroup_status\np60785\nI1\nsVad_status\np60786\nI1\nsVimpression_control_map\np60787\n(lp60788\n(dp60789\nVcontrol\np60790\n(dp60791\nVuser_impression_limit_period\np60792\nI24\nsVuser_impression_limit\np60793\nI6\nsVuser_impression_limit_period_unit\np60794\nI0\nsVimpression_control_type\np60795\nI2\nssVlocation\np60796\nI3\nsasVcreative_ids\np60797\n(lp60798\nI6005964606365\nasVtracking_pixel_ids\np60799\n(lp60800\nsVbid_type\np60801\nI1\nsVname\np60802\nVBuzzFeed - Ad\np60803\nsVupdated_time\np60804\nV2012-10-04T07:01:22+0000\np60805\nsVend_time\np60806\nNsa(dp60807\nVbid_info\np60808\n(dp60809\nV1\np60810\nV55\np60811\nssVcampaign_id\np60812\nI6005964274965\nsVcreated_time\np60813\nV2012-10-04T06:57:24+0000\np60814\nsVconversion_specs\np60815\n(lp60816\nsVadgroup_id\np60817\nI6005964608565\nsVtargeting\np60818\n(dp60819\nVage_max\np60820\nI65\nsVcountries\np60821\n(lp60822\nVUS\np60823\nasVbroad_age\np60824\nI1\nsVage_min\np60825\nI13\nssVid\np60826\nV6005964608565\np60827\nsVobjective\np60828\nI2\nsVmax_bid\np60829\nV55\np60830\nsVad_id\np60831\nI6005964608565\nsVaccount_id\np60832\nI40156177\nsVstart_time\np60833\nNsVlocations\np60834\n(lp60835\nI3\nasVadgroup_status\np60836\nI1\nsVad_status\np60837\nI1\nsVimpression_control_map\np60838\n(lp60839\n(dp60840\nVcontrol\np60841\n(dp60842\nVuser_impression_limit_period\np60843\nI24\nsVuser_impression_limit\np60844\nI6\nsVuser_impression_limit_period_unit\np60845\nI0\nsVimpression_control_type\np60846\nI2\nssVlocation\np60847\nI3\nsasVcreative_ids\np60848\n(lp60849\nI6005964608165\nasVtracking_pixel_ids\np60850\n(lp60851\nsVbid_type\np60852\nI1\nsVname\np60853\nVBuzzFeed - Sponsored Stories\np60854\nsVupdated_time\np60855\nV2012-10-04T06:58:26+0000\np60856\nsVend_time\np60857\nNsa(dp60858\nVbid_info\np60859\n(dp60860\nV1\np60861\nV55\np60862\nssVcampaign_id\np60863\nI6005964274965\nsVlast_updated_by_app_id\np60864\nI6802152230\nsVcreated_time\np60865\nV2012-10-04T03:01:25+0000\np60866\nsVconversion_specs\np60867\n(lp60868\nsVadgroup_id\np60869\nI6005964275965\nsVtargeting\np60870\n(dp60871\nVbroad_age\np60872\nI1\nsVcountries\np60873\n(lp60874\nVUS\np60875\nassVid\np60876\nV6005964275965\np60877\nsVmax_bid\np60878\nV55\np60879\nsVad_id\np60880\nI6005964275965\nsVaccount_id\np60881\nI40156177\nsVstart_time\np60882\nNsVlocations\np60883\n(lp60884\nI3\nasVadgroup_status\np60885\nI9\nsVad_status\np60886\nI2\nsVimpression_control_map\np60887\n(lp60888\n(dp60889\nVcontrol\np60890\n(dp60891\nVuser_impression_limit_period\np60892\nI24\nsVuser_impression_limit\np60893\nI3\nsVuser_impression_limit_period_unit\np60894\nI0\nsVimpression_control_type\np60895\nI2\nssVlocation\np60896\nI3\nsasVcreative_ids\np60897\n(lp60898\nI6005964275565\nasVtracking_pixel_ids\np60899\n(lp60900\nsVbid_type\np60901\nI1\nsVname\np60902\nVBuzzFeed Editor: ($.55)\np60903\nsVupdated_time\np60904\nV2012-10-04T06:57:37+0000\np60905\nsVend_time\np60906\nNsa(dp60907\nVbid_info\np60908\n(dp60909\nV1\np60910\nV65\np60911\nssVcampaign_id\np60912\nI6005982829365\nsVlast_updated_by_app_id\np60913\nI6802152230\nsVcreated_time\np60914\nV2012-10-05T13:46:53+0000\np60915\nsVconversion_specs\np60916\n(lp60917\nsVadgroup_id\np60918\nI6005982840765\nsVtargeting\np60919\n(dp60920\nVkeywords\np60921\n(lp60922\nV#Charlie and the Chocolate Factory (film)\np60923\naV#Tim Burton\np60924\naV#Frankenweenie (2012 film)\np60925\naV#The Nightmare Before Christmas\np60926\naV#Winona Ryder\np60927\naV#Johnny Depp\np60928\naV#Corpse Bride\np60929\naV#Edward Scissorhands\np60930\naV#Alice in Wonderland (2010 film)\np60931\nasVage_max\np60932\nI65\nsVcountries\np60933\n(lp60934\nVUS\np60935\nasVbroad_age\np609'
p6
sS'hash'
p7
S'c6dde17efe2bef3771476bb988980887eb001dad'
p8
sS'stack'
p9
S''
s.