(dp1
S'args'
p2
S''
sS'methodname'
p3
S''
sS'packet_num'
p4
I333
sS'returnval'
p5
S"\nI6005985563365\nasVtracking_pixel_ids\np62410\n(lp62411\nsVbid_type\np62412\nI1\nsVname\np62413\nVFriends Who Like The Post\np62414\nsVupdated_time\np62415\nV2012-10-08T13:09:00+0000\np62416\nsVend_time\np62417\nNsa(dp62418\nVconversion_specs\np62419\n(lp62420\nsVupdated_time\np62421\nV2012-10-08T13:09:00+0000\np62422\nsVbid_type\np62423\nI1\nsVname\np62424\nVTarget Interests\np62425\nsVtracking_pixel_ids\np62426\n(lp62427\nsVtargeting\np62428\n(dp62429\nVkeywords\np62430\n(lp62431\nV#Kesha\np62432\naV#The Beatles\np62433\nasVage_max\np62434\nI65\nsVcountries\np62435\n(lp62436\nVUS\np62437\nasVbroad_age\np62438\nI1\nsVage_min\np62439\nI13\nssVbid_info\np62440\n(dp62441\nV1\np62442\nV125\np62443\nssVstart_time\np62444\nNsVad_status\np62445\nI2\nsVcampaign_id\np62446\nI6005985562765\nsVlocations\np62447\n(lp62448\nI3\nasVcreated_time\np62449\nV2012-10-05T20:38:14+0000\np62450\nsVend_time\np62451\nNsVadgroup_status\np62452\nI8\nsVid\np62453\nV6005985590365\np62454\nsVad_id\np62455\nI6005985590365\nsVimpression_control_map\np62456\n(lp62457\n(dp62458\nVcontrol\np62459\n(dp62460\nVuser_impression_limit_period\np62461\nI24\nsVuser_impression_limit\np62462\nI6\nsVuser_impression_limit_period_unit\np62463\nI0\nsVimpression_control_type\np62464\nI2\nssVlocation\np62465\nI3\nsasVcreative_ids\np62466\n(lp62467\nI6005985589765\nasVmax_bid\np62468\nV125\np62469\nsVadgroup_id\np62470\nI6005985590365\nsVaccount_id\np62471\nI40156177\nsa(dp62472\nVbid_info\np62473\n(dp62474\nV1\np62475\nV65\np62476\nssVcampaign_id\np62477\nI6005985612565\nsVcreated_time\np62478\nV2012-10-05T20:43:37+0000\np62479\nsVconversion_specs\np62480\n(lp62481\nsVadgroup_id\np62482\nI6005985613565\nsVtargeting\np62483\n(dp62484\nVkeywords\np62485\n(lp62486\nV#Mashable\np62487\naV#Internet meme\np62488\naV#Digg\np62489\naV#The Onion\np62490\naV#CollegeHumor\np62491\naV#Cracked.com\np62492\naV#Reddit\np62493\naV#BuzzFeed\np62494\naV#Funny or Die\np62495\naV#Cracked (magazine)\np62496\naV#4chan\np62497\nasVage_max\np62498\nI65\nsVcountries\np62499\n(lp62500\nVUS\np62501\nasVbroad_age\np62502\nI1\nsVage_min\np62503\nI13\nssVid\np62504\nV6005985613565\np62505\nsVobjective\np62506\nI2\nsVmax_bid\np62507\nV65\np62508\nsVad_id\np62509\nI6005985613565\nsVaccount_id\np62510\nI40156177\nsVstart_time\np62511\nNsVlocations\np62512\n(lp62513\nI3\nasVadgroup_status\np62514\nI8\nsVad_status\np62515\nI2\nsVimpression_control_map\np62516\n(lp62517\n(dp62518\nVcontrol\np62519\n(dp62520\nVuser_impression_limit_period\np62521\nI24\nsVuser_impression_limit\np62522\nI6\nsVuser_impression_limit_period_unit\np62523\nI0\nsVimpression_control_type\np62524\nI2\nssVlocation\np62525\nI3\nsasVcreative_ids\np62526\n(lp62527\nI6005985613165\nasVtracking_pixel_ids\np62528\n(lp62529\nsVbid_type\np62530\nI1\nsVname\np62531\nVhttp://www.buzzfeed.com/h1/fbad/totinos/first-world-kid-problems-2wvj?b=1 - Ad\np62532\nsVupdated_time\np62533\nV2012-10-09T13:58:51+0000\np62534\nsVend_time\np62535\nV2012-10-10T02:05:00+0000\np62536\nsa(dp62537\nVbid_info\np62538\n(dp62539\nV1\np62540\nV65\np62541\nssVcampaign_id\np62542\nI6005997666165\nsVcreated_time\np62543\nV2012-10-08T18:41:31+0000\np62544\nsVconversion_specs\np62545\n(lp62546\nsVadgroup_id\np62547\nI6005997667165\nsVtargeting\np62548\n(dp62549\nVkeywords\np62550\n(lp62551\nV#Oprah's Book Club\np62552\naV#The Ellen DeGeneres Show\np62553\naV#Michelle Obama\np62554\naV#Oprah Presents Master Class\np62555\naV#OWN: Oprah Winfrey Network\np62556\naV#Oprah Winfrey\np62557\naV#Oprah Radio\np62558\naV#The Oprah Winfrey Show\np62559\naV#Oprah's Lifeclass\np62560\naV#Oprah Winfrey Network (U.S. TV channel)\np62561\naV#Oprah Winfrey Network\np62562\nasVage_max\np62563\nI65\nsVcountries\np62564\n(lp62565\nVUS\np62566\nasVbroad_age\np62567\nI1\nsVage_min\np62568\nI13\nssVid\np62569\nV6005997667165\np62570\nsVobjective\np62571\nI2\nsVmax_bid\np62572\nV65\np62573\nsVad_id\np62574\nI6005997667165\nsVaccount_id\np62575\nI40156177\nsVstart_time\np62576\nNsVlocations\np62577\n(lp62578\nI3\nasVadgroup_status\np62579\nI1\nsVad_status\np62580\nI1\nsVimpression_control_map\np62581\n(lp62582\n(dp62583\nVcontrol\np62584\n(dp62585\nVuser_impression_limit_period\np62586\nI24\nsVuser_impression_limit\np62587\nI3\nsVuser_impression_limit_period_unit\np62588\nI0\nsVimpression_control_type\np62589\nI2\nssVlocation\np62590\nI3\nsasVcreative_ids\np62591\n(lp62592\nI6005997666765\nasVtracking_pixel_ids\np62593\n(lp62594\nsVbid_type\np62595\nI1\nsVname\np62596\nVOprah\np62"
p6
sS'hash'
p7
S'c6dde17efe2bef3771476bb988980887eb001dad'
p8
sS'stack'
p9
S''
s.