(dp1
S'args'
p2
S''
sS'methodname'
p3
S''
sS'packet_num'
p4
I278
sS'returnval'
p5
S'location\np52469\nI3\nsasVcreative_ids\np52470\n(lp52471\nI6005913246165\nasVmax_bid\np52472\nV65\np52473\nsVadgroup_id\np52474\nI6005913246965\nsVaccount_id\np52475\nI40156177\nsa(dp52476\nVbid_info\np52477\n(dp52478\nV1\np52479\nV65\np52480\nssVcampaign_id\np52481\nI6005913235365\nsVlast_updated_by_app_id\np52482\nI6802152230\nsVcreated_time\np52483\nV2012-09-26T13:31:24+0000\np52484\nsVconversion_specs\np52485\n(lp52486\nsVadgroup_id\np52487\nI6005913236365\nsVtargeting\np52488\n(dp52489\nVkeywords\np52490\n(lp52491\nV#Last Action Hero\np52492\naV#Terminator (franchise)\np52493\naV#Kindergarten Cop\np52494\naV#Mr. Freeze\np52495\naV#The 6th Day\np52496\naVarnold schwarzennegar\np52497\naVgovernator\np52498\naV#True Lies\np52499\naV#Twins (1988 film)\np52500\naVarnold schwarzenegger legend\np52501\naV#End of Days (film)\np52502\naV#Arnold Schwarzenegger\np52503\naVterminator\np52504\naV#The Expendables (2010 film)\np52505\naV#Jingle All the Way\np52506\naV#Collateral Damage (film)\np52507\naV#Total Recall\np52508\naV#The Terminator\np52509\naV#Predator (film)\np52510\nasVage_max\np52511\nI65\nsVcountries\np52512\n(lp52513\nVUS\np52514\nasVbroad_age\np52515\nI1\nsVage_min\np52516\nI13\nssVid\np52517\nV6005913236365\np52518\nsVmax_bid\np52519\nV65\np52520\nsVad_id\np52521\nI6005913236365\nsVaccount_id\np52522\nI40156177\nsVstart_time\np52523\nNsVlocations\np52524\n(lp52525\nI3\nasVadgroup_status\np52526\nI9\nsVad_status\np52527\nI2\nsVimpression_control_map\np52528\n(lp52529\n(dp52530\nVcontrol\np52531\n(dp52532\nVuser_impression_limit_period\np52533\nI24\nsVuser_impression_limit\np52534\nI3\nsVuser_impression_limit_period_unit\np52535\nI0\nsVimpression_control_type\np52536\nI2\nssVlocation\np52537\nI3\nsasVcreative_ids\np52538\n(lp52539\nI6005913235965\nasVtracking_pixel_ids\np52540\n(lp52541\nsVbid_type\np52542\nI1\nsVname\np52543\nVArnold Going Mad!\np52544\nsVupdated_time\np52545\nV2012-10-02T17:17:26+0000\np52546\nsVend_time\np52547\nV2012-10-04T03:30:00+0000\np52548\nsa(dp52549\nVconversion_specs\np52550\n(lp52551\n(dp52552\nVpage\np52553\nI238205562866018\nsVaction.type\np52554\nVpage_engagement\np52555\nsasVupdated_time\np52556\nV2012-09-26T15:14:11+0000\np52557\nsVbid_type\np52558\nI1\nsVname\np52559\nVMy Ad\np52560\nsVtracking_pixel_ids\np52561\n(lp52562\nsVtargeting\np52563\n(dp52564\nVage_max\np52565\nI65\nsVcountries\np52566\n(lp52567\nVUS\np52568\nasVbroad_age\np52569\nI1\nsVage_min\np52570\nI13\nssVbid_info\np52571\n(dp52572\nV1\np52573\nV64\np52574\nssVstart_time\np52575\nNsVad_status\np52576\nI1\nsVcampaign_id\np52577\nI6005913695765\nsVlocations\np52578\n(lp52579\nI3\nasVcreated_time\np52580\nV2012-09-26T15:09:52+0000\np52581\nsVend_time\np52582\nNsVadgroup_status\np52583\nI1\nsVid\np52584\nV6005913696565\np52585\nsVad_id\np52586\nI6005913696565\nsVimpression_control_map\np52587\n(lp52588\n(dp52589\nVcontrol\np52590\n(dp52591\nVuser_impression_limit_period\np52592\nI24\nsVuser_impression_limit\np52593\nI6\nsVuser_impression_limit_period_unit\np52594\nI0\nsVimpression_control_type\np52595\nI2\nssVlocation\np52596\nI3\nsasVcreative_ids\np52597\n(lp52598\nI6005911629365\nasVmax_bid\np52599\nV64\np52600\nsVadgroup_id\np52601\nI6005913696565\nsVaccount_id\np52602\nI40156177\nsa(dp52603\nVconversion_specs\np52604\n(lp52605\nsVupdated_time\np52606\nV2012-09-26T21:50:57+0000\np52607\nsVbid_type\np52608\nI1\nsVname\np52609\nVBrotherly Love!\np52610\nsVtracking_pixel_ids\np52611\n(lp52612\nsVtargeting\np52613\n(dp52614\nVkeywords\np52615\n(lp52616\nVpottery barn kids\np52617\naV#Pampers\np52618\naV#Gerber Baby\np52619\naV#The Children\'s Place\np52620\naVhuffpost living\np52621\naV#Parenthood\np52622\naVbaby gap\np52623\naV#Gymboree\np52624\naV#Fisher-Price\np52625\naV#Downy\np52626\naVbabies r us\np52627\naV#Babies\np52628\naV#Parents (magazine)\np52629\naV#Gerber Products Company\np52630\naV#Toys "R" Us\np52631\naV#Huggies\np52632\naV#Parenting (magazine)\np52633\naV#Pinterest\np52634\nasVage_max\np52635\nI65\nsVcountries\np52636\n(lp52637\nVUS\np52638\nasVbroad_age\np52639\nI1\nsVage_min\np52640\nI13\nssVbid_info\np52641\n(dp52642\nV1\np52643\nV65\np52644\nssVstart_time\np52645\nNsVad_status\np52646\nI1\nsVcampaign_id\np52647\nI6005913744565\nsVlocations\np52648\n(lp52649\nI3\nasVcreated_time\np52650\nV2012-09-26T15:29:50+0000\np52651\nsVend_time\np52652\nNsVadgroup_status\np52653\nI1\nsVid\np52654\nV6005913745565\np52655\nsVad_id\np52656\nI6005913745565\nsVimpression_control_map\np52657\n(lp52658'
p6
sS'hash'
p7
S'c6dde17efe2bef3771476bb988980887eb001dad'
p8
sS'stack'
p9
S''
s.