(dp1
S'args'
p2
S''
sS'methodname'
p3
S''
sS'packet_num'
p4
I119
sS'returnval'
p5
S'3\naVvirgin mobile live\np23064\naVtechno\np23065\naVsoccer\np23066\naV#Paranormal Activity\np23067\naVsinging\np23068\naV#Cooking\np23069\naVanchorman\np23070\naVmichael jordan\np23071\naV#The Bad Girls Club\np23072\naVmusic\np23073\naVclark griswold\np23074\naVanimals\np23075\naV2pac\np23076\naV#Star Wars\np23077\naVchicago bulls\np23078\naV#The Avett Brothers\np23079\naV#Pink Floyd\np23080\naVwhite stripes\np23081\naV#The Bucket List\np23082\naV#The Boondocks\np23083\naV#Anchorman\np23084\nasVage_max\np23085\nI65\nsVcountries\np23086\n(lp23087\nVUS\np23088\nasVbroad_age\np23089\nI1\nsVage_min\np23090\nI13\nssVbid_info\np23091\n(dp23092\nV1\np23093\nV68\np23094\nssVstart_time\np23095\nNsVad_status\np23096\nI2\nsVcampaign_id\np23097\nI6005617399965\nsVlocations\np23098\n(lp23099\nI3\nasVcreated_time\np23100\nV2012-08-08T22:31:53+0000\np23101\nsVend_time\np23102\nNsVadgroup_status\np23103\nI8\nsVid\np23104\nV6005617400965\np23105\nsVad_id\np23106\nI6005617400965\nsVimpression_control_map\np23107\n(lp23108\n(dp23109\nVcontrol\np23110\n(dp23111\nVuser_impression_limit_period\np23112\nI24\nsVuser_impression_limit\np23113\nI6\nsVuser_impression_limit_period_unit\np23114\nI0\nsVimpression_control_type\np23115\nI2\nssVlocation\np23116\nI3\nsasVcreative_ids\np23117\n(lp23118\nI6005617400565\nasVmax_bid\np23119\nV68\np23120\nsVadgroup_id\np23121\nI6005617400965\nsVaccount_id\np23122\nI40156177\nsa(dp23123\nVconversion_specs\np23124\n(lp23125\nsVupdated_time\np23126\nV2012-09-21T20:13:16+0000\np23127\nsVbid_type\np23128\nI1\nsVname\np23129\nVPulp Fiction\np23130\nsVtracking_pixel_ids\np23131\n(lp23132\nsVtargeting\np23133\n(dp23134\nVkeywords\np23135\n(lp23136\nV#Movies\np23137\naV#Pulp Fiction\np23138\nasVage_max\np23139\nI65\nsVcountries\np23140\n(lp23141\nVUS\np23142\nasVbroad_age\np23143\nI1\nsVage_min\np23144\nI13\nssVbid_info\np23145\n(dp23146\nV1\np23147\nV65\np23148\nssVstart_time\np23149\nV2012-08-10T13:30:00+0000\np23150\nsVad_status\np23151\nI2\nsVcampaign_id\np23152\nI6005621043765\nsVlocations\np23153\n(lp23154\nI3\nasVcreated_time\np23155\nV2012-08-09T15:52:18+0000\np23156\nsVend_time\np23157\nV2012-08-11T03:30:00+0000\np23158\nsVadgroup_status\np23159\nI8\nsVid\np23160\nV6005621044765\np23161\nsVad_id\np23162\nI6005621044765\nsVimpression_control_map\np23163\n(lp23164\n(dp23165\nVcontrol\np23166\n(dp23167\nVuser_impression_limit_period\np23168\nI24\nsVuser_impression_limit\np23169\nI3\nsVuser_impression_limit_period_unit\np23170\nI0\nsVimpression_control_type\np23171\nI2\nssVlocation\np23172\nI3\nsasVcreative_ids\np23173\n(lp23174\nI6005621044365\nasVmax_bid\np23175\nV65\np23176\nsVadgroup_id\np23177\nI6005621044765\nsVaccount_id\np23178\nI40156177\nsa(dp23179\nVconversion_specs\np23180\n(lp23181\nsVupdated_time\np23182\nV2012-09-21T20:13:16+0000\np23183\nsVbid_type\np23184\nI1\nsVname\np23185\nVGodfather\np23186\nsVtracking_pixel_ids\np23187\n(lp23188\nsVtargeting\np23189\n(dp23190\nVkeywords\np23191\n(lp23192\nV#The Godfather Part II\np23193\naV#The Godfather\np23194\naV#Movies\np23195\naV#The Godfather Saga\np23196\naV#The Godfather Part III\np23197\nasVage_max\np23198\nI65\nsVcountries\np23199\n(lp23200\nVUS\np23201\nasVbroad_age\np23202\nI1\nsVage_min\np23203\nI13\nssVbid_info\np23204\n(dp23205\nV1\np23206\nV75\np23207\nssVstart_time\np23208\nV2012-08-10T13:30:00+0000\np23209\nsVad_status\np23210\nI2\nsVcampaign_id\np23211\nI6005621043765\nsVlocations\np23212\n(lp23213\nI3\nasVcreated_time\np23214\nV2012-08-09T15:54:52+0000\np23215\nsVend_time\np23216\nV2012-08-11T03:30:00+0000\np23217\nsVadgroup_status\np23218\nI8\nsVid\np23219\nV6005621050965\np23220\nsVad_id\np23221\nI6005621050965\nsVimpression_control_map\np23222\n(lp23223\n(dp23224\nVcontrol\np23225\n(dp23226\nVuser_impression_limit_period\np23227\nI24\nsVuser_impression_limit\np23228\nI3\nsVuser_impression_limit_period_unit\np23229\nI0\nsVimpression_control_type\np23230\nI2\nssVlocation\np23231\nI3\nsasVcreative_ids\np23232\n(lp23233\nI6005621050365\nasVmax_bid\np23234\nV75\np23235\nsVadgroup_id\np23236\nI6005621050965\nsVaccount_id\np23237\nI40156177\nsa(dp23238\nVconversion_specs\np23239\n(lp23240\nsVupdated_time\np23241\nV2012-09-21T20:13:16+0000\np23242\nsVbid_type\np23243\nI1\nsVname\np23244\nVClockwork Orange\np23245\nsVtracking_pixel_ids\np23246\n(lp23247\nsVtargeting\np23248\n(dp23249\nVkeywords\np23250\n(lp23251\nV#Movies\np23252\naV#A Clockwork Orange (film)\np23253\naV#Stanley Kubrick\np23254\nasVage_max\np23255\nI65\nsVcountries\np2325'
p6
sS'hash'
p7
S'c6dde17efe2bef3771476bb988980887eb001dad'
p8
sS'stack'
p9
S''
s.