(dp1
S'args'
p2
S''
sS'methodname'
p3
S''
sS'packet_num'
p4
I310
sS'returnval'
p5
S"count_id\np58292\nI40156177\nsVstart_time\np58293\nNsVlocations\np58294\n(lp58295\nI3\nasVadgroup_status\np58296\nI1\nsVad_status\np58297\nI1\nsVimpression_control_map\np58298\n(lp58299\n(dp58300\nVcontrol\np58301\n(dp58302\nVuser_impression_limit_period\np58303\nI24\nsVuser_impression_limit\np58304\nI6\nsVuser_impression_limit_period_unit\np58305\nI0\nsVimpression_control_type\np58306\nI2\nssVlocation\np58307\nI3\nsasVcreative_ids\np58308\n(lp58309\nI6005966880765\nasVtracking_pixel_ids\np58310\n(lp58311\nsVbid_type\np58312\nI1\nsVname\np58313\nVhttp://www.buzzfeed.com/h1/fbad/theleague/do-you-have-what-it-takes-to-be-in-the-league - Ad\np58314\nsVupdated_time\np58315\nV2012-10-05T14:31:25+0000\np58316\nsVend_time\np58317\nV2012-10-06T06:00:00+0000\np58318\nsa(dp58319\nVbid_info\np58320\n(dp58321\nV1\np58322\nV65\np58323\nssVcampaign_id\np58324\nI6005957689565\nsVlast_updated_by_app_id\np58325\nI6802152230\nsVcreated_time\np58326\nV2012-10-02T14:08:19+0000\np58327\nsVconversion_specs\np58328\n(lp58329\nsVadgroup_id\np58330\nI6005957690565\nsVtargeting\np58331\n(dp58332\nVkeywords\np58333\n(lp58334\nV#It's Always Sunny in Philadelphia\np58335\naV#National Football League\np58336\naV#SportsCenter\np58337\naV#Fantasy football (American)\np58338\naV#Fantasy Football League\np58339\naV#Jon Lajoie\np58340\naV#Fantasy football (Association)\np58341\naV#Nick Kroll\np58342\naV#The League\np58343\naV#ESPN (United States)\np58344\naV#FX (TV channel)\np58345\nasVage_max\np58346\nI65\nsVcountries\np58347\n(lp58348\nVUS\np58349\nasVbroad_age\np58350\nI1\nsVage_min\np58351\nI13\nssVid\np58352\nV6005957690565\np58353\nsVobjective\np58354\nI2\nsVmax_bid\np58355\nV65\np58356\nsVad_id\np58357\nI6005957690565\nsVaccount_id\np58358\nI40156177\nsVstart_time\np58359\nNsVlocations\np58360\n(lp58361\nI3\nasVadgroup_status\np58362\nI9\nsVad_status\np58363\nI2\nsVimpression_control_map\np58364\n(lp58365\n(dp58366\nVcontrol\np58367\n(dp58368\nVuser_impression_limit_period\np58369\nI24\nsVuser_impression_limit\np58370\nI6\nsVuser_impression_limit_period_unit\np58371\nI0\nsVimpression_control_type\np58372\nI2\nssVlocation\np58373\nI3\nsasVcreative_ids\np58374\n(lp58375\nI6005957690165\nasVtracking_pixel_ids\np58376\n(lp58377\nsVbid_type\np58378\nI1\nsVname\np58379\nVFX: The League: Sept-Oct_2012 | Do-You-Have-What-It-Takes-To-Be-In-The-League\np58380\nsVupdated_time\np58381\nV2012-10-05T14:31:25+0000\np58382\nsVend_time\np58383\nV2012-10-06T06:00:00+0000\np58384\nsa(dp58385\nVbid_info\np58386\n(dp58387\nV1\np58388\nV65\np58389\nssVcampaign_id\np58390\nI6005957755765\nsVlast_updated_by_app_id\np58391\nI6802152230\nsVcreated_time\np58392\nV2012-10-02T14:25:08+0000\np58393\nsVconversion_specs\np58394\n(lp58395\nsVadgroup_id\np58396\nI6005957756765\nsVtargeting\np58397\n(dp58398\nVkeywords\np58399\n(lp58400\nV#The Postal Service\np58401\naV#She & Him\np58402\naV#Joseph Gordon-Levitt\np58403\naV#Max Greenfield\np58404\naV#Modern Family\np58405\naV#(500) Days of Summer\np58406\naVnew girl\np58407\naV#Hannah Simone\np58408\naV#Death Cab for Cutie\np58409\naV#Zooey Deschanel\np58410\naV#M. Ward\np58411\naV#New Girl (TV series)\np58412\naV#Jake Johnson\np58413\nasVage_max\np58414\nI65\nsVcountries\np58415\n(lp58416\nVUS\np58417\nasVbroad_age\np58418\nI1\nsVage_min\np58419\nI13\nssVid\np58420\nV6005957756765\np58421\nsVobjective\np58422\nI2\nsVmax_bid\np58423\nV65\np58424\nsVad_id\np58425\nI6005957756765\nsVaccount_id\np58426\nI40156177\nsVstart_time\np58427\nNsVlocations\np58428\n(lp58429\nI3\nasVadgroup_status\np58430\nI1\nsVad_status\np58431\nI1\nsVimpression_control_map\np58432\n(lp58433\n(dp58434\nVcontrol\np58435\n(dp58436\nVuser_impression_limit_period\np58437\nI24\nsVuser_impression_limit\np58438\nI3\nsVuser_impression_limit_period_unit\np58439\nI0\nsVimpression_control_type\np58440\nI2\nssVlocation\np58441\nI3\nsasVcreative_ids\np58442\n(lp58443\nI6005957756365\nasVtracking_pixel_ids\np58444\n(lp58445\nsVbid_type\np58446\nI1\nsVname\np58447\nVSchmidt - Zooey\np58448\nsVupdated_time\np58449\nV2012-10-09T16:27:50+0000\np58450\nsVend_time\np58451\nV2012-10-11T03:30:00+0000\np58452\nsa(dp58453\nVbid_info\np58454\n(dp58455\nV1\np58456\nV65\np58457\nssVcampaign_id\np58458\nI6005957755765\nsVlast_updated_by_app_id\np58459\nI6802152230\nsVcreated_time\np58460\nV2012-10-02T14:26:40+0000\np58461\nsVconversion_specs\np58462\n(lp58463\nsVadgroup_id\np58464\nI6005957771365\nsVtargeting\np58465\n(dp58466\nVkeywords\np58467\n(l"
p6
sS'hash'
p7
S'c6dde17efe2bef3771476bb988980887eb001dad'
p8
sS'stack'
p9
S''
s.