(dp1
S'args'
p2
S''
sS'methodname'
p3
S''
sS'packet_num'
p4
I29
sS'returnval'
p5
S'ject\np5835\nVhttp://www.buzzfeed.com/h1/fbss/expresident/stories-that-prove-animals-have-souls\np5836\nsVaction.type\np5837\nVpost\np5838\nsasVcountries\np5839\n(lp5840\nVUS\np5841\nassVbid_info\np5842\n(dp5843\nV1\np5844\nV100\np5845\nssVstart_time\np5846\nNsVad_status\np5847\nI2\nsVcampaign_id\np5848\nI6005468441565\nsVlocations\np5849\n(lp5850\nI3\nasVcreated_time\np5851\nV2012-07-06T18:15:55+0000\np5852\nsVend_time\np5853\nNsVadgroup_status\np5854\nI8\nsVid\np5855\nV6005468446565\np5856\nsVad_id\np5857\nI6005468446565\nsVimpression_control_map\np5858\n(lp5859\n(dp5860\nVcontrol\np5861\n(dp5862\nVuser_impression_limit_period\np5863\nI24\nsVuser_impression_limit\np5864\nI6\nsVuser_impression_limit_period_unit\np5865\nI0\nsVimpression_control_type\np5866\nI2\nssVlocation\np5867\nI3\nsasVcreative_ids\np5868\n(lp5869\nI6005468445965\nasVmax_bid\np5870\nV100\np5871\nsVadgroup_id\np5872\nI6005468446565\nsVaccount_id\np5873\nI40156177\nsa(dp5874\nVconversion_specs\np5875\n(lp5876\n(dp5877\nVobject\np5878\nVhttp://www.buzzfeed.com/h1/fbss/breakingbad/25-best-pieces-of-breaking-bad-fan-art-61z6\np5879\nsVaction.type\np5880\nVlike\np5881\nsasVupdated_time\np5882\nV2012-09-21T20:09:53+0000\np5883\nsVbid_type\np5884\nI1\nsVname\np5885\nV25 Best Pieces of Breaking Bad Fan Art\np5886\nsVtracking_pixel_ids\np5887\n(lp5888\nsVtargeting\np5889\n(dp5890\nVaction_spec_friend\np5891\n(lp5892\n(dp5893\nVobject\np5894\nVhttp://www.buzzfeed.com/h1/fbss/breakingbad/25-best-pieces-of-breaking-bad-fan-art-61z6\np5895\nsVaction.type\np5896\nVlike\np5897\nsa(dp5898\nVobject\np5899\nVhttp://www.buzzfeed.com/h1/fbss/breakingbad/25-best-pieces-of-breaking-bad-fan-art-61z6\np5900\nsVaction.type\np5901\nVpost\np5902\nsasVcountries\np5903\n(lp5904\nVUS\np5905\nassVbid_info\np5906\n(dp5907\nV1\np5908\nV100\np5909\nssVstart_time\np5910\nNsVad_status\np5911\nI2\nsVcampaign_id\np5912\nI6005468951765\nsVlocations\np5913\n(lp5914\nI3\nasVcreated_time\np5915\nV2012-07-06T20:03:00+0000\np5916\nsVend_time\np5917\nNsVadgroup_status\np5918\nI8\nsVid\np5919\nV6005468953365\np5920\nsVad_id\np5921\nI6005468953365\nsVimpression_control_map\np5922\n(lp5923\n(dp5924\nVcontrol\np5925\n(dp5926\nVuser_impression_limit_period\np5927\nI24\nsVuser_impression_limit\np5928\nI6\nsVuser_impression_limit_period_unit\np5929\nI0\nsVimpression_control_type\np5930\nI2\nssVlocation\np5931\nI3\nsasVcreative_ids\np5932\n(lp5933\nI6005468952765\nasVmax_bid\np5934\nV100\np5935\nsVadgroup_id\np5936\nI6005468953365\nsVaccount_id\np5937\nI40156177\nsa(dp5938\nVconversion_specs\np5939\n(lp5940\nsVupdated_time\np5941\nV2012-09-21T20:09:55+0000\np5942\nsVbid_type\np5943\nI1\nsVname\np5944\nVBest TV Security Guards\np5945\nsVtracking_pixel_ids\np5946\n(lp5947\nsVtargeting\np5948\n(dp5949\nVkeywords\np5950\n(lp5951\nV#Martin Lawrence\np5952\naV#AMC (TV channel)\np5953\naV#Tyler Perry\np5954\naV#Paul Blart: Mall Cop\np5955\naV#Demi Moore\np5956\nasVage_max\np5957\nI65\nsVcountries\np5958\n(lp5959\nVUS\np5960\nasVbroad_age\np5961\nI1\nsVage_min\np5962\nI13\nssVbid_info\np5963\n(dp5964\nV1\np5965\nV70\np5966\nssVstart_time\np5967\nNsVad_status\np5968\nI2\nsVcampaign_id\np5969\nI6005468995965\nsVlocations\np5970\n(lp5971\nI3\nasVcreated_time\np5972\nV2012-07-17T19:31:46+0000\np5973\nsVend_time\np5974\nNsVadgroup_status\np5975\nI8\nsVid\np5976\nV6005515021765\np5977\nsVad_id\np5978\nI6005515021765\nsVimpression_control_map\np5979\n(lp5980\n(dp5981\nVcontrol\np5982\n(dp5983\nVuser_impression_limit_period\np5984\nI24\nsVuser_impression_limit\np5985\nI6\nsVuser_impression_limit_period_unit\np5986\nI0\nsVimpression_control_type\np5987\nI2\nssVlocation\np5988\nI3\nsasVcreative_ids\np5989\n(lp5990\nI6005515021365\nasVmax_bid\np5991\nV70\np5992\nsVadgroup_id\np5993\nI6005515021765\nsVaccount_id\np5994\nI40156177\nsa(dp5995\nVconversion_specs\np5996\n(lp5997\nsVupdated_time\np5998\nV2012-07-17T19:31:22+0000\np5999\nsVbid_type\np6000\nI1\nsVname\np6001\nVSmallville Fans!\np6002\nsVtracking_pixel_ids\np6003\n(lp6004\nsVtargeting\np6005\n(dp6006\nVkeywords\np6007\n(lp6008\nV#Smallville\np6009\naVsmallville season 8\np6010\naV#Smallville (comics)\np6011\naV#The Vampire Diaries\np6012\naVsmallville superman\np6013\naV#Heroes (TV series)\np6014\naV#Fringe (TV series)\np6015\naVsmallville supernatural\np6016\naV#Supernatural (TV series)\np6017\naVsmallvillegirls\np6018\naVsmallville site web\np6019\nasVage_max\np6020\nI65\nsVcountries\np6021\n(lp6022\nVUS\np6023\nasVbroad_age\np6024\nI1\nsVage'
p6
sS'hash'
p7
S'c6dde17efe2bef3771476bb988980887eb001dad'
p8
sS'stack'
p9
S''
s.