(dp1
S'args'
p2
S''
sS'methodname'
p3
S''
sS'packet_num'
p4
I348
sS'returnval'
p5
S'175\nVkeywords\np65176\n(lp65177\nV#Marriott International\np65178\naV#Ostrich\np65179\naV#K2\np65180\naV#Animal Planet\np65181\naV#Slalom skiing\np65182\naV#Skis Rossignol\np65183\naV#Backcountry skiing\np65184\naV#Skiing\np65185\naV#Alpine skiing\np65186\naV#Freestyle skiing\np65187\naV#Burton Snowboards\np65188\naV#Avant\np65189\nasVage_max\np65190\nI65\nsVcountries\np65191\n(lp65192\nVUS\np65193\nasVbroad_age\np65194\nI1\nsVage_min\np65195\nI13\nssVid\np65196\nV6006011940365\np65197\nsVobjective\np65198\nI2\nsVmax_bid\np65199\nV65\np65200\nsVad_id\np65201\nI6006011940365\nsVaccount_id\np65202\nI40156177\nsVstart_time\np65203\nNsVlocations\np65204\n(lp65205\nI3\nasVadgroup_status\np65206\nI1\nsVad_status\np65207\nI1\nsVimpression_control_map\np65208\n(lp65209\n(dp65210\nVcontrol\np65211\n(dp65212\nVuser_impression_limit_period\np65213\nI24\nsVuser_impression_limit\np65214\nI6\nsVuser_impression_limit_period_unit\np65215\nI0\nsVimpression_control_type\np65216\nI2\nssVlocation\np65217\nI3\nsasVcreative_ids\np65218\n(lp65219\nI6006011939965\nasVtracking_pixel_ids\np65220\n(lp65221\nsVbid_type\np65222\nI1\nsVname\np65223\nVMarriott Residence Inn: Oct_2012 | 20-Gifs-That-Will-Make-You-Want-To-Travel-For-Busi-7Bu6\np65224\nsVupdated_time\np65225\nV2012-10-15T13:07:21+0000\np65226\nsVend_time\np65227\nV2012-10-16T06:47:00+0000\np65228\nsa(dp65229\nVbid_info\np65230\n(dp65231\nV1\np65232\nV65\np65233\nssVcampaign_id\np65234\nI6006011743365\nsVlast_updated_by_app_id\np65235\nI6802152230\nsVcreated_time\np65236\nV2012-10-11T14:49:26+0000\np65237\nsVconversion_specs\np65238\n(lp65239\nsVadgroup_id\np65240\nI6006011744365\nsVtargeting\np65241\n(dp65242\nVkeywords\np65243\n(lp65244\nV#I Can Has Cheezburger?\np65245\naV#Puss in Boots (Shrek)\np65246\naV#Maru (cat)\np65247\naV#Stray Cats\np65248\naV#Mashable\np65249\naV#Kitten\np65250\naV#Hello Kitty\np65251\naV#Cat\np65252\naV#Internet meme\np65253\naV#Cuteness\np65254\naV#Digg\np65255\naV#Garfield (character)\np65256\naV#The Onion\np65257\naV#Cats 101\np65258\naV#CollegeHumor\np65259\naV#Meow Mix\np65260\naV#Puss in Boots (2011 film)\np65261\naV#Cracked.com\np65262\naV#Reddit\np65263\naV#Cats and Kittens\np65264\naV#Cheshire Cat\np65265\naV#BuzzFeed\np65266\naV#Funny or Die\np65267\naV#Babies\np65268\naV#Puss in Boots\np65269\naV#Cats Protection\np65270\naV#Tom and Jerry\np65271\naV#The Cat in the Hat\np65272\naV#Puss in Boots: The Three Diablos\np65273\nasVage_max\np65274\nI65\nsVcountries\np65275\n(lp65276\nVUS\np65277\nasVbroad_age\np65278\nI1\nsVage_min\np65279\nI13\nssVid\np65280\nV6006011744365\np65281\nsVobjective\np65282\nI2\nsVmax_bid\np65283\nV65\np65284\nsVad_id\np65285\nI6006011744365\nsVaccount_id\np65286\nI40156177\nsVstart_time\np65287\nNsVlocations\np65288\n(lp65289\nI3\nasVadgroup_status\np65290\nI9\nsVad_status\np65291\nI2\nsVimpression_control_map\np65292\n(lp65293\n(dp65294\nVcontrol\np65295\n(dp65296\nVuser_impression_limit_period\np65297\nI24\nsVuser_impression_limit\np65298\nI3\nsVuser_impression_limit_period_unit\np65299\nI0\nsVimpression_control_type\np65300\nI2\nssVlocation\np65301\nI3\nsasVcreative_ids\np65302\n(lp65303\nI6006011743965\nasVtracking_pixel_ids\np65304\n(lp65305\nsVbid_type\np65306\nI1\nsVname\np65307\nVhttp://www.buzzfeed.com/h1/fbad/marriott/20-gifs-that-will-make-you-want-to-travel-for-busi-... - Ad\np65308\nsVupdated_time\np65309\nV2012-10-15T13:07:21+0000\np65310\nsVend_time\np65311\nV2012-10-16T06:47:00+0000\np65312\nsa(dp65313\nVbid_info\np65314\n(dp65315\nV1\np65316\nV65\np65317\nssVcampaign_id\np65318\nI6006012699765\nsVcreated_time\np65319\nV2012-10-11T17:34:11+0000\np65320\nsVconversion_specs\np65321\n(lp65322\nsVadgroup_id\np65323\nI6006012701365\nsVtargeting\np65324\n(dp65325\nVkeywords\np65326\n(lp65327\nV#Garfield and Friends\np65328\naV#Garfield\np65329\naV#Gary Larson\np65330\naV#The Garfield Show\np65331\naV#Garfield (character)\np65332\naV#Garfield: A Tail of Two Kitties\np65333\naV#Cracked.com\np65334\naV#Charles M. Schulz\np65335\naV#Garfield: The Movie\np65336\naV#Odie\np65337\naV#Jim Davis (cartoonist)\np65338\naV#BuzzFeed\np65339\naV#Funny or Die\np65340\naV#Lorenzo Music\np65341\naVi hate mondays club\np65342\naV#Scott Adams\np65343\naV#Bill Watterson\np65344\nasVage_max\np65345\nI65\nsVcountries\np65346\n(lp65347\nVUS\np65348\nasVbroad_age\np65349\nI1\nsVage_min\np65350\nI13\nssVid\np65351\nV6006012701365\np65352\nsVobjective\np65353\nI2\nsVmax_bid\np65354\nV65\np65355\nsVad_id\np6535'
p6
sS'hash'
p7
S'c6dde17efe2bef3771476bb988980887eb001dad'
p8
sS'stack'
p9
S''
s.