(dp1
S'args'
p2
S''
sS'methodname'
p3
S''
sS'packet_num'
p4
I173
sS'returnval'
p5
S'\nI65\nsVcountries\np32935\n(lp32936\nVUS\np32937\nasVbroad_age\np32938\nI1\nsVage_min\np32939\nI13\nssVid\np32940\nV6005735354565\np32941\nsVmax_bid\np32942\nV65\np32943\nsVad_id\np32944\nI6005735354565\nsVaccount_id\np32945\nI40156177\nsVstart_time\np32946\nV2012-08-27T15:18:30+0000\np32947\nsVlocations\np32948\n(lp32949\nI3\nasVadgroup_status\np32950\nI9\nsVad_status\np32951\nI2\nsVimpression_control_map\np32952\n(lp32953\n(dp32954\nVcontrol\np32955\n(dp32956\nVuser_impression_limit_period\np32957\nI24\nsVuser_impression_limit\np32958\nI3\nsVuser_impression_limit_period_unit\np32959\nI0\nsVimpression_control_type\np32960\nI2\nssVlocation\np32961\nI3\nsasVcreative_ids\np32962\n(lp32963\nI6005735354165\nasVtracking_pixel_ids\np32964\n(lp32965\nsVbid_type\np32966\nI1\nsVname\np32967\nVProfessional Tumbler?\np32968\nsVupdated_time\np32969\nV2012-08-27T18:06:05+0000\np32970\nsVend_time\np32971\nNsa(dp32972\nVconversion_specs\np32973\n(lp32974\nsVupdated_time\np32975\nV2012-09-21T20:14:56+0000\np32976\nsVbid_type\np32977\nI1\nsVname\np32978\nV"It\'s My D*ck In A Box!"\np32979\nsVtracking_pixel_ids\np32980\n(lp32981\nsVtargeting\np32982\n(dp32983\nVkeywords\np32984\n(lp32985\nV#30 Rock\np32986\naV#Jorma Taccone\np32987\naV#"Weird Al" Yankovic\np32988\naV#Saturday Night Live\np32989\naVmother lover\np32990\naV#Jizz in My Pants\np32991\naV#Chris Parnell\np32992\naV#Like a Boss\np32993\naV#Justin Timberlake\np32994\naV#I Just Had Sex\np32995\naV#The Creep (song)\np32996\naV#I\'m on a Boat\np32997\naV#Incredibad\np32998\naV#Dick in a Box\np32999\naV#Andy Samberg\np33000\naV#Turtleneck & Chain\np33001\naV#Jack Sparrow (song)\np33002\naVsnl digital shorts\np33003\naV#Kristen Wiig\np33004\naV#The Lonely Island\np33005\naV#Adam Sandler\np33006\naV#Comedy Central\np33007\naV#Boombox (The Lonely Island song)\np33008\naV#SNL Digital Short\np33009\naV#Lazy Sunday\np33010\naVshy ronnie\np33011\naV#Seth Meyers\np33012\naV#Hot Rod (film)\np33013\naV#Akiva Schaffer\np33014\nasVage_max\np33015\nI65\nsVcountries\np33016\n(lp33017\nVUS\np33018\nasVbroad_age\np33019\nI1\nsVage_min\np33020\nI13\nssVbid_info\np33021\n(dp33022\nV1\np33023\nV65\np33024\nssVstart_time\np33025\nNsVad_status\np33026\nI2\nsVcampaign_id\np33027\nI6005735611765\nsVlocations\np33028\n(lp33029\nI3\nasVcreated_time\np33030\nV2012-08-27T16:34:08+0000\np33031\nsVend_time\np33032\nNsVadgroup_status\np33033\nI8\nsVid\np33034\nV6005735612965\np33035\nsVad_id\np33036\nI6005735612965\nsVimpression_control_map\np33037\n(lp33038\n(dp33039\nVcontrol\np33040\n(dp33041\nVuser_impression_limit_period\np33042\nI24\nsVuser_impression_limit\np33043\nI6\nsVuser_impression_limit_period_unit\np33044\nI0\nsVimpression_control_type\np33045\nI2\nssVlocation\np33046\nI3\nsasVcreative_ids\np33047\n(lp33048\nI6005735612365\nasVmax_bid\np33049\nV65\np33050\nsVadgroup_id\np33051\nI6005735612965\nsVaccount_id\np33052\nI40156177\nsa(dp33053\nVconversion_specs\np33054\n(lp33055\nsVupdated_time\np33056\nV2012-09-21T20:14:56+0000\np33057\nsVbid_type\np33058\nI1\nsVname\np33059\nVPup In A Blanket\np33060\nsVtracking_pixel_ids\np33061\n(lp33062\nsVtargeting\np33063\n(dp33064\nVkeywords\np33065\n(lp33066\nV#PetSmart\np33067\naV#Beverly Hills Chihuahua 2\np33068\naV#Kitten\np33069\naV#Petco\np33070\naV#Pets\np33071\naV#Cuteness\np33072\naV#Chihuahua (dog)\np33073\naVdogs\np33074\naV#Beverly Hills Chihuahua\np33075\naV#BuzzFeed\np33076\nasVage_max\np33077\nI65\nsVcountries\np33078\n(lp33079\nVUS\np33080\nasVbroad_age\np33081\nI1\nsVage_min\np33082\nI13\nssVbid_info\np33083\n(dp33084\nV1\np33085\nV65\np33086\nssVstart_time\np33087\nNsVad_status\np33088\nI2\nsVcampaign_id\np33089\nI6005735611765\nsVlocations\np33090\n(lp33091\nI3\nasVcreated_time\np33092\nV2012-08-27T16:41:41+0000\np33093\nsVend_time\np33094\nNsVadgroup_status\np33095\nI8\nsVid\np33096\nV6005735627965\np33097\nsVad_id\np33098\nI6005735627965\nsVimpression_control_map\np33099\n(lp33100\n(dp33101\nVcontrol\np33102\n(dp33103\nVuser_impression_limit_period\np33104\nI24\nsVuser_impression_limit\np33105\nI6\nsVuser_impression_limit_period_unit\np33106\nI0\nsVimpression_control_type\np33107\nI2\nssVlocation\np33108\nI3\nsasVcreative_ids\np33109\n(lp33110\nI6005735627165\nasVmax_bid\np33111\nV65\np33112\nsVadgroup_id\np33113\nI6005735627965\nsVaccount_id\np33114\nI40156177\nsa(dp33115\nVbid_info\np33116\n(dp33117\nV1\np33118\nV65\np33119\nssVcampaign_id\np33120\nI6005735867765\nsVlast_updated_by_app_id\np33121\nI6802152230\nsVcreated_time\np'
p6
sS'hash'
p7
S'c6dde17efe2bef3771476bb988980887eb001dad'
p8
sS'stack'
p9
S''
s.