(dp1
S'args'
p2
S''
sS'methodname'
p3
S''
sS'packet_num'
p4
I265
sS'returnval'
p5
S"mit_period_unit\np50078\nI0\nsVimpression_control_type\np50079\nI2\nssVlocation\np50080\nI3\nsasVcreative_ids\np50081\n(lp50082\nI6005889479965\nasVtracking_pixel_ids\np50083\n(lp50084\nsVbid_type\np50085\nI1\nsVname\np50086\nVLucy's Candy Stash\np50087\nsVupdated_time\np50088\nV2012-09-24T20:49:04+0000\np50089\nsVend_time\np50090\nNsa(dp50091\nVbid_info\np50092\n(dp50093\nV1\np50094\nV65\np50095\nssVcampaign_id\np50096\nI6005889474965\nsVlast_updated_by_app_id\np50097\nI6802152230\nsVcreated_time\np50098\nV2012-09-24T17:02:59+0000\np50099\nsVconversion_specs\np50100\n(lp50101\nsVadgroup_id\np50102\nI6005889501165\nsVtargeting\np50103\n(dp50104\nVkeywords\np50105\n(lp50106\nV#Beverly Hills Ninja\np50107\naV#Black Sheep (1996 film)\np50108\naV#Saturday Night Live\np50109\naV#Matt Foley\np50110\naV#Wayne's World (film)\np50111\naV#David Spade\np50112\naV#Coneheads (film)\np50113\naV#The Chris Farley Show\np50114\naV#Almost Heroes\np50115\naV#Chris Farley\np50116\naV#Tommy Boy\np50117\nasVage_max\np50118\nI65\nsVcountries\np50119\n(lp50120\nVUS\np50121\nasVbroad_age\np50122\nI1\nsVage_min\np50123\nI13\nssVid\np50124\nV6005889501165\np50125\nsVmax_bid\np50126\nV65\np50127\nsVad_id\np50128\nI6005889501165\nsVaccount_id\np50129\nI40156177\nsVstart_time\np50130\nNsVlocations\np50131\n(lp50132\nI3\nasVadgroup_status\np50133\nI9\nsVad_status\np50134\nI2\nsVimpression_control_map\np50135\n(lp50136\n(dp50137\nVcontrol\np50138\n(dp50139\nVuser_impression_limit_period\np50140\nI24\nsVuser_impression_limit\np50141\nI3\nsVuser_impression_limit_period_unit\np50142\nI0\nsVimpression_control_type\np50143\nI2\nssVlocation\np50144\nI3\nsasVcreative_ids\np50145\n(lp50146\nI6005889500765\nasVtracking_pixel_ids\np50147\n(lp50148\nsVbid_type\np50149\nI1\nsVname\np50150\nVChris Farley - Matt Foley\np50151\nsVupdated_time\np50152\nV2012-09-24T20:48:58+0000\np50153\nsVend_time\np50154\nNsa(dp50155\nVconversion_specs\np50156\n(lp50157\nsVupdated_time\np50158\nV2012-10-05T13:38:30+0000\np50159\nsVbid_type\np50160\nI1\nsVname\np50161\nVEdward Scissorhands GIF\np50162\nsVtracking_pixel_ids\np50163\n(lp50164\nsVtargeting\np50165\n(dp50166\nVkeywords\np50167\n(lp50168\nV#Charlie and the Chocolate Factory (film)\np50169\naV#Tim Burton\np50170\naV#Frankenweenie (2012 film)\np50171\naV#The Nightmare Before Christmas\np50172\naV#Winona Ryder\np50173\naV#Johnny Depp\np50174\naV#Corpse Bride\np50175\naV#Edward Scissorhands\np50176\naV#Alice in Wonderland (2010 film)\np50177\nasVage_max\np50178\nI65\nsVcountries\np50179\n(lp50180\nVUS\np50181\nasVbroad_age\np50182\nI1\nsVage_min\np50183\nI13\nssVbid_info\np50184\n(dp50185\nV1\np50186\nV65\np50187\nssVstart_time\np50188\nNsVad_status\np50189\nI1\nsVcampaign_id\np50190\nI6005889658565\nsVlocations\np50191\n(lp50192\nI3\nasVcreated_time\np50193\nV2012-09-24T18:01:29+0000\np50194\nsVend_time\np50195\nV2012-10-06T03:30:00+0000\np50196\nsVadgroup_status\np50197\nI1\nsVid\np50198\nV6005889659565\np50199\nsVad_id\np50200\nI6005889659565\nsVimpression_control_map\np50201\n(lp50202\n(dp50203\nVcontrol\np50204\n(dp50205\nVuser_impression_limit_period\np50206\nI24\nsVuser_impression_limit\np50207\nI6\nsVuser_impression_limit_period_unit\np50208\nI0\nsVimpression_control_type\np50209\nI2\nssVlocation\np50210\nI3\nsasVcreative_ids\np50211\n(lp50212\nI6005889659165\nasVmax_bid\np50213\nV65\np50214\nsVadgroup_id\np50215\nI6005889659565\nsVaccount_id\np50216\nI40156177\nsa(dp50217\nVbid_info\np50218\n(dp50219\nV1\np50220\nV65\np50221\nssVcampaign_id\np50222\nI6005889658565\nsVlast_updated_by_app_id\np50223\nI6802152230\nsVcreated_time\np50224\nV2012-09-24T18:04:55+0000\np50225\nsVconversion_specs\np50226\n(lp50227\nsVadgroup_id\np50228\nI6005889670165\nsVtargeting\np50229\n(dp50230\nVkeywords\np50231\n(lp50232\nV#Charlie and the Chocolate Factory (film)\np50233\naV#Willy Wonka & the Chocolate Factory\np50234\naV#The Willy Wonka Candy Company\np50235\naV#Tim Burton\np50236\naV#Frankenweenie (2012 film)\np50237\naV#The Nightmare Before Christmas\np50238\naV#Willy Wonka\np50239\naV#Johnny Depp\np50240\naV#Corpse Bride\np50241\naV#Edward Scissorhands\np50242\naV#Alice in Wonderland (2010 film)\np50243\nasVage_max\np50244\nI65\nsVcountries\np50245\n(lp50246\nVUS\np50247\nasVbroad_age\np50248\nI1\nsVage_min\np50249\nI13\nssVid\np50250\nV6005889670165\np50251\nsVmax_bid\np50252\nV65\np50253\nsVad_id\np50254\nI6005889670165\nsVaccount_id\np50255\nI40156177\nsVstart_time\np50256\nNsVlocations\np50257\n(l"
p6
sS'hash'
p7
S'c6dde17efe2bef3771476bb988980887eb001dad'
p8
sS'stack'
p9
S''
s.