(dp1
S'args'
p2
S''
sS'methodname'
p3
S''
sS'packet_num'
p4
I20
sS'returnval'
p5
S'pics!\np4035\nsVtracking_pixel_ids\np4036\n(lp4037\nsVtargeting\np4038\n(dp4039\nVage_max\np4040\nI65\nsVcountries\np4041\n(lp4042\nVUS\np4043\nasVbroad_age\np4044\nI1\nsVage_min\np4045\nI13\nssVbid_info\np4046\n(dp4047\nV1\np4048\nV65\np4049\nssVstart_time\np4050\nNsVad_status\np4051\nI2\nsVcampaign_id\np4052\nI6005432366965\nsVlocations\np4053\n(lp4054\nI3\nasVcreated_time\np4055\nV2012-06-29T20:48:26+0000\np4056\nsVend_time\np4057\nV2012-07-05T03:00:00+0000\np4058\nsVadgroup_status\np4059\nI9\nsVid\np4060\nV6005432367965\np4061\nsVad_id\np4062\nI6005432367965\nsVimpression_control_map\np4063\n(lp4064\n(dp4065\nVcontrol\np4066\n(dp4067\nVuser_impression_limit_period\np4068\nI24\nsVuser_impression_limit\np4069\nI3\nsVuser_impression_limit_period_unit\np4070\nI0\nsVimpression_control_type\np4071\nI2\nssVlocation\np4072\nI3\nsasVcreative_ids\np4073\n(lp4074\nI6005432367565\nasVmax_bid\np4075\nV65\np4076\nsVadgroup_id\np4077\nI6005432367965\nsVaccount_id\np4078\nI40156177\nsa(dp4079\nVconversion_specs\np4080\n(lp4081\nsVupdated_time\np4082\nV2012-09-21T20:09:35+0000\np4083\nsVbid_type\np4084\nI1\nsVname\np4085\nVTruly Amazing Photos!\np4086\nsVtracking_pixel_ids\np4087\n(lp4088\nsVtargeting\np4089\n(dp4090\nVkeywords\np4091\n(lp4092\nVtraveling around\np4093\naV#Travel photography\np4094\naV#Photography\np4095\naV#Travel\np4096\nasVage_max\np4097\nI65\nsVcountries\np4098\n(lp4099\nVUS\np4100\nasVbroad_age\np4101\nI1\nsVage_min\np4102\nI13\nssVbid_info\np4103\n(dp4104\nV1\np4105\nV65\np4106\nssVstart_time\np4107\nNsVad_status\np4108\nI2\nsVcampaign_id\np4109\nI6005432378765\nsVlocations\np4110\n(lp4111\nI3\nasVcreated_time\np4112\nV2012-06-29T20:55:39+0000\np4113\nsVend_time\np4114\nV2012-07-13T03:00:00+0000\np4115\nsVadgroup_status\np4116\nI8\nsVid\np4117\nV6005432379765\np4118\nsVad_id\np4119\nI6005432379765\nsVimpression_control_map\np4120\n(lp4121\n(dp4122\nVcontrol\np4123\n(dp4124\nVuser_impression_limit_period\np4125\nI24\nsVuser_impression_limit\np4126\nI6\nsVuser_impression_limit_period_unit\np4127\nI0\nsVimpression_control_type\np4128\nI2\nssVlocation\np4129\nI3\nsasVcreative_ids\np4130\n(lp4131\nI6005432379365\nasVmax_bid\np4132\nV65\np4133\nsVadgroup_id\np4134\nI6005432379765\nsVaccount_id\np4135\nI40156177\nsa(dp4136\nVconversion_specs\np4137\n(lp4138\nsVupdated_time\np4139\nV2012-09-21T20:09:35+0000\np4140\nsVbid_type\np4141\nI1\nsVname\np4142\nVTruly Amazing Photos! 1\np4143\nsVtracking_pixel_ids\np4144\n(lp4145\nsVtargeting\np4146\n(dp4147\nVkeywords\np4148\n(lp4149\nVtraveling around\np4150\naV#Social documentary photography\np4151\naV#Food photography\np4152\naV#Photobucket\np4153\naV#Full-spectrum photography\np4154\naV#Conceptual photography\np4155\naV#Night photography\np4156\naV#Lifestyle photography\np4157\naV#Still life photography\np4158\naV#Aviation photography\np4159\naV#Fire photography\np4160\naV#Backpacking (travel)\np4161\naV#Travel photography\np4162\naV#Pinterest\np4163\naV#Conservation photography\np4164\naV#Architectural photography\np4165\nasVage_max\np4166\nI65\nsVcountries\np4167\n(lp4168\nVUS\np4169\nasVbroad_age\np4170\nI1\nsVage_min\np4171\nI13\nssVbid_info\np4172\n(dp4173\nV1\np4174\nV65\np4175\nssVstart_time\np4176\nNsVad_status\np4177\nI2\nsVcampaign_id\np4178\nI6005432378765\nsVlocations\np4179\n(lp4180\nI3\nasVcreated_time\np4181\nV2012-07-02T20:39:06+0000\np4182\nsVend_time\np4183\nV2012-07-13T03:00:00+0000\np4184\nsVadgroup_status\np4185\nI8\nsVid\np4186\nV6005444821365\np4187\nsVad_id\np4188\nI6005444821365\nsVimpression_control_map\np4189\n(lp4190\n(dp4191\nVcontrol\np4192\n(dp4193\nVuser_impression_limit_period\np4194\nI24\nsVuser_impression_limit\np4195\nI6\nsVuser_impression_limit_period_unit\np4196\nI0\nsVimpression_control_type\np4197\nI2\nssVlocation\np4198\nI3\nsasVcreative_ids\np4199\n(lp4200\nI6005444820965\nasVmax_bid\np4201\nV65\np4202\nsVadgroup_id\np4203\nI6005444821365\nsVaccount_id\np4204\nI40156177\nsa(dp4205\nVconversion_specs\np4206\n(lp4207\nsVupdated_time\np4208\nV2012-09-21T20:09:35+0000\np4209\nsVbid_type\np4210\nI1\nsVname\np4211\nVTruly Amazing Photos! 2\np4212\nsVtracking_pixel_ids\np4213\n(lp4214\nsVtargeting\np4215\n(dp4216\nVkeywords\np4217\n(lp4218\nV#British Airways\np4219\naV#Air Canada\np4220\naV#American Airlines\np4221\naV#Air France\np4222\naV#Southwest Airlines\np4223\naV#Virgin America\np4224\naV#Delta Air Lines\np4225\naV#JetBlue Airways\np4226\naV#Airline\np4227\naV#AirAsia\np4228\naV#AirTran Airways\np4229\naVairline\np4230\naV#Carni'
p6
sS'hash'
p7
S'c6dde17efe2bef3771476bb988980887eb001dad'
p8
sS'stack'
p9
S''
s.