(dp1
S'args'
p2
S''
sS'methodname'
p3
S''
sS'packet_num'
p4
I346
sS'returnval'
p5
S'League\np64802\naV#University of Massachusetts\np64803\naV#Eli Manning\np64804\naV#Monday Night Football\np64805\naV#Ahmad Bradshaw\np64806\naV#Victor Cruz (American football)\np64807\naV#Hakeem Nicks\np64808\naV#New York Giants\np64809\naV#David Wilson (American football)\np64810\naV#NFL Network\np64811\nasVage_max\np64812\nI65\nsVcountries\np64813\n(lp64814\nVUS\np64815\nasVbroad_age\np64816\nI1\nsVage_min\np64817\nI13\nssVid\np64818\nV6006004991165\np64819\nsVobjective\np64820\nI2\nsVmax_bid\np64821\nV65\np64822\nsVad_id\np64823\nI6006004991165\nsVaccount_id\np64824\nI40156177\nsVstart_time\np64825\nNsVlocations\np64826\n(lp64827\nI3\nasVadgroup_status\np64828\nI1\nsVad_status\np64829\nI1\nsVimpression_control_map\np64830\n(lp64831\n(dp64832\nVcontrol\np64833\n(dp64834\nVuser_impression_limit_period\np64835\nI24\nsVuser_impression_limit\np64836\nI3\nsVuser_impression_limit_period_unit\np64837\nI0\nsVimpression_control_type\np64838\nI2\nssVlocation\np64839\nI3\nsasVcreative_ids\np64840\n(lp64841\nI6006004990765\nasVtracking_pixel_ids\np64842\n(lp64843\nsVbid_type\np64844\nI1\nsVname\np64845\nVVictor Cruz\np64846\nsVupdated_time\np64847\nV2012-10-10T19:06:45+0000\np64848\nsVend_time\np64849\nNsa(dp64850\nVbid_info\np64851\n(dp64852\nV1\np64853\nV65\np64854\nssVcampaign_id\np64855\nI6006005015365\nsVlast_updated_by_app_id\np64856\nI6802152230\nsVcreated_time\np64857\nV2012-10-10T14:22:37+0000\np64858\nsVconversion_specs\np64859\n(lp64860\nsVadgroup_id\np64861\nI6006005016365\nsVtargeting\np64862\n(dp64863\nVkeywords\np64864\n(lp64865\nV#Michelle Obama\np64866\naV#Barack Obama\np64867\naV#Joe Biden\np64868\nasVage_max\np64869\nI65\nsVcountries\np64870\n(lp64871\nVUS\np64872\nasVbroad_age\np64873\nI1\nsVage_min\np64874\nI13\nssVid\np64875\nV6006005016365\np64876\nsVobjective\np64877\nI2\nsVmax_bid\np64878\nV65\np64879\nsVad_id\np64880\nI6006005016365\nsVaccount_id\np64881\nI40156177\nsVstart_time\np64882\nNsVlocations\np64883\n(lp64884\nI3\nasVadgroup_status\np64885\nI1\nsVad_status\np64886\nI1\nsVimpression_control_map\np64887\n(lp64888\n(dp64889\nVcontrol\np64890\n(dp64891\nVuser_impression_limit_period\np64892\nI24\nsVuser_impression_limit\np64893\nI3\nsVuser_impression_limit_period_unit\np64894\nI0\nsVimpression_control_type\np64895\nI2\nssVlocation\np64896\nI3\nsasVcreative_ids\np64897\n(lp64898\nI6006005015965\nasVtracking_pixel_ids\np64899\n(lp64900\nsVbid_type\np64901\nI1\nsVname\np64902\nVObama\np64903\nsVupdated_time\np64904\nV2012-10-11T19:51:24+0000\np64905\nsVend_time\np64906\nNsa(dp64907\nVbid_info\np64908\n(dp64909\nV1\np64910\nV65\np64911\nssVcampaign_id\np64912\nI6006005015365\nsVlast_updated_by_app_id\np64913\nI6802152230\nsVcreated_time\np64914\nV2012-10-10T14:24:36+0000\np64915\nsVconversion_specs\np64916\n(lp64917\nsVadgroup_id\np64918\nI6006005020765\nsVtargeting\np64919\n(dp64920\nVkeywords\np64921\n(lp64922\nV#The Colbert Report\np64923\naV#Michelle Obama\np64924\naV#Big Bird\np64925\naV#Barack Obama\np64926\naV#Sesame Street\np64927\naV#The Daily Show\np64928\naV#Joe Biden\np64929\nasVage_max\np64930\nI65\nsVcountries\np64931\n(lp64932\nVUS\np64933\nasVbroad_age\np64934\nI1\nsVage_min\np64935\nI13\nssVid\np64936\nV6006005020765\np64937\nsVobjective\np64938\nI2\nsVmax_bid\np64939\nV65\np64940\nsVad_id\np64941\nI6006005020765\nsVaccount_id\np64942\nI40156177\nsVstart_time\np64943\nNsVlocations\np64944\n(lp64945\nI3\nasVadgroup_status\np64946\nI1\nsVad_status\np64947\nI1\nsVimpression_control_map\np64948\n(lp64949\n(dp64950\nVcontrol\np64951\n(dp64952\nVuser_impression_limit_period\np64953\nI24\nsVuser_impression_limit\np64954\nI3\nsVuser_impression_limit_period_unit\np64955\nI0\nsVimpression_control_type\np64956\nI2\nssVlocation\np64957\nI3\nsasVcreative_ids\np64958\n(lp64959\nI6006005020365\nasVtracking_pixel_ids\np64960\n(lp64961\nsVbid_type\np64962\nI1\nsVname\np64963\nVJoe Biden\np64964\nsVupdated_time\np64965\nV2012-10-10T19:06:56+0000\np64966\nsVend_time\np64967\nNsa(dp64968\nVbid_info\np64969\n(dp64970\nV1\np64971\nV65\np64972\nssVcampaign_id\np64973\nI6006005015365\nsVcreated_time\np64974\nV2012-10-10T15:21:23+0000\np64975\nsVconversion_specs\np64976\n(lp64977\nsVadgroup_id\np64978\nI6006005213365\nsVtargeting\np64979\n(dp64980\nVkeywords\np64981\n(lp64982\nV#Presidency of Bill Clinton\np64983\naV#The Colbert Report\np64984\naV#Bill Clinton\np64985\naV#Barack Obama\np64986\naV#Hillary Rodham Clinton\np64987\naV#The Daily Show\np64988\naV#My Life (Bill Clinton autobiography)\np649'
p6
sS'hash'
p7
S'c6dde17efe2bef3771476bb988980887eb001dad'
p8
sS'stack'
p9
S''
s.