(dp1
S'args'
p2
S''
sS'methodname'
p3
S''
sS'packet_num'
p4
I280
sS'returnval'
p5
S'3\nVUS\np52844\nasVbroad_age\np52845\nI1\nsVage_min\np52846\nI13\nssVid\np52847\nV6005915639565\np52848\nsVmax_bid\np52849\nV65\np52850\nsVad_id\np52851\nI6005915639565\nsVaccount_id\np52852\nI40156177\nsVstart_time\np52853\nNsVlocations\np52854\n(lp52855\nI3\nasVadgroup_status\np52856\nI1\nsVad_status\np52857\nI1\nsVimpression_control_map\np52858\n(lp52859\n(dp52860\nVcontrol\np52861\n(dp52862\nVuser_impression_limit_period\np52863\nI24\nsVuser_impression_limit\np52864\nI6\nsVuser_impression_limit_period_unit\np52865\nI0\nsVimpression_control_type\np52866\nI2\nssVlocation\np52867\nI3\nsasVcreative_ids\np52868\n(lp52869\nI6005915639165\nasVtracking_pixel_ids\np52870\n(lp52871\nsVbid_type\np52872\nI1\nsVname\np52873\nVSnow Days! 1\np52874\nsVupdated_time\np52875\nV2012-09-27T21:08:56+0000\np52876\nsVend_time\np52877\nNsa(dp52878\nVconversion_specs\np52879\n(lp52880\nsVupdated_time\np52881\nV2012-09-27T23:10:55+0000\np52882\nsVbid_type\np52883\nI1\nsVname\np52884\nVGuitar Hero!\np52885\nsVtracking_pixel_ids\np52886\n(lp52887\nsVtargeting\np52888\n(dp52889\nVkeywords\np52890\n(lp52891\nV#Fender Musical Instruments Corporation\np52892\naV#Electric guitar\np52893\naV#Guitar Center\np52894\naV#Guitar Hero\np52895\naV#Jimmy Page\np52896\naV#Guitar Hero III: Legends of Rock\np52897\naV#Guitar Hero: Metallica\np52898\naV#Rock Band (video game)\np52899\naV#Eric Clapton\np52900\naV#Metallica\np52901\naV#Jimi Hendrix\np52902\naV#Guitar\np52903\naV#Jeff Beck\np52904\naV#Keith Richards\np52905\naV#Acoustic guitar\np52906\naV#Eddie Van Halen\np52907\naV#The Beatles\np52908\naV#Gibson Guitar Corporation\np52909\naV#The Rolling Stones\np52910\naV#Chuck Berry\np52911\naV#Bass guitar\np52912\naV#The Beatles: Rock Band\np52913\naV#Van Halen\np52914\nasVage_max\np52915\nI65\nsVcountries\np52916\n(lp52917\nVUS\np52918\nasVbroad_age\np52919\nI1\nsVage_min\np52920\nI13\nssVbid_info\np52921\n(dp52922\nV1\np52923\nV65\np52924\nssVstart_time\np52925\nNsVad_status\np52926\nI1\nsVcampaign_id\np52927\nI6005915635365\nsVlocations\np52928\n(lp52929\nI3\nasVcreated_time\np52930\nV2012-09-27T20:02:02+0000\np52931\nsVend_time\np52932\nNsVadgroup_status\np52933\nI1\nsVid\np52934\nV6005924558965\np52935\nsVad_id\np52936\nI6005924558965\nsVimpression_control_map\np52937\n(lp52938\n(dp52939\nVcontrol\np52940\n(dp52941\nVuser_impression_limit_period\np52942\nI24\nsVuser_impression_limit\np52943\nI6\nsVuser_impression_limit_period_unit\np52944\nI0\nsVimpression_control_type\np52945\nI2\nssVlocation\np52946\nI3\nsasVcreative_ids\np52947\n(lp52948\nI6005924558565\nasVmax_bid\np52949\nV65\np52950\nsVadgroup_id\np52951\nI6005924558965\nsVaccount_id\np52952\nI40156177\nsa(dp52953\nVbid_info\np52954\n(dp52955\nV1\np52956\nV65\np52957\nssVcampaign_id\np52958\nI6005915635365\nsVlast_updated_by_app_id\np52959\nI6802152230\nsVcreated_time\np52960\nV2012-09-26T16:11:31+0000\np52961\nsVconversion_specs\np52962\n(lp52963\nsVadgroup_id\np52964\nI6005915636365\nsVtargeting\np52965\n(dp52966\nVkeywords\np52967\n(lp52968\nV#Blizzard\np52969\naV#Snowflake\np52970\naV#Skiing\np52971\naV#Snow\np52972\naV#Snow Day (film)\np52973\naV#Snowboarding\np52974\nasVage_max\np52975\nI65\nsVcountries\np52976\n(lp52977\nVUS\np52978\nasVbroad_age\np52979\nI1\nsVage_min\np52980\nI13\nssVid\np52981\nV6005915636365\np52982\nsVmax_bid\np52983\nV65\np52984\nsVad_id\np52985\nI6005915636365\nsVaccount_id\np52986\nI40156177\nsVstart_time\np52987\nNsVlocations\np52988\n(lp52989\nI3\nasVadgroup_status\np52990\nI9\nsVad_status\np52991\nI2\nsVimpression_control_map\np52992\n(lp52993\n(dp52994\nVcontrol\np52995\n(dp52996\nVuser_impression_limit_period\np52997\nI24\nsVuser_impression_limit\np52998\nI3\nsVuser_impression_limit_period_unit\np52999\nI0\nsVimpression_control_type\np53000\nI2\nssVlocation\np53001\nI3\nsasVcreative_ids\np53002\n(lp53003\nI6005915635965\nasVtracking_pixel_ids\np53004\n(lp53005\nsVbid_type\np53006\nI1\nsVname\np53007\nVSnow Days!\np53008\nsVupdated_time\np53009\nV2012-09-27T13:41:11+0000\np53010\nsVend_time\np53011\nNsa(dp53012\nVbid_info\np53013\n(dp53014\nV1\np53015\nV65\np53016\nssVcampaign_id\np53017\nI6005915793965\nsVlast_updated_by_app_id\np53018\nI6802152230\nsVcreated_time\np53019\nV2012-09-26T17:14:13+0000\np53020\nsVconversion_specs\np53021\n(lp53022\nsVadgroup_id\np53023\nI6005915794965\nsVtargeting\np53024\n(dp53025\nVkeywords\np53026\n(lp53027\nV#Family Guy\np53028\naV#Glenn Quagmire\np53029\naV#Charlie Sheen\np53030\naV#Seth MacFarlane\np53031\naV#Famil'
p6
sS'hash'
p7
S'c6dde17efe2bef3771476bb988980887eb001dad'
p8
sS'stack'
p9
S''
s.