(dp1
S'args'
p2
S''
sS'methodname'
p3
S''
sS'packet_num'
p4
I150
sS'returnval'
p5
S'28804\n(dp28805\nV1\np28806\nV65\np28807\nssVstart_time\np28808\nNsVad_status\np28809\nI2\nsVcampaign_id\np28810\nI6005701450365\nsVlocations\np28811\n(lp28812\nI3\nasVcreated_time\np28813\nV2012-08-20T14:38:30+0000\np28814\nsVend_time\np28815\nNsVadgroup_status\np28816\nI8\nsVid\np28817\nV6005701460765\np28818\nsVad_id\np28819\nI6005701460765\nsVimpression_control_map\np28820\n(lp28821\n(dp28822\nVcontrol\np28823\n(dp28824\nVuser_impression_limit_period\np28825\nI24\nsVuser_impression_limit\np28826\nI6\nsVuser_impression_limit_period_unit\np28827\nI0\nsVimpression_control_type\np28828\nI2\nssVlocation\np28829\nI3\nsasVcreative_ids\np28830\n(lp28831\nI6005701460165\nasVmax_bid\np28832\nV65\np28833\nsVadgroup_id\np28834\nI6005701460765\nsVaccount_id\np28835\nI40156177\nsa(dp28836\nVbid_info\np28837\n(dp28838\nV1\np28839\nV65\np28840\nssVcampaign_id\np28841\nI6005701450365\nsVlast_updated_by_app_id\np28842\nI6802152230\nsVcreated_time\np28843\nV2012-08-20T19:43:40+0000\np28844\nsVconversion_specs\np28845\n(lp28846\nsVadgroup_id\np28847\nI6005703853365\nsVtargeting\np28848\n(dp28849\nVage_max\np28850\nI65\nsVcountries\np28851\n(lp28852\nVUS\np28853\nasVbroad_age\np28854\nI1\nsVage_min\np28855\nI13\nsVkeywords\np28856\n(lp28857\nV#Floriculture\np28858\naV#Flower bouquet\np28859\naVflowers\np28860\naV#Landscape\np28861\naV#Landscape design\np28862\naV#Discovery Channel\np28863\naV#Lilac (color)\np28864\naV#Lilac Festival (Rochester)\np28865\naV#Pink\np28866\naV#Petal\np28867\naV#Violet (color)\np28868\naV#National Geographic Channel\np28869\naV#Flower\np28870\naV#Royal Horticultural Society\np28871\naV#Organic horticulture\np28872\naV#Purple\np28873\naV#Horticulture\np28874\naV#Rose\np28875\naV#Meadow\np28876\naV#Nature\np28877\naV#Landscape photography\np28878\naV#Sunflower\np28879\naVviolet\np28880\nasVgenders\np28881\n(lp28882\nI2\nassVid\np28883\nV6005703853365\np28884\nsVmax_bid\np28885\nV65\np28886\nsVad_id\np28887\nI6005703853365\nsVaccount_id\np28888\nI40156177\nsVstart_time\np28889\nNsVlocations\np28890\n(lp28891\nI3\nasVadgroup_status\np28892\nI9\nsVad_status\np28893\nI2\nsVimpression_control_map\np28894\n(lp28895\n(dp28896\nVcontrol\np28897\n(dp28898\nVuser_impression_limit_period\np28899\nI24\nsVuser_impression_limit\np28900\nI3\nsVuser_impression_limit_period_unit\np28901\nI0\nsVimpression_control_type\np28902\nI2\nssVlocation\np28903\nI3\nsasVcreative_ids\np28904\n(lp28905\nI6005703852965\nasVtracking_pixel_ids\np28906\n(lp28907\nsVbid_type\np28908\nI1\nsVname\np28909\nVGorgeous Purple Meadow!\np28910\nsVupdated_time\np28911\nV2012-08-21T19:52:26+0000\np28912\nsVend_time\np28913\nNsa(dp28914\nVconversion_specs\np28915\n(lp28916\nsVupdated_time\np28917\nV2012-09-21T20:14:16+0000\np28918\nsVbid_type\np28919\nI1\nsVname\np28920\nVSix Degrees Of Seperation 2\np28921\nsVtracking_pixel_ids\np28922\n(lp28923\nsVtargeting\np28924\n(dp28925\nVkeywords\np28926\n(lp28927\nV#30 Rock\np28928\naV#Tom Haverford\np28929\naV#Seth Rogen\np28930\naV#How I Met Your Mother\np28931\naV#Aziz Ansari\np28932\naV#Ron Swanson\np28933\naV#Community (TV series)\np28934\naV#Jonah Hill\np28935\naV#Steve Carell\np28936\naV#Rob Corddry\np28937\naV#The Office (U.S. TV series)\np28938\naV#CollegeHumor\np28939\naV#Leslie Knope\np28940\naV#Paul Rudd\np28941\naV#Human Giant\np28942\naV#Parks and Recreation\np28943\naV#The Other Guys\np28944\naV#Childrens Hospital\np28945\naV#Funny or Die\np28946\naV#Rashida Jones\np28947\naV#Zach Galifianakis\np28948\naV#Arrested Development (TV series)\np28949\naV#Party Down\np28950\naV#Will Ferrell\np28951\naV#NTSF:SD:SUV::\np28952\naV#Danny McBride\np28953\nasVage_max\np28954\nI65\nsVcountries\np28955\n(lp28956\nVUS\np28957\nasVbroad_age\np28958\nI1\nsVage_min\np28959\nI13\nssVbid_info\np28960\n(dp28961\nV1\np28962\nV65\np28963\nssVstart_time\np28964\nNsVad_status\np28965\nI2\nsVcampaign_id\np28966\nI6005701718965\nsVlocations\np28967\n(lp28968\nI3\nasVcreated_time\np28969\nV2012-08-21T13:29:00+0000\np28970\nsVend_time\np28971\nNsVadgroup_status\np28972\nI8\nsVid\np28973\nV6005708830765\np28974\nsVad_id\np28975\nI6005708830765\nsVimpression_control_map\np28976\n(lp28977\n(dp28978\nVcontrol\np28979\n(dp28980\nVuser_impression_limit_period\np28981\nI24\nsVuser_impression_limit\np28982\nI6\nsVuser_impression_limit_period_unit\np28983\nI0\nsVimpression_control_type\np28984\nI2\nssVlocation\np28985\nI3\nsasVcreative_ids\np28986\n(lp28987\nI6005709040765\nasVmax_bid\np28988\nV65\np28989\nsVadgroup_'
p6
sS'hash'
p7
S'c6dde17efe2bef3771476bb988980887eb001dad'
p8
sS'stack'
p9
S''
s.