(dp1
S'args'
p2
S''
sS'methodname'
p3
S''
sS'packet_num'
p4
I340
sS'returnval'
p5
S'dp63698\nVcontrol\np63699\n(dp63700\nVuser_impression_limit_period\np63701\nI24\nsVuser_impression_limit\np63702\nI6\nsVuser_impression_limit_period_unit\np63703\nI0\nsVimpression_control_type\np63704\nI2\nssVlocation\np63705\nI3\nsasVcreative_ids\np63706\n(lp63707\nI6005998900965\nasVtracking_pixel_ids\np63708\n(lp63709\nsVbid_type\np63710\nI1\nsVname\np63711\nVMindy Kaling\np63712\nsVupdated_time\np63713\nV2012-10-10T17:24:56+0000\np63714\nsVend_time\np63715\nV2012-10-11T03:30:00+0000\np63716\nsa(dp63717\nVbid_info\np63718\n(dp63719\nV1\np63720\nV65\np63721\nssVcampaign_id\np63722\nI6006001450965\nsVcreated_time\np63723\nV2012-10-09T14:02:44+0000\np63724\nsVconversion_specs\np63725\n(lp63726\nsVadgroup_id\np63727\nI6006001451965\nsVtargeting\np63728\n(dp63729\nVkeywords\np63730\n(lp63731\nV#I Can Has Cheezburger?\np63732\naV#Mashable\np63733\naV#Troll (Internet)\np63734\naV#Internet meme\np63735\naV#Digg\np63736\naV#The Onion\np63737\naV#CollegeHumor\np63738\naV#Cracked.com\np63739\naV#Reddit\np63740\naV#BuzzFeed\np63741\naV#Funny or Die\np63742\naV#Babies\np63743\naV#Rage comic\np63744\nasVage_max\np63745\nI65\nsVcountries\np63746\n(lp63747\nVUS\np63748\nasVbroad_age\np63749\nI1\nsVage_min\np63750\nI13\nssVid\np63751\nV6006001451965\np63752\nsVobjective\np63753\nI2\nsVmax_bid\np63754\nV65\np63755\nsVad_id\np63756\nI6006001451965\nsVaccount_id\np63757\nI40156177\nsVstart_time\np63758\nNsVlocations\np63759\n(lp63760\nI3\nasVadgroup_status\np63761\nI1\nsVad_status\np63762\nI1\nsVimpression_control_map\np63763\n(lp63764\n(dp63765\nVcontrol\np63766\n(dp63767\nVuser_impression_limit_period\np63768\nI24\nsVuser_impression_limit\np63769\nI6\nsVuser_impression_limit_period_unit\np63770\nI0\nsVimpression_control_type\np63771\nI2\nssVlocation\np63772\nI3\nsasVcreative_ids\np63773\n(lp63774\nI6006001451565\nasVtracking_pixel_ids\np63775\n(lp63776\nsVbid_type\np63777\nI1\nsVname\np63778\nVhttp://www.buzzfeed.com/h1/fbad/totinos/first-world-kid-problems-2wvj - Ad\np63779\nsVupdated_time\np63780\nV2012-10-09T14:03:39+0000\np63781\nsVend_time\np63782\nNsa(dp63783\nVbid_info\np63784\n(dp63785\nV1\np63786\nV65\np63787\nssVcampaign_id\np63788\nI6006001494565\nsVcreated_time\np63789\nV2012-10-09T14:12:35+0000\np63790\nsVconversion_specs\np63791\n(lp63792\nsVadgroup_id\np63793\nI6006001495565\nsVtargeting\np63794\n(dp63795\nVkeywords\np63796\n(lp63797\nV#LA Ink\np63798\naV#Miami Ink\np63799\naV#Jesse James\np63800\naV#Wiz Khalifa\np63801\naV#Tattoo convention\np63802\naV#Tattoo artist\np63803\naV#Bam Margera\np63804\naV#Sleeve tattoo\np63805\naV#SuicideGirls\np63806\naV#Kat Von D\np63807\naV#Ami James\np63808\naV#Tattoo studio\np63809\naV#Tattoo ink\np63810\naV#Pin-up girl\np63811\naV#Ink Master (season 1)\np63812\nasVage_max\np63813\nI65\nsVcountries\np63814\n(lp63815\nVUS\np63816\nasVbroad_age\np63817\nI1\nsVage_min\np63818\nI13\nssVid\np63819\nV6006001495565\np63820\nsVobjective\np63821\nI2\nsVmax_bid\np63822\nV65\np63823\nsVad_id\np63824\nI6006001495565\nsVaccount_id\np63825\nI40156177\nsVstart_time\np63826\nNsVlocations\np63827\n(lp63828\nI3\nasVadgroup_status\np63829\nI1\nsVad_status\np63830\nI1\nsVimpression_control_map\np63831\n(lp63832\n(dp63833\nVcontrol\np63834\n(dp63835\nVuser_impression_limit_period\np63836\nI24\nsVuser_impression_limit\np63837\nI6\nsVuser_impression_limit_period_unit\np63838\nI0\nsVimpression_control_type\np63839\nI2\nssVlocation\np63840\nI3\nsasVcreative_ids\np63841\n(lp63842\nI6006001495165\nasVtracking_pixel_ids\np63843\n(lp63844\nsVbid_type\np63845\nI1\nsVname\np63846\nVhttp://www.buzzfeed.com/h1/fbad/inkmaster/the-13-biggest-tattoo-spelling-fails - Ad\np63847\nsVupdated_time\np63848\nV2012-10-10T10:30:07+0000\np63849\nsVend_time\np63850\nNsa(dp63851\nVbid_info\np63852\n(dp63853\nV1\np63854\nV65\np63855\nssVcampaign_id\np63856\nI6006001494565\nsVlast_updated_by_app_id\np63857\nI6802152230\nsVcreated_time\np63858\nV2012-10-09T14:13:23+0000\np63859\nsVconversion_specs\np63860\n(lp63861\nsVadgroup_id\np63862\nI6006001507165\nsVtargeting\np63863\n(dp63864\nVkeywords\np63865\n(lp63866\nV#LA Ink\np63867\naV#Miami Ink\np63868\naV#Jesse James\np63869\naV#Wiz Khalifa\np63870\naV#Tattoo convention\np63871\naV#Tattoo artist\np63872\naV#Bam Margera\np63873\naV#Sleeve tattoo\np63874\naV#SuicideGirls\np63875\naV#Kat Von D\np63876\naV#Ami James\np63877\naV#Tattoo studio\np63878\naV#Tattoo ink\np63879\naV#Pin-up girl\np63880\naV#Ink Master (season 1)\np63881\nasVage_max\np63882\nI65\nsVcountries\n'
p6
sS'hash'
p7
S'c6dde17efe2bef3771476bb988980887eb001dad'
p8
sS'stack'
p9
S''
s.