(dp1
S'args'
p2
S''
sS'methodname'
p3
S''
sS'packet_num'
p4
I235
sS'returnval'
p5
S"12-09-17T14:14:04+0000\np44498\nsVend_time\np44499\nV2012-09-23T03:30:00+0000\np44500\nsVadgroup_status\np44501\nI1\nsVid\np44502\nV6005823900565\np44503\nsVad_id\np44504\nI6005823900565\nsVimpression_control_map\np44505\n(lp44506\n(dp44507\nVcontrol\np44508\n(dp44509\nVuser_impression_limit_period\np44510\nI24\nsVuser_impression_limit\np44511\nI6\nsVuser_impression_limit_period_unit\np44512\nI0\nsVimpression_control_type\np44513\nI2\nssVlocation\np44514\nI3\nsasVcreative_ids\np44515\n(lp44516\nI6005823900165\nasVmax_bid\np44517\nV65\np44518\nsVadgroup_id\np44519\nI6005823900565\nsVaccount_id\np44520\nI40156177\nsa(dp44521\nVbid_info\np44522\n(dp44523\nV1\np44524\nV65\np44525\nssVcampaign_id\np44526\nI6005823886565\nsVlast_updated_by_app_id\np44527\nI6802152230\nsVcreated_time\np44528\nV2012-09-17T14:10:45+0000\np44529\nsVconversion_specs\np44530\n(lp44531\nsVadgroup_id\np44532\nI6005823892765\nsVtargeting\np44533\n(dp44534\nVkeywords\np44535\n(lp44536\nV#Elvish languages\np44537\naV#The Lord of the Rings: The Fellowship of the Ring\np44538\naVjrr tolkien\np44539\naV#The Hobbit\np44540\naV#J. R. R. Tolkien\np44541\naV#Adaptations of The Lord of the Rings\np44542\naV#The Lord of the Rings film trilogy\np44543\naV#The Lord of the Rings\np44544\naV#The Lord of the Rings: The Return of the King\np44545\naV#Elvish Linguistic Fellowship\np44546\naV#The Lord of the Rings: The Two Towers\np44547\naV#Elvish languages (Middle-earth)\np44548\nasVage_max\np44549\nI65\nsVcountries\np44550\n(lp44551\nVUS\np44552\nasVbroad_age\np44553\nI1\nsVage_min\np44554\nI13\nssVid\np44555\nV6005823892765\np44556\nsVmax_bid\np44557\nV65\np44558\nsVad_id\np44559\nI6005823892765\nsVaccount_id\np44560\nI40156177\nsVstart_time\np44561\nNsVlocations\np44562\n(lp44563\nI3\nasVadgroup_status\np44564\nI9\nsVad_status\np44565\nI2\nsVimpression_control_map\np44566\n(lp44567\n(dp44568\nVcontrol\np44569\n(dp44570\nVuser_impression_limit_period\np44571\nI24\nsVuser_impression_limit\np44572\nI3\nsVuser_impression_limit_period_unit\np44573\nI0\nsVimpression_control_type\np44574\nI2\nssVlocation\np44575\nI3\nsasVcreative_ids\np44576\n(lp44577\nI6005823892365\nasVtracking_pixel_ids\np44578\n(lp44579\nsVbid_type\np44580\nI1\nsVname\np44581\nVCan You Speak Elvish?\np44582\nsVupdated_time\np44583\nV2012-09-22T18:41:30+0000\np44584\nsVend_time\np44585\nV2012-09-23T03:30:00+0000\np44586\nsa(dp44587\nVconversion_specs\np44588\n(lp44589\nsVupdated_time\np44590\nV2012-09-21T20:17:25+0000\np44591\nsVbid_type\np44592\nI1\nsVname\np44593\nVPart Horse, Part Zebra?\np44594\nsVtracking_pixel_ids\np44595\n(lp44596\nsVtargeting\np44597\n(dp44598\nVkeywords\np44599\n(lp44600\nV#Equestrian at the Summer Olympics\np44601\naV#Zoo\np44602\naV#Planet Earth (TV series)\np44603\naV#Pinto horse\np44604\naV#Animal Planet\np44605\naV#Equestrian order\np44606\naV#The Planet's Funniest Animals\np44607\naV#Noor (horse)\np44608\naV#Zebra\np44609\naV#National Geographic Channel\np44610\naV#War Horse (film)\np44611\naV#Horse\np44612\naV#Mustang horse\np44613\naV#Horse racing\np44614\naV#Equestrianism\np44615\naV#Horseshoes\np44616\naV#Mahmoud (horse)\np44617\naV#Equestrian facility\np44618\nasVage_max\np44619\nI65\nsVcountries\np44620\n(lp44621\nVUS\np44622\nasVbroad_age\np44623\nI1\nsVage_min\np44624\nI13\nssVbid_info\np44625\n(dp44626\nV1\np44627\nV65\np44628\nssVstart_time\np44629\nNsVad_status\np44630\nI2\nsVcampaign_id\np44631\nI6005823940165\nsVlocations\np44632\n(lp44633\nI3\nasVcreated_time\np44634\nV2012-09-17T14:36:03+0000\np44635\nsVend_time\np44636\nNsVadgroup_status\np44637\nI8\nsVid\np44638\nV6005823951565\np44639\nsVad_id\np44640\nI6005823951565\nsVimpression_control_map\np44641\n(lp44642\n(dp44643\nVcontrol\np44644\n(dp44645\nVuser_impression_limit_period\np44646\nI24\nsVuser_impression_limit\np44647\nI6\nsVuser_impression_limit_period_unit\np44648\nI0\nsVimpression_control_type\np44649\nI2\nssVlocation\np44650\nI3\nsasVcreative_ids\np44651\n(lp44652\nI6005823951165\nasVmax_bid\np44653\nV65\np44654\nsVadgroup_id\np44655\nI6005823951565\nsVaccount_id\np44656\nI40156177\nsa(dp44657\nVbid_info\np44658\n(dp44659\nV1\np44660\nV65\np44661\nssVcampaign_id\np44662\nI6005823940165\nsVlast_updated_by_app_id\np44663\nI6802152230\nsVcreated_time\np44664\nV2012-09-17T14:29:54+0000\np44665\nsVconversion_specs\np44666\n(lp44667\nsVadgroup_id\np44668\nI6005823941965\nsVtargeting\np44669\n(dp44670\nVkeywords\np44671\n(lp44672\nV#Sun\np44673\naV#Deep Impact ("
p6
sS'hash'
p7
S'c6dde17efe2bef3771476bb988980887eb001dad'
p8
sS'stack'
p9
S''
s.