(dp1
S'args'
p2
S''
sS'methodname'
p3
S''
sS'packet_num'
p4
I187
sS'returnval'
p5
S"V#The Ellen DeGeneres Show\np35541\naV#Bravo!\np35542\naV#Happy Endings (TV series)\np35543\naV#Modern Family\np35544\naV#Will & Grace\np35545\naV#The Advocate\np35546\naV#Brokeback Mountain\np35547\naV#A Single Man\np35548\naV#Queer as Folk (2000 TV series)\np35549\naV#Glee (TV series)\np35550\naV#Ellen DeGeneres\np35551\naV#Queer as Folk (UK TV series)\np35552\naV#The L Word\np35553\naV#Neil Patrick Harris\np35554\nasVage_max\np35555\nI65\nsVcountries\np35556\n(lp35557\nVUS\np35558\nasVbroad_age\np35559\nI1\nsVage_min\np35560\nI13\nssVbid_info\np35561\n(dp35562\nV1\np35563\nV65\np35564\nssVstart_time\np35565\nNsVad_status\np35566\nI2\nsVcampaign_id\np35567\nI6005745585565\nsVlocations\np35568\n(lp35569\nI3\nasVcreated_time\np35570\nV2012-08-29T15:17:07+0000\np35571\nsVend_time\np35572\nV2012-09-11T03:30:00+0000\np35573\nsVadgroup_status\np35574\nI8\nsVid\np35575\nV6005745590765\np35576\nsVad_id\np35577\nI6005745590765\nsVimpression_control_map\np35578\n(lp35579\n(dp35580\nVcontrol\np35581\n(dp35582\nVuser_impression_limit_period\np35583\nI24\nsVuser_impression_limit\np35584\nI6\nsVuser_impression_limit_period_unit\np35585\nI0\nsVimpression_control_type\np35586\nI2\nssVlocation\np35587\nI3\nsasVcreative_ids\np35588\n(lp35589\nI6005745590365\nasVmax_bid\np35590\nV65\np35591\nsVadgroup_id\np35592\nI6005745590765\nsVaccount_id\np35593\nI40156177\nsa(dp35594\nVconversion_specs\np35595\n(lp35596\nsVupdated_time\np35597\nV2012-09-21T20:15:16+0000\np35598\nsVbid_type\np35599\nI1\nsVname\np35600\nVMrs. Robert Downey Jr.\np35601\nsVtracking_pixel_ids\np35602\n(lp35603\nsVtargeting\np35604\n(dp35605\nVkeywords\np35606\n(lp35607\nV#Iron Man (video game)\np35608\naV#Ally McBeal\np35609\naV#Avengers (comics)\np35610\naV#Kiss Kiss Bang Bang\np35611\naV#Tropic Thunder\np35612\naV#Iron Man (film)\np35613\naV#Iron Man 2\np35614\naV#Sherlock Holmes (2009 film)\np35615\naV#Chaplin (film)\np35616\naV#The Avengers (2012 film)\np35617\naV#Natural Born Killers\np35618\naV#Robert Downey, Jr.\np35619\naV#A Scanner Darkly (film)\np35620\nasVage_max\np35621\nI65\nsVcountries\np35622\n(lp35623\nVUS\np35624\nasVbroad_age\np35625\nI1\nsVage_min\np35626\nI13\nssVbid_info\np35627\n(dp35628\nV1\np35629\nV65\np35630\nssVstart_time\np35631\nV2012-08-29T16:00:26+0000\np35632\nsVad_status\np35633\nI2\nsVcampaign_id\np35634\nI6005745608365\nsVlocations\np35635\n(lp35636\nI3\nasVcreated_time\np35637\nV2012-08-29T15:43:42+0000\np35638\nsVend_time\np35639\nV2012-09-11T03:30:00+0000\np35640\nsVadgroup_status\np35641\nI8\nsVid\np35642\nV6005745686765\np35643\nsVad_id\np35644\nI6005745686765\nsVimpression_control_map\np35645\n(lp35646\n(dp35647\nVcontrol\np35648\n(dp35649\nVuser_impression_limit_period\np35650\nI24\nsVuser_impression_limit\np35651\nI6\nsVuser_impression_limit_period_unit\np35652\nI0\nsVimpression_control_type\np35653\nI2\nssVlocation\np35654\nI3\nsasVcreative_ids\np35655\n(lp35656\nI6005745686365\nasVmax_bid\np35657\nV65\np35658\nsVadgroup_id\np35659\nI6005745686765\nsVaccount_id\np35660\nI40156177\nsa(dp35661\nVbid_info\np35662\n(dp35663\nV1\np35664\nV65\np35665\nssVcampaign_id\np35666\nI6005745608365\nsVlast_updated_by_app_id\np35667\nI6802152230\nsVcreated_time\np35668\nV2012-08-29T15:26:43+0000\np35669\nsVconversion_specs\np35670\n(lp35671\nsVadgroup_id\np35672\nI6005745609365\nsVtargeting\np35673\n(dp35674\nVage_max\np35675\nI65\nsVcountries\np35676\n(lp35677\nVUS\np35678\nasVbroad_age\np35679\nI1\nsVage_min\np35680\nI13\nsVkeywords\np35681\n(lp35682\nV#Jon Hamm\np35683\naV#Firefly (film)\np35684\naV#January Jones\np35685\naV#GQ\np35686\naV#Esquire (magazine)\np35687\naV#NBC Sunday Night Football\np35688\naV#Spike (TV channel)\np35689\naV#Details (magazine)\np35690\naV#Drive (2011 film)\np35691\naV#AskMen.com\np35692\naV#Men's Health (magazine)\np35693\naVmens health\np35694\naV#Mad Men\np35695\naV#Christina Hendricks\np35696\naV#Maxim (magazine)\np35697\nasVgenders\np35698\n(lp35699\nI1\nassVid\np35700\nV6005745609365\np35701\nsVmax_bid\np35702\nV65\np35703\nsVad_id\np35704\nI6005745609365\nsVaccount_id\np35705\nI40156177\nsVstart_time\np35706\nV2012-08-29T16:00:26+0000\np35707\nsVlocations\np35708\n(lp35709\nI3\nasVadgroup_status\np35710\nI9\nsVad_status\np35711\nI2\nsVimpression_control_map\np35712\n(lp35713\n(dp35714\nVcontrol\np35715\n(dp35716\nVuser_impression_limit_period\np35717\nI24\nsVuser_impression_limit\np35718\nI3\nsVuser_impression_limit_period_unit\np35719\nI0\nsVimpression_control_type\np35720\n"
p6
sS'hash'
p7
S'c6dde17efe2bef3771476bb988980887eb001dad'
p8
sS'stack'
p9
S''
s.