(dp1
S'args'
p2
S''
sS'methodname'
p3
S''
sS'packet_num'
p4
I87
sS'returnval'
p5
S'_limit_period_unit\np17118\nI0\nsVimpression_control_type\np17119\nI2\nssVlocation\np17120\nI3\nsasVcreative_ids\np17121\n(lp17122\nI6005583415165\nasVmax_bid\np17123\nV65\np17124\nsVadgroup_id\np17125\nI6005583415565\nsVaccount_id\np17126\nI40156177\nsa(dp17127\nVconversion_specs\np17128\n(lp17129\nsVupdated_time\np17130\nV2012-09-21T20:12:09+0000\np17131\nsVbid_type\np17132\nI1\nsVname\np17133\nVBest Meme of the Olympics\np17134\nsVtracking_pixel_ids\np17135\n(lp17136\nsVtargeting\np17137\n(dp17138\nVkeywords\np17139\n(lp17140\nV#Fail Blog\np17141\naV#Lolcat\np17142\naV#Internet meme\np17143\naV#Know Your Meme\np17144\naV#Internet slang\np17145\naVmemebase\np17146\naVlondon 2012 olympic games\np17147\naV#2012 Summer Olympics\np17148\naV#Olympic Games\np17149\naV#Meme\np17150\naV#Olympics\np17151\nasVage_max\np17152\nI30\nsVcountries\np17153\n(lp17154\nVUS\np17155\nasVbroad_age\np17156\nI1\nsVage_min\np17157\nI13\nssVbid_info\np17158\n(dp17159\nV1\np17160\nV65\np17161\nssVstart_time\np17162\nNsVad_status\np17163\nI2\nsVcampaign_id\np17164\nI6005583483565\nsVlocations\np17165\n(lp17166\nI3\nasVcreated_time\np17167\nV2012-08-01T19:13:44+0000\np17168\nsVend_time\np17169\nNsVadgroup_status\np17170\nI8\nsVid\np17171\nV6005583484765\np17172\nsVad_id\np17173\nI6005583484765\nsVimpression_control_map\np17174\n(lp17175\n(dp17176\nVcontrol\np17177\n(dp17178\nVuser_impression_limit_period\np17179\nI24\nsVuser_impression_limit\np17180\nI6\nsVuser_impression_limit_period_unit\np17181\nI0\nsVimpression_control_type\np17182\nI2\nssVlocation\np17183\nI3\nsasVcreative_ids\np17184\n(lp17185\nI6005583484165\nasVmax_bid\np17186\nV65\np17187\nsVadgroup_id\np17188\nI6005583484765\nsVaccount_id\np17189\nI40156177\nsa(dp17190\nVconversion_specs\np17191\n(lp17192\nsVupdated_time\np17193\nV2012-09-21T20:12:11+0000\np17194\nsVbid_type\np17195\nI1\nsVname\np17196\nVHow To Treat Your Cat 1\np17197\nsVtracking_pixel_ids\np17198\n(lp17199\nsVtargeting\np17200\n(dp17201\nVkeywords\np17202\n(lp17203\nV#Cats (film)\np17204\naV#Stray Cats\np17205\naV#Kitten\np17206\naV#Hello Kitty\np17207\naV#Cats (musical)\np17208\naV#Cute Is What We Aim For\np17209\naV#Lolcat\np17210\naV#Cat\np17211\naV#Pets\np17212\naVcats\np17213\naV#Cuteness\np17214\naV#Cats & Dogs\np17215\naV#Cats 101\np17216\naV#Pet Society\np17217\naV#Kittie\np17218\naV#Reddit\np17219\naV#Babies\np17220\naV#Cats Protection\np17221\naV#Nyan Cat\np17222\naV#Pet\np17223\nasVage_max\np17224\nI65\nsVcountries\np17225\n(lp17226\nVUS\np17227\nasVbroad_age\np17228\nI1\nsVage_min\np17229\nI13\nssVbid_info\np17230\n(dp17231\nV1\np17232\nV65\np17233\nssVstart_time\np17234\nNsVad_status\np17235\nI2\nsVcampaign_id\np17236\nI6005583555365\nsVlocations\np17237\n(lp17238\nI3\nasVcreated_time\np17239\nV2012-08-01T19:53:22+0000\np17240\nsVend_time\np17241\nNsVadgroup_status\np17242\nI8\nsVid\np17243\nV6005583559765\np17244\nsVad_id\np17245\nI6005583559765\nsVimpression_control_map\np17246\n(lp17247\n(dp17248\nVcontrol\np17249\n(dp17250\nVuser_impression_limit_period\np17251\nI24\nsVuser_impression_limit\np17252\nI6\nsVuser_impression_limit_period_unit\np17253\nI0\nsVimpression_control_type\np17254\nI2\nssVlocation\np17255\nI3\nsasVcreative_ids\np17256\n(lp17257\nI6005583990565\nasVmax_bid\np17258\nV65\np17259\nsVadgroup_id\np17260\nI6005583559765\nsVaccount_id\np17261\nI40156177\nsa(dp17262\nVconversion_specs\np17263\n(lp17264\nsVupdated_time\np17265\nV2012-08-02T12:59:35+0000\np17266\nsVbid_type\np17267\nI1\nsVname\np17268\nVHow To Treat Your Cat\np17269\nsVtracking_pixel_ids\np17270\n(lp17271\nsVtargeting\np17272\n(dp17273\nVkeywords\np17274\n(lp17275\nV#Cats (film)\np17276\naV#Stray Cats\np17277\naV#Kitten\np17278\naV#Hello Kitty\np17279\naV#Cats (musical)\np17280\naV#Cute Is What We Aim For\np17281\naV#Lolcat\np17282\naV#Cat\np17283\naV#Pets\np17284\naVcats\np17285\naV#Cuteness\np17286\naV#Cats & Dogs\np17287\naV#Cats 101\np17288\naV#Pet Society\np17289\naV#Kittie\np17290\naV#Reddit\np17291\naV#Babies\np17292\naV#Cats Protection\np17293\naV#Nyan Cat\np17294\naV#Pet\np17295\nasVage_max\np17296\nI65\nsVcountries\np17297\n(lp17298\nVUS\np17299\nasVbroad_age\np17300\nI1\nsVage_min\np17301\nI13\nssVbid_info\np17302\n(dp17303\nV1\np17304\nV65\np17305\nssVstart_time\np17306\nNsVad_status\np17307\nI2\nsVcampaign_id\np17308\nI6005583555365\nsVlocations\np17309\n(lp17310\nI3\nasVcreated_time\np17311\nV2012-08-01T19:51:57+0000\np17312\nsVend_time\np17313\nNsVadgroup_status\np17314\nI9\nsVid\np17315\nV6005583556565\np17316\nsV'
p6
sS'hash'
p7
S'c6dde17efe2bef3771476bb988980887eb001dad'
p8
sS'stack'
p9
S''
s.