(dp1
S'args'
p2
S''
sS'methodname'
p3
S''
sS'packet_num'
p4
I243
sS'returnval'
p5
S"ds\np45985\n(lp45986\nI6005832896365\nasVmax_bid\np45987\nV40\np45988\nsVadgroup_id\np45989\nI6005832896765\nsVaccount_id\np45990\nI40156177\nsa(dp45991\nVconversion_specs\np45992\n(lp45993\nsVupdated_time\np45994\nV2012-09-21T21:27:51+0000\np45995\nsVbid_type\np45996\nI1\nsVname\np45997\nVJet-Setting Fashion\np45998\nsVtracking_pixel_ids\np45999\n(lp46000\nsVtargeting\np46001\n(dp46002\nVkeywords\np46003\n(lp46004\nV#Pan American World Airways\np46005\naV#Jet Age\np46006\naV#Virgin Atlantic Airways\np46007\naV#Fashion week\np46008\naV#Association of Flight Attendants\np46009\naV#American Airlines\np46010\naV#Association of Professional Flight Attendants\np46011\naV#Catch Me If You Can\np46012\naV#Pan Am (TV series)\np46013\naV#Elle (magazine)\np46014\naV#JetBlue Airways\np46015\naV#The Sartorialist\np46016\naV#Lookbook.nu\np46017\naV#The Aviator (2004 film)\np46018\naV#1960s\np46019\naV#Vogue (magazine)\np46020\naV#1950s\np46021\naV#Fashion photography\np46022\naV#Runway (fashion)\np46023\nasVage_max\np46024\nI65\nsVcountries\np46025\n(lp46026\nVUS\np46027\nasVbroad_age\np46028\nI1\nsVage_min\np46029\nI13\nssVbid_info\np46030\n(dp46031\nV1\np46032\nV65\np46033\nssVstart_time\np46034\nNsVad_status\np46035\nI1\nsVcampaign_id\np46036\nI6005835110565\nsVlocations\np46037\n(lp46038\nI3\nasVcreated_time\np46039\nV2012-09-18T21:07:56+0000\np46040\nsVend_time\np46041\nV2012-09-23T03:30:00+0000\np46042\nsVadgroup_status\np46043\nI1\nsVid\np46044\nV6005835111565\np46045\nsVad_id\np46046\nI6005835111565\nsVimpression_control_map\np46047\n(lp46048\n(dp46049\nVcontrol\np46050\n(dp46051\nVuser_impression_limit_period\np46052\nI24\nsVuser_impression_limit\np46053\nI6\nsVuser_impression_limit_period_unit\np46054\nI0\nsVimpression_control_type\np46055\nI2\nssVlocation\np46056\nI3\nsasVcreative_ids\np46057\n(lp46058\nI6005835111165\nasVmax_bid\np46059\nV65\np46060\nsVadgroup_id\np46061\nI6005835111565\nsVaccount_id\np46062\nI40156177\nsa(dp46063\nVconversion_specs\np46064\n(lp46065\nsVupdated_time\np46066\nV2012-09-21T21:27:51+0000\np46067\nsVbid_type\np46068\nI1\nsVname\np46069\nVIn-Flight Cocktail Party!\np46070\nsVtracking_pixel_ids\np46071\n(lp46072\nsVtargeting\np46073\n(dp46074\nVkeywords\np46075\n(lp46076\nV#Pan American World Airways\np46077\naV#Jet Age\np46078\naV#Boardwalk Empire\np46079\naV#Cocktail\np46080\naV#Virgin Atlantic Airways\np46081\naV#Association of Flight Attendants\np46082\naV#American Airlines\np46083\naV#Association of Professional Flight Attendants\np46084\naV#Mad Men\np46085\naV#Catch Me If You Can\np46086\naV#Pan Am (TV series)\np46087\naV#JetBlue Airways\np46088\naV#The Aviator (2004 film)\np46089\naV#Martini (cocktail)\np46090\naV#1960s\np46091\naV#Cosmopolitan (cocktail)\np46092\naV#1950s\np46093\nasVage_max\np46094\nI65\nsVcountries\np46095\n(lp46096\nVUS\np46097\nasVbroad_age\np46098\nI1\nsVage_min\np46099\nI13\nssVbid_info\np46100\n(dp46101\nV1\np46102\nV65\np46103\nssVstart_time\np46104\nNsVad_status\np46105\nI1\nsVcampaign_id\np46106\nI6005835110565\nsVlocations\np46107\n(lp46108\nI3\nasVcreated_time\np46109\nV2012-09-18T21:13:27+0000\np46110\nsVend_time\np46111\nV2012-09-23T03:30:00+0000\np46112\nsVadgroup_status\np46113\nI1\nsVid\np46114\nV6005835126165\np46115\nsVad_id\np46116\nI6005835126165\nsVimpression_control_map\np46117\n(lp46118\n(dp46119\nVcontrol\np46120\n(dp46121\nVuser_impression_limit_period\np46122\nI24\nsVuser_impression_limit\np46123\nI6\nsVuser_impression_limit_period_unit\np46124\nI0\nsVimpression_control_type\np46125\nI2\nssVlocation\np46126\nI3\nsasVcreative_ids\np46127\n(lp46128\nI6005835125765\nasVmax_bid\np46129\nV65\np46130\nsVadgroup_id\np46131\nI6005835126165\nsVaccount_id\np46132\nI40156177\nsa(dp46133\nVconversion_specs\np46134\n(lp46135\nsVupdated_time\np46136\nV2012-09-21T20:17:49+0000\np46137\nsVbid_type\np46138\nI1\nsVname\np46139\nVGeorge Bluth's Kippah\np46140\nsVtracking_pixel_ids\np46141\n(lp46142\nsVtargeting\np46143\n(dp46144\nVkeywords\np46145\n(lp46146\nV#Michael Cera\np46147\naV#30 Rock\np46148\naV#Old Testament\np46149\naV#The Change-Up\np46150\naV#Ron Howard\np46151\naV#Curb Your Enthusiasm\np46152\naV#Synagogue\np46153\naV#Jeffrey Tambor\np46154\naV#Jerusalem\np46155\naV#Israel\np46156\naV#Judaism\np46157\naV#Community (TV series)\np46158\naV#David Cross\np46159\naV#Horrible Bosses\np46160\naVarrested development\np46161\naV#Torah\np46162\naV#Netflix\np46163\naV#Parks and Recreation\np46164\naV#Will Arnett\np46165\naV"
p6
sS'hash'
p7
S'c6dde17efe2bef3771476bb988980887eb001dad'
p8
sS'stack'
p9
S''
s.