(dp1
S'args'
p2
S''
sS'methodname'
p3
S''
sS'packet_num'
p4
I269
sS'returnval'
p5
S"m)\np50809\nasVage_max\np50810\nI65\nsVcountries\np50811\n(lp50812\nVUS\np50813\nasVbroad_age\np50814\nI1\nsVage_min\np50815\nI13\nssVid\np50816\nV6005903001565\np50817\nsVmax_bid\np50818\nV65\np50819\nsVad_id\np50820\nI6005903001565\nsVaccount_id\np50821\nI40156177\nsVstart_time\np50822\nNsVlocations\np50823\n(lp50824\nI3\nasVadgroup_status\np50825\nI9\nsVad_status\np50826\nI2\nsVimpression_control_map\np50827\n(lp50828\n(dp50829\nVcontrol\np50830\n(dp50831\nVuser_impression_limit_period\np50832\nI24\nsVuser_impression_limit\np50833\nI3\nsVuser_impression_limit_period_unit\np50834\nI0\nsVimpression_control_type\np50835\nI2\nssVlocation\np50836\nI3\nsasVcreative_ids\np50837\n(lp50838\nI6005903001165\nasVtracking_pixel_ids\np50839\n(lp50840\nsVbid_type\np50841\nI1\nsVname\np50842\nVTom Hardy Transforms\np50843\nsVupdated_time\np50844\nV2012-09-26T15:41:26+0000\np50845\nsVend_time\np50846\nV2012-09-27T06:22:00+0000\np50847\nsa(dp50848\nVconversion_specs\np50849\n(lp50850\nsVupdated_time\np50851\nV2012-09-25T15:36:00+0000\np50852\nsVbid_type\np50853\nI1\nsVname\np50854\nVRemember The Dancing Baby\np50855\nsVtracking_pixel_ids\np50856\n(lp50857\nsVtargeting\np50858\n(dp50859\nVkeywords\np50860\n(lp50861\nV#Spotify\np50862\naV#Animation\np50863\naV#LimeWire\np50864\naV#Dancing baby\np50865\naV#Napster\np50866\naV#Pixar\np50867\naV#JPEG\np50868\naV#Myspace\np50869\naV#Dial-up Internet access\np50870\naV#Ask.com\np50871\naV#AOL\np50872\nasVage_max\np50873\nI65\nsVcountries\np50874\n(lp50875\nVUS\np50876\nasVbroad_age\np50877\nI1\nsVage_min\np50878\nI13\nssVbid_info\np50879\n(dp50880\nV1\np50881\nV65\np50882\nssVstart_time\np50883\nNsVad_status\np50884\nI1\nsVcampaign_id\np50885\nI6005903034965\nsVlocations\np50886\n(lp50887\nI3\nasVcreated_time\np50888\nV2012-09-25T13:53:12+0000\np50889\nsVend_time\np50890\nNsVadgroup_status\np50891\nI1\nsVid\np50892\nV6005903157165\np50893\nsVad_id\np50894\nI6005903157165\nsVimpression_control_map\np50895\n(lp50896\n(dp50897\nVcontrol\np50898\n(dp50899\nVuser_impression_limit_period\np50900\nI24\nsVuser_impression_limit\np50901\nI6\nsVuser_impression_limit_period_unit\np50902\nI0\nsVimpression_control_type\np50903\nI2\nssVlocation\np50904\nI3\nsasVcreative_ids\np50905\n(lp50906\nI6005903156765\nasVmax_bid\np50907\nV65\np50908\nsVadgroup_id\np50909\nI6005903157165\nsVaccount_id\np50910\nI40156177\nsa(dp50911\nVbid_info\np50912\n(dp50913\nV1\np50914\nV65\np50915\nssVcampaign_id\np50916\nI6005903034965\nsVlast_updated_by_app_id\np50917\nI6802152230\nsVcreated_time\np50918\nV2012-09-25T13:45:13+0000\np50919\nsVconversion_specs\np50920\n(lp50921\nsVadgroup_id\np50922\nI6005903035965\nsVtargeting\np50923\n(dp50924\nVkeywords\np50925\n(lp50926\nV#Online chat\np50927\naV#AOL Instant Messenger\np50928\naV#Chatroulette\np50929\naV#MSN\np50930\naV#Chat room\np50931\naV#Yahoo! Messenger\np50932\naV#Napoleon Dynamite\np50933\nasVage_max\np50934\nI65\nsVcountries\np50935\n(lp50936\nVUS\np50937\nasVbroad_age\np50938\nI1\nsVage_min\np50939\nI13\nssVid\np50940\nV6005903035965\np50941\nsVmax_bid\np50942\nV65\np50943\nsVad_id\np50944\nI6005903035965\nsVaccount_id\np50945\nI40156177\nsVstart_time\np50946\nNsVlocations\np50947\n(lp50948\nI3\nasVadgroup_status\np50949\nI9\nsVad_status\np50950\nI2\nsVimpression_control_map\np50951\n(lp50952\n(dp50953\nVcontrol\np50954\n(dp50955\nVuser_impression_limit_period\np50956\nI24\nsVuser_impression_limit\np50957\nI3\nsVuser_impression_limit_period_unit\np50958\nI0\nsVimpression_control_type\np50959\nI2\nssVlocation\np50960\nI3\nsasVcreative_ids\np50961\n(lp50962\nI6005903037965\nasVtracking_pixel_ids\np50963\n(lp50964\nsVbid_type\np50965\nI1\nsVname\np50966\nVUsed To Use Chatrooms?\np50967\nsVupdated_time\np50968\nV2012-09-25T18:42:08+0000\np50969\nsVend_time\np50970\nNsa(dp50971\nVconversion_specs\np50972\n(lp50973\nsVupdated_time\np50974\nV2012-09-25T16:15:24+0000\np50975\nsVbid_type\np50976\nI1\nsVname\np50977\nVA Bird's Eye View\np50978\nsVtracking_pixel_ids\np50979\n(lp50980\nsVtargeting\np50981\n(dp50982\nVkeywords\np50983\n(lp50984\nV#Expedia\np50985\naV#American Airlines\np50986\naV#Travelocity\np50987\naV#Southwest Airlines\np50988\naV#United Airlines\np50989\naV#Orbitz\np50990\naV#Virgin America\np50991\naV#General Electric\np50992\naV#Delta Air Lines\np50993\naV#Kayak\np50994\naV#CheapTickets\np50995\naV#JetBlue Airways\np50996\naV#Photography\np50997\naV#Hotwire.com\np50998\naV#Travel\np50999\nasVage_max\np51000\nI65\nsVcountries\np51001\n(lp51002\nVUS\np5100"
p6
sS'hash'
p7
S'c6dde17efe2bef3771476bb988980887eb001dad'
p8
sS'stack'
p9
S''
s.