(dp1
S'args'
p2
S''
sS'methodname'
p3
S''
sS'packet_num'
p4
I50
sS'returnval'
p5
S'one Wars (film)\np10018\naV#Star Wars: The Force Unleashed II\np10019\naV#Lando Calrissian\np10020\naV#Jar Jar Binks\np10021\naV#Star Wars: The Clone Wars \\u2013 Jedi Alliance\np10022\naV#Wookiee\np10023\naV#Tatooine\np10024\naV#Chewbacca\np10025\naV#Star Wars: The Old Republic (comics)\np10026\naVstar wars\np10027\naV#Star Wars Episode VI: Return of the Jedi\np10028\naV#George Lucas\np10029\naV#Star Wars Episode I: The Phantom Menace\np10030\naV#R2-D2\np10031\naV#Star Wars: The Old Republic\np10032\naV#Yoda\np10033\naV#Star Wars: The Clone Wars \\u2013 Lightsaber Duels\np10034\naV#Carrie Fisher\np10035\naV#Luke Skywalker\np10036\naV#Star Wars Episode III: Revenge of the Sith\np10037\naV#Sith\np10038\naV#Star Wars Episode IV: A New Hope\np10039\naV#Boba Fett\np10040\naV#Star Wars: The Clone Wars (2008 TV series)\np10041\naVstar wars force unleashed ii\np10042\naV#Clone Wars (Star Wars)\np10043\naV#C-3PO\np10044\naV#Star Wars: The Force Unleashed (project)\np10045\naV#Princess Leia\np10046\naVstar wars old republic\np10047\naV#Lego Star Wars III: The Clone Wars\np10048\naV#Fanboys (2009 film)\np10049\naV#Jango Fett\np10050\naV#Mace Windu\np10051\naV#Jabba the Hutt\np10052\naV#Star Wars\np10053\naV#Star Wars: Clone Wars (2003 TV series)\np10054\nasVage_max\np10055\nI65\nsVcountries\np10056\n(lp10057\nVUS\np10058\nasVbroad_age\np10059\nI1\nsVage_min\np10060\nI13\nssVbid_info\np10061\n(dp10062\nV1\np10063\nV65\np10064\nssVstart_time\np10065\nNsVad_status\np10066\nI2\nsVcampaign_id\np10067\nI6005521621965\nsVlocations\np10068\n(lp10069\nI3\nasVcreated_time\np10070\nV2012-07-18T17:07:03+0000\np10071\nsVend_time\np10072\nV2012-09-12T06:20:00+0000\np10073\nsVadgroup_status\np10074\nI8\nsVid\np10075\nV6005521623365\np10076\nsVad_id\np10077\nI6005521623365\nsVimpression_control_map\np10078\n(lp10079\n(dp10080\nVcontrol\np10081\n(dp10082\nVuser_impression_limit_period\np10083\nI24\nsVuser_impression_limit\np10084\nI6\nsVuser_impression_limit_period_unit\np10085\nI0\nsVimpression_control_type\np10086\nI2\nssVlocation\np10087\nI3\nsasVcreative_ids\np10088\n(lp10089\nI6005521622765\nasVmax_bid\np10090\nV65\np10091\nsVadgroup_id\np10092\nI6005521623365\nsVaccount_id\np10093\nI40156177\nsa(dp10094\nVbid_info\np10095\n(dp10096\nV1\np10097\nV65\np10098\nssVcampaign_id\np10099\nI6005521621965\nsVlast_updated_by_app_id\np10100\nI6802152230\nsVcreated_time\np10101\nV2012-09-10T22:16:39+0000\np10102\nsVconversion_specs\np10103\n(lp10104\nsVadgroup_id\np10105\nI6005799208365\nsVtargeting\np10106\n(dp10107\nVkeywords\np10108\n(lp10109\nV#Stargate\np10110\naV#Stargate: The Ark of Truth\np10111\naV#Stargate Atlantis\np10112\naV#Stargate SG-1\np10113\naV#Science fiction comics\np10114\naV#Stargate: Continuum\np10115\naV#Science fiction\np10116\naV#Science fiction film\np10117\naV#Stargate (film)\np10118\naV#Stargate Universe\np10119\naVstargate sg1\np10120\naV#Syfy Universal\np10121\naV#Stargate (production team)\np10122\naV#Science fiction on television\np10123\naV#Syfy (United Kingdom)\np10124\naV#Syfy\np10125\naV#Stargate (device)\np10126\nasVage_max\np10127\nI65\nsVcountries\np10128\n(lp10129\nVUS\np10130\nasVbroad_age\np10131\nI1\nsVage_min\np10132\nI13\nssVid\np10133\nV6005799208365\np10134\nsVmax_bid\np10135\nV65\np10136\nsVad_id\np10137\nI6005799208365\nsVaccount_id\np10138\nI40156177\nsVstart_time\np10139\nNsVlocations\np10140\n(lp10141\nI3\nasVadgroup_status\np10142\nI9\nsVad_status\np10143\nI2\nsVimpression_control_map\np10144\n(lp10145\n(dp10146\nVcontrol\np10147\n(dp10148\nVuser_impression_limit_period\np10149\nI24\nsVuser_impression_limit\np10150\nI3\nsVuser_impression_limit_period_unit\np10151\nI0\nsVimpression_control_type\np10152\nI2\nssVlocation\np10153\nI3\nsasVcreative_ids\np10154\n(lp10155\nI6005799207365\nasVtracking_pixel_ids\np10156\n(lp10157\nsVbid_type\np10158\nI1\nsVname\np10159\nVStargate\np10160\nsVupdated_time\np10161\nV2012-09-11T13:32:06+0000\np10162\nsVend_time\np10163\nNsa(dp10164\nVconversion_specs\np10165\n(lp10166\nsVupdated_time\np10167\nV2012-07-23T20:40:48+0000\np10168\nsVbid_type\np10169\nI1\nsVname\np10170\nVI Can Haz Interwebz\np10171\nsVtracking_pixel_ids\np10172\n(lp10173\nsVtargeting\np10174\n(dp10175\nVage_max\np10176\nI65\nsVcountries\np10177\n(lp10178\nVUS\np10179\nasVbroad_age\np10180\nI1\nsVage_min\np10181\nI13\nsVkeywords\np10182\n(lp10183\nV#I Can Has Cheezburger?\np10184\naV#Fail Blog\np10185\naV#Lolcat\np10186\naV#Etsy\np10187\naV#Internet '
p6
sS'hash'
p7
S'c6dde17efe2bef3771476bb988980887eb001dad'
p8
sS'stack'
p9
S''
s.