(dp1
S'args'
p2
S''
sS'methodname'
p3
S''
sS'packet_num'
p4
I91
sS'returnval'
p5
S'7889\nVUS\np17890\nasVbroad_age\np17891\nI1\nsVage_min\np17892\nI13\nsVkeywords\np17893\n(lp17894\nV#The X-Files (film)\np17895\naV#The X-Files: I Want to Believe\np17896\naV#Mystery fiction\np17897\naV#Unsolved Mysteries\np17898\naV#The X-Files franchise\np17899\naV#The Twilight Zone (1959 TV series)\np17900\naVda vinci code\np17901\naV#The Da Vinci Code\np17902\naV#Conspiracy Theory (film)\np17903\naV#House (TV series)\np17904\naV#Science fiction\np17905\naV#The Da Vinci Code (film)\np17906\naV#Dan Brown\np17907\naV#The X-Files\np17908\naV#Science fiction film\np17909\naV#Conspiracy theory\np17910\naVncis\np17911\naV#Angels & Demons\np17912\naV#Conspiracy (2001 film)\np17913\naV#Conspiracy 365\np17914\naV#The Lost Symbol\np17915\naV#The Killing (U.S. TV series)\np17916\naVconspiracy theories\np17917\naV#Conspiracy (crime)\np17918\naV#The X-Files (comics)\np17919\naV#The X-Files: Resist or Serve\np17920\naV#The Twilight Zone Tower of Terror\np17921\naV#The Twilight Zone\np17922\naV#Gregory House\np17923\naV#Conspiracies (novel)\np17924\naVconspiracy theory\np17925\naV#Horror film\np17926\naV#Angels & Demons (film)\np17927\nasVgenders\np17928\n(lp17929\nI1\nassVbid_info\np17930\n(dp17931\nV1\np17932\nV65\np17933\nssVstart_time\np17934\nNsVad_status\np17935\nI2\nsVcampaign_id\np17936\nI6005588980165\nsVlocations\np17937\n(lp17938\nI3\nasVcreated_time\np17939\nV2012-08-06T20:26:16+0000\np17940\nsVend_time\np17941\nNsVadgroup_status\np17942\nI8\nsVid\np17943\nV6005607388565\np17944\nsVad_id\np17945\nI6005607388565\nsVimpression_control_map\np17946\n(lp17947\n(dp17948\nVcontrol\np17949\n(dp17950\nVuser_impression_limit_period\np17951\nI24\nsVuser_impression_limit\np17952\nI6\nsVuser_impression_limit_period_unit\np17953\nI0\nsVimpression_control_type\np17954\nI2\nssVlocation\np17955\nI3\nsasVcreative_ids\np17956\n(lp17957\nI6005588980765\nasVmax_bid\np17958\nV65\np17959\nsVadgroup_id\np17960\nI6005607388565\nsVaccount_id\np17961\nI40156177\nsa(dp17962\nVconversion_specs\np17963\n(lp17964\nsVupdated_time\np17965\nV2012-08-06T14:17:56+0000\np17966\nsVbid_type\np17967\nI1\nsVname\np17968\nVIs This A Conspiracy?\np17969\nsVtracking_pixel_ids\np17970\n(lp17971\nsVtargeting\np17972\n(dp17973\nVkeywords\np17974\n(lp17975\nV#Ghost\np17976\naV#National Enquirer\np17977\naV#OK!\np17978\naV#Horror fiction\np17979\naV#Coma\np17980\naV#Ghost story\np17981\naV#Conspiracy Theory (film)\np17982\naV#Fantasy\np17983\naV#Science fiction\np17984\naV#Conspiracy theory\np17985\naV#American Horror Story\np17986\naVconspiracy theories\np17987\naV#Conspiracy (crime)\np17988\naV#People\np17989\naV#Horror film\np17990\naV#Tabloid (newspaper format)\np17991\nasVage_max\np17992\nI65\nsVcountries\np17993\n(lp17994\nVUS\np17995\nasVbroad_age\np17996\nI1\nsVage_min\np17997\nI13\nssVbid_info\np17998\n(dp17999\nV1\np18000\nV65\np18001\nssVstart_time\np18002\nNsVad_status\np18003\nI2\nsVcampaign_id\np18004\nI6005588980165\nsVlocations\np18005\n(lp18006\nI3\nasVcreated_time\np18007\nV2012-08-02T21:01:30+0000\np18008\nsVend_time\np18009\nV2012-08-07T06:45:00+0000\np18010\nsVadgroup_status\np18011\nI9\nsVid\np18012\nV6005588981165\np18013\nsVad_id\np18014\nI6005588981165\nsVimpression_control_map\np18015\n(lp18016\n(dp18017\nVcontrol\np18018\n(dp18019\nVuser_impression_limit_period\np18020\nI24\nsVuser_impression_limit\np18021\nI3\nsVuser_impression_limit_period_unit\np18022\nI0\nsVimpression_control_type\np18023\nI2\nssVlocation\np18024\nI3\nsasVcreative_ids\np18025\n(lp18026\nI6005588980765\nasVmax_bid\np18027\nV65\np18028\nsVadgroup_id\np18029\nI6005588981165\nsVaccount_id\np18030\nI40156177\nsa(dp18031\nVconversion_specs\np18032\n(lp18033\nsVupdated_time\np18034\nV2012-08-06T20:26:26+0000\np18035\nsVbid_type\np18036\nI1\nsVname\np18037\nVIs This A Conspiracy? 1\np18038\nsVtracking_pixel_ids\np18039\n(lp18040\nsVtargeting\np18041\n(dp18042\nVage_max\np18043\nI65\nsVcountries\np18044\n(lp18045\nVUS\np18046\nasVbroad_age\np18047\nI1\nsVage_min\np18048\nI13\nssVbid_info\np18049\n(dp18050\nV1\np18051\nV65\np18052\nssVstart_time\np18053\nNsVad_status\np18054\nI2\nsVcampaign_id\np18055\nI6005588980165\nsVlocations\np18056\n(lp18057\nI3\nasVcreated_time\np18058\nV2012-08-03T16:20:32+0000\np18059\nsVend_time\np18060\nV2012-08-07T06:45:00+0000\np18061\nsVadgroup_status\np18062\nI9\nsVid\np18063\nV6005593120565\np18064\nsVad_id\np18065\nI6005593120565\nsVimpression_control_map\np18066\n(lp18067\n(dp18068\nVcontrol\np18069\n(dp18070\nVuse'
p6
sS'hash'
p7
S'c6dde17efe2bef3771476bb988980887eb001dad'
p8
sS'stack'
p9
S''
s.