(dp1
S'args'
p2
S''
sS'methodname'
p3
S''
sS'packet_num'
p4
I142
sS'returnval'
p5
S'\np27314\nI6005675633565\nsVaccount_id\np27315\nI40156177\nsa(dp27316\nVconversion_specs\np27317\n(lp27318\n(dp27319\nVobject\np27320\nVhttp://www.buzzfeed.com/theinbetweeners/the-hottest-milfs-on-tv-today-701f\np27321\nsVaction.type\np27322\nVlike\np27323\nsasVupdated_time\np27324\nV2012-09-21T20:13:58+0000\np27325\nsVbid_type\np27326\nI1\nsVname\np27327\nVAd Title\np27328\nsVtracking_pixel_ids\np27329\n(lp27330\nsVtargeting\np27331\n(dp27332\nVcountries\np27333\n(lp27334\nVUS\np27335\nassVbid_info\np27336\n(dp27337\nV1\np27338\nV100\np27339\nssVstart_time\np27340\nNsVad_status\np27341\nI2\nsVcampaign_id\np27342\nI6005675641565\nsVlocations\np27343\n(lp27344\nI3\nasVcreated_time\np27345\nV2012-08-16T15:14:43+0000\np27346\nsVend_time\np27347\nV2012-08-21T03:30:00+0000\np27348\nsVadgroup_status\np27349\nI8\nsVid\np27350\nV6005675642965\np27351\nsVad_id\np27352\nI6005675642965\nsVimpression_control_map\np27353\n(lp27354\n(dp27355\nVcontrol\np27356\n(dp27357\nVuser_impression_limit_period\np27358\nI24\nsVuser_impression_limit\np27359\nI6\nsVuser_impression_limit_period_unit\np27360\nI0\nsVimpression_control_type\np27361\nI2\nssVlocation\np27362\nI3\nsasVcreative_ids\np27363\n(lp27364\nI6005675642565\nasVmax_bid\np27365\nV100\np27366\nsVadgroup_id\np27367\nI6005675642965\nsVaccount_id\np27368\nI40156177\nsa(dp27369\nVconversion_specs\np27370\n(lp27371\n(dp27372\nVobject\np27373\nVhttp://www.buzzfeed.com/virginmobilelive/20-awkward-celebrity-twitpic-moments-with-fans-5l87\np27374\nsVaction.type\np27375\nVlike\np27376\nsasVupdated_time\np27377\nV2012-09-27T14:47:08+0000\np27378\nsVbid_type\np27379\nI1\nsVname\np27380\nVAd Title\np27381\nsVtracking_pixel_ids\np27382\n(lp27383\nsVtargeting\np27384\n(dp27385\nVcountries\np27386\n(lp27387\nVUS\np27388\nassVbid_info\np27389\n(dp27390\nV1\np27391\nV65\np27392\nssVstart_time\np27393\nNsVad_status\np27394\nI2\nsVcampaign_id\np27395\nI6005675835165\nsVlocations\np27396\n(lp27397\nI3\nasVcreated_time\np27398\nV2012-08-16T16:01:40+0000\np27399\nsVend_time\np27400\nNsVadgroup_status\np27401\nI8\nsVid\np27402\nV6005675836565\np27403\nsVad_id\np27404\nI6005675836565\nsVimpression_control_map\np27405\n(lp27406\n(dp27407\nVcontrol\np27408\n(dp27409\nVuser_impression_limit_period\np27410\nI24\nsVuser_impression_limit\np27411\nI6\nsVuser_impression_limit_period_unit\np27412\nI0\nsVimpression_control_type\np27413\nI2\nssVlocation\np27414\nI3\nsasVcreative_ids\np27415\n(lp27416\nI6005675836165\nasVmax_bid\np27417\nV65\np27418\nsVadgroup_id\np27419\nI6005675836565\nsVaccount_id\np27420\nI40156177\nsa(dp27421\nVconversion_specs\np27422\n(lp27423\n(dp27424\nVobject\np27425\nVhttp://www.buzzfeed.com/virginmobilelive/15-amazing-hashtags-from-your-first-week-at-colleg-5l87\np27426\nsVaction.type\np27427\nVlike\np27428\nsasVupdated_time\np27429\nV2012-09-27T14:47:12+0000\np27430\nsVbid_type\np27431\nI1\nsVname\np27432\nVAd Title\np27433\nsVtracking_pixel_ids\np27434\n(lp27435\nsVtargeting\np27436\n(dp27437\nVcountries\np27438\n(lp27439\nVUS\np27440\naVIE\np27441\naVIT\np27442\naVJP\np27443\naVNL\np27444\naVCA\np27445\naVZA\np27446\naVES\np27447\naVGB\np27448\naVBE\np27449\naVAU\np27450\naVAT\np27451\naVFR\np27452\naVDE\np27453\nassVbid_info\np27454\n(dp27455\nV1\np27456\nV50\np27457\nssVstart_time\np27458\nNsVad_status\np27459\nI2\nsVcampaign_id\np27460\nI6005675850965\nsVlocations\np27461\n(lp27462\nI3\nasVcreated_time\np27463\nV2012-08-16T16:05:49+0000\np27464\nsVend_time\np27465\nNsVadgroup_status\np27466\nI8\nsVid\np27467\nV6005675852165\np27468\nsVad_id\np27469\nI6005675852165\nsVimpression_control_map\np27470\n(lp27471\n(dp27472\nVcontrol\np27473\n(dp27474\nVuser_impression_limit_period\np27475\nI24\nsVuser_impression_limit\np27476\nI6\nsVuser_impression_limit_period_unit\np27477\nI0\nsVimpression_control_type\np27478\nI2\nssVlocation\np27479\nI3\nsasVcreative_ids\np27480\n(lp27481\nI6005675851765\nasVmax_bid\np27482\nV50\np27483\nsVadgroup_id\np27484\nI6005675852165\nsVaccount_id\np27485\nI40156177\nsa(dp27486\nVbid_info\np27487\n(dp27488\nV1\np27489\nV65\np27490\nssVcampaign_id\np27491\nI6005675867965\nsVlast_updated_by_app_id\np27492\nI6802152230\nsVcreated_time\np27493\nV2012-08-16T16:10:11+0000\np27494\nsVconversion_specs\np27495\n(lp27496\n(dp27497\nVobject\np27498\nVhttp://www.buzzfeed.com/virginmobilelive/15-amazing-hashtags-from-your-first-week-at-colleg-5l87\np27499\nsVaction.type\np27500\nVlike\np27501\nsasVadgroup_id\np27502\nI6005675869165\nsVtargeting\np27503\n(d'
p6
sS'hash'
p7
S'c6dde17efe2bef3771476bb988980887eb001dad'
p8
sS'stack'
p9
S''
s.