(dp1
S'args'
p2
S''
sS'methodname'
p3
S''
sS'packet_num'
p4
I347
sS'returnval'
p5
S'89\nasVage_max\np64990\nI65\nsVcountries\np64991\n(lp64992\nVUS\np64993\nasVbroad_age\np64994\nI1\nsVage_min\np64995\nI13\nssVid\np64996\nV6006005213365\np64997\nsVobjective\np64998\nI2\nsVmax_bid\np64999\nV65\np65000\nsVad_id\np65001\nI6006005213365\nsVaccount_id\np65002\nI40156177\nsVstart_time\np65003\nNsVlocations\np65004\n(lp65005\nI3\nasVadgroup_status\np65006\nI1\nsVad_status\np65007\nI1\nsVimpression_control_map\np65008\n(lp65009\n(dp65010\nVcontrol\np65011\n(dp65012\nVuser_impression_limit_period\np65013\nI24\nsVuser_impression_limit\np65014\nI3\nsVuser_impression_limit_period_unit\np65015\nI0\nsVimpression_control_type\np65016\nI2\nssVlocation\np65017\nI3\nsasVcreative_ids\np65018\n(lp65019\nI6006005212965\nasVtracking_pixel_ids\np65020\n(lp65021\nsVbid_type\np65022\nI1\nsVname\np65023\nVBill Clinton\np65024\nsVupdated_time\np65025\nV2012-10-10T18:24:17+0000\np65026\nsVend_time\np65027\nNsa(dp65028\nVbid_info\np65029\n(dp65030\nV1\np65031\nV65\np65032\nssVcampaign_id\np65033\nI6006011549965\nsVlast_updated_by_app_id\np65034\nI6802152230\nsVcreated_time\np65035\nV2012-10-11T14:44:29+0000\np65036\nsVconversion_specs\np65037\n(lp65038\nsVadgroup_id\np65039\nI6006011720765\nsVtargeting\np65040\n(dp65041\nVage_max\np65042\nI65\nsVcountries\np65043\n(lp65044\nVUS\np65045\nasVbroad_age\np65046\nI1\nsVage_min\np65047\nI13\nsVkeywords\np65048\n(lp65049\nV#Nikon\np65050\naV#Casio\np65051\naV#Samsung\np65052\naV#Olympus Corporation\np65053\naV#DIY Network\np65054\naV#Eastman Kodak\np65055\naV#Life hack\np65056\naV#Kodak EasyShare\np65057\naV#Do it yourself\np65058\naV#Canon (company)\np65059\naV#Lifehacker\np65060\naV#Pinterest\np65061\naV#Panasonic\np65062\nasVgenders\np65063\n(lp65064\nI2\nassVid\np65065\nV6006011720765\np65066\nsVobjective\np65067\nI2\nsVmax_bid\np65068\nV65\np65069\nsVad_id\np65070\nI6006011720765\nsVaccount_id\np65071\nI40156177\nsVstart_time\np65072\nNsVlocations\np65073\n(lp65074\nI3\nasVadgroup_status\np65075\nI1\nsVad_status\np65076\nI1\nsVimpression_control_map\np65077\n(lp65078\n(dp65079\nVcontrol\np65080\n(dp65081\nVuser_impression_limit_period\np65082\nI24\nsVuser_impression_limit\np65083\nI6\nsVuser_impression_limit_period_unit\np65084\nI0\nsVimpression_control_type\np65085\nI2\nssVlocation\np65086\nI3\nsasVcreative_ids\np65087\n(lp65088\nI6006011720365\nasVtracking_pixel_ids\np65089\n(lp65090\nsVbid_type\np65091\nI1\nsVname\np65092\nVMarriott Residence Inn: Oct_2012 | 14-Clever-Travel-Hacks-To-Make-Your-Trip-Awesome-7Bu6\np65093\nsVupdated_time\np65094\nV2012-10-26T15:38:43+0000\np65095\nsVend_time\np65096\nV2012-10-27T06:43:00+0000\np65097\nsa(dp65098\nVbid_info\np65099\n(dp65100\nV1\np65101\nV65\np65102\nssVcampaign_id\np65103\nI6006011549965\nsVlast_updated_by_app_id\np65104\nI6802152230\nsVcreated_time\np65105\nV2012-10-11T13:49:55+0000\np65106\nsVconversion_specs\np65107\n(lp65108\nsVadgroup_id\np65109\nI6006011550965\nsVtargeting\np65110\n(dp65111\nVage_max\np65112\nI65\nsVcountries\np65113\n(lp65114\nVUS\np65115\nasVbroad_age\np65116\nI1\nsVage_min\np65117\nI13\nsVkeywords\np65118\n(lp65119\nV#Beauty salon\np65120\naV#Tic Tac\np65121\naV#DIY Network\np65122\naV#Life hack\np65123\naV#Do it yourself\np65124\naV#Lifehacker\np65125\naV#Stylist (magazine)\np65126\naV#Pinterest\np65127\nasVgenders\np65128\n(lp65129\nI2\nassVid\np65130\nV6006011550965\np65131\nsVobjective\np65132\nI2\nsVmax_bid\np65133\nV65\np65134\nsVad_id\np65135\nI6006011550965\nsVaccount_id\np65136\nI40156177\nsVstart_time\np65137\nNsVlocations\np65138\n(lp65139\nI3\nasVadgroup_status\np65140\nI9\nsVad_status\np65141\nI2\nsVimpression_control_map\np65142\n(lp65143\n(dp65144\nVcontrol\np65145\n(dp65146\nVuser_impression_limit_period\np65147\nI24\nsVuser_impression_limit\np65148\nI3\nsVuser_impression_limit_period_unit\np65149\nI0\nsVimpression_control_type\np65150\nI2\nssVlocation\np65151\nI3\nsasVcreative_ids\np65152\n(lp65153\nI6006011550565\nasVtracking_pixel_ids\np65154\n(lp65155\nsVbid_type\np65156\nI1\nsVname\np65157\nVhttp://www.buzzfeed.com/h1/fbad/marriott/14-clever-travel-hacks-to-make-your-trip-awesome-7bu6 - Ad\np65158\nsVupdated_time\np65159\nV2012-10-26T15:38:45+0000\np65160\nsVend_time\np65161\nV2012-10-27T06:43:00+0000\np65162\nsa(dp65163\nVbid_info\np65164\n(dp65165\nV1\np65166\nV65\np65167\nssVcampaign_id\np65168\nI6006011743365\nsVcreated_time\np65169\nV2012-10-11T15:42:49+0000\np65170\nsVconversion_specs\np65171\n(lp65172\nsVadgroup_id\np65173\nI6006011940365\nsVtargeting\np65174\n(dp65'
p6
sS'hash'
p7
S'c6dde17efe2bef3771476bb988980887eb001dad'
p8
sS'stack'
p9
S''
s.