(dp1
S'args'
p2
S''
sS'methodname'
p3
S''
sS'packet_num'
p4
I287
sS'returnval'
p5
S"(dp54127\nVcontrol\np54128\n(dp54129\nVuser_impression_limit_period\np54130\nI24\nsVuser_impression_limit\np54131\nI6\nsVuser_impression_limit_period_unit\np54132\nI0\nsVimpression_control_type\np54133\nI2\nssVlocation\np54134\nI3\nsasVcreative_ids\np54135\n(lp54136\nI6005924375565\nasVtracking_pixel_ids\np54137\n(lp54138\nsVbid_type\np54139\nI1\nsVname\np54140\nVFacebook's Sean Parker\np54141\nsVupdated_time\np54142\nV2012-09-28T19:17:33+0000\np54143\nsVend_time\np54144\nNsa(dp54145\nVconversion_specs\np54146\n(lp54147\nsVupdated_time\np54148\nV2012-09-28T03:59:01+0000\np54149\nsVbid_type\np54150\nI1\nsVname\np54151\nVParis Hilton's Ex?\np54152\nsVtracking_pixel_ids\np54153\n(lp54154\nsVtargeting\np54155\n(dp54156\nVkeywords\np54157\n(lp54158\nV#Perez Hilton\np54159\naV#Just Jared\np54160\naVperez hilton celebrity gossip\np54161\naV#Jezebel (website)\np54162\naV#Us Weekly\np54163\naV#Paris Hilton\np54164\naV#TMZ.com\np54165\naV#Entertainment Tonight\np54166\naVohnotheydidnt\np54167\naV#Omgpop\np54168\naV#Access Hollywood\np54169\naV#Gawker\np54170\naV#Star (magazine)\np54171\naV#People (magazine)\np54172\naV#TMZ (website)\np54173\nasVage_max\np54174\nI65\nsVcountries\np54175\n(lp54176\nVUS\np54177\nasVbroad_age\np54178\nI1\nsVage_min\np54179\nI13\nssVbid_info\np54180\n(dp54181\nV1\np54182\nV65\np54183\nssVstart_time\np54184\nNsVad_status\np54185\nI1\nsVcampaign_id\np54186\nI6005924374965\nsVlocations\np54187\n(lp54188\nI3\nasVcreated_time\np54189\nV2012-09-27T18:53:35+0000\np54190\nsVend_time\np54191\nNsVadgroup_status\np54192\nI1\nsVid\np54193\nV6005924384965\np54194\nsVad_id\np54195\nI6005924384965\nsVimpression_control_map\np54196\n(lp54197\n(dp54198\nVcontrol\np54199\n(dp54200\nVuser_impression_limit_period\np54201\nI24\nsVuser_impression_limit\np54202\nI6\nsVuser_impression_limit_period_unit\np54203\nI0\nsVimpression_control_type\np54204\nI2\nssVlocation\np54205\nI3\nsasVcreative_ids\np54206\n(lp54207\nI6005924384565\nasVmax_bid\np54208\nV65\np54209\nsVadgroup_id\np54210\nI6005924384965\nsVaccount_id\np54211\nI40156177\nsa(dp54212\nVconversion_specs\np54213\n(lp54214\nsVupdated_time\np54215\nV2012-10-10T17:13:03+0000\np54216\nsVbid_type\np54217\nI1\nsVname\np54218\nVSuperman as a Manga?\np54219\nsVtracking_pixel_ids\np54220\n(lp54221\nsVtargeting\np54222\n(dp54223\nVkeywords\np54224\n(lp54225\nV#Bleach (manga)\np54226\naV#Manga\np54227\naV#DC Comics\np54228\naV#Death Note\np54229\naV#Superman (film)\np54230\naV#Nana (manga)\np54231\naV#Superman\np54232\naV#Cosplay\np54233\naV#Superman (comic book)\np54234\naVjustice league\np54235\naV#Superman (TV series)\np54236\naV#Anime\np54237\nasVage_max\np54238\nI65\nsVcountries\np54239\n(lp54240\nVUS\np54241\nasVbroad_age\np54242\nI1\nsVage_min\np54243\nI13\nssVbid_info\np54244\n(dp54245\nV1\np54246\nV65\np54247\nssVstart_time\np54248\nNsVad_status\np54249\nI1\nsVcampaign_id\np54250\nI6005924460565\nsVlocations\np54251\n(lp54252\nI3\nasVcreated_time\np54253\nV2012-09-27T19:21:11+0000\np54254\nsVend_time\np54255\nV2012-10-11T03:30:00+0000\np54256\nsVadgroup_status\np54257\nI1\nsVid\np54258\nV6005924461765\np54259\nsVad_id\np54260\nI6005924461765\nsVimpression_control_map\np54261\n(lp54262\n(dp54263\nVcontrol\np54264\n(dp54265\nVuser_impression_limit_period\np54266\nI24\nsVuser_impression_limit\np54267\nI6\nsVuser_impression_limit_period_unit\np54268\nI0\nsVimpression_control_type\np54269\nI2\nssVlocation\np54270\nI3\nsasVcreative_ids\np54271\n(lp54272\nI6005924461365\nasVmax_bid\np54273\nV65\np54274\nsVadgroup_id\np54275\nI6005924461765\nsVaccount_id\np54276\nI40156177\nsa(dp54277\nVbid_info\np54278\n(dp54279\nV1\np54280\nV65\np54281\nssVcampaign_id\np54282\nI6005924460565\nsVlast_updated_by_app_id\np54283\nI209787012415271\nsVcreated_time\np54284\nV2012-09-27T19:31:38+0000\np54285\nsVconversion_specs\np54286\n(lp54287\nsVadgroup_id\np54288\nI6005924506565\nsVtargeting\np54289\n(dp54290\nVkeywords\np54291\n(lp54292\nV#Superman Returns\np54293\naV#DC Superheroes (toys)\np54294\naV#Superhero\np54295\naV#DC Comics\np54296\naV#Superman (film)\np54297\naV#Superman\np54298\naV#Superman (comic book)\np54299\naVjustice league\np54300\naV#Superman (TV series)\np54301\naVcomic books\np54302\naV#Superman/Batman\np54303\nasVage_max\np54304\nI65\nsVcountries\np54305\n(lp54306\nVUS\np54307\nasVbroad_age\np54308\nI1\nsVage_min\np54309\nI13\nssVid\np54310\nV6005924506565\np54311\nsVmax_bid\np54312\nV65\np54313\nsVad_id\np54314\nI6005924506565\nsVaccount_id\np54315\nI40156177\n"
p6
sS'hash'
p7
S'c6dde17efe2bef3771476bb988980887eb001dad'
p8
sS'stack'
p9
S''
s.