(dp1
S'args'
p2
S''
sS'methodname'
p3
S''
sS'packet_num'
p4
I323
sS'returnval'
p5
S"ers\np60569\naV#Hipster (contemporary subculture)\np60570\naV#Walmart\np60571\naV#Geek\np60572\naV#Duck Dynasty\np60573\nasVage_max\np60574\nI65\nsVcountries\np60575\n(lp60576\nVUS\np60577\nasVbroad_age\np60578\nI1\nsVage_min\np60579\nI13\nssVid\np60580\nV6005963103565\np60581\nsVobjective\np60582\nI2\nsVmax_bid\np60583\nV65\np60584\nsVad_id\np60585\nI6005963103565\nsVaccount_id\np60586\nI40156177\nsVstart_time\np60587\nNsVlocations\np60588\n(lp60589\nI3\nasVadgroup_status\np60590\nI1\nsVad_status\np60591\nI1\nsVimpression_control_map\np60592\n(lp60593\n(dp60594\nVcontrol\np60595\n(dp60596\nVuser_impression_limit_period\np60597\nI24\nsVuser_impression_limit\np60598\nI6\nsVuser_impression_limit_period_unit\np60599\nI0\nsVimpression_control_type\np60600\nI2\nssVlocation\np60601\nI3\nsasVcreative_ids\np60602\n(lp60603\nI6005963103165\nasVtracking_pixel_ids\np60604\n(lp60605\nsVbid_type\np60606\nI1\nsVname\np60607\nVhttp://www.buzzfeed.com/h1/fbad/duckdynasty/hipster-or-redneck - Ad\np60608\nsVupdated_time\np60609\nV2012-10-03T23:22:33+0000\np60610\nsVend_time\np60611\nNsa(dp60612\nVbid_info\np60613\n(dp60614\nV1\np60615\nV65\np60616\nssVcampaign_id\np60617\nI6005963383165\nsVcreated_time\np60618\nV2012-10-03T21:40:35+0000\np60619\nsVconversion_specs\np60620\n(lp60621\nsVadgroup_id\np60622\nI6005963384165\nsVtargeting\np60623\n(dp60624\nVkeywords\np60625\n(lp60626\nV#Food Network Magazine\np60627\naV#Food Network Asia\np60628\naV#Bobby Flay\np60629\naV#Kraft Foods\np60630\naV#Top Chef: Just Desserts\np60631\naV#Pillsbury Company\np60632\naV#Top Chef Masters\np60633\naV#Kraft Dinner\np60634\naV#Guy Fieri\np60635\naV#Food Network Challenge\np60636\naV#Food Network\np60637\naV#Pierogi\np60638\naV#Paula Deen\np60639\naV#Whole Foods Market\np60640\naV#Totino's\np60641\naV#Betty Crocker\np60642\naV#The Next Food Network Star\np60643\naV#Top Chef\np60644\naV#Cake Boss\np60645\nasVage_max\np60646\nI65\nsVcountries\np60647\n(lp60648\nVUS\np60649\nasVbroad_age\np60650\nI1\nsVage_min\np60651\nI13\nssVid\np60652\nV6005963384165\np60653\nsVobjective\np60654\nI2\nsVmax_bid\np60655\nV65\np60656\nsVad_id\np60657\nI6005963384165\nsVaccount_id\np60658\nI40156177\nsVstart_time\np60659\nNsVlocations\np60660\n(lp60661\nI3\nasVadgroup_status\np60662\nI1\nsVad_status\np60663\nI1\nsVimpression_control_map\np60664\n(lp60665\n(dp60666\nVcontrol\np60667\n(dp60668\nVuser_impression_limit_period\np60669\nI24\nsVuser_impression_limit\np60670\nI6\nsVuser_impression_limit_period_unit\np60671\nI0\nsVimpression_control_type\np60672\nI2\nssVlocation\np60673\nI3\nsasVcreative_ids\np60674\n(lp60675\nI6005963383765\nasVtracking_pixel_ids\np60676\n(lp60677\nsVbid_type\np60678\nI1\nsVname\np60679\nVhttp://www.buzzfeed.com/h1/fbad/totinos/the-12-best-foods-that-come-in-pocket-form-2wvj - Ad\np60680\nsVupdated_time\np60681\nV2012-10-03T23:48:39+0000\np60682\nsVend_time\np60683\nNsa(dp60684\nVbid_info\np60685\n(dp60686\nV1\np60687\nV65\np60688\nssVcampaign_id\np60689\nI6005963383165\nsVcreated_time\np60690\nV2012-10-03T21:44:41+0000\np60691\nsVconversion_specs\np60692\n(lp60693\nsVadgroup_id\np60694\nI6005963391365\nsVtargeting\np60695\n(dp60696\nVkeywords\np60697\n(lp60698\nV#Food Network Magazine\np60699\naV#Food Network Asia\np60700\naV#Bobby Flay\np60701\naV#Kraft Foods\np60702\naV#Top Chef: Just Desserts\np60703\naV#Pillsbury Company\np60704\naV#Top Chef Masters\np60705\naV#Kraft Dinner\np60706\naV#Guy Fieri\np60707\naV#Food Network Challenge\np60708\naV#Food Network\np60709\naV#Pierogi\np60710\naV#Paula Deen\np60711\naV#Whole Foods Market\np60712\naV#Totino's\np60713\naV#Betty Crocker\np60714\naV#The Next Food Network Star\np60715\naV#Top Chef\np60716\naV#Cake Boss\np60717\nasVage_max\np60718\nI65\nsVcountries\np60719\n(lp60720\nVUS\np60721\nasVbroad_age\np60722\nI1\nsVage_min\np60723\nI13\nssVid\np60724\nV6005963391365\np60725\nsVobjective\np60726\nI2\nsVmax_bid\np60727\nV65\np60728\nsVad_id\np60729\nI6005963391365\nsVaccount_id\np60730\nI40156177\nsVstart_time\np60731\nNsVlocations\np60732\n(lp60733\nI3\nasVadgroup_status\np60734\nI1\nsVad_status\np60735\nI1\nsVimpression_control_map\np60736\n(lp60737\n(dp60738\nVcontrol\np60739\n(dp60740\nVuser_impression_limit_period\np60741\nI24\nsVuser_impression_limit\np60742\nI6\nsVuser_impression_limit_period_unit\np60743\nI0\nsVimpression_control_type\np60744\nI2\nssVlocation\np60745\nI3\nsasVcreative_ids\np60746\n(lp60747\nI6005963390965\nasVtracking_pixel_ids\np60748\n(lp60749\nsVbid_type\np"
p6
sS'hash'
p7
S'c6dde17efe2bef3771476bb988980887eb001dad'
p8
sS'stack'
p9
S''
s.