(dp1
S'args'
p2
S''
sS'methodname'
p3
S''
sS'packet_num'
p4
I65
sS'returnval'
p5
S'amous People Drinks!\np8629\nsVcreative_id\np8630\nV6003853055565\np8631\nsVpreview_url\np8632\nVhttp://www.facebook.com/ads/api/creative_preview.php?cid=6003853055565\np8633\nsVid\np8634\nV6003853055565\np8635\nsVimage_url\np8636\nVhttps://fbcdn-creative-a.akamaihd.net/hads-ak-ash3/s110x80/701906_6006844442565_21789_n.jpg\np8637\nsVcount_current_adgroups\np8638\nI0\nsVrun_status\np8639\nI1\nsVtype\np8640\nI1\nsVlink_url\np8641\nVhttp://www.buzzfeed.com/ht/sailorjerryrum/10-drinks-named-after-famous-people/HFBA1\np8642\nsVview_tag\np8643\ng36\nsa(dp8644\nValt_view_tags\np8645\n(lp8646\nsVbody\np8647\nVConan is looking for some extra money so he put his studio up for rent on Airbnb.com. It can be yours for 4 days and 3 nights. Sleepin\np8648\nsVimage_hash\np8649\nV481caad27e329a709a6819109218a748\np8650\nsVname\np8651\nVRent Conan O\'Brien\'s Stu\np8652\nsVtitle\np8653\nVRent Conan O\'Brien\'s Stu\np8654\nsVcreative_id\np8655\nV6003814880165\np8656\nsVpreview_url\np8657\nVhttp://www.facebook.com/ads/api/creative_preview.php?cid=6003814880165\np8658\nsVid\np8659\nV6003814880165\np8660\nsVimage_url\np8661\nVhttps://fbcdn-creative-a.akamaihd.net/hads-ak-ash3/s110x80/708181_6006844486365_47708_n.jpg\np8662\nsVcount_current_adgroups\np8663\nI0\nsVrun_status\np8664\nI1\nsVtype\np8665\nI1\nsVlink_url\np8666\nVhttp://buzzfeed.com/ht/airbnb/crash-at-conans-rent-conan-obrien-453n/HFAA1\np8667\nsVview_tag\np8668\ng36\nsa(dp8669\nValt_view_tags\np8670\n(lp8671\nsVbody\np8672\nVCheck out the "Evolution Of The Viral Photo Trend" from Planking to Horsemaning & beyond. "Like" our page for more great stuff!\np8673\nsVimage_hash\np8674\nV7902bf701a8aa50d700adb658a6f64b7\np8675\nsVname\np8676\nVBuzzFeed Partner-23\np8677\nsVtitle\np8678\ng36\nsVcreative_id\np8679\nV6003807495965\np8680\nsVpreview_url\np8681\nVhttp://www.facebook.com/ads/api/creative_preview.php?cid=6003807495965\np8682\nsVobject_id\np8683\nI238205562866018\nsVid\np8684\nV6003807495965\np8685\nsVimage_url\np8686\nVhttps://fbcdn-creative-a.akamaihd.net/hads-ak-prn1/s110x80/708170_6006844780165_45150_n.jpg\np8687\nsVcount_current_adgroups\np8688\nI0\nsVrun_status\np8689\nI1\nsVtype\np8690\nI2\nsVlink_url\np8691\nVhttp://www.facebook.com/BuzzFeedPartner?sk=wall\np8692\nsVview_tag\np8693\ng36\nsa(dp8694\nValt_view_tags\np8695\n(lp8696\nsVbody\np8697\nVCheck out the smoking hott ladies featured in this calender.  You will want to flip through this calender as the days and months go by!\np8698\nsVimage_hash\np8699\nVc4fc44fc2acfc24f5bcfbc0c219dc7d6\np8700\nsVname\np8701\nV12 Hott Calander Babes!\np8702\nsVtitle\np8703\nV12 Hott Calander Babes!\np8704\nsVcreative_id\np8705\nV6003782767365\np8706\nsVpreview_url\np8707\nVhttp://www.facebook.com/ads/api/creative_preview.php?cid=6003782767365\np8708\nsVid\np8709\nV6003782767365\np8710\nsVimage_url\np8711\nVhttps://fbcdn-creative-a.akamaihd.net/hads-ak-ash3/s110x80/701899_6006845230565_57482_n.jpg\np8712\nsVcount_current_adgroups\np8713\nI0\nsVrun_status\np8714\nI1\nsVtype\np8715\nI1\nsVlink_url\np8716\nVhttp://www.buzzfeed.com/ht/sailorjerryrum/the-12-hottest-sailor-jerry-pin-ups/HFBA1?utm_source=Facebook&utm_medium=Seed&utm_campaign=Sailor_Jerry&utm_content=12_Hottest_Pin_Ups\np8717\nsVview_tag\np8718\ng36\nsa(dp8719\nValt_view_tags\np8720\n(lp8721\nsVbody\np8722\nVThis video is PAINFULLY cute. Just watch.\np8723\nsVimage_hash\np8724\nV545e93c89668aba48263a0057066fdc6\np8725\nsVname\np8726\nVGrandma Has A Pagina\np8727\nsVtitle\np8728\nVGrandma Has A Pagina\np8729\nsVcreative_id\np8730\nV6003779389765\np8731\nsVpreview_url\np8732\nVhttp://www.facebook.com/ads/api/creative_preview.php?cid=6003779389765\np8733\nsVid\np8734\nV6003779389765\np8735\nsVimage_url\np8736\nVhttps://fbcdn-creative-a.akamaihd.net/hads-ak-ash3/s110x80/708166_6006844577565_64770_n.jpg\np8737\nsVcount_current_adgroups\np8738\nI0\nsVrun_status\np8739\nI1\nsVtype\np8740\nI1\nsVlink_url\np8741\nVhttp://buzzfeed.com/ht/mjs538/grandma-has-a-pagina/HFAA1\np8742\nsVview_tag\np8743\ng36\nsa(dp8744\nValt_view_tags\np8745\n(lp8746\nsVbody\np8747\nVNo, seriously. If Dick Cheney were still a human and had the capacity to dream, this would drive him to raging morning wood "Two hippi\np8748\nsVimage_hash\np8749\nV0cab59a1e14985359e48c8bf18139835\np8750\nsVname\np8751\nVBurning Man Who\'re A Thu\np8752\nsVtitle\np8753\nVBurning Man Who\'re A '
p6
sS'hash'
p7
S'cce87fa25861c321fdcedcb98e9d355da4042ca9'
p8
sS'stack'
p9
S''
s.