(dp1
S'args'
p2
S''
sS'methodname'
p3
S''
sS'packet_num'
p4
I6
sS'returnval'
p5
S"\nVWedding amp Yogurtmet\np822\nsVcreative_id\np823\nV6003199313365\np824\nsVpreview_url\np825\nVhttp://www.facebook.com/ads/api/creative_preview.php?cid=6003199313365\np826\nsVid\np827\nV6003199313365\np828\nsVimage_url\np829\nVhttps://fbcdn-creative-a.akamaihd.net/hads-ak-ash3/s110x80/708206_6006845500765_14573_n.jpg\np830\nsVcount_current_adgroups\np831\nI0\nsVrun_status\np832\nI1\nsVtype\np833\nI1\nsVlink_url\np834\nVhttp://buzzfeed.com/ht/yoplait/yoplait-lights-twtu-behind-the-scenes-weddi-24ii/HFAA1\np835\nsVview_tag\np836\ng36\nsa(dp837\nValt_view_tags\np838\n(lp839\nsVbody\np840\nVMommy bloggers and their kids come together to talk about the nutritional benefit of yogurt and their favorite flavors.\np841\nsVimage_hash\np842\nVb40160d7e645766f4c3a6dba98f6fd54\np843\nsVname\np844\nVMommy Bloggers amp Yog\np845\nsVtitle\np846\nVMommy Bloggers amp Yog\np847\nsVcreative_id\np848\nV6003199315965\np849\nsVpreview_url\np850\nVhttp://www.facebook.com/ads/api/creative_preview.php?cid=6003199315965\np851\nsVid\np852\nV6003199315965\np853\nsVimage_url\np854\nVhttps://fbcdn-creative-a.akamaihd.net/hads-ak-ash3/s110x80/708188_6006845133565_41124_n.jpg\np855\nsVcount_current_adgroups\np856\nI0\nsVrun_status\np857\nI1\nsVtype\np858\nI1\nsVlink_url\np859\nVhttp://buzzfeed.com/ht/yoplait/mommy-bloggers-their-kids-talk-yoplait-kids-24ii/HFAA1\np860\nsVview_tag\np861\ng36\nsa(dp862\nValt_view_tags\np863\n(lp864\nsVbody\np865\nVNancy ODell of Entertainment Tonight hosts Yoplaits MyGetTogether party at The Roosevelt in Los Angeles.\np866\nsVimage_hash\np867\nV94e70b5f58d016355dbaaf3c3aa7b9c5\np868\nsVname\np869\nVNancy ODell Talks Yogur\np870\nsVtitle\np871\nVNancy ODell Talks Yogur\np872\nsVcreative_id\np873\nV6003199318365\np874\nsVpreview_url\np875\nVhttp://www.facebook.com/ads/api/creative_preview.php?cid=6003199318365\np876\nsVid\np877\nV6003199318365\np878\nsVimage_url\np879\nVhttps://fbcdn-creative-a.akamaihd.net/hads-ak-prn1/s110x80/708196_6006844942965_49775_n.jpg\np880\nsVcount_current_adgroups\np881\nI0\nsVrun_status\np882\nI1\nsVtype\np883\nI1\nsVlink_url\np884\nVhttp://buzzfeed.com/ht/yoplait/nancy-odell-talks-favorite-yoplait-yogurt-fla-24ii/HFAA1\np885\nsVview_tag\np886\ng36\nsa(dp887\nValt_view_tags\np888\n(lp889\nsVbody\np890\nV30 things that are illegal in Iran, the saddest place in the world.\np891\nsVimage_hash\np892\nV42c98a678faaf93e20babb0ece5970b6\np893\nsVname\np894\nVBanned in Iran\np895\nsVtitle\np896\nVBanned in Iran\np897\nsVcreative_id\np898\nV6002948701365\np899\nsVpreview_url\np900\nVhttp://www.facebook.com/ads/api/creative_preview.php?cid=6002948701365\np901\nsVid\np902\nV6002948701365\np903\nsVimage_url\np904\nVhttps://fbcdn-creative-a.akamaihd.net/hads-ak-prn1/s110x80/708205_6006844453965_19594_n.jpg\np905\nsVcount_current_adgroups\np906\nI0\nsVrun_status\np907\nI1\nsVtype\np908\nI1\nsVlink_url\np909\nVhttp://www.buzzfeed.com/ht/mjs538/things-that-are-banned-in-iran/HFAA1\np910\nsVview_tag\np911\ng36\nsa(dp912\nValt_view_tags\np913\n(lp914\nsVbody\np915\nVRally racing like never before! The 2011 Subaru WRX STI, our newest creation. For more info, visit: Subaru.ca/Performance\np916\nsVimage_hash\np917\nV79568e37d25287b1919f0f55da193794\np918\nsVname\np919\nVChoose Your Rally Angle!\np920\nsVtitle\np921\nVChoose Your Rally Angle!\np922\nsVcreative_id\np923\nV6002943037365\np924\nsVpreview_url\np925\nVhttp://www.facebook.com/ads/api/creative_preview.php?cid=6002943037365\np926\nsVid\np927\nV6002943037365\np928\nsVimage_url\np929\nVhttps://fbcdn-creative-a.akamaihd.net/hads-ak-ash3/s110x80/708170_6006844781565_40926_n.jpg\np930\nsVcount_current_adgroups\np931\nI0\nsVrun_status\np932\nI1\nsVtype\np933\nI1\nsVlink_url\np934\nVhttp://www.buzzfeed.com/edlee/subaru-canada-choose-your-rally-angle-2jgi\np935\nsVview_tag\np936\ng36\nsa(dp937\nValt_view_tags\np938\n(lp939\nsVbody\np940\nVConan's superhero alter ego gets his own Justice League cartoon on last night\xe2s CONAN! Watch an all-new CONAN tonight at 11/10c on TBS!\np941\nsVimage_hash\np942\nV1f98677e8b9270f26336818dfa5ccb05\np943\nsVname\np944\nVConans Superhero\np945\nsVtitle\np946\nVConans Superhero\np947\nsVcreative_id\np948\nV6002938813565\np949\nsVpreview_url\np950\nVhttp://www.facebook.com/ads/api/creative_preview.php?cid=6002938813565\np951\nsVid\np952\nV6002938813565\np953\nsVimage_url\np954\nVhttps://fbcdn-creative-a.a"
p6
sS'hash'
p7
S'cce87fa25861c321fdcedcb98e9d355da4042ca9'
p8
sS'stack'
p9
S''
s.