(dp1
S'args'
p2
S''
sS'methodname'
p3
S''
sS'packet_num'
p4
I56
sS'returnval'
p5
S'/www.facebook.com/ads/api/creative_preview.php?cid=6004731867165\np7504\nsVid\np7505\nV6004731867165\np7506\nsVimage_url\np7507\nVhttps://fbcdn-creative-a.akamaihd.net/hads-ak-ash3/s110x80/701889_6006844227365_6354_n.jpg\np7508\nsVcount_current_adgroups\np7509\nI0\nsVrun_status\np7510\nI1\nsVtype\np7511\nI1\nsVlink_url\np7512\nVhttp://buzzfeed.com/ht/mjs538/president-obama-using-a-marshmallow-launcher/HFAA1\np7513\nsVview_tag\np7514\ng36\nsa(dp7515\nValt_view_tags\np7516\n(lp7517\nsVbody\np7518\nVA couple in Pennsylvania has found a purple squirrel in their backyard. The last time the world saw a purple squirrel was in the UK in\np7519\nsVimage_hash\np7520\nV8d0277a80ffe33c84f7c8cecabe19d43\np7521\nsVname\np7522\nVPurple Squirrel Found In\np7523\nsVtitle\np7524\nVPurple Squirrel Found In\np7525\nsVcreative_id\np7526\nV6004731863165\np7527\nsVpreview_url\np7528\nVhttp://www.facebook.com/ads/api/creative_preview.php?cid=6004731863165\np7529\nsVid\np7530\nV6004731863165\np7531\nsVimage_url\np7532\nVhttps://fbcdn-creative-a.akamaihd.net/hads-ak-ash3/s110x80/708171_6006844891365_61573_n.jpg\np7533\nsVcount_current_adgroups\np7534\nI0\nsVrun_status\np7535\nI1\nsVtype\np7536\nI1\nsVlink_url\np7537\nVhttp://buzzfeed.com/ht/mjs538/purple-squirrel-found-in-pennsylvania/HFAA1\np7538\nsVview_tag\np7539\ng36\nsa(dp7540\nValt_view_tags\np7541\n(lp7542\nsVbody\np7543\nVThis is the body\np7544\nsVrelated_fan_page\np7545\nI21898300328\nsVimage_hash\np7546\nV85fd3cfad604efcf25490a6c83d8336e\np7547\nsVname\np7548\nVTest Creative 1328819966\np7549\nsVtitle\np7550\nVTest Creative 1328819966\np7551\nsVcreative_id\np7552\nV6004731859165\np7553\nsVpreview_url\np7554\nVhttp://www.facebook.com/ads/api/creative_preview.php?cid=6004731859165\np7555\nsVid\np7556\nV6004731859165\np7557\nsVimage_url\np7558\nVhttps://fbcdn-creative-a.akamaihd.net/hads-ak-prn1/s110x80/708187_6006844850365_12899_n.jpg\np7559\nsVcount_current_adgroups\np7560\nI0\nsVrun_status\np7561\nI1\nsVtype\np7562\nI1\nsVlink_url\np7563\nVhttp://buzzfeed.com\np7564\nsVview_tag\np7565\ng36\nsa(dp7566\nValt_view_tags\np7567\n(lp7568\nsVbody\np7569\nVThis is the body\np7570\nsVrelated_fan_page\np7571\nI21898300328\nsVimage_hash\np7572\nV85fd3cfad604efcf25490a6c83d8336e\np7573\nsVname\np7574\nVTest Creative 1328815819\np7575\nsVtitle\np7576\nVTest Creative 1328815819\np7577\nsVcreative_id\np7578\nV6004731783765\np7579\nsVpreview_url\np7580\nVhttp://www.facebook.com/ads/api/creative_preview.php?cid=6004731783765\np7581\nsVid\np7582\nV6004731783765\np7583\nsVimage_url\np7584\nVhttps://fbcdn-creative-a.akamaihd.net/hads-ak-prn1/s110x80/708187_6006844850365_12899_n.jpg\np7585\nsVcount_current_adgroups\np7586\nI0\nsVrun_status\np7587\nI1\nsVtype\np7588\nI1\nsVlink_url\np7589\nVhttp://buzzfeed.com\np7590\nsVview_tag\np7591\ng36\nsa(dp7592\nValt_view_tags\np7593\n(lp7594\nsVbody\np7595\nVThis is the body\np7596\nsVrelated_fan_page\np7597\nI21898300328\nsVimage_hash\np7598\nV85fd3cfad604efcf25490a6c83d8336e\np7599\nsVname\np7600\nVTest Creative 1328815720\np7601\nsVtitle\np7602\nVTest Creative 1328815720\np7603\nsVcreative_id\np7604\nV6004731780565\np7605\nsVpreview_url\np7606\nVhttp://www.facebook.com/ads/api/creative_preview.php?cid=6004731780565\np7607\nsVid\np7608\nV6004731780565\np7609\nsVimage_url\np7610\nVhttps://fbcdn-creative-a.akamaihd.net/hads-ak-prn1/s110x80/708187_6006844850365_12899_n.jpg\np7611\nsVcount_current_adgroups\np7612\nI0\nsVrun_status\np7613\nI1\nsVtype\np7614\nI1\nsVlink_url\np7615\nVhttp://buzzfeed.com\np7616\nsVview_tag\np7617\ng36\nsa(dp7618\nValt_view_tags\np7619\n(lp7620\nsVbody\np7621\nVThis is the body\np7622\nsVrelated_fan_page\np7623\nI21898300328\nsVimage_hash\np7624\nV85fd3cfad604efcf25490a6c83d8336e\np7625\nsVname\np7626\nVTest Creative 1328815521\np7627\nsVtitle\np7628\nVTest Creative 1328815521\np7629\nsVcreative_id\np7630\nV6004731775165\np7631\nsVpreview_url\np7632\nVhttp://www.facebook.com/ads/api/creative_preview.php?cid=6004731775165\np7633\nsVid\np7634\nV6004731775165\np7635\nsVimage_url\np7636\nVhttps://fbcdn-creative-a.akamaihd.net/hads-ak-prn1/s110x80/708187_6006844850365_12899_n.jpg\np7637\nsVcount_current_adgroups\np7638\nI0\nsVrun_status\np7639\nI1\nsVtype\np7640\nI1\nsVlink_url\np7641\nVhttp://buzzfeed.com\np7642\nsVview_tag\np7643\ng36\nsa(dp7644\nValt_view_tags\np7645\n(lp7646\nsVbody\np7647\nVIf so, check out "The 10 Boldest Comedians" on '
p6
sS'hash'
p7
S'cce87fa25861c321fdcedcb98e9d355da4042ca9'
p8
sS'stack'
p9
S''
s.