(dp1
S'args'
p2
S''
sS'methodname'
p3
S''
sS'packet_num'
p4
I79
sS'returnval'
p5
S"36\nsa(dp10494\nValt_view_tags\np10495\n(lp10496\nsVbody\np10497\nVWell the critics are idiots. It was a very fun movie. I enjoyed it. As a whole it's a very good film. I don't think there was anything\np10498\nsVimage_hash\np10499\nV9fa964c14a0ca6f21dd15041f77e24da\np10500\nsVname\np10501\nVWell the critics are idi\np10502\nsVtitle\np10503\nVWell the critics are idi\np10504\nsVcreative_id\np10505\nV6003196035365\np10506\nsVpreview_url\np10507\nVhttp://www.facebook.com/ads/api/creative_preview.php?cid=6003196035365\np10508\nsVid\np10509\nV6003196035365\np10510\nsVimage_url\np10511\nVhttps://fbcdn-creative-a.akamaihd.net/hads-ak-ash3/s110x80/708180_6006845008165_55902_n.jpg\np10512\nsVcount_current_adgroups\np10513\nI0\nsVrun_status\np10514\nI1\nsVtype\np10515\nI1\nsVlink_url\np10516\nVhttp://buzzfeed.com/ht/darthm/well-the-critics-are-idiots-it-was-a-very-fun-iay7-2tqm/HFAA1\np10517\nsVview_tag\np10518\ng36\nsa(dp10519\nValt_view_tags\np10520\n(lp10521\nsVbody\np10522\nVIf the guys from office space weren't too busy stealin money, they could have made paper jams less stressful this way. The mana one ki\np10523\nsVimage_hash\np10524\nV1578be04aa10b025f41f57342164e6ca\np10525\nsVname\np10526\nVIf the guys from office \np10527\nsVtitle\np10528\nVIf the guys from office \np10529\nsVcreative_id\np10530\nV6003196040565\np10531\nsVpreview_url\np10532\nVhttp://www.facebook.com/ads/api/creative_preview.php?cid=6003196040565\np10533\nsVid\np10534\nV6003196040565\np10535\nsVimage_url\np10536\nVhttps://fbcdn-creative-a.akamaihd.net/hads-ak-prn1/s110x80/708170_6006844184365_22831_n.jpg\np10537\nsVcount_current_adgroups\np10538\nI0\nsVrun_status\np10539\nI1\nsVtype\np10540\nI1\nsVlink_url\np10541\nVhttp://buzzfeed.com/ht/darthm/if-the-guys-from-office-space-werent-too-busy-j1xs-2tqm/HFAA1\np10542\nsVview_tag\np10543\ng36\nsa(dp10544\nValt_view_tags\np10545\n(lp10546\nsVbody\np10547\nVThinking of this scene from Zoolander makes this even funnier.\np10548\nsVimage_hash\np10549\nV9a896900da9ab1a2f51f3b7037f5ac13\np10550\nsVname\np10551\nVCats Try To Understand A\np10552\nsVtitle\np10553\nVCats Try To Understand A\np10554\nsVcreative_id\np10555\nV6003194069965\np10556\nsVpreview_url\np10557\nVhttp://www.facebook.com/ads/api/creative_preview.php?cid=6003194069965\np10558\nsVid\np10559\nV6003194069965\np10560\nsVimage_url\np10561\nVhttps://fbcdn-creative-a.akamaihd.net/hads-ak-prn1/s110x80/708163_6006844971965_41781_n.jpg\np10562\nsVcount_current_adgroups\np10563\nI0\nsVrun_status\np10564\nI1\nsVtype\np10565\nI1\nsVlink_url\np10566\nVhttp://buzzfeed.com/ht/expresident/cats-try-to-understand-a-treadmill/HFAA1\np10567\nsVview_tag\np10568\ng36\nsa(dp10569\nValt_view_tags\np10570\n(lp10571\nsVbody\np10572\nVWhos making the weirder noises in this video, the puppy or the owners? Doggone crazy! Vomits on self from disgust.\np10573\nsVimage_hash\np10574\nV59d8c23aa4fa9da6052cb60ef9b73bee\np10575\nsVname\np10576\nVDemon Puppy\np10577\nsVtitle\np10578\nVDemon Puppy\np10579\nsVcreative_id\np10580\nV6003194072365\np10581\nsVpreview_url\np10582\nVhttp://www.facebook.com/ads/api/creative_preview.php?cid=6003194072365\np10583\nsVid\np10584\nV6003194072365\np10585\nsVimage_url\np10586\nVhttps://fbcdn-creative-a.akamaihd.net/hads-ak-prn1/s110x80/708164_6006844607765_55934_n.jpg\np10587\nsVcount_current_adgroups\np10588\nI0\nsVrun_status\np10589\nI1\nsVtype\np10590\nI1\nsVlink_url\np10591\nVhttp://buzzfeed.com/ht/gavon/demon-puppy/HFAA1\np10592\nsVview_tag\np10593\ng36\nsa(dp10594\nValt_view_tags\np10595\n(lp10596\nsVbody\np10597\nVFor years, Roger Ebert has entered the New Yorkers Cartoon Caption contest. Hes never been a finalist. . .until now. And happily, his \np10598\nsVimage_hash\np10599\nV5829cb30d3b0c0973ff9ecccb6e59c39\np10600\nsVname\np10601\nVVote For Ebert\np10602\nsVtitle\np10603\nVVote For Ebert\np10604\nsVcreative_id\np10605\nV6003194090765\np10606\nsVpreview_url\np10607\nVhttp://www.facebook.com/ads/api/creative_preview.php?cid=6003194090765\np10608\nsVid\np10609\nV6003194090765\np10610\nsVimage_url\np10611\nVhttps://fbcdn-creative-a.akamaihd.net/hads-ak-prn1/s110x80/708167_6006844598965_46301_n.jpg\np10612\nsVcount_current_adgroups\np10613\nI0\nsVrun_status\np10614\nI1\nsVtype\np10615\nI1\nsVlink_url\np10616\nVhttp://buzzfeed.com/ht/scott/vote-for-ebert/HFAA1\np10617\nsVview_tag\np10618\ng36\nsa(d"
p6
sS'hash'
p7
S'cce87fa25861c321fdcedcb98e9d355da4042ca9'
p8
sS'stack'
p9
S''
s.