(dp1
S'args'
p2
S''
sS'methodname'
p3
S''
sS'packet_num'
p4
I10
sS'returnval'
p5
S"/www.facebook.com/ads/api/creative_preview.php?cid=6002930439565\np1351\nsVid\np1352\nV6002930439565\np1353\nsVimage_url\np1354\nVhttps://fbcdn-creative-a.akamaihd.net/hads-ak-prn1/s110x80/708167_6006844503565_56184_n.jpg\np1355\nsVcount_current_adgroups\np1356\nI0\nsVrun_status\np1357\nI1\nsVtype\np1358\nI1\nsVlink_url\np1359\nVhttp://www.buzzfeed.com/ht/awesomer/4-year-old-girl-narrates-a-game-of-starcraft/HFAA1\np1360\nsVview_tag\np1361\ng36\nsa(dp1362\nValt_view_tags\np1363\n(lp1364\nsVbody\np1365\nVWhen Kevin McCallister finds himself stranded on a quarantined Manhattan island with an army of zombie vampires, he'll do whatever\np1366\nsVimage_hash\np1367\nV30821efec2be39528375f5f3dc2b0a1c\np1368\nsVname\np1369\nVI Am Home Alone-00\np1370\nsVtitle\np1371\nVI Am Home Alone\np1372\nsVcreative_id\np1373\nV6002930441365\np1374\nsVpreview_url\np1375\nVhttp://www.facebook.com/ads/api/creative_preview.php?cid=6002930441365\np1376\nsVid\np1377\nV6002930441365\np1378\nsVimage_url\np1379\nVhttps://fbcdn-creative-a.akamaihd.net/hads-ak-prn1/s110x80/708176_6006844336365_1022_n.jpg\np1380\nsVcount_current_adgroups\np1381\nI0\nsVrun_status\np1382\nI1\nsVtype\np1383\nI1\nsVlink_url\np1384\nVhttp://www.buzzfeed.com/ht/awesomer/i-am-home-alone/HFAA1\np1385\nsVview_tag\np1386\ng36\nsa(dp1387\nValt_view_tags\np1388\n(lp1389\nsVbody\np1390\nVYou may think you know how to spot dangerous people online, but sometimes the warning signs are less than apparent. Ten real ads\np1391\nsVimage_hash\np1392\nV93edec7fe89d9a91dd02cb0c7c9ac36e\np1393\nsVname\np1394\nV10 Creepy Craigslist Ads\np1395\nsVtitle\np1396\nV10 Creepy Craigslist Ads\np1397\nsVcreative_id\np1398\nV6002927149565\np1399\nsVpreview_url\np1400\nVhttp://www.facebook.com/ads/api/creative_preview.php?cid=6002927149565\np1401\nsVid\np1402\nV6002927149565\np1403\nsVimage_url\np1404\nVhttps://fbcdn-creative-a.akamaihd.net/hads-ak-prn1/s110x80/708188_6006844935565_44802_n.jpg\np1405\nsVcount_current_adgroups\np1406\nI0\nsVrun_status\np1407\nI1\nsVtype\np1408\nI1\nsVlink_url\np1409\nVhttp://www.buzzfeed.com/craigslistkiller/10-creepy-craigslist-ads-from-potential-serial-kil\np1410\nsVview_tag\np1411\ng36\nsa(dp1412\nValt_view_tags\np1413\n(lp1414\nsVbody\np1415\nVLet's take a look at some of best Michael Jordan commercials of all-time\np1416\nsVimage_hash\np1417\nV9f01b740f0b9013763e0a363ea4db434\np1418\nsVname\np1419\nVMost Iconic AirJordan ads\np1420\nsVtitle\np1421\nVMost Iconic AirJordan ads\np1422\nsVcreative_id\np1423\nV6002915358165\np1424\nsVpreview_url\np1425\nVhttp://www.facebook.com/ads/api/creative_preview.php?cid=6002915358165\np1426\nsVid\np1427\nV6002915358165\np1428\nsVimage_url\np1429\nVhttps://fbcdn-creative-a.akamaihd.net/hads-ak-prn1/s110x80/708180_6006845004565_7552_n.jpg\np1430\nsVcount_current_adgroups\np1431\nI0\nsVrun_status\np1432\nI1\nsVtype\np1433\nI1\nsVlink_url\np1434\nVhttp://buzzfeed.com/jordan/the-most-iconic-air-jordan-commercials-15\np1435\nsVview_tag\np1436\ng36\nsa(dp1437\nValt_view_tags\np1438\n(lp1439\nsVbody\np1440\nVLet's take a look at some of best Michael Jordan commercials of all-time\np1441\nsVimage_hash\np1442\nV9f01b740f0b9013763e0a363ea4db434\np1443\nsVname\np1444\nVMost Iconic AirJordan ads-00\np1445\nsVtitle\np1446\nVMost Iconic AirJordan ads\np1447\nsVcreative_id\np1448\nV6002915365965\np1449\nsVpreview_url\np1450\nVhttp://www.facebook.com/ads/api/creative_preview.php?cid=6002915365965\np1451\nsVid\np1452\nV6002915365965\np1453\nsVimage_url\np1454\nVhttps://fbcdn-creative-a.akamaihd.net/hads-ak-prn1/s110x80/708180_6006845004565_7552_n.jpg\np1455\nsVcount_current_adgroups\np1456\nI0\nsVrun_status\np1457\nI1\nsVtype\np1458\nI1\nsVlink_url\np1459\nVhttp://buzzfeed.com/ht/jordan/the-most-iconic-air-jordan-commercials-15//HFAA1\np1460\nsVview_tag\np1461\ng36\nsa(dp1462\nValt_view_tags\np1463\n(lp1464\nsVbody\np1465\nVHere are the year's 20 must-see videos - how many have you seen?\np1466\nsVimage_hash\np1467\nV176d76e3566bfe9f587e26ad7a51fafe\np1468\nsVname\np1469\nV2010's Best Viral Videos\np1470\nsVtitle\np1471\nV2010's Best Viral Videos\np1472\nsVcreative_id\np1473\nV6002920170765\np1474\nsVpreview_url\np1475\nVhttp://www.facebook.com/ads/api/creative_preview.php?cid=6002920170765\np1476\nsVid\np1477\nV6002920170765\np1478\nsVimage_url\np1479\nVhttps://fbcdn-creative-a.akamaihd.net/hads-ak-prn1/s110x80/"
p6
sS'hash'
p7
S'cce87fa25861c321fdcedcb98e9d355da4042ca9'
p8
sS'stack'
p9
S''
s.