(dp1
S'args'
p2
S''
sS'methodname'
p3
S''
sS'packet_num'
p4
I49
sS'returnval'
p5
S'a(dp6559\nValt_view_tags\np6560\n(lp6561\nsVbody\np6562\nVCan\'t get enough James Van Der Beek Memes. Check out this collection we\'ve made, and add your own at BuzzFeed.\np6563\nsVimage_hash\np6564\nV562425be999e475a3e7b71c4609d1854\np6565\nsVname\np6566\nVWho Meme?-00\np6567\nsVtitle\np6568\nVWho Meme?\np6569\nsVcreative_id\np6570\nV6004978905165\np6571\nsVpreview_url\np6572\nVhttp://www.facebook.com/ads/api/creative_preview.php?cid=6004978905165\np6573\nsVid\np6574\nV6004978905165\np6575\nsVimage_url\np6576\nVhttps://fbcdn-creative-a.akamaihd.net/hads-ak-prn1/s110x80/708176_6006844589765_55642_n.jpg\np6577\nsVcount_current_adgroups\np6578\nI2\nsVrun_status\np6579\nI1\nsVtype\np6580\nI1\nsVlink_url\np6581\nVhttp://www.buzzfeed.com/H1/FBAD/donttrusttheb/stop-making-memes-james-van-der-beek-memes-5h77\np6582\nsVview_tag\np6583\ng36\nsa(dp6584\nValt_view_tags\np6585\n(lp6586\nsVbody\np6587\nVSidney Crosby made our list for "The Best Hair in Hockey".  Wondering who else made it? Check it out on BuzzFeed!\np6588\nsVimage_hash\np6589\nV48390c913746a181bfc1b6986b06ca4a\np6590\nsVname\np6591\nVThe Best Hair in Hockey!\np6592\nsVtitle\np6593\nVThe Best Hair in Hockey!\np6594\nsVcreative_id\np6595\nV6004981712365\np6596\nsVpreview_url\np6597\nVhttp://www.facebook.com/ads/api/creative_preview.php?cid=6004981712365\np6598\nsVid\np6599\nV6004981712365\np6600\nsVimage_url\np6601\nVhttps://fbcdn-creative-a.akamaihd.net/hads-ak-prn1/s110x80/708181_6006844486565_45170_n.jpg\np6602\nsVcount_current_adgroups\np6603\nI1\nsVrun_status\np6604\nI1\nsVtype\np6605\nI1\nsVlink_url\np6606\nVhttp://www.buzzfeed.com/H1/FBAD/nhl/the-best-hair-in-hockey-2ag2\np6607\nsVview_tag\np6608\ng36\nsa(dp6609\nValt_view_tags\np6610\n(lp6611\nsVbody\np6612\nVThis is pretty much the only thing I\'ve listened to this week.\np6613\nsVimage_hash\np6614\nVe765da36070ca632aa8d1ec9d6b6fa09\np6615\nsVname\np6616\nVThis is pretty much the \np6617\nsVtitle\np6618\nVThis is pretty much the \np6619\nsVcreative_id\np6620\nV6004786885565\np6621\nsVpreview_url\np6622\nVhttp://www.facebook.com/ads/api/creative_preview.php?cid=6004786885565\np6623\nsVid\np6624\nV6004786885565\np6625\nsVimage_url\np6626\nVhttps://fbcdn-creative-a.akamaihd.net/hads-ak-prn1/s110x80/708171_6006845446765_44975_n.jpg\np6627\nsVcount_current_adgroups\np6628\nI0\nsVrun_status\np6629\nI1\nsVtype\np6630\nI1\nsVlink_url\np6631\nVhttp://buzzfeed.com/ht/scott/this-is-pretty-much-the-only-thing-ive-u3fb-b/HFAA1\np6632\nsVview_tag\np6633\ng36\nsa(dp6634\nValt_view_tags\np6635\n(lp6636\nsVbody\np6637\nVNow that the Bieb is legal, the world of Beliebers has officially taken things. . .adult. Stevie Ryan imagines a world where Bieb fina\np6638\nsVimage_hash\np6639\nVbe7f2d9eb1b2620fd30ae2c7c71471b3\np6640\nsVname\np6641\nVBiebers Bang Bus\np6642\nsVtitle\np6643\nVBiebers Bang Bus\np6644\nsVcreative_id\np6645\nV6004852523565\np6646\nsVpreview_url\np6647\nVhttp://www.facebook.com/ads/api/creative_preview.php?cid=6004852523565\np6648\nsVid\np6649\nV6004852523565\np6650\nsVimage_url\np6651\nVhttps://fbcdn-creative-a.akamaihd.net/hads-ak-prn1/s110x80/708178_6006845194565_31721_n.jpg\np6652\nsVcount_current_adgroups\np6653\nI0\nsVrun_status\np6654\nI1\nsVtype\np6655\nI1\nsVlink_url\np6656\nVhttp://buzzfeed.com/ht/vh1/biebers-bang-bus-5htt/HFAA1\np6657\nsVview_tag\np6658\ng36\nsa(dp6659\nValt_view_tags\np6660\n(lp6661\nsVbody\np6662\nVKids love Lady Gaga and kids also love dolls why not give your child Lady Gagas newest invention "Gender Dolls. " StevieTVs Stevie R\np6663\nsVimage_hash\np6664\nV74746084033708ee9cdb085b81e1defa\np6665\nsVname\np6666\nVLady Gagas Gender Dolls\np6667\nsVtitle\np6668\nVLady Gagas Gender Dolls\np6669\nsVcreative_id\np6670\nV6004852525965\np6671\nsVpreview_url\np6672\nVhttp://www.facebook.com/ads/api/creative_preview.php?cid=6004852525965\np6673\nsVid\np6674\nV6004852525965\np6675\nsVimage_url\np6676\nVhttps://fbcdn-creative-a.akamaihd.net/hads-ak-ash3/s110x80/701898_6006844753565_49998_n.jpg\np6677\nsVcount_current_adgroups\np6678\nI0\nsVrun_status\np6679\nI1\nsVtype\np6680\nI1\nsVlink_url\np6681\nVhttp://buzzfeed.com/ht/vh1/lady-gagas-gender-dolls-5htt/HFAA1\np6682\nsVview_tag\np6683\ng36\nsa(dp6684\nValt_view_tags\np6685\n(lp6686\nsVbody\np6687\nVFeed your brain audio books with a free 30day trial from Audible.com. Choose from more than 100,000 titles'
p6
sS'hash'
p7
S'cce87fa25861c321fdcedcb98e9d355da4042ca9'
p8
sS'stack'
p9
S''
s.