(dp1
S'args'
p2
S''
sS'methodname'
p3
S''
sS'packet_num'
p4
I11
sS'returnval'
p5
S"708166_6006844194165_25832_n.jpg\np1480\nsVcount_current_adgroups\np1481\nI0\nsVrun_status\np1482\nI1\nsVtype\np1483\nI1\nsVlink_url\np1484\nVhttp://www.buzzfeed.com/chrismenning/buzzfeeds-top-20-videos-of-2010-that-you-should-h\np1485\nsVview_tag\np1486\ng36\nsa(dp1487\nValt_view_tags\np1488\n(lp1489\nsVbody\np1490\nVDonna Simpson - the world's fattest woman -  ate 30,000 calories for Christmas dinner. This is how she did it.\np1491\nsVimage_hash\np1492\nVd0be263a58cffa8c726f3c5c0a0a1348\np1493\nsVname\np1494\nVHer Huge Christmas Dinner\np1495\nsVtitle\np1496\nVHer Huge Christmas Dinner\np1497\nsVcreative_id\np1498\nV6002920175565\np1499\nsVpreview_url\np1500\nVhttp://www.facebook.com/ads/api/creative_preview.php?cid=6002920175565\np1501\nsVid\np1502\nV6002920175565\np1503\nsVimage_url\np1504\nVhttps://fbcdn-creative-a.akamaihd.net/hads-ak-prn1/s110x80/708192_6006845299565_39406_n.jpg\np1505\nsVcount_current_adgroups\np1506\nI0\nsVrun_status\np1507\nI1\nsVtype\np1508\nI1\nsVlink_url\np1509\nVhttp://www.buzzfeed.com/mjs538/this-is-what-the-worlds-fattest-woman-ate-for-chr\np1510\nsVview_tag\np1511\ng36\nsa(dp1512\nValt_view_tags\np1513\n(lp1514\nsVbody\np1515\nVRemember when this was the latest technology? That was over 20 years ago. Check out some of these retro computer ads and show your mom\np1516\nsVimage_hash\np1517\nVe45ff363e52028069b593674824f1ecd\np1518\nsVname\np1519\nV15 Retro Computer Ads\np1520\nsVtitle\np1521\nV15 Retro Computer Ads\np1522\nsVcreative_id\np1523\nV6002911857965\np1524\nsVpreview_url\np1525\nVhttp://www.facebook.com/ads/api/creative_preview.php?cid=6002911857965\np1526\nsVid\np1527\nV6002911857965\np1528\nsVimage_url\np1529\nVhttps://fbcdn-creative-a.akamaihd.net/hads-ak-prn1/s110x80/708185_6006845429365_15620_n.jpg\np1530\nsVcount_current_adgroups\np1531\nI0\nsVrun_status\np1532\nI1\nsVtype\np1533\nI1\nsVlink_url\np1534\nVhttp://www.buzzfeed.com/ht/boosted/15-retro-computer-ads-26rk/HFAA1\np1535\nsVview_tag\np1536\ng36\nsa(dp1537\nValt_view_tags\np1538\n(lp1539\nsVbody\np1540\nVThese cats will make you feel slightly less bad about all the calories you've consumed recently.\np1541\nsVimage_hash\np1542\nV51257f15c73a8814478065cdacca6429\np1543\nsVname\np1544\nV50 Fat Cats In Food Comas\np1545\nsVtitle\np1546\nV50 Fat Cats In Food Comas\np1547\nsVcreative_id\np1548\nV6002915409765\np1549\nsVpreview_url\np1550\nVhttp://www.facebook.com/ads/api/creative_preview.php?cid=6002915409765\np1551\nsVid\np1552\nV6002915409765\np1553\nsVimage_url\np1554\nVhttps://fbcdn-creative-a.akamaihd.net/hads-ak-prn1/s110x80/708195_6006844559365_2674_n.jpg\np1555\nsVcount_current_adgroups\np1556\nI0\nsVrun_status\np1557\nI1\nsVtype\np1558\nI1\nsVlink_url\np1559\nVhttp://www.BuzzFeed.com/mjs538/50-fat-cats-in-food-comas\np1560\nsVview_tag\np1561\ng36\nsa(dp1562\nValt_view_tags\np1563\n(lp1564\nsVbody\np1565\nVThis cat willingly puts on ridiculous bunny ears as you watch. See it now!\np1566\nsVimage_hash\np1567\nV415c72ad2b3654f0d1bc9631dd466e3b\np1568\nsVname\np1569\nVCat Wears Bunny Ears\np1570\nsVtitle\np1571\nVCat Wears Bunny Ears\np1572\nsVcreative_id\np1573\nV6002915420965\np1574\nsVpreview_url\np1575\nVhttp://www.facebook.com/ads/api/creative_preview.php?cid=6002915420965\np1576\nsVid\np1577\nV6002915420965\np1578\nsVimage_url\np1579\nVhttps://fbcdn-creative-a.akamaihd.net/hads-ak-ash3/s110x80/701906_6006844442165_29540_n.jpg\np1580\nsVcount_current_adgroups\np1581\nI0\nsVrun_status\np1582\nI1\nsVtype\np1583\nI1\nsVlink_url\np1584\nVhttp://www.BuzzFeed.com/sayomg/cat-loves-bunny-ears-tah\np1585\nsVview_tag\np1586\ng36\nsa(dp1587\nValt_view_tags\np1588\n(lp1589\nsVbody\np1590\nVMatthew Lewis (Neville Longbottom) wasn't the only actor in the Harry Potter movies to get hot! My, they grow up so quickly!\np1591\nsVimage_hash\np1592\nV4ff5dd9ae42523327a32a42eaa3f1d35\np1593\nsVname\np1594\nVPotter Cast, Then and Now\np1595\nsVtitle\np1596\nVPotter Cast, Then and Now\np1597\nsVcreative_id\np1598\nV6002907739365\np1599\nsVpreview_url\np1600\nVhttp://www.facebook.com/ads/api/creative_preview.php?cid=6002907739365\np1601\nsVid\np1602\nV6002907739365\np1603\nsVimage_url\np1604\nVhttps://fbcdn-creative-a.akamaihd.net/hads-ak-prn1/s110x80/708192_6006844550165_39197_n.jpg\np1605\nsVcount_current_adgroups\np1606\nI0\nsVrun_status\np1607\nI1\nsVtype\np1608\nI1\nsVlink_url\np1609\nVhttp://buzzfee"
p6
sS'hash'
p7
S'cce87fa25861c321fdcedcb98e9d355da4042ca9'
p8
sS'stack'
p9
S''
s.