(dp1
S'args'
p2
S''
sS'methodname'
p3
S''
sS'packet_num'
p4
I85
sS'returnval'
p5
S'V6003186201965\np11256\nsVpreview_url\np11257\nVhttp://www.facebook.com/ads/api/creative_preview.php?cid=6003186201965\np11258\nsVid\np11259\nV6003186201965\np11260\nsVimage_url\np11261\nVhttps://fbcdn-creative-a.akamaihd.net/hads-ak-ash3/s110x80/701899_6006844995165_20670_n.jpg\np11262\nsVcount_current_adgroups\np11263\nI0\nsVrun_status\np11264\nI1\nsVtype\np11265\nI1\nsVlink_url\np11266\nVhttp://buzzfeed.com/ht/mjs538/keenan-cahils-commercial-for-mazda-of-poughkeepsi/HFAA1\np11267\nsVview_tag\np11268\ng36\nsa(dp11269\nValt_view_tags\np11270\n(lp11271\nsVbody\np11272\nVStop chugging that keg beer, and put a little class in your drink! You don39t want to seem like a brute when you can39t even mix\np11273\nsVimage_hash\np11274\nV9ef4985b4fe0645fad0d7ee400ded80b\np11275\nsVname\np11276\nVClassic Cocktails\np11277\nsVtitle\np11278\nVClassic Cocktails\np11279\nsVcreative_id\np11280\nV6003177365565\np11281\nsVpreview_url\np11282\nVhttp://www.facebook.com/ads/api/creative_preview.php?cid=6003177365565\np11283\nsVid\np11284\nV6003177365565\np11285\nsVimage_url\np11286\nVhttps://fbcdn-creative-a.akamaihd.net/hads-ak-prn1/s110x80/708180_6006845004165_36992_n.jpg\np11287\nsVcount_current_adgroups\np11288\nI0\nsVrun_status\np11289\nI1\nsVtype\np11290\nI1\nsVlink_url\np11291\nVhttp://buzzfeed.com/ht/bic/classic-cocktails-that-you-should-know-how-to-make/HFAA1\np11292\nsVview_tag\np11293\ng36\nsa(dp11294\nValt_view_tags\np11295\n(lp11296\nsVbody\np11297\nVYou39re giving a speech at a wedding this season Relax, you39ve got this one. Even if you39re not used to public speaking, g\np11298\nsVimage_hash\np11299\nVbfea11af672bb14a602f7241d91c1972\np11300\nsVname\np11301\nVHow To Deliver A Speach\np11302\nsVtitle\np11303\nVHow To Deliver A Speach\np11304\nsVcreative_id\np11305\nV6003177363165\np11306\nsVpreview_url\np11307\nVhttp://www.facebook.com/ads/api/creative_preview.php?cid=6003177363165\np11308\nsVid\np11309\nV6003177363165\np11310\nsVimage_url\np11311\nVhttps://fbcdn-creative-a.akamaihd.net/hads-ak-prn1/s110x80/708192_6006845203365_51333_n.jpg\np11312\nsVcount_current_adgroups\np11313\nI0\nsVrun_status\np11314\nI1\nsVtype\np11315\nI1\nsVlink_url\np11316\nVhttp://buzzfeed.com/ht/bic/how-to-deliver-a-best-mans-speech/HFAA1\np11317\nsVview_tag\np11318\ng36\nsa(dp11319\nValt_view_tags\np11320\n(lp11321\nsVbody\np11322\nVIts pretty embarrassing to have a clip on tie. Or even worse. . . asking your dad to tie your necktie for you. Save yourself the hu\np11323\nsVimage_hash\np11324\nVa7559bc4aa0eecbe39f29668537bf277\np11325\nsVname\np11326\nVHow To Tie A Necktie-00\np11327\nsVtitle\np11328\nVHow To Tie A Necktie\np11329\nsVcreative_id\np11330\nV6003177360765\np11331\nsVpreview_url\np11332\nVhttp://www.facebook.com/ads/api/creative_preview.php?cid=6003177360765\np11333\nsVid\np11334\nV6003177360765\np11335\nsVimage_url\np11336\nVhttps://fbcdn-creative-a.akamaihd.net/hads-ak-prn1/s110x80/708184_6006845057765_41020_n.jpg\np11337\nsVcount_current_adgroups\np11338\nI0\nsVrun_status\np11339\nI1\nsVtype\np11340\nI1\nsVlink_url\np11341\nVhttp://buzzfeed.com/ht/bic/how-to-tie-a-necktie/HFAA1\np11342\nsVview_tag\np11343\ng36\nsa(dp11344\nValt_view_tags\np11345\n(lp11346\nsVbody\np11347\nVIn honor of Easters best candy Cad Eggs, heres a collection of divine Cadbury Creme Egg recipes. Can someone please make t\np11348\nsVimage_hash\np11349\nVdf9b372e16131720281b8495c95c3703\np11350\nsVname\np11351\nV13 Delicious Recipes Usi\np11352\nsVtitle\np11353\nV13 Delicious Recipes Usi\np11354\nsVcreative_id\np11355\nV6003177325165\np11356\nsVpreview_url\np11357\nVhttp://www.facebook.com/ads/api/creative_preview.php?cid=6003177325165\np11358\nsVid\np11359\nV6003177325165\np11360\nsVimage_url\np11361\nVhttps://fbcdn-creative-a.akamaihd.net/hads-ak-ash3/s110x80/708169_6006845392765_26613_n.jpg\np11362\nsVcount_current_adgroups\np11363\nI0\nsVrun_status\np11364\nI1\nsVtype\np11365\nI1\nsVlink_url\np11366\nVhttp://buzzfeed.com/ht/mjs538/delicious-recipes-using-cadbury-creme-eggs/HFAA1\np11367\nsVview_tag\np11368\ng36\nsa(dp11369\nValt_view_tags\np11370\n(lp11371\nsVbody\np11372\nVAccording to Tina Fey are the physical features the media says all women should haveas presented by animals.\np11373\nsVimage_hash\np11374\nV5dd73a6aaebf8315bbc415e34c969baa\np11375\nsVname\np11376\nVTina Fey Says Women\np11377\nsVtitle\n'
p6
sS'hash'
p7
S'cce87fa25861c321fdcedcb98e9d355da4042ca9'
p8
sS'stack'
p9
S''
s.