(dp1
S'args'
p2
S''
sS'methodname'
p3
S''
sS'packet_num'
p4
I37
sS'returnval'
p5
S"\nI1\nsVtype\np4955\nI2\nsVlink_url\np4956\nVhttp://www.facebook.com/WTFFeed\np4957\nsVview_tag\np4958\ng36\nsa(dp4959\nValt_view_tags\np4960\n(lp4961\nsVbody\np4962\nVStay up-to-date on the Internet's most surprising celeb gossip and world news! Sometimes you need a little trashiness. Become a fan!\np4963\nsVimage_hash\np4964\nV373d77f06e117622097a005f0df358a7\np4965\nsVname\np4966\nVTrashyFeed-01\np4967\nsVtitle\np4968\ng36\nsVcreative_id\np4969\nV6002326501565\np4970\nsVpreview_url\np4971\nVhttp://www.facebook.com/ads/api/creative_preview.php?cid=6002326501565\np4972\nsVobject_id\np4973\nI69774848072\nsVid\np4974\nV6002326501565\np4975\nsVimage_url\np4976\nVhttps://fbcdn-creative-a.akamaihd.net/hads-ak-ash3/s110x80/708193_6006844375165_20615_n.jpg\np4977\nsVcount_current_adgroups\np4978\nI0\nsVrun_status\np4979\nI1\nsVtype\np4980\nI2\nsVlink_url\np4981\nVhttp://www.facebook.com/TrashyFeed\np4982\nsVview_tag\np4983\ng36\nsa(dp4984\nValt_view_tags\np4985\n(lp4986\nsVbody\np4987\nVStay up-to-date on the Internet's most surprising celeb gossip and world news! Sometimes you need a little trashiness. Become a fan!\np4988\nsVimage_hash\np4989\nV1b5cd9d31e60c660b38062122423f6bc\np4990\nsVname\np4991\nVTrashyFeed\np4992\nsVtitle\np4993\ng36\nsVcreative_id\np4994\nV6002326508165\np4995\nsVpreview_url\np4996\nVhttp://www.facebook.com/ads/api/creative_preview.php?cid=6002326508165\np4997\nsVobject_id\np4998\nI69774848072\nsVid\np4999\nV6002326508165\np5000\nsVimage_url\np5001\nVhttps://fbcdn-creative-a.akamaihd.net/hads-ak-ash3/s110x80/701896_6006844222565_37718_n.jpg\np5002\nsVcount_current_adgroups\np5003\nI0\nsVrun_status\np5004\nI1\nsVtype\np5005\nI2\nsVlink_url\np5006\nVhttp://www.facebook.com/TrashyFeed\np5007\nsVview_tag\np5008\ng36\nsa(dp5009\nValt_view_tags\np5010\n(lp5011\nsVbody\np5012\nVFind the coolest, most wonderful things on the Internet before anyone else. OMG! Become a fan!\np5013\nsVimage_hash\np5014\nVd1a3c3e3c8d2e63d1615750bbf8d70fd\np5015\nsVname\np5016\nVOMGFeed-01\np5017\nsVtitle\np5018\ng36\nsVcreative_id\np5019\nV6002326460565\np5020\nsVpreview_url\np5021\nVhttp://www.facebook.com/ads/api/creative_preview.php?cid=6002326460565\np5022\nsVobject_id\np5023\nI57275814444\nsVid\np5024\nV6002326460565\np5025\nsVimage_url\np5026\nVhttps://fbcdn-creative-a.akamaihd.net/hads-ak-ash3/s110x80/701888_6006845305165_41793_n.jpg\np5027\nsVcount_current_adgroups\np5028\nI0\nsVrun_status\np5029\nI1\nsVtype\np5030\nI2\nsVlink_url\np5031\nVhttp://www.facebook.com/OMGFeed\np5032\nsVview_tag\np5033\ng36\nsa(dp5034\nValt_view_tags\np5035\n(lp5036\nsVbody\np5037\nVFind the coolest, most wonderful things on the Internet before anyone else. OMG! Become a fan!\np5038\nsVimage_hash\np5039\nV57006e36a5c6e6d3378f21c509fd2e6b\np5040\nsVname\np5041\nVOMGFeed\np5042\nsVtitle\np5043\ng36\nsVcreative_id\np5044\nV6002326466165\np5045\nsVpreview_url\np5046\nVhttp://www.facebook.com/ads/api/creative_preview.php?cid=6002326466165\np5047\nsVobject_id\np5048\nI57275814444\nsVid\np5049\nV6002326466165\np5050\nsVimage_url\np5051\nVhttps://fbcdn-creative-a.akamaihd.net/hads-ak-prn1/s110x80/708176_6006844592765_30095_n.jpg\np5052\nsVcount_current_adgroups\np5053\nI0\nsVrun_status\np5054\nI1\nsVtype\np5055\nI2\nsVlink_url\np5056\nVhttp://www.facebook.com/OMGFeed\np5057\nsVview_tag\np5058\ng36\nsa(dp5059\nValt_view_tags\np5060\n(lp5061\nsVbody\np5062\nVFind the cutest things on the Internet before anyone else. Become a fan of cuteness!\np5063\nsVimage_hash\np5064\nV8668c78d743f9c5e53ac54005b6c0e77\np5065\nsVname\np5066\nVCuteFeed-03\np5067\nsVtitle\np5068\ng36\nsVcreative_id\np5069\nV6002324857565\np5070\nsVpreview_url\np5071\nVhttp://www.facebook.com/ads/api/creative_preview.php?cid=6002324857565\np5072\nsVobject_id\np5073\nI87450852208\nsVid\np5074\nV6002324857565\np5075\nsVimage_url\np5076\nVhttps://fbcdn-creative-a.akamaihd.net/hads-ak-prn1/s110x80/708180_6006844855765_8678_n.jpg\np5077\nsVcount_current_adgroups\np5078\nI0\nsVrun_status\np5079\nI1\nsVtype\np5080\nI2\nsVlink_url\np5081\nVhttp://www.facebook.com/CuteFeed\np5082\nsVview_tag\np5083\ng36\nsa(dp5084\nValt_view_tags\np5085\n(lp5086\nsVbody\np5087\nVBecome a fan of cuteness! Find the cutest things in the entire Internet before anyone else.\np5088\nsVimage_hash\np5089\nV9ba2c87b7ca3c12fd563c11ffc4950b8\np5090\nsVname\np5091\nVCuteFeed-00\np5092\nsVtitle\np5093\ng36\nsVcreative_id\np5"
p6
sS'hash'
p7
S'cce87fa25861c321fdcedcb98e9d355da4042ca9'
p8
sS'stack'
p9
S''
s.