(dp1
S'args'
p2
S''
sS'methodname'
p3
S''
sS'packet_num'
p4
I25
sS'returnval'
p5
S'name\np3344\nVCoca-Cola Happiness Store\np3345\nsVtitle\np3346\nVCoca-Cola Happiness Store\np3347\nsVcreative_id\np3348\nV6003009492765\np3349\nsVpreview_url\np3350\nVhttp://www.facebook.com/ads/api/creative_preview.php?cid=6003009492765\np3351\nsVid\np3352\nV6003009492765\np3353\nsVimage_url\np3354\nVhttps://fbcdn-creative-a.akamaihd.net/hads-ak-prn1/s110x80/708170_6006844116565_10672_n.jpg\np3355\nsVcount_current_adgroups\np3356\nI0\nsVrun_status\np3357\nI1\nsVtype\np3358\nI1\nsVlink_url\np3359\nVhttp://www.buzzfeed.com/ht/cocacola/the-coca-cola-happiness-store-another-reason-to-s/HFAA1\np3360\nsVview_tag\np3361\ng36\nsa(dp3362\nValt_view_tags\np3363\n(lp3364\nsVbody\np3365\nVA converted delivery truck brings happiness to the streets of Manila, Philippines. Where will happiness strike next?\np3366\nsVimage_hash\np3367\nV9f259e6db449fe10d93952465e62ab31\np3368\nsVname\np3369\nVCoca-Cola In Philippines\np3370\nsVtitle\np3371\nVCoca-Cola In Philippines\np3372\nsVcreative_id\np3373\nV6003009495365\np3374\nsVpreview_url\np3375\nVhttp://www.facebook.com/ads/api/creative_preview.php?cid=6003009495365\np3376\nsVid\np3377\nV6003009495365\np3378\nsVimage_url\np3379\nVhttps://fbcdn-creative-a.akamaihd.net/hads-ak-ash3/s110x80/708180_6006845005965_30300_n.jpg\np3380\nsVcount_current_adgroups\np3381\nI0\nsVrun_status\np3382\nI1\nsVtype\np3383\nI1\nsVlink_url\np3384\nVhttp://www.buzzfeed.com/ht/cocacola/the-coca-cola-happiness-truck/HFAA1\np3385\nsVview_tag\np3386\ng36\nsa(dp3387\nValt_view_tags\np3388\n(lp3389\nsVbody\np3390\nVThis is awesome. Separated in 2 parts, here is 5 seconds of every #1 song in chart history until 1992. So good.\np3391\nsVimage_hash\np3392\nV86aa7f6deb42b0d7f77af02660091827\np3393\nsVname\np3394\nV5 Secs Of Every 1 Song\np3395\nsVtitle\np3396\nV5 Secs Of Every 1 Song\np3397\nsVcreative_id\np3398\nV6003008539565\np3399\nsVpreview_url\np3400\nVhttp://www.facebook.com/ads/api/creative_preview.php?cid=6003008539565\np3401\nsVid\np3402\nV6003008539565\np3403\nsVimage_url\np3404\nVhttps://fbcdn-creative-a.akamaihd.net/hads-ak-prn1/s110x80/708180_6006844856765_48969_n.jpg\np3405\nsVcount_current_adgroups\np3406\nI0\nsVrun_status\np3407\nI1\nsVtype\np3408\nI1\nsVlink_url\np3409\nVhttp://www.buzzfeed.com/ht/mjs538/5-seconds-of-every-1-song-ever/HFAA1\np3410\nsVview_tag\np3411\ng36\nsa(dp3412\nValt_view_tags\np3413\n(lp3414\nsVbody\np3415\nVThis is awesome. Separated in 2 parts, here is 5 seconds of every #1 song in chart history until 1992. So good.\np3416\nsVimage_hash\np3417\nV86aa7f6deb42b0d7f77af02660091827\np3418\nsVname\np3419\nV5 Secs Of Every #1 Song\np3420\nsVtitle\np3421\nV5 Secs Of Every #1 Song\np3422\nsVcreative_id\np3423\nV6003008684565\np3424\nsVpreview_url\np3425\nVhttp://www.facebook.com/ads/api/creative_preview.php?cid=6003008684565\np3426\nsVid\np3427\nV6003008684565\np3428\nsVimage_url\np3429\nVhttps://fbcdn-creative-a.akamaihd.net/hads-ak-prn1/s110x80/708180_6006844856765_48969_n.jpg\np3430\nsVcount_current_adgroups\np3431\nI0\nsVrun_status\np3432\nI1\nsVtype\np3433\nI1\nsVlink_url\np3434\nVhttp://www.buzzfeed.com/ht/mjs538/5-seconds-of-every-1-song-ever/HFAA1\np3435\nsVview_tag\np3436\ng36\nsa(dp3437\nValt_view_tags\np3438\n(lp3439\nsVbody\np3440\nVAmazing mix using 5 seconds of every #1 song in chart history until 1992. So good.\np3441\nsVimage_hash\np3442\nVf124db64fd0c313e44d0d013bd45ba07\np3443\nsVname\np3444\nV5 Secs Of Every #1 Song-00\np3445\nsVtitle\np3446\nV5 Secs Of Every #1 Song\np3447\nsVcreative_id\np3448\nV6003008820165\np3449\nsVpreview_url\np3450\nVhttp://www.facebook.com/ads/api/creative_preview.php?cid=6003008820165\np3451\nsVid\np3452\nV6003008820165\np3453\nsVimage_url\np3454\nVhttps://fbcdn-creative-a.akamaihd.net/hads-ak-prn1/s110x80/708178_6006845510365_30358_n.jpg\np3455\nsVcount_current_adgroups\np3456\nI0\nsVrun_status\np3457\nI1\nsVtype\np3458\nI1\nsVlink_url\np3459\nVhttp://www.buzzfeed.com/ht/mjs538/5-seconds-of-every-1-song-ever/HFAA1\np3460\nsVview_tag\np3461\ng36\nsa(dp3462\nValt_view_tags\np3463\n(lp3464\nsVbody\np3465\nVImagine if your outlets were programmed to be "smart" and told you how much energy you\'ve used.\np3466\nsVimage_hash\np3467\nV3c41a2b66de235cba3adb542cee776ac\np3468\nsVname\np3469\nVThinkEcos Modlet\np3470\nsVtitle\np3471\nVThinkEcos Modlet\np3472\nsVcreative_id\np3473\nV6003001658765\np3474\nsVpreview_url\np347'
p6
sS'hash'
p7
S'cce87fa25861c321fdcedcb98e9d355da4042ca9'
p8
sS'stack'
p9
S''
s.