(dp1
S'args'
p2
S''
sS'methodname'
p3
S''
sS'packet_num'
p4
I4
sS'returnval'
p5
S"ads/api/creative_preview.php?cid=6003571455965\np551\nsVid\np552\nV6003571455965\np553\nsVimage_url\np554\nVhttps://fbcdn-creative-a.akamaihd.net/hads-ak-prn1/s110x80/708191_6006845365565_32633_n.jpg\np555\nsVcount_current_adgroups\np556\nI0\nsVrun_status\np557\nI1\nsVtype\np558\nI1\nsVlink_url\np559\nVhttp://buzzfeed.com/ht/on87/explosives-creates-art-on-walls-amazing-2tyj/HFAA1\np560\nsVview_tag\np561\ng36\nsa(dp562\nValt_view_tags\np563\n(lp564\nsVbody\np565\nVExplosives Creates Art, Explosive Graffiti. Vhils Art  Sound by Orelha Negra Amazing\np566\nsVimage_hash\np567\nV3bc80badc981dbc8ae4736c8c6cdf881\np568\nsVname\np569\nVExplosive Etching Art -00\np570\nsVtitle\np571\nVExplosive Etching Art \np572\nsVcreative_id\np573\nV6003572071565\np574\nsVpreview_url\np575\nVhttp://www.facebook.com/ads/api/creative_preview.php?cid=6003572071565\np576\nsVid\np577\nV6003572071565\np578\nsVimage_url\np579\nVhttps://fbcdn-creative-a.akamaihd.net/hads-ak-ash3/s110x80/701890_6006844402165_9457_n.jpg\np580\nsVcount_current_adgroups\np581\nI0\nsVrun_status\np582\nI1\nsVtype\np583\nI1\nsVlink_url\np584\nVhttp://buzzfeed.com/ht/on87/explosives-creates-art-on-walls-amazing-2tyj/HFAA1\np585\nsVview_tag\np586\ng36\nsa(dp587\nValt_view_tags\np588\n(lp589\nsVbody\np590\nVWho would have thought that throwing gelatin cubes thrown at a solid surface would prove to be such a good idea?\np591\nsVimage_hash\np592\nV47d27b6073e5d18db21befea76bbb3f8\np593\nsVname\np594\nVDance Of The Gelatin Cub\np595\nsVtitle\np596\nVDance Of The Gelatin Cub\np597\nsVcreative_id\np598\nV6003218493565\np599\nsVpreview_url\np600\nVhttp://www.facebook.com/ads/api/creative_preview.php?cid=6003218493565\np601\nsVid\np602\nV6003218493565\np603\nsVimage_url\np604\nVhttps://fbcdn-creative-a.akamaihd.net/hads-ak-ash3/s110x80/708181_6006844485365_1786_n.jpg\np605\nsVcount_current_adgroups\np606\nI0\nsVrun_status\np607\nI1\nsVtype\np608\nI1\nsVlink_url\np609\nVhttp://buzzfeed.com/ht/mathieus/high-speed-gelatin-cubes-8q4/HFAA1\np610\nsVview_tag\np611\ng36\nsa(dp612\nValt_view_tags\np613\n(lp614\nsVbody\np615\nVSpeechless. Absolutely surreal video of tornado hitting north downtown Birmingham, Alabama, from same storm that caused multiple torna\np616\nsVimage_hash\np617\nV1b807826032ffaed9bbf47314c32d465\np618\nsVname\np619\nVIncredible Video Of Huge\np620\nsVtitle\np621\nVIncredible Video Of Huge\np622\nsVcreative_id\np623\nV6003206136165\np624\nsVpreview_url\np625\nVhttp://www.facebook.com/ads/api/creative_preview.php?cid=6003206136165\np626\nsVid\np627\nV6003206136165\np628\nsVimage_url\np629\nVhttps://fbcdn-creative-a.akamaihd.net/hads-ak-ash3/s110x80/701896_6006844223165_34728_n.jpg\np630\nsVcount_current_adgroups\np631\nI0\nsVrun_status\np632\nI1\nsVtype\np633\nI1\nsVlink_url\np634\nVhttp://buzzfeed.com/ht/gleuch/incredible-video-of-huge-tornado-hitting-birmingha/HFAA1\np635\nsVview_tag\np636\ng36\nsa(dp637\nValt_view_tags\np638\n(lp639\nsVbody\np640\nVWhile Scarlett official date to the White House Correspondents' dinner may have been her brother, Hunter, the starlet was seen cozying\np641\nsVimage_hash\np642\nVe69f6a0fec5da9e6918a6cc0dc48f8e7\np643\nsVname\np644\nVScarlett Fever\np645\nsVtitle\np646\nVScarlett Fever\np647\nsVcreative_id\np648\nV6003218510365\np649\nsVpreview_url\np650\nVhttp://www.facebook.com/ads/api/creative_preview.php?cid=6003218510365\np651\nsVid\np652\nV6003218510365\np653\nsVimage_url\np654\nVhttps://fbcdn-creative-a.akamaihd.net/hads-ak-prn1/s110x80/708206_6006845440565_24817_n.jpg\np655\nsVcount_current_adgroups\np656\nI0\nsVrun_status\np657\nI1\nsVtype\np658\nI1\nsVlink_url\np659\nVhttp://buzzfeed.com/ht/thedaily/scarlett-fever-2u7h/HFAA1\np660\nsVview_tag\np661\ng36\nsa(dp662\nValt_view_tags\np663\n(lp664\nsVbody\np665\nVWhat do you get when you mix a lion and a tiger? A liger. You wont find them in a the wild, but you can see them in South Carolina. Ea\np666\nsVimage_hash\np667\nVc6df9ea3bc0279931b0c03883ba0c769\np668\nsVname\np669\nVLIGERS!\np670\nsVtitle\np671\nVLIGERS!\np672\nsVcreative_id\np673\nV6003218512765\np674\nsVpreview_url\np675\nVhttp://www.facebook.com/ads/api/creative_preview.php?cid=6003218512765\np676\nsVid\np677\nV6003218512765\np678\nsVimage_url\np679\nVhttps://fbcdn-creative-a.akamaihd.net/hads-ak-prn1/s110x80/708172_6006845244365_63613_n.jpg\np680\nsVcount_current_adgroups\np681\nI0\nsVrun"
p6
sS'hash'
p7
S'cce87fa25861c321fdcedcb98e9d355da4042ca9'
p8
sS'stack'
p9
S''
s.