(dp1
S'args'
p2
S''
sS'methodname'
p3
S''
sS'packet_num'
p4
I23
sS'returnval'
p5
S"ps\np3081\nI0\nsVrun_status\np3082\nI1\nsVtype\np3083\nI1\nsVlink_url\np3084\nVhttp://buzzfeed.com/ht/taylorg4/puppy-and-parrot-fight-over-yogurt-5hfj/HFAA1\np3085\nsVview_tag\np3086\ng36\nsa(dp3087\nValt_view_tags\np3088\n(lp3089\nsVbody\np3090\nVThe socialite, former reality star and debut novelist also answers reader questions about\np3091\nsVimage_hash\np3092\nV06e6df213458757272a42f5973df5567\np3093\nsVname\np3094\nVTinsley Mortimers Secret\np3095\nsVtitle\np3096\nVTinsley Mortimers Secret\np3097\nsVcreative_id\np3098\nV6005130605965\np3099\nsVpreview_url\np3100\nVhttp://www.facebook.com/ads/api/creative_preview.php?cid=6005130605965\np3101\nsVid\np3102\nV6005130605965\np3103\nsVimage_url\np3104\nVhttps://fbcdn-creative-a.akamaihd.net/hads-ak-ash3/s110x80/701888_6006844090365_3844_n.jpg\np3105\nsVcount_current_adgroups\np3106\nI0\nsVrun_status\np3107\nI1\nsVtype\np3108\nI1\nsVlink_url\np3109\nVhttp://buzzfeed.com/ht/advicecolumnist/tinsley-mortimers-secrets-for-throwing-a-surprise/HFAA1\np3110\nsVview_tag\np3111\ng36\nsa(dp3112\nValt_view_tags\np3113\n(lp3114\nsVbody\np3115\nVDon't carry her purse! Why don't these men act like men?\np3116\nsVimage_hash\np3117\nV5359ffbd1b76369214e832c6c8cb3106\np3118\nsVname\np3119\nVMan-Wives!\np3120\nsVtitle\np3121\nVMan-Wives!\np3122\nsVcreative_id\np3123\nV6003068145165\np3124\nsVpreview_url\np3125\nVhttp://www.facebook.com/ads/api/creative_preview.php?cid=6003068145165\np3126\nsVid\np3127\nV6003068145165\np3128\nsVimage_url\np3129\nVhttps://fbcdn-creative-a.akamaihd.net/hads-ak-ash3/s110x80/708166_6006844575565_13007_n.jpg\np3130\nsVcount_current_adgroups\np3131\nI0\nsVrun_status\np3132\nI1\nsVtype\np3133\nI1\nsVlink_url\np3134\nVhttp://www.buzzfeed.com/ht/yiayia/man-wives/HFAA1\np3135\nsVview_tag\np3136\ng36\nsa(dp3137\nValt_view_tags\np3138\n(lp3139\nsVbody\np3140\nVDon't carry her purse! Why don't these men act like men?\np3141\nsVimage_hash\np3142\nV39ae898737e99c30d7962824aad33c53\np3143\nsVname\np3144\nVMan-Wives!-00\np3145\nsVtitle\np3146\nVMan-Wives!\np3147\nsVcreative_id\np3148\nV6003068317165\np3149\nsVpreview_url\np3150\nVhttp://www.facebook.com/ads/api/creative_preview.php?cid=6003068317165\np3151\nsVid\np3152\nV6003068317165\np3153\nsVimage_url\np3154\nVhttps://fbcdn-creative-a.akamaihd.net/hads-ak-ash3/s110x80/701904_6006844386565_53655_n.jpg\np3155\nsVcount_current_adgroups\np3156\nI0\nsVrun_status\np3157\nI1\nsVtype\np3158\nI1\nsVlink_url\np3159\nVhttp://www.buzzfeed.com/ht/yiayia/man-wives/HFAA1\np3160\nsVview_tag\np3161\ng36\nsa(dp3162\nValt_view_tags\np3163\n(lp3164\nsVbody\np3165\nVJust because career colleges don't have frats or football teams, doesn't mean the government should cut funding to them!\np3166\nsVimage_hash\np3167\nVfc7c91cc433c691884fe58337e03639e\np3168\nsVname\np3169\nVNew College Mascot\np3170\nsVtitle\np3171\nVNew College Mascot\np3172\nsVcreative_id\np3173\nV6003032969965\np3174\nsVpreview_url\np3175\nVhttp://www.facebook.com/ads/api/creative_preview.php?cid=6003032969965\np3176\nsVid\np3177\nV6003032969965\np3178\nsVimage_url\np3179\nVhttps://fbcdn-creative-a.akamaihd.net/hads-ak-ash3/s110x80/708187_6006845583765_17124_n.jpg\np3180\nsVcount_current_adgroups\np3181\nI0\nsVrun_status\np3182\nI1\nsVtype\np3183\nI1\nsVlink_url\np3184\nVhttp://www.buzzfeed.com/ht/fightingsalmon/career-colleges-now-have-a-mascot/HFAA1\np3185\nsVview_tag\np3186\ng36\nsa(dp3187\nValt_view_tags\np3188\n(lp3189\nsVbody\np3190\nVCheck out the newest celebrity moms and\np3191\nsVimage_hash\np3192\nVd3fb83483dad7c165d56fce730c7c550\np3193\nsVname\np3194\nVNew Celebrity Moms\np3195\nsVtitle\np3196\nVNew Celebrity Moms\np3197\nsVcreative_id\np3198\nV6003012779165\np3199\nsVpreview_url\np3200\nVhttp://www.facebook.com/ads/api/creative_preview.php?cid=6003012779165\np3201\nsVid\np3202\nV6003012779165\np3203\nsVimage_url\np3204\nVhttps://fbcdn-creative-a.akamaihd.net/hads-ak-ash3/s110x80/708189_6006845317165_28817_n.jpg\np3205\nsVcount_current_adgroups\np3206\nI0\nsVrun_status\np3207\nI1\nsVtype\np3208\nI1\nsVlink_url\np3209\nVhttp://www.buzzfeed.com/ht/bravo/new-celebrity-moms-and-moms-to-be/HFAA1\np3210\nsVview_tag\np3211\ng36\nsa(dp3212\nValt_view_tags\np3213\n(lp3214\nsVbody\np3215\nVBethenny Frankel and humor go hand in hand. Check out Bethenny and the top 10 funniest women comedians.\np3216\nsVimage_hash\np3217\nV3096544bd09a234237da631cffa2551b\n"
p6
sS'hash'
p7
S'cce87fa25861c321fdcedcb98e9d355da4042ca9'
p8
sS'stack'
p9
S''
s.