(dp1
S'args'
p2
S''
sS'methodname'
p3
S''
sS'packet_num'
p4
I1
sS'returnval'
p5
S'buzzfeed.com/h1/fbad/scope/15-cute-and-courageous-animals\np136\nsVview_tag\np137\ng37\nsasVoffset\np138\nV5\np139\ns.'
p6
sS'hash'
p7
S'd01fe360c26e7d406f8761c24a82c9cb75a42a8b'
p8
sS'stack'
p9
S'__json_response /home/orozco/development/django/buzzfeed/local/lib/python2.7/site-packages/caliendo/facade.py cache /home/orozco/development/django/buzzfeed/pyfacebook/pyfacebook/__init__.py get /home/orozco/development/django/buzzfeed/pyfacebook/pyfacebook/__init__.py get_all /home/orozco/development/django/buzzfeed/pyfacebook/pyfacebook/__init__.py get_list_from_fb /home/orozco/development/django/buzzfeed/pyfacebook/pyfacebook/api/adcreative.py find_by_adaccount_id /home/orozco/development/django/buzzfeed/pyfacebook/test/adcreative_test.py test_find_by_adaccount_id /home/orozco/development/django/buzzfeed/local/lib/python2.7/site-packages/nose/case.py runTest /usr/lib/python2.7/unittest/case.py run /usr/lib/python2.7/unittest/case.py __call__ /home/orozco/development/django/buzzfeed/local/lib/python2.7/site-packages/nose/case.py runTest /home/orozco/development/django/buzzfeed/local/lib/python2.7/site-packages/nose/case.py run /home/orozco/development/django/buzzfeed/local/lib/python2.7/site-packages/nose/case.py __call__ /home/orozco/development/django/buzzfeed/local/lib/python2.7/site-packages/nose/suite.py run /home/orozco/development/django/buzzfeed/local/lib/python2.7/site-packages/nose/suite.py __call__ /home/orozco/development/django/buzzfeed/local/lib/python2.7/site-packages/nose/suite.py run /home/orozco/development/django/buzzfeed/local/lib/python2.7/site-packages/nose/suite.py __call__ /home/orozco/development/django/buzzfeed/local/lib/python2.7/site-packages/nose/suite.py run /home/orozco/development/django/buzzfeed/local/lib/python2.7/site-packages/nose/suite.py __call__ /home/orozco/development/django/buzzfeed/local/lib/python2.7/site-packages/nose/suite.py run /home/orozco/development/django/buzzfeed/local/lib/python2.7/site-packages/nose/suite.py __call__ /home/orozco/development/django/buzzfeed/local/lib/python2.7/site-packages/nose/suite.py run /home/orozco/development/django/buzzfeed/local/lib/python2.7/site-packages/nose/suite.py __call__ /home/orozco/development/django/buzzfeed/local/lib/python2.7/site-packages/nose/suite.py run /home/orozco/development/django/buzzfeed/local/lib/python2.7/site-packages/nose/suite.py __call__ /home/orozco/development/django/buzzfeed/local/lib/python2.7/site-packages/nose/suite.py run /home/orozco/development/django/buzzfeed/local/lib/python2.7/site-packages/nose/suite.py __call__ /home/orozco/development/django/buzzfeed/local/lib/python2.7/site-packages/nose/core.py run /home/orozco/development/django/buzzfeed/local/lib/python2.7/site-packages/nose/core.py runTests /usr/lib/python2.7/unittest/main.py __init__ /home/orozco/development/django/buzzfeed/local/lib/python2.7/site-packages/nose/core.py __init__ /home/orozco/development/django/buzzfeed/bin/nosetests <module> '
p10
s.