(dp1
S'args'
p2
S''
sS'methodname'
p3
S''
sS'packet_num'
p4
I11
sS'returnval'
p5
S'156177\nsVdaily_imps\np1709\nI0\nsVend_time\np1710\nV2012-10-23T20:30:00-0700\np1711\nsVfrequency_cap\np1712\nI0\nsVcreated_time\np1713\nV2012-10-19T15:20:09-0700\np1714\nsVupdated_time\np1715\nV2012-10-23T06:26:54-0700\np1716\nsVcampaign_status\np1717\nI1\nsVid\np1718\nV6006056521565\np1719\nsVname\np1720\nVVW: Smiles: Sept-Oct 2012 | 20-Everyday-Moments-That-Always-Make-Us-Smile\np1721\nsa(dp1722\nVdaily_budget\np1723\nI30000\nsVstart_time\np1724\nV2012-10-22T06:46:42-0700\np1725\nsVcampaign_id\np1726\nI6006067506765\nsVaccount_id\np1727\nI40156177\nsVdaily_imps\np1728\nI0\nsVend_time\np1729\nV2012-10-23T20:30:00-0700\np1730\nsVfrequency_cap\np1731\nI0\nsVcreated_time\np1732\nV2012-10-22T06:46:42-0700\np1733\nsVupdated_time\np1734\nV2012-10-22T08:20:33-0700\np1735\nsVcampaign_status\np1736\nI1\nsVid\np1737\nV6006067506765\np1738\nsVname\np1739\nVMini USA: Oct 2012 | 15-Costumes-That-Are-Totally-Not-Normal-7Lct\np1740\nsa(dp1741\nVdaily_budget\np1742\nI30000\nsVstart_time\np1743\nV2012-10-22T12:00:00-0700\np1744\nsVcampaign_id\np1745\nI6006068112765\nsVaccount_id\np1746\nI40156177\nsVdaily_imps\np1747\nI0\nsVend_time\np1748\nV2012-11-11T21:00:00-0800\np1749\nsVfrequency_cap\np1750\nI0\nsVcreated_time\np1751\nV2012-10-22T08:04:19-0700\np1752\nsVupdated_time\np1753\nV2012-11-10T20:16:28-0800\np1754\nsVcampaign_status\np1755\nI1\nsVid\np1756\nV6006068112765\np1757\nsVname\np1758\nVIntuit: Oct-Nov 2012 | 10-Reasons-Why-Youre-Already-Living-In-The-Future\np1759\nsa(dp1760\nVdaily_budget\np1761\nI25000\nsVstart_time\np1762\nV2012-10-22T08:10:46-0700\np1763\nsVcampaign_id\np1764\nI6006068151165\nsVaccount_id\np1765\nI40156177\nsVdaily_imps\np1766\nI0\nsVend_time\np1767\nV2012-10-23T20:30:00-0700\np1768\nsVfrequency_cap\np1769\nI0\nsVcreated_time\np1770\nV2012-10-22T08:10:46-0700\np1771\nsVupdated_time\np1772\nV2012-10-22T11:25:02-0700\np1773\nsVcampaign_status\np1774\nI1\nsVid\np1775\nV6006068151165\np1776\nsVname\np1777\nVNick: Mom: Sept-Oct_2012 | The-5-Most-Unapologetically-Messy-Kids-7J6J\np1778\nsa(dp1779\nVdaily_budget\np1780\nI20000\nsVstart_time\np1781\nV2012-10-22T11:06:00-0700\np1782\nsVcampaign_id\np1783\nI6006068164565\nsVaccount_id\np1784\nI40156177\nsVdaily_imps\np1785\nI0\nsVend_time\np1786\nV2012-11-06T09:06:00-0800\np1787\nsVfrequency_cap\np1788\nI0\nsVcreated_time\np1789\nV2012-10-22T08:13:02-0700\np1790\nsVupdated_time\np1791\nV2012-11-05T06:47:28-0800\np1792\nsVcampaign_status\np1793\nI1\nsVid\np1794\nV6006068164565\np1795\nsVname\np1796\nVIntuit: Oct-Nov 2012 | 13-Of-The-Weirdest-Conventions-From-Around-The-Wor\np1797\nsa(dp1798\nVdaily_budget\np1799\nI25000\nsVstart_time\np1800\nV2012-10-24T06:30:00-0700\np1801\nsVcampaign_id\np1802\nI6006068186365\nsVaccount_id\np1803\nI40156177\nsVdaily_imps\np1804\nI0\nsVend_time\np1805\nV2012-10-25T20:30:00-0700\np1806\nsVfrequency_cap\np1807\nI0\nsVcreated_time\np1808\nV2012-10-22T08:19:16-0700\np1809\nsVupdated_time\np1810\nV2012-10-22T08:21:40-0700\np1811\nsVcampaign_status\np1812\nI1\nsVid\np1813\nV6006068186365\np1814\nsVname\np1815\nVNick: Mom: Sept-Oct_2012 | Dramatic-Letters-From-Kids-To-Their-Parents-7J6J\np1816\nsa(dp1817\nVdaily_budget\np1818\nI15000\nsVstart_time\np1819\nV2012-10-22T11:04:00-0700\np1820\nsVcampaign_id\np1821\nI6006068943765\nsVaccount_id\np1822\nI40156177\nsVdaily_imps\np1823\nI0\nsVend_time\np1824\nV2012-10-23T23:00:00-0700\np1825\nsVfrequency_cap\np1826\nI0\nsVcreated_time\np1827\nV2012-10-22T10:01:15-0700\np1828\nsVupdated_time\np1829\nV2012-10-22T10:01:58-0700\np1830\nsVcampaign_status\np1831\nI1\nsVid\np1832\nV6006068943765\np1833\nsVname\np1834\nVTotinos Party Pizza: Sept-Oct_2012 | 11-Things-You-Probably-Didnt-Know-About-Popular-S-2Wvj\np1835\nsa(dp1836\nVdaily_budget\np1837\nI15000\nsVstart_time\np1838\nV2012-10-22T11:00:13-0700\np1839\nsVcampaign_id\np1840\nI6006069161965\nsVaccount_id\np1841\nI40156177\nsVdaily_imps\np1842\nI0\nsVend_time\np1843\nV2012-10-30T23:00:00-0700\np1844\nsVfrequency_cap\np1845\nI0\nsVcreated_time\np1846\nV2012-10-22T11:00:13-0700\np1847\nsVupdated_time\np1848\nV2012-10-30T07:23:15-0700\np1849\nsVcampaign_status\np1850\nI1\nsVid\np1851\nV6006069161965\np1852\nsVname\np1853\nVFreelancers Union: Oct_2012 | 11-Awesome-Tv-Doctors-You-Wish-Were-Real\np1854\nsa(dp1855\nVdaily_budget\np1856\nI15000\nsVstart_time\np1857\nV2012-10-22T12:01:00-0700\np1858\nsVcampaign_id\np1859\nI6006069180765\nsVaccount_id\np1860\nI40156177\nsVdaily_imps\np1861\nI0\nsVend_'
p6
sS'hash'
p7
S'de5c941ecbbc2132bba07b6472af58125e1bb14c'
p8
sS'stack'
p9
S''
s.