(dp1
S'args'
p2
S''
sS'methodname'
p3
S''
sS'packet_num'
p4
I10
sS'returnval'
p5
S'id\np1556\nI6006049516365\nsVfrequency_cap\np1557\nI0\nsVdaily_imps\np1558\nI0\nsVlifetime_budget\np1559\nI60000\nsVend_time\np1560\nV2012-10-20T20:30:00-0700\np1561\nsVcreated_time\np1562\nV2012-10-18T15:35:49-0700\np1563\nsVupdated_time\np1564\nV2012-10-18T16:43:20-0700\np1565\nsVcampaign_status\np1566\nI1\nsVid\np1567\nV6006049516365\np1568\nsVaccount_id\np1569\nI40156177\nsa(dp1570\nVdaily_budget\np1571\nI10000\nsVstart_time\np1572\nV2012-10-22T06:42:00-0700\np1573\nsVcampaign_id\np1574\nI6006053411365\nsVaccount_id\np1575\nI40156177\nsVdaily_imps\np1576\nI0\nsVend_time\np1577\nV2012-10-29T23:05:00-0700\np1578\nsVfrequency_cap\np1579\nI0\nsVcreated_time\np1580\nV2012-10-19T07:48:35-0700\np1581\nsVupdated_time\np1582\nV2012-10-29T08:30:07-0700\np1583\nsVcampaign_status\np1584\nI1\nsVid\np1585\nV6006053411365\np1586\nsVname\np1587\nVMarriott Residence Inn: Oct_2012 | 10-Incredible-And-Underrated-Cities-To-Live-In-7Bu6\np1588\nsa(dp1589\nVdaily_budget\np1590\nI30000\nsVstart_time\np1591\nV2012-10-22T06:00:00-0700\np1592\nsVcampaign_id\np1593\nI6006053489965\nsVaccount_id\np1594\nI40156177\nsVdaily_imps\np1595\nI0\nsVend_time\np1596\nV2012-10-23T23:00:00-0700\np1597\nsVfrequency_cap\np1598\nI0\nsVcreated_time\np1599\nV2012-10-19T08:02:38-0700\np1600\nsVupdated_time\np1601\nV2012-10-22T09:04:04-0700\np1602\nsVcampaign_status\np1603\nI1\nsVid\np1604\nV6006053489965\np1605\nsVname\np1606\nVMarriott Residence Inn: Oct_2012 | 10-Famous-Visits-That-Got-Out-Of-Hand-7Bu6\np1607\nsa(dp1608\nVname\np1609\nVGE: Flyover Oct 2012 | 15-Of-The-Most-Incredible-Shots-Taken-From-Above-6Ieg\np1610\nsVstart_time\np1611\nV2012-10-19T08:32:51-0700\np1612\nsVcampaign_id\np1613\nI6006053770765\nsVfrequency_cap\np1614\nI0\nsVdaily_imps\np1615\nI0\nsVlifetime_budget\np1616\nI70000\nsVend_time\np1617\nV2012-10-21T20:30:00-0700\np1618\nsVcreated_time\np1619\nV2012-10-19T08:32:51-0700\np1620\nsVupdated_time\np1621\nV2012-10-19T08:46:08-0700\np1622\nsVcampaign_status\np1623\nI1\nsVid\np1624\nV6006053770765\np1625\nsVaccount_id\np1626\nI40156177\nsa(dp1627\nVname\np1628\nVGE: Flyover Oct 2012 | 15-Unbelievable-Things-Seen-From-Great-Heights-6Ieg\np1629\nsVstart_time\np1630\nV2012-10-19T08:59:27-0700\np1631\nsVcampaign_id\np1632\nI6006053868365\nsVfrequency_cap\np1633\nI0\nsVdaily_imps\np1634\nI0\nsVlifetime_budget\np1635\nI80000\nsVend_time\np1636\nV2012-10-21T20:30:00-0700\np1637\nsVcreated_time\np1638\nV2012-10-19T08:59:27-0700\np1639\nsVupdated_time\np1640\nV2012-10-19T11:14:31-0700\np1641\nsVcampaign_status\np1642\nI1\nsVid\np1643\nV6006053868365\np1644\nsVaccount_id\np1645\nI40156177\nsa(dp1646\nVdaily_budget\np1647\nI40000\nsVstart_time\np1648\nV2012-10-22T06:00:00-0700\np1649\nsVcampaign_id\np1650\nI6006055161965\nsVaccount_id\np1651\nI40156177\nsVdaily_imps\np1652\nI0\nsVend_time\np1653\nV2012-10-23T23:00:00-0700\np1654\nsVfrequency_cap\np1655\nI0\nsVcreated_time\np1656\nV2012-10-19T13:02:15-0700\np1657\nsVupdated_time\np1658\nV2012-10-23T11:16:52-0700\np1659\nsVcampaign_status\np1660\nI1\nsVid\np1661\nV6006055161965\np1662\nsVname\np1663\nVBeats Electronics: Solo Colors Oct-Nov_2012 | 9-Hidden-Songs-And-Messages-In-Music-That-You-Prob\np1664\nsa(dp1665\nVdaily_budget\np1666\nI20000\nsVstart_time\np1667\nV2012-10-22T06:00:00-0700\np1668\nsVcampaign_id\np1669\nI6006055194565\nsVaccount_id\np1670\nI40156177\nsVdaily_imps\np1671\nI0\nsVend_time\np1672\nV2012-11-29T23:00:00-0800\np1673\nsVfrequency_cap\np1674\nI0\nsVcreated_time\np1675\nV2012-10-19T13:10:35-0700\np1676\nsVupdated_time\np1677\nV2012-11-29T09:32:43-0800\np1678\nsVcampaign_status\np1679\nI1\nsVid\np1680\nV6006055194565\np1681\nsVname\np1682\nVBeats Electronics: Solo Colors Oct-Nov_2012 | 5-Pop-Superstars-Who-Got-Their-Start-On-Youtube\np1683\nsa(dp1684\nVdaily_budget\np1685\nI40000\nsVstart_time\np1686\nV2012-10-20T06:30:00-0700\np1687\nsVcampaign_id\np1688\nI6006056488365\nsVaccount_id\np1689\nI40156177\nsVdaily_imps\np1690\nI0\nsVend_time\np1691\nV2012-10-21T20:30:00-0700\np1692\nsVfrequency_cap\np1693\nI0\nsVcreated_time\np1694\nV2012-10-19T15:06:17-0700\np1695\nsVupdated_time\np1696\nV2012-10-20T06:54:08-0700\np1697\nsVcampaign_status\np1698\nI1\nsVid\np1699\nV6006056488365\np1700\nsVname\np1701\nVVW: Smiles: Sept-Oct 2012 | 14-Kids-Having-The-Best-Day-Ever\np1702\nsa(dp1703\nVdaily_budget\np1704\nI40000\nsVstart_time\np1705\nV2012-10-22T06:30:00-0700\np1706\nsVcampaign_id\np1707\nI6006056521565\nsVaccount_id\np1708\nI40'
p6
sS'hash'
p7
S'de5c941ecbbc2132bba07b6472af58125e1bb14c'
p8
sS'stack'
p9
S''
s.