(dp1
S'args'
p2
S''
sS'methodname'
p3
S''
sS'packet_num'
p4
I3
sS'returnval'
p5
S'Day-Beauties-And-Beasts-793J\np467\nsa(dp468\nVdaily_budget\np469\nI25000\nsVstart_time\np470\nV2012-10-08T06:30:00-0700\np471\nsVcampaign_id\np472\nI6005983080365\nsVaccount_id\np473\nI40156177\nsVdaily_imps\np474\nI0\nsVend_time\np475\nV2012-10-09T20:30:00-0700\np476\nsVfrequency_cap\np477\nI0\nsVcreated_time\np478\nV2012-10-05T07:31:55-0700\np479\nsVupdated_time\np480\nV2012-10-09T05:22:24-0700\np481\nsVcampaign_status\np482\nI1\nsVid\np483\nV6005983080365\np484\nsVname\np485\nVCW: Beauty and the Beast: Sept-Oct_2012 | Then-Vs-Now-Beauty-And-The-Beast-793J\np486\nsa(dp487\nVdaily_budget\np488\nI25000\nsVstart_time\np489\nV2012-10-05T10:37:00-0700\np490\nsVcampaign_id\np491\nI6005983124965\nsVaccount_id\np492\nI40156177\nsVdaily_imps\np493\nI0\nsVend_time\np494\nV2012-10-06T20:30:00-0700\np495\nsVfrequency_cap\np496\nI0\nsVcreated_time\np497\nV2012-10-05T07:42:33-0700\np498\nsVupdated_time\np499\nV2012-10-05T09:27:41-0700\np500\nsVcampaign_status\np501\nI1\nsVid\np502\nV6005983124965\np503\nsVname\np504\nVCW: Arrow: Sept-Oct_2012 | Get-Abs-Like-A-Superhero-In-One-Easy-Step-6E97\np505\nsa(dp506\nVdaily_budget\np507\nI50000\nsVstart_time\np508\nV2012-10-08T06:00:00-0700\np509\nsVcampaign_id\np510\nI6005983186365\nsVaccount_id\np511\nI40156177\nsVdaily_imps\np512\nI0\nsVend_time\np513\nV2012-10-10T23:30:00-0700\np514\nsVfrequency_cap\np515\nI0\nsVcreated_time\np516\nV2012-10-05T08:12:45-0700\np517\nsVupdated_time\np518\nV2012-10-05T09:54:29-0700\np519\nsVcampaign_status\np520\nI1\nsVid\np521\nV6005983186365\np522\nsVname\np523\nVSpike: Ink Masters: Oct_2012 | The-17-Most-Outrageous-Celebrity-Tattoos\np524\nsa(dp525\nVdaily_budget\np526\nI20000\nsVstart_time\np527\nV2012-10-05T09:45:00-0700\np528\nsVcampaign_id\np529\nI6005983232165\nsVaccount_id\np530\nI40156177\nsVdaily_imps\np531\nI0\nsVend_time\np532\nV2012-10-08T11:16:00-0700\np533\nsVfrequency_cap\np534\nI0\nsVcreated_time\np535\nV2012-10-05T08:21:25-0700\np536\nsVupdated_time\np537\nV2012-10-08T11:12:39-0700\np538\nsVcampaign_status\np539\nI1\nsVid\np540\nV6005983232165\np541\nsVname\np542\nVGravity Falls: Sept-Oct_2012 | 18-Working-Animals-Who-Totally-Deserve-A-Raise\np543\nsa(dp544\nVdaily_budget\np545\nI50000\nsVstart_time\np546\nV2012-10-08T06:51:00-0700\np547\nsVcampaign_id\np548\nI6005983356165\nsVaccount_id\np549\nI40156177\nsVdaily_imps\np550\nI0\nsVend_time\np551\nV2012-10-10T23:51:00-0700\np552\nsVfrequency_cap\np553\nI0\nsVcreated_time\np554\nV2012-10-05T08:55:57-0700\np555\nsVupdated_time\np556\nV2012-10-05T12:43:41-0700\np557\nsVcampaign_status\np558\nI1\nsVid\np559\nV6005983356165\np560\nsVname\np561\nVSpike: Ink Masters Oct_2012 | 13-Mind-Blowing-And-Unusual-Tattoo-Styles\np562\nsa(dp563\nVdaily_budget\np564\nI5000\nsVstart_time\np565\nV2012-10-05T14:57:00-0700\np566\nsVcampaign_id\np567\nI6005984710365\nsVaccount_id\np568\nI40156177\nsVdaily_imps\np569\nI0\nsVend_time\np570\nV2012-10-06T23:00:00-0700\np571\nsVfrequency_cap\np572\nI0\nsVcreated_time\np573\nV2012-10-05T12:18:36-0700\np574\nsVupdated_time\np575\nV2012-10-05T14:19:33-0700\np576\nsVcampaign_status\np577\nI1\nsVid\np578\nV6005984710365\np579\nsVname\np580\nVVirgin Mobile: Q4 2012 | 90s-rappers-where-are-they-now-5l87?b=1\np581\nsa(dp582\nVdaily_budget\np583\nI5000\nsVstart_time\np584\nV2012-10-05T14:26:00-0700\np585\nsVcampaign_id\np586\nI6005984764965\nsVaccount_id\np587\nI40156177\nsVdaily_imps\np588\nI0\nsVend_time\np589\nV2012-10-06T23:00:00-0700\np590\nsVfrequency_cap\np591\nI0\nsVcreated_time\np592\nV2012-10-05T12:44:21-0700\np593\nsVupdated_time\np594\nV2012-10-05T14:16:20-0700\np595\nsVcampaign_status\np596\nI1\nsVid\np597\nV6005984764965\np598\nsVname\np599\nVVirgin Mobile: Q4 2012 | 10-reactions-to-the-most-kick-ass-free-music-festi-5l87?b=1\np600\nsa(dp601\nVdaily_budget\np602\nI5000\nsVstart_time\np603\nV2012-10-05T14:00:00-0700\np604\nsVcampaign_id\np605\nI6005985365365\nsVaccount_id\np606\nI40156177\nsVdaily_imps\np607\nI0\nsVend_time\np608\nV2012-10-06T23:00:00-0700\np609\nsVfrequency_cap\np610\nI0\nsVcreated_time\np611\nV2012-10-05T12:53:46-0700\np612\nsVupdated_time\np613\nV2012-10-05T22:51:19-0700\np614\nsVcampaign_status\np615\nI1\nsVid\np616\nV6005985365365\np617\nsVname\np618\nVVirgin Mobile: Q4 2012 | 15-musicians-and-their-signature-dance-moves-5l87?b=1\np619\nsa(dp620\nVdaily_budget\np621\nI20000\nsVstart_time\np622\nV2012-10-08T11:41:30-0700\np623\nsVcampaign_id\np624\nI6005997666165\nsVaccount_id\np625\nI40156177\nsV'
p6
sS'hash'
p7
S'de5c941ecbbc2132bba07b6472af58125e1bb14c'
p8
sS'stack'
p9
S''
s.