(dp1
S'args'
p2
S''
sS'methodname'
p3
S''
sS'packet_num'
p4
I50
sS'returnval'
p5
S'ew.php?cid=6007482109565\np6244\nsVid\np6245\nV6007482109565\np6246\nsVimage_url\np6247\nVhttps://fbcdn-creative-a.akamaihd.net/hads-ak-ash3/s110x80/735354_6007482108365_23402_n.jpg\np6248\nsVcount_current_adgroups\np6249\nI1\nsVrun_status\np6250\nI1\nsVtype\np6251\nI1\nsVlink_url\np6252\nVhttp://clk.atdmt.com/ULA/go/425320197/direct/01/?href=http://www.buzzfeed.com/h1/fbad/zerodarkthirty/10-big-ways-our-world-has-changed-in-last-decade-8alx\np6253\nsVview_tag\np6254\ng34\nsa(dp6255\nValt_view_tags\np6256\n(lp6257\nsVbody\np6258\nVCheck out these marble caves & more incredible sights on BuzzFeed!\np6259\nsVimage_hash\np6260\nVe3b46bf75930e2b30e49338ad570b4b2\np6261\nsVname\np6262\nV10 Jaw-Dropping Sights-01\np6263\nsVtitle\np6264\nV10 Jaw-Dropping Sights\np6265\nsVcreative_id\np6266\nV6007481535965\np6267\nsVpreview_url\np6268\nVhttp://www.facebook.com/ads/api/creative_preview.php?cid=6007481535965\np6269\nsVid\np6270\nV6007481535965\np6271\nsVimage_url\np6272\nVhttps://fbcdn-creative-a.akamaihd.net/hads-ak-ash3/s110x80/735321_6007481522965_37197_n.jpg\np6273\nsVcount_current_adgroups\np6274\nI1\nsVrun_status\np6275\nI1\nsVtype\np6276\nI1\nsVlink_url\np6277\nVhttp://bs.serving-sys.com/BurstingPipe/adServer.bs?cn=tf&c=20&mc=click&pli=5899163&PluID=0&ord=%n&rtu=http://www.buzzfeed.com/h1/fbad/nevada/10-jaw-dropping-sights-you-can-only-see-in-nevada-8dgq\np6278\nsVview_tag\np6279\ng34\nsa(dp6280\nValt_view_tags\np6281\n(lp6282\nsVbody\np6283\nVCheck out these "10 Jaw-Dropping Sights You Can Only See In Nevada" - Only on BuzzFeed!\np6284\nsVimage_hash\np6285\nV0777eb7285476ba4d37ef8d186c67993\np6286\nsVname\np6287\nV10 Jaw-Dropping Sights-00\np6288\nsVtitle\np6289\nVIs That a Giant Spider?\np6290\nsVcreative_id\np6291\nV6007481514365\np6292\nsVpreview_url\np6293\nVhttp://www.facebook.com/ads/api/creative_preview.php?cid=6007481514365\np6294\nsVid\np6295\nV6007481514365\np6296\nsVimage_url\np6297\nVhttps://fbcdn-creative-a.akamaihd.net/hads-ak-ash3/s110x80/735344_6007481472565_26342_n.jpg\np6298\nsVcount_current_adgroups\np6299\nI1\nsVrun_status\np6300\nI1\nsVtype\np6301\nI1\nsVlink_url\np6302\nVhttp://bs.serving-sys.com/BurstingPipe/adServer.bs?cn=tf&c=20&mc=click&pli=5899163&PluID=0&ord=%n&rtu=http://www.buzzfeed.com/h1/fbad/nevada/10-jaw-dropping-sights-you-can-only-see-in-nevada-8dgq\np6303\nsVview_tag\np6304\ng34\nsa(dp6305\nValt_view_tags\np6306\n(lp6307\nsVbody\np6308\nVCheck out these Enormous Ward Charcoal Ovens & more incredible sights on BuzzFeed!\np6309\nsVimage_hash\np6310\nV9c5bcd3deb867ac439ffdc32e03a060c\np6311\nsVname\np6312\nV10 Jaw-Dropping Sights\np6313\nsVtitle\np6314\nV10 Jaw-Dropping Sights\np6315\nsVcreative_id\np6316\nV6007481464165\np6317\nsVpreview_url\np6318\nVhttp://www.facebook.com/ads/api/creative_preview.php?cid=6007481464165\np6319\nsVid\np6320\nV6007481464165\np6321\nsVimage_url\np6322\nVhttps://fbcdn-creative-a.akamaihd.net/hads-ak-prn1/s110x80/735356_6007481442965_14885_n.jpg\np6323\nsVcount_current_adgroups\np6324\nI1\nsVrun_status\np6325\nI1\nsVtype\np6326\nI1\nsVlink_url\np6327\nVhttp://bs.serving-sys.com/BurstingPipe/adServer.bs?cn=tf&c=20&mc=click&pli=5899163&PluID=0&ord=%n&rtu=http://www.buzzfeed.com/h1/fbad/nevada/10-jaw-dropping-sights-you-can-only-see-in-nevada-8dgq\np6328\nsVview_tag\np6329\ng34\nsa(dp6330\nValt_view_tags\np6331\n(lp6332\nsVbody\np6333\nVJust One of the "12 Amazing Desert Photos" - See them all on BuzzFeed!\np6334\nsVimage_hash\np6335\nV9fa88f17b169dac7b156068164325dbc\np6336\nsVname\np6337\nV12 Amazing Desert Photos -00-00\np6338\nsVtitle\np6339\nVNevada\'s Death Valley\np6340\nsVcreative_id\np6341\nV6007481408365\np6342\nsVpreview_url\np6343\nVhttp://www.facebook.com/ads/api/creative_preview.php?cid=6007481408365\np6344\nsVid\np6345\nV6007481408365\np6346\nsVimage_url\np6347\nVhttps://fbcdn-creative-a.akamaihd.net/hads-ak-prn1/s110x80/735333_6007481399765_58000_n.jpg\np6348\nsVcount_current_adgroups\np6349\nI1\nsVrun_status\np6350\nI1\nsVtype\np6351\nI1\nsVlink_url\np6352\nVhttp://bs.serving-sys.com/BurstingPipe/adServer.bs?cn=tf&c=20&mc=click&pli=5899163&PluID=0&ord=%n&rtu=http://www.buzzfeed.com/h1/fbad/nevada/12-amazing-desert-photos-that-look-like-theyre-8dgq\np6353\nsVview_tag\np6354\ng34\nsa(dp6355\nValt_view_tags\np6356\n(lp6357\nsVbody\np6358\nVJust One of the "12 Amazing Desert Photos" on '
p6
sS'hash'
p7
S'df79a03af479ef13505501f2f633b19e9968d361'
p8
sS'stack'
p9
S''
s.