(dp1
S'args'
p2
S''
sS'methodname'
p3
S''
sS'packet_num'
p4
I7
sS'returnval'
p5
S'\np917\nVThe Timeline of the Suit-00\np918\nsVtitle\np919\nVThe Timeline of Suits\np920\nsVcreative_id\np921\nV6007969164365\np922\nsVpreview_url\np923\nVhttp://www.facebook.com/ads/api/creative_preview.php?cid=6007969164365\np924\nsVid\np925\nV6007969164365\np926\nsVimage_url\np927\nVhttps://fbcdn-creative-a.akamaihd.net/hads-ak-ash3/s110x80/735354_6007969160565_3556_n.png\np928\nsVcount_current_adgroups\np929\nI1\nsVrun_status\np930\nI1\nsVtype\np931\nI1\nsVlink_url\np932\nVhttp://ad.doubleclick.net/clk;266450459;92417075;p?http://www.buzzfeed.com/h1/fbad/suits/the-timeline-of-the-suit-67u4\np933\nsVview_tag\np934\ng34\nsa(dp935\nValt_view_tags\np936\n(lp937\nsVbody\np938\nVThe 90\'s were his heyday. Check out "TV\'s Action Hunks Of The 90\'s - Then And Now" here!\np939\nsVimage_hash\np940\nVb06d4f7871e969eeee5b2a7cbcf31ac4\np941\nsVname\np942\nVKevin Sorbo\np943\nsVtitle\np944\nVKevin Sorbo\np945\nsVcreative_id\np946\nV6007676308165\np947\nsVpreview_url\np948\nVhttp://www.facebook.com/ads/api/creative_preview.php?cid=6007676308165\np949\nsVid\np950\nV6007676308165\np951\nsVimage_url\np952\nVhttps://fbcdn-creative-a.akamaihd.net/hads-ak-snc7/s110x80/735305_6007676195565_19983_n.png\np953\nsVcount_current_adgroups\np954\nI1\nsVrun_status\np955\nI1\nsVtype\np956\nI1\nsVlink_url\np957\nVhttp://www.buzzfeed.com/h1/fbad/spiketv/tvs-action-hunks-of-the-90s-then-and-now\np958\nsVview_tag\np959\ng34\nsa(dp960\nValt_view_tags\np961\n(lp962\nsVbody\np963\nVThe 90\'s were his heyday. Check out "TV\'s Action Hunks Of The 90\'s - Then And Now" here!\np964\nsVimage_hash\np965\nVb06d4f7871e969eeee5b2a7cbcf31ac4\np966\nsVname\np967\nVKevin Sorbo-00\np968\nsVtitle\np969\nVKevin Sorbo!\np970\nsVcreative_id\np971\nV6007676392365\np972\nsVpreview_url\np973\nVhttp://www.facebook.com/ads/api/creative_preview.php?cid=6007676392365\np974\nsVid\np975\nV6007676392365\np976\nsVimage_url\np977\nVhttps://fbcdn-creative-a.akamaihd.net/hads-ak-snc7/s110x80/735305_6007676195565_19983_n.png\np978\nsVcount_current_adgroups\np979\nI1\nsVrun_status\np980\nI1\nsVtype\np981\nI1\nsVlink_url\np982\nVhttp://www.buzzfeed.com/h1/fbad/spiketv/tvs-action-hunks-of-the-90s-then-and-now\np983\nsVview_tag\np984\ng34\nsa(dp985\nValt_view_tags\np986\n(lp987\nsVbody\np988\nVCheck out the rest of the "19 People With Really Courageous Mustaches" on BuzzFeed!\np989\nsVimage_hash\np990\nV1dafdfdf0cb3be273a25447ce5c2fd73\np991\nsVname\np992\nVQuite The Mustache-00\np993\nsVtitle\np994\nVSilverman With A Stache\np995\nsVcreative_id\np996\nV6007964780765\np997\nsVpreview_url\np998\nVhttp://www.facebook.com/ads/api/creative_preview.php?cid=6007964780765\np999\nsVid\np1000\nV6007964780765\np1001\nsVimage_url\np1002\nVhttps://fbcdn-creative-a.akamaihd.net/hads-ak-ash3/s110x80/735306_6007964756965_39304_n.png\np1003\nsVcount_current_adgroups\np1004\nI1\nsVrun_status\np1005\nI1\nsVtype\np1006\nI1\nsVlink_url\np1007\nVhttp://www.buzzfeed.com/h1/fbad/scope/19-people-with-really-couragous-mustaches-73i7\np1008\nsVview_tag\np1009\ng34\nsa(dp1010\nValt_view_tags\np1011\n(lp1012\nsVbody\np1013\nVYou\'ve got nothing on theses kids. Check out the "14 Kids That Are Definitely Rebels!"\np1014\nsVimage_hash\np1015\nV7eaf5077b75798124d0f65f5ec78e555\np1016\nsVname\np1017\nVThink You\'re Bad?\np1018\nsVtitle\np1019\nVThink You\'re Bad?\np1020\nsVcreative_id\np1021\nV6007963355765\np1022\nsVpreview_url\np1023\nVhttp://www.facebook.com/ads/api/creative_preview.php?cid=6007963355765\np1024\nsVid\np1025\nV6007963355765\np1026\nsVimage_url\np1027\nVhttps://fbcdn-creative-a.akamaihd.net/hads-ak-prn1/s110x80/735329_6007963352965_41162_n.jpg\np1028\nsVcount_current_adgroups\np1029\nI2\nsVrun_status\np1030\nI1\nsVtype\np1031\nI1\nsVlink_url\np1032\nVhttp://mm.sitecompass.com/BurstingPipe/adServer.bs?cn=tf&c=20&mc=click&pli=6099528&PluID=0&ord=%n&rtu=http://www.buzzfeed.com/h1/fbad/archetypeme/14-kids-that-are-definitely-rebels\np1033\nsVview_tag\np1034\ng34\nsa(dp1035\nValt_view_tags\np1036\n(lp1037\nsVbody\np1038\nVNew York is a magical place, but for a cat, it\'s a wonderland! See more here. \np1039\nsVimage_hash\np1040\nV45850cbfa8a8f6d6d5718f6b0a1db3c3\np1041\nsVname\np1042\nVA Cat\'s Guide To NYC\np1043\nsVtitle\np1044\nVA Cat\'s Guide To NYC\np1045\nsVcreative_id\np1046\nV6007874199565\np1047\nsVpreview_url\np1048\nVhttp://www.facebook.com/ads/api/creative_preview.php?cid=60078'
p6
sS'hash'
p7
S'df79a03af479ef13505501f2f633b19e9968d361'
p8
sS'stack'
p9
S''
s.