(dp1
S'args'
p2
S''
sS'methodname'
p3
S''
sS'packet_num'
p4
I62
sS'returnval'
p5
S'316_6007328473965_38693_n.jpg\np7744\nsVcount_current_adgroups\np7745\nI1\nsVrun_status\np7746\nI1\nsVtype\np7747\nI1\nsVlink_url\np7748\nVhttp://ad.doubleclick.net/clk;265752062;91503133;z\np7749\nsVview_tag\np7750\ng34\nsa(dp7751\nValt_view_tags\np7752\n(lp7753\nsVbody\np7754\nVJust One of the "15 Life Tips according to Mindy Kaling" on BuzzFeed - See them all here!\np7755\nsVimage_hash\np7756\nV10ab71a7e8e4be0c83d71e4022b6d853\np7757\nsVname\np7758\nVAccording to Mindy Kaling-00-00\np7759\nsVtitle\np7760\nV"Find Your Inner Warrior"\np7761\nsVcreative_id\np7762\nV6007329104565\np7763\nsVpreview_url\np7764\nVhttp://www.facebook.com/ads/api/creative_preview.php?cid=6007329104565\np7765\nsVid\np7766\nV6007329104565\np7767\nsVimage_url\np7768\nVhttps://fbcdn-creative-a.akamaihd.net/hads-ak-prn1/s110x80/708159_6007329085365_13671_n.jpg\np7769\nsVcount_current_adgroups\np7770\nI1\nsVrun_status\np7771\nI1\nsVtype\np7772\nI1\nsVlink_url\np7773\nVhttp://www.buzzfeed.com/h1/fbad/fox/15-life-tips-according-to-mindy-kaling\np7774\nsVview_tag\np7775\ng34\nsa(dp7776\nValt_view_tags\np7777\n(lp7778\nsVbody\np7779\nVMindy  is full of fearless wisdom. Here are a few Life Tips according to Mindy Kaling!\np7780\nsVimage_hash\np7781\nVb4ab4c97298fc2a8e336db9d8de8c047\np7782\nsVname\np7783\nVAccording to Mindy Kaling-00\np7784\nsVtitle\np7785\nVThe Mindy Project\np7786\nsVcreative_id\np7787\nV6007329069765\np7788\nsVpreview_url\np7789\nVhttp://www.facebook.com/ads/api/creative_preview.php?cid=6007329069765\np7790\nsVid\np7791\nV6007329069765\np7792\nsVimage_url\np7793\nVhttps://fbcdn-creative-a.akamaihd.net/hads-ak-prn1/s110x80/735338_6007329058965_32893_n.jpg\np7794\nsVcount_current_adgroups\np7795\nI1\nsVrun_status\np7796\nI1\nsVtype\np7797\nI1\nsVlink_url\np7798\nVhttp://www.buzzfeed.com/h1/fbad/fox/15-life-tips-according-to-mindy-kaling\np7799\nsVview_tag\np7800\ng34\nsa(dp7801\nValt_view_tags\np7802\n(lp7803\nsVbody\np7804\nVMindy  is full of fearless wisdom. Here are a few things you could learn from her!\np7805\nsVimage_hash\np7806\nVe2c8be7cc946393ff394913c2fb1964d\np7807\nsVname\np7808\nVAccording to Mindy Kaling\np7809\nsVtitle\np7810\nVAccording to Mindy Kaling\np7811\nsVcreative_id\np7812\nV6007329041165\np7813\nsVpreview_url\np7814\nVhttp://www.facebook.com/ads/api/creative_preview.php?cid=6007329041165\np7815\nsVid\np7816\nV6007329041165\np7817\nsVimage_url\np7818\nVhttps://fbcdn-creative-a.akamaihd.net/hads-ak-ash3/s110x80/735297_6007329039765_37610_n.jpg\np7819\nsVcount_current_adgroups\np7820\nI1\nsVrun_status\np7821\nI1\nsVtype\np7822\nI1\nsVlink_url\np7823\nVhttp://www.buzzfeed.com/h1/fbad/fox/15-life-tips-according-to-mindy-kaling\np7824\nsVview_tag\np7825\ng34\nsa(dp7826\nValt_view_tags\np7827\n(lp7828\nsVbody\np7829\nVSee what Nick from New Girl & the internet\'s favorite Grumpy Cat have in common!\np7830\nsVimage_hash\np7831\nVfc1c0475d3d9826b52f0f60f3a66e546\np7832\nsVname\np7833\nVNick is Grumpy Cat?-00-00\np7834\nsVtitle\np7835\nVNick is Grumpy Cat?\np7836\nsVcreative_id\np7837\nV6007328586365\np7838\nsVpreview_url\np7839\nVhttp://www.facebook.com/ads/api/creative_preview.php?cid=6007328586365\np7840\nsVid\np7841\nV6007328586365\np7842\nsVimage_url\np7843\nVhttps://fbcdn-creative-a.akamaihd.net/hads-ak-ash3/s110x80/735295_6007328565165_46268_n.jpg\np7844\nsVcount_current_adgroups\np7845\nI1\nsVrun_status\np7846\nI1\nsVtype\np7847\nI1\nsVlink_url\np7848\nVhttp://www.buzzfeed.com/h1/fbad/fox/indisputable-proof-that-nick-from-new-girl-is-grum\np7849\nsVview_tag\np7850\ng34\nsa(dp7851\nValt_view_tags\np7852\n(lp7853\nsVbody\np7854\nVSee what Nick from New Girl & the internet\'s favorite Grumpy Cat have in common!\np7855\nsVimage_hash\np7856\nV280c2ab97dd6d7507b09a33ff9bff18d\np7857\nsVname\np7858\nVNick is Grumpy Cat?-00\np7859\nsVtitle\np7860\nVNick is Grumpy Cat?\np7861\nsVcreative_id\np7862\nV6007328556165\np7863\nsVpreview_url\np7864\nVhttp://www.facebook.com/ads/api/creative_preview.php?cid=6007328556165\np7865\nsVid\np7866\nV6007328556165\np7867\nsVimage_url\np7868\nVhttps://fbcdn-creative-a.akamaihd.net/hads-ak-ash3/s110x80/735303_6007328525965_60070_n.jpg\np7869\nsVcount_current_adgroups\np7870\nI1\nsVrun_status\np7871\nI1\nsVtype\np7872\nI1\nsVlink_url\np7873\nVhttp://www.buzzfeed.com/h1/fbad/fox/indisputable-proof-that-nick-from-new-girl-is-grum\np7874\nsVview_tag\np7875\ng34\nsa(dp'
p6
sS'hash'
p7
S'df79a03af479ef13505501f2f633b19e9968d361'
p8
sS'stack'
p9
S''
s.