(dp1
S'args'
p2
S''
sS'methodname'
p3
S''
sS'packet_num'
p4
I32
sS'returnval'
p5
S'id=6007625776565\np3995\nsVid\np3996\nV6007625776565\np3997\nsVimage_url\np3998\nVhttps://fbcdn-creative-a.akamaihd.net/hads-ak-ash3/s110x80/735359_6007625710765_47974_n.jpg\np3999\nsVcount_current_adgroups\np4000\nI1\nsVrun_status\np4001\nI1\nsVtype\np4002\nI1\nsVlink_url\np4003\nVhttp://ad.doubleclick.net/clk;266543194;92810455;n?http://www.buzzfeed.com/h1/fbad/syfy/13-times-when-its-okay-to-freak-out-6wms\np4004\nsVview_tag\np4005\ng34\nsa(dp4006\nValt_view_tags\np4007\n(lp4008\nsVbody\np4009\nVPudding For Airline Miles? Check out more of "The 10 Greatest Get-Rich-Quick Schemes!"\np4010\nsVimage_hash\np4011\nVde3bfb113970981901d07205728f300f\np4012\nsVname\np4013\nVPudding For Airline Miles-01\np4014\nsVtitle\np4015\nVGet-Rich-Quick Schemes!\np4016\nsVcreative_id\np4017\nV6007625694965\np4018\nsVpreview_url\np4019\nVhttp://www.facebook.com/ads/api/creative_preview.php?cid=6007625694965\np4020\nsVid\np4021\nV6007625694965\np4022\nsVimage_url\np4023\nVhttps://fbcdn-creative-a.akamaihd.net/hads-ak-prn1/s110x80/735315_6007597860365_29962_n.jpg\np4024\nsVcount_current_adgroups\np4025\nI1\nsVrun_status\np4026\nI1\nsVtype\np4027\nI1\nsVlink_url\np4028\nVhttp://www.buzzfeed.com/h1/fbad/shameless/the-10-greatest-get-rich-quick-schemes-of-all-time\np4029\nsVview_tag\np4030\ng34\nsa(dp4031\nValt_view_tags\np4032\n(lp4033\nsVbody\np4034\nVThink that\'s crazy? See more of "The 10 Greatest Get-Rich-Quick Schemes Of All Time!"\np4035\nsVimage_hash\np4036\nVde3bfb113970981901d07205728f300f\np4037\nsVname\np4038\nVPudding For Airline Miles\np4039\nsVtitle\np4040\nVPudding For Airline Miles\np4041\nsVcreative_id\np4042\nV6007597926965\np4043\nsVpreview_url\np4044\nVhttp://www.facebook.com/ads/api/creative_preview.php?cid=6007597926965\np4045\nsVid\np4046\nV6007597926965\np4047\nsVimage_url\np4048\nVhttps://fbcdn-creative-a.akamaihd.net/hads-ak-prn1/s110x80/735315_6007597860365_29962_n.jpg\np4049\nsVcount_current_adgroups\np4050\nI1\nsVrun_status\np4051\nI1\nsVtype\np4052\nI1\nsVlink_url\np4053\nVhttp://www.buzzfeed.com/h1/fbad/shameless/the-10-greatest-get-rich-quick-schemes-of-all-time\np4054\nsVview_tag\np4055\ng34\nsa(dp4056\nValt_view_tags\np4057\n(lp4058\nsVbody\np4059\nVNot care what people think? See the"Things We Would Do Differently If We Were Kids Again!"\np4060\nsVimage_hash\np4061\nVd8cb52d05313cf42f4e8c7b109a50373\np4062\nsVname\np4063\nVWhat Would You Do?\np4064\nsVtitle\np4065\nVWhat Would You Do?\np4066\nsVcreative_id\np4067\nV6007510759165\np4068\nsVpreview_url\np4069\nVhttp://www.facebook.com/ads/api/creative_preview.php?cid=6007510759165\np4070\nsVid\np4071\nV6007510759165\np4072\nsVimage_url\np4073\nVhttps://fbcdn-creative-a.akamaihd.net/hads-ak-ash3/s110x80/735316_6007510607365_55467_n.jpg\np4074\nsVcount_current_adgroups\np4075\nI2\nsVrun_status\np4076\nI1\nsVtype\np4077\nI1\nsVlink_url\np4078\nVhttp://ad.doubleclick.net/clk;266212546;92028855;m;pc=[TPAS_ID]?http://www.buzzfeed.com/h1/fbad/ragu/things-we-would-do-differently-if-we-were-kids-aga\np4079\nsVview_tag\np4080\ng34\nsa(dp4081\nValt_view_tags\np4082\n(lp4083\nsVbody\np4084\nVHe can play it all! Check out "The Nicolas Cage Career Timeline" on BuzzFeed!\np4085\nsVimage_hash\np4086\nV8bacba1f48699e0353cf682707137eb5\np4087\nsVname\np4088\nVNick Cage Career Timeline\np4089\nsVtitle\np4090\nVNick Cage Career Timeline\np4091\nsVcreative_id\np4092\nV6007505066165\np4093\nsVpreview_url\np4094\nVhttp://www.facebook.com/ads/api/creative_preview.php?cid=6007505066165\np4095\nsVid\np4096\nV6007505066165\np4097\nsVimage_url\np4098\nVhttps://fbcdn-creative-a.akamaihd.net/hads-ak-prn1/s110x80/735344_6007505016165_1491_n.jpg\np4099\nsVcount_current_adgroups\np4100\nI2\nsVrun_status\np4101\nI1\nsVtype\np4102\nI1\nsVlink_url\np4103\nVhttp://www.buzzfeed.com/h1/fbad/stolen/the-nicolas-cage-career-timeline\np4104\nsVview_tag\np4105\ng34\nsa(dp4106\nValt_view_tags\np4107\n(lp4108\nsVbody\np4109\nVCheck out this post and add your own annoyance for a chance to win a trip to Chicago!\np4110\nsVimage_hash\np4111\nVc1537eb68c9b9bac6592b0f38ed7bfdf\np4112\nsVname\np4113\nVAnnoyances Equal Prizes!\np4114\nsVtitle\np4115\nVAnnoyances Equal Prizes!\np4116\nsVcreative_id\np4117\nV6007594394565\np4118\nsVpreview_url\np4119\nVhttp://www.facebook.com/ads/api/creative_preview.php?cid=6007594394565\np4120\nsVid\np4121\nV6007594394565\np4122\nsVimage_ur'
p6
sS'hash'
p7
S'df79a03af479ef13505501f2f633b19e9968d361'
p8
sS'stack'
p9
S''
s.