(dp1
S'args'
p2
S''
sS'methodname'
p3
S''
sS'packet_num'
p4
I11
sS'returnval'
p5
S'ok.com/ads/api/creative_preview.php?cid=6007843099765\np1424\nsVid\np1425\nV6007843099765\np1426\nsVimage_url\np1427\nVhttps://fbcdn-creative-a.akamaihd.net/hads-ak-prn1/s110x80/735333_6007812932965_39099_n.png\np1428\nsVcount_current_adgroups\np1429\nI2\nsVrun_status\np1430\nI1\nsVtype\np1431\nI1\nsVlink_url\np1432\nVhttp://mm.sitecompass.com/BurstingPipe/adServer.bs?cn=tf&c=20&mc=click&pli=6099528&PluID=0&ord=%n&rtu=http://www.buzzfeed.com/h1/fbad/archetypeme/11-people-paying-it-forward\np1433\nsVview_tag\np1434\ng34\nsa(dp1435\nValt_view_tags\np1436\n(lp1437\nsVbody\np1438\nVJust one of the "15 Animals That Are Definitely Caregivers!" See the rest on BuzzFeed!\np1439\nsVimage_hash\np1440\nV84429efdbe58a8483da5db57a6cb2c5b\np1441\nsVname\np1442\nVDr. Pug M.D.\np1443\nsVtitle\np1444\nVDr. Pug M.D.\np1445\nsVcreative_id\np1446\nV6007843068365\np1447\nsVpreview_url\np1448\nVhttp://www.facebook.com/ads/api/creative_preview.php?cid=6007843068365\np1449\nsVid\np1450\nV6007843068365\np1451\nsVimage_url\np1452\nVhttps://fbcdn-creative-a.akamaihd.net/hads-ak-ash3/s110x80/735358_6007824203565_53873_n.png\np1453\nsVcount_current_adgroups\np1454\nI2\nsVrun_status\np1455\nI1\nsVtype\np1456\nI1\nsVlink_url\np1457\nVhttp://mm.sitecompass.com/BurstingPipe/adServer.bs?cn=tf&c=20&mc=click&pli=6099528&PluID=0&ord=%n&rtu=http://www.buzzfeed.com/h1/fbad/archetypeme/15-animals-that-are-definitely-caregivers\np1458\nsVview_tag\np1459\ng34\nsa(dp1460\nValt_view_tags\np1461\n(lp1462\nsVbody\np1463\nVKick that sleeping habit with "20 Horrifying Gifs That Will Haunt Your Dreams" here! \np1464\nsVimage_hash\np1465\nVacf07c8171f4078409178c00cca96ea9\np1466\nsVname\np1467\nVDon\'t Get Scared?\np1468\nsVtitle\np1469\nVDon\'t Get Scared?\np1470\nsVcreative_id\np1471\nV6007787775365\np1472\nsVpreview_url\np1473\nVhttp://www.facebook.com/ads/api/creative_preview.php?cid=6007787775365\np1474\nsVid\np1475\nV6007787775365\np1476\nsVimage_url\np1477\nVhttps://fbcdn-creative-a.akamaihd.net/hads-ak-prn1/s110x80/735298_6007787739165_56887_n.png\np1478\nsVcount_current_adgroups\np1479\nI1\nsVrun_status\np1480\nI1\nsVtype\np1481\nI1\nsVlink_url\np1482\nVhttp://www.buzzfeed.com/h1/fbad/mamamovie/20-horrifying-gifs-that-will-haunt-your-dreams-8b75\np1483\nsVview_tag\np1484\ng34\nsa(dp1485\nValt_view_tags\np1486\n(lp1487\nsVbody\np1488\nVHe\'s seen in many different ways. Check out "31 Ways The World Views Obama Through Art!"\np1489\nsVimage_hash\np1490\nVe452154647d35904ca8ef974a0c3ba93\np1491\nsVname\np1492\nVBarack Obama\np1493\nsVtitle\np1494\nVBarack Obama\np1495\nsVcreative_id\np1496\nV6007787100565\np1497\nsVpreview_url\np1498\nVhttp://www.facebook.com/ads/api/creative_preview.php?cid=6007787100565\np1499\nsVid\np1500\nV6007787100565\np1501\nsVimage_url\np1502\nVhttps://fbcdn-creative-a.akamaihd.net/hads-ak-ash3/s110x80/735294_6007787098365_27422_n.jpg\np1503\nsVcount_current_adgroups\np1504\nI1\nsVrun_status\np1505\nI1\nsVtype\np1506\nI1\nsVlink_url\np1507\nVhttp://www.buzzfeed.com/h1/fbad/panic2012/31-ways-the-world-views-obama-through-art-8qdq\np1508\nsVview_tag\np1509\ng34\nsa(dp1510\nValt_view_tags\np1511\n(lp1512\nsVbody\np1513\nVHe\'s seen in many different ways. Check out "31 Ways The World Views Obama Through Art!"\np1514\nsVimage_hash\np1515\nV440f35405f532d5ea9421c5824459887\np1516\nsVname\np1517\nVBarack Obama-00\np1518\nsVtitle\np1519\nVBarack Obama\np1520\nsVcreative_id\np1521\nV6007787108565\np1522\nsVpreview_url\np1523\nVhttp://www.facebook.com/ads/api/creative_preview.php?cid=6007787108565\np1524\nsVid\np1525\nV6007787108565\np1526\nsVimage_url\np1527\nVhttps://fbcdn-creative-a.akamaihd.net/hads-ak-prn1/s110x80/735328_6007787106165_32075_n.png\np1528\nsVcount_current_adgroups\np1529\nI2\nsVrun_status\np1530\nI1\nsVtype\np1531\nI1\nsVlink_url\np1532\nVhttp://www.buzzfeed.com/h1/fbad/panic2012/31-ways-the-world-views-obama-through-art-8qdq\np1533\nsVview_tag\np1534\ng34\nsa(dp1535\nValt_view_tags\np1536\n(lp1537\nsVbody\np1538\nVIt made our list of "10 Of The Most Ridiculous Things That Celebrities Did In 2012!" \np1539\nsVimage_hash\np1540\nV8d0ef4aac254bd728dc9eb718e1f88ab\np1541\nsVname\np1542\nVJustin Bieber Puking?\np1543\nsVtitle\np1544\nVJustin Bieber Puking?\np1545\nsVcreative_id\np1546\nV6007760861565\np1547\nsVpreview_url\np1548\nVhttp://www.facebook.com/ads/api/creative_preview.php?cid=6007'
p6
sS'hash'
p7
S'df79a03af479ef13505501f2f633b19e9968d361'
p8
sS'stack'
p9
S''
s.