(dp1
S'args'
p2
S''
sS'methodname'
p3
S''
sS'packet_num'
p4
I83
sS'returnval'
p5
S'0\nsVview_tag\np10341\ng34\nsa(dp10342\nValt_view_tags\np10343\n(lp10344\nsVbody\np10345\nVForte sprawling for inches! See the rest of "The Most Graceful Airborne Football Players!"\np10346\nsVimage_hash\np10347\nVb5e77d7e6adf615382a086fdedbf0c66\np10348\nsVname\np10349\nVOne Handed Diving Catch?-00\np10350\nsVtitle\np10351\nVFalling In Style!\np10352\nsVcreative_id\np10353\nV6007115917165\np10354\nsVpreview_url\np10355\nVhttp://www.facebook.com/ads/api/creative_preview.php?cid=6007115917165\np10356\nsVid\np10357\nV6007115917165\np10358\nsVimage_url\np10359\nVhttps://fbcdn-creative-a.akamaihd.net/hads-ak-ash3/s110x80/701897_6007115807165_20685_n.jpg\np10360\nsVcount_current_adgroups\np10361\nI1\nsVrun_status\np10362\nI1\nsVtype\np10363\nI1\nsVlink_url\np10364\nVhttp://ad.doubleclick.net/clk;264495462;89854573;e?http://www.buzzfeed.com/h1/fbad/lenovo/the-most-graceful-airborne-football-players-5vp1\np10365\nsVview_tag\np10366\ng34\nsa(dp10367\nValt_view_tags\np10368\n(lp10369\nsVbody\np10370\nVWouldn\'t be the first time we were wrong. Check out the "7 Doomsday Prediction Fails!" \np10371\nsVimage_hash\np10372\nVf82913668c140440ebd85791278590dc\np10373\nsVname\np10374\nVImpending Apocalypse?\np10375\nsVtitle\np10376\nVImpending Apocalypse?\np10377\nsVcreative_id\np10378\nV6007160393165\np10379\nsVpreview_url\np10380\nVhttp://www.facebook.com/ads/api/creative_preview.php?cid=6007160393165\np10381\nsVid\np10382\nV6007160393165\np10383\nsVimage_url\np10384\nVhttps://fbcdn-creative-a.akamaihd.net/hads-ak-prn1/s110x80/708185_6007160364765_34449_n.jpg\np10385\nsVcount_current_adgroups\np10386\nI1\nsVrun_status\np10387\nI1\nsVtype\np10388\nI1\nsVlink_url\np10389\nVhttp://ad.doubleclick.net/clk;266245879;92130229;q?http://www.buzzfeed.com/h1/fbad/syfy/7-doomsday-predictions-fails-6wms\np10390\nsVview_tag\np10391\ng34\nsa(dp10392\nValt_view_tags\np10393\n(lp10394\nsVbody\np10395\nVWe\'ve got the "18 Best Ways To Have A Delightful Winter Vacation" on BuzzFeed.\np10396\nsVimage_hash\np10397\nVc8fed2d02209343ad6e925b862b7eb45\np10398\nsVname\np10399\nVNot cold at all!\np10400\nsVtitle\np10401\nVNot cold at all!\np10402\nsVcreative_id\np10403\nV6007144300765\np10404\nsVpreview_url\np10405\nVhttp://www.facebook.com/ads/api/creative_preview.php?cid=6007144300765\np10406\nsVid\np10407\nV6007144300765\np10408\nsVimage_url\np10409\nVhttps://fbcdn-creative-a.akamaihd.net/hads-ak-ash3/s110x80/701894_6007144281165_24284_n.jpg\np10410\nsVcount_current_adgroups\np10411\nI1\nsVrun_status\np10412\nI1\nsVtype\np10413\nI1\nsVlink_url\np10414\nVhttp://ad.doubleclick.net/clk;266300424;92139775;j\np10415\nsVview_tag\np10416\ng34\nsa(dp10417\nValt_view_tags\np10418\n(lp10419\nsVbody\np10420\nVJust one of the "12 Possible Futures That Await Us After The Apocalypse!" See more here!\np10421\nsVimage_hash\np10422\nVee5490031d5fd8a0ccc4e8ff16deaefd\np10423\nsVname\np10424\nVGingers Ruling The World?\np10425\nsVtitle\np10426\nVGingers Ruling The World?\np10427\nsVcreative_id\np10428\nV6007142519965\np10429\nsVpreview_url\np10430\nVhttp://www.facebook.com/ads/api/creative_preview.php?cid=6007142519965\np10431\nsVid\np10432\nV6007142519965\np10433\nsVimage_url\np10434\nVhttps://fbcdn-creative-a.akamaihd.net/hads-ak-prn1/s110x80/708171_6007142153165_14291_n.jpg\np10435\nsVcount_current_adgroups\np10436\nI2\nsVrun_status\np10437\nI1\nsVtype\np10438\nI1\nsVlink_url\np10439\nVhttp://ad.doubleclick.net/clk;266245879;92130229;q?http://www.buzzfeed.com/h1/fbad/syfy/12-possible-futures-that-await-us-after-the-apocal-6wms\np10440\nsVview_tag\np10441\ng34\nsa(dp10442\nValt_view_tags\np10443\n(lp10444\nsVbody\np10445\nVCheck out these "13 Things Babies Are Secretly Trying To Tell You" on BuzzFeed!\np10446\nsVimage_hash\np10447\nV1adab7cc936031ca08e81f06b08c35fe\np10448\nsVname\np10449\nVSay peekaboo again!\np10450\nsVtitle\np10451\nVSay peekaboo again!\np10452\nsVcreative_id\np10453\nV6007136066965\np10454\nsVpreview_url\np10455\nVhttp://www.facebook.com/ads/api/creative_preview.php?cid=6007136066965\np10456\nsVid\np10457\nV6007136066965\np10458\nsVimage_url\np10459\nVhttps://fbcdn-creative-a.akamaihd.net/hads-ak-prn1/s110x80/708177_6007136057565_58754_n.jpg\np10460\nsVcount_current_adgroups\np10461\nI1\nsVrun_status\np10462\nI1\nsVtype\np10463\nI1\nsVlink_url\np10464\nVhttp://ad.doubleclick.net/clk;266310596;91616420;g?http:/'
p6
sS'hash'
p7
S'df79a03af479ef13505501f2f633b19e9968d361'
p8
sS'stack'
p9
S''
s.