(dp1
S'args'
p2
S''
sS'methodname'
p3
S''
sS'packet_num'
p4
I33
sS'returnval'
p5
S'l\np4123\nVhttps://fbcdn-creative-a.akamaihd.net/hads-ak-prn1/s110x80/735320_6007594390765_53468_n.jpg\np4124\nsVcount_current_adgroups\np4125\nI4\nsVrun_status\np4126\nI1\nsVtype\np4127\nI1\nsVlink_url\np4128\nVhttp://www.buzzfeed.com/h1/fbad/floridaorangejuice/little-annoyances-fun-prize\np4129\nsVview_tag\np4130\ng34\nsa(dp4131\nValt_view_tags\np4132\n(lp4133\nsVbody\np4134\nVFrank Abagnale was a genius! See "The 10 Greatest Get-Rich-Quick Schemes Of All Time!"\np4135\nsVimage_hash\np4136\nV3d08ddc78645053157cd1fa00b2098d3\np4137\nsVname\np4138\nVPudding For Airline Miles-00-00\np4139\nsVtitle\np4140\nVCatch Me If You Can\np4141\nsVcreative_id\np4142\nV6007601044565\np4143\nsVpreview_url\np4144\nVhttp://www.facebook.com/ads/api/creative_preview.php?cid=6007601044565\np4145\nsVid\np4146\nV6007601044565\np4147\nsVimage_url\np4148\nVhttps://fbcdn-creative-a.akamaihd.net/hads-ak-ash3/s110x80/735355_6007597944565_6067_n.jpg\np4149\nsVcount_current_adgroups\np4150\nI2\nsVrun_status\np4151\nI1\nsVtype\np4152\nI1\nsVlink_url\np4153\nVhttp://www.buzzfeed.com/h1/fbad/shameless/the-10-greatest-get-rich-quick-schemes-of-all-time\np4154\nsVview_tag\np4155\ng34\nsa(dp4156\nValt_view_tags\np4157\n(lp4158\nsVbody\np4159\nVInstagram has ruined dining. Find out "The Subtext Of That Picture Of Food You Shared!"\np4160\nsVimage_hash\np4161\nV33775c2bde0f4cc303e29556b4839259\np4162\nsVname\np4163\nVSharing Pics Of Food?-01\np4164\nsVtitle\np4165\nVSharing Pics Of Food?\np4166\nsVcreative_id\np4167\nV6007616974765\np4168\nsVpreview_url\np4169\nVhttp://www.facebook.com/ads/api/creative_preview.php?cid=6007616974765\np4170\nsVid\np4171\nV6007616974765\np4172\nsVimage_url\np4173\nVhttps://fbcdn-creative-a.akamaihd.net/hads-ak-ash3/s110x80/735354_6007593729365_9201_n.jpg\np4174\nsVcount_current_adgroups\np4175\nI4\nsVrun_status\np4176\nI1\nsVtype\np4177\nI1\nsVlink_url\np4178\nVhttp://ad.doubleclick.net/clk;266976723;92922096;a\np4179\nsVview_tag\np4180\ng34\nsa(dp4181\nValt_view_tags\np4182\n(lp4183\nsVbody\np4184\nVInstagram has ruined dining. Find out "The Subtext Of That Picture Of Food You Shared!"\np4185\nsVimage_hash\np4186\nV815883ffe9d2d1f251583eec70e4b227\np4187\nsVname\np4188\nVSharing Pics Of Food?-00\np4189\nsVtitle\np4190\nVSharing Pics Of Meals?\np4191\nsVcreative_id\np4192\nV6007600919765\np4193\nsVpreview_url\np4194\nVhttp://www.facebook.com/ads/api/creative_preview.php?cid=6007600919765\np4195\nsVid\np4196\nV6007600919765\np4197\nsVimage_url\np4198\nVhttps://fbcdn-creative-a.akamaihd.net/hads-ak-prn1/s110x80/735317_6007600890965_40928_n.jpg\np4199\nsVcount_current_adgroups\np4200\nI1\nsVrun_status\np4201\nI1\nsVtype\np4202\nI1\nsVlink_url\np4203\nVhttp://ad.doubleclick.net/clk;266976723;92922096;a\np4204\nsVview_tag\np4205\ng34\nsa(dp4206\nValt_view_tags\np4207\n(lp4208\nsVbody\np4209\nVWhat do our undies say about our personalities? See What Your Lingerie Says About You!\np4210\nsVimage_hash\np4211\nV5926444002e2766127b922b4448bb85e\np4212\nsVname\np4213\nVTake the Lingerie Quiz!\np4214\nsVtitle\np4215\nVTake the Lingerie Quiz!\np4216\nsVcreative_id\np4217\nV6007594123565\np4218\nsVpreview_url\np4219\nVhttp://www.facebook.com/ads/api/creative_preview.php?cid=6007594123565\np4220\nsVid\np4221\nV6007594123565\np4222\nsVimage_url\np4223\nVhttps://fbcdn-creative-a.akamaihd.net/hads-ak-prn1/s110x80/735344_6007594122165_30542_n.jpg\np4224\nsVcount_current_adgroups\np4225\nI1\nsVrun_status\np4226\nI1\nsVtype\np4227\nI1\nsVlink_url\np4228\nVhttp://www.buzzfeed.com/h1/fbad/doubledivas/what-does-your-lingerie-say-about-you-8edm\np4229\nsVview_tag\np4230\ng34\nsa(dp4231\nValt_view_tags\np4232\n(lp4233\nsVbody\np4234\nVSee the rest of The Fierce Insignia Of U.S Military Specialized Operations Forces!\np4235\nsVimage_hash\np4236\nVb82d9db6deb20a6fad6386a54613ffb3\np4237\nsVname\np4238\nVRed Wolves-00-00\np4239\nsVtitle\np4240\nVDelta Force\np4241\nsVcreative_id\np4242\nV6007618013565\np4243\nsVpreview_url\np4244\nVhttp://www.facebook.com/ads/api/creative_preview.php?cid=6007618013565\np4245\nsVid\np4246\nV6007618013565\np4247\nsVimage_url\np4248\nVhttps://fbcdn-creative-a.akamaihd.net/hads-ak-prn1/s110x80/735319_6007618008965_29575_n.jpg\np4249\nsVcount_current_adgroups\np4250\nI2\nsVrun_status\np4251\nI1\nsVtype\np4252\nI1\nsVlink_url\np4253\nVhttp://clk.atdmt.com/ULA/go/425320197/direct/01/?href= http://w'
p6
sS'hash'
p7
S'df79a03af479ef13505501f2f633b19e9968d361'
p8
sS'stack'
p9
S''
s.