(dp1
S'args'
p2
S''
sS'methodname'
p3
S''
sS'packet_num'
p4
I43
sS'returnval'
p5
S'8c9x\np5353\nsVview_tag\np5354\ng34\nsa(dp5355\nValt_view_tags\np5356\n(lp5357\nsVbody\np5358\nVYeah, right. Check out "10 Ways Jason Statham Could Kick Your Ass" and reevaluate!\np5359\nsVimage_hash\np5360\nV29e2972ace468b61ec13cb2c593a8648\np5361\nsVname\np5362\nVStatham Doesn\'t Joke-00\np5363\nsVtitle\np5364\nVMore Badass Than Statham?\np5365\nsVcreative_id\np5366\nV6007486251365\np5367\nsVpreview_url\np5368\nVhttp://www.facebook.com/ads/api/creative_preview.php?cid=6007486251365\np5369\nsVid\np5370\nV6007486251365\np5371\nsVimage_url\np5372\nVhttps://fbcdn-creative-a.akamaihd.net/hads-ak-ash3/s110x80/735303_6007483294765_15542_n.jpg\np5373\nsVcount_current_adgroups\np5374\nI1\nsVrun_status\np5375\nI1\nsVtype\np5376\nI1\nsVlink_url\np5377\nVhttp://www.buzzfeed.com/h1/fbad/parkermovie/10-ways-jason-statham-could-kick-your-ass-8c9x\np5378\nsVview_tag\np5379\ng34\nsa(dp5380\nValt_view_tags\np5381\n(lp5382\nsVbody\np5383\nVThe man only plays badasses. Check out "10 Ways Jason Statham Could Kick Your Ass" here!\np5384\nsVimage_hash\np5385\nV29e2972ace468b61ec13cb2c593a8648\np5386\nsVname\np5387\nVStatham Doesn\'t Joke\np5388\nsVtitle\np5389\nVStatham Doesn\'t Joke\np5390\nsVcreative_id\np5391\nV6007483297165\np5392\nsVpreview_url\np5393\nVhttp://www.facebook.com/ads/api/creative_preview.php?cid=6007483297165\np5394\nsVid\np5395\nV6007483297165\np5396\nsVimage_url\np5397\nVhttps://fbcdn-creative-a.akamaihd.net/hads-ak-ash3/s110x80/735303_6007483294765_15542_n.jpg\np5398\nsVcount_current_adgroups\np5399\nI2\nsVrun_status\np5400\nI1\nsVtype\np5401\nI1\nsVlink_url\np5402\nVhttp://www.buzzfeed.com/h1/fbad/parkermovie/10-ways-jason-statham-could-kick-your-ass-8c9x\np5403\nsVview_tag\np5404\ng34\nsa(dp5405\nValt_view_tags\np5406\n(lp5407\nsVbody\np5408\nVT. Hanks always enjoys a photo. Check out the rest of "11 Of The Nicest Celebrities Ever!"\np5409\nsVimage_hash\np5410\nV46d74a87fb72d07169d325ff686e5af4\np5411\nsVname\np5412\nVCelebs Are The Best!\np5413\nsVtitle\np5414\nVCelebs Are The Best!\np5415\nsVcreative_id\np5416\nV6007533045365\np5417\nsVpreview_url\np5418\nVhttp://www.facebook.com/ads/api/creative_preview.php?cid=6007533045365\np5419\nsVid\np5420\nV6007533045365\np5421\nsVimage_url\np5422\nVhttps://fbcdn-creative-a.akamaihd.net/hads-ak-prn1/s110x80/735362_6007532970765_31667_n.jpg\np5423\nsVcount_current_adgroups\np5424\nI1\nsVrun_status\np5425\nI1\nsVtype\np5426\nI1\nsVlink_url\np5427\nVhttp://ad.doubleclick.net/clk;266305998;92196608;c;pc=[TPAS_ID]?http://www.buzzfeed.com/h1/fbad/jimmykimmellive/11-of-the-nicest-celebrities-ever\np5428\nsVview_tag\np5429\ng34\nsa(dp5430\nValt_view_tags\np5431\n(lp5432\nsVbody\np5433\nVZooey makes our list of "11 Reasons Why TV Shows Are The New Movies" on BuzzFeed\np5434\nsVimage_hash\np5435\nV03430765d1c6560d10d10f5e93c91645\np5436\nsVname\np5437\nVBreaking Bad-00-00\np5438\nsVtitle\np5439\nVHey Zooey Deschanel Fans!\np5440\nsVcreative_id\np5441\nV6007531474965\np5442\nsVpreview_url\np5443\nVhttp://www.facebook.com/ads/api/creative_preview.php?cid=6007531474965\np5444\nsVid\np5445\nV6007531474965\np5446\nsVimage_url\np5447\nVhttps://fbcdn-creative-a.akamaihd.net/hads-ak-ash3/s110x80/735336_6007531433365_49980_n.jpg\np5448\nsVcount_current_adgroups\np5449\nI1\nsVrun_status\np5450\nI1\nsVtype\np5451\nI1\nsVlink_url\np5452\nVhttp://www.buzzfeed.com/h1/fbad/timewarnercable/11-reasons-why-tv-shows-are-the-new-movies\np5453\nsVview_tag\np5454\ng34\nsa(dp5455\nValt_view_tags\np5456\n(lp5457\nsVbody\np5458\nVOne of the "11 Reasons Why TV Shows Are The New Movies" on BuzzFeed\np5459\nsVimage_hash\np5460\nV2e5f4d5ef2bbd902e6eb03cb9750823b\np5461\nsVname\np5462\nVBreaking Bad-00\np5463\nsVtitle\np5464\nVGame of Thrones\np5465\nsVcreative_id\np5466\nV6007480822965\np5467\nsVpreview_url\np5468\nVhttp://www.facebook.com/ads/api/creative_preview.php?cid=6007480822965\np5469\nsVid\np5470\nV6007480822965\np5471\nsVimage_url\np5472\nVhttps://fbcdn-creative-a.akamaihd.net/hads-ak-ash3/s110x80/735317_6007480791965_8844_n.jpg\np5473\nsVcount_current_adgroups\np5474\nI1\nsVrun_status\np5475\nI1\nsVtype\np5476\nI1\nsVlink_url\np5477\nVhttp://www.buzzfeed.com/h1/fbad/timewarnercable/11-reasons-why-tv-shows-are-the-new-movies\np5478\nsVview_tag\np5479\ng34\nsa(dp5480\nValt_view_tags\np5481\n(lp5482\nsVbody\np5483\nVTeachers could get you to do anything. See the "10 Tricks B'
p6
sS'hash'
p7
S'df79a03af479ef13505501f2f633b19e9968d361'
p8
sS'stack'
p9
S''
s.