(dp1
S'args'
p2
S''
sS'methodname'
p3
S''
sS'packet_num'
p4
I60
sS'returnval'
p5
S'85\nVRock On w/Nirvana!\np7486\nsVcreative_id\np7487\nV6007097014365\np7488\nsVpreview_url\np7489\nVhttp://www.facebook.com/ads/api/creative_preview.php?cid=6007097014365\np7490\nsVid\np7491\nV6007097014365\np7492\nsVimage_url\np7493\nVhttps://fbcdn-creative-a.akamaihd.net/hads-ak-prn1/s110x80/708182_6007097008765_19873_n.jpg\np7494\nsVcount_current_adgroups\np7495\nI1\nsVrun_status\np7496\nI1\nsVtype\np7497\nI1\nsVlink_url\np7498\nVhttp://www.rdio.com/people/BuzzFeed/playlists/1358743/ROCK_ON/\np7499\nsVview_tag\np7500\ng34\nsa(dp7501\nValt_view_tags\np7502\n(lp7503\nsVbody\np7504\nVJust One of the Songs on BuzzFeed\'s Geeky Rdio playlist for Techies & Trekkies!\np7505\nsVimage_hash\np7506\nVbcfba836da838b821bd70bbbbbde663a\np7507\nsVname\np7508\nVWeezer\'s "In the Garage"\np7509\nsVtitle\np7510\nVWeezer\'s "In the Garage"\np7511\nsVcreative_id\np7512\nV6006798716965\np7513\nsVpreview_url\np7514\nVhttp://www.facebook.com/ads/api/creative_preview.php?cid=6006798716965\np7515\nsVid\np7516\nV6006798716965\np7517\nsVimage_url\np7518\nVhttps://fbcdn-creative-a.akamaihd.net/hads-ak-ash3/s110x80/708163_6006798683565_63610_n.jpg\np7519\nsVcount_current_adgroups\np7520\nI1\nsVrun_status\np7521\nI1\nsVtype\np7522\nI1\nsVlink_url\np7523\nVhttp://www.buzzfeed.com/h1/fbad/buzzfeedmusicpartner/10-nerd-tastic-numbers-for-techies\np7524\nsVview_tag\np7525\ng34\nsa(dp7526\nValt_view_tags\np7527\n(lp7528\nsVbody\np7529\nVCheck Out More Songs on BuzzFeed\'s Top Chart Rdio playlist!\np7530\nsVimage_hash\np7531\nVb5fb37d5080f24e0b0d88769d69d7c33\np7532\nsVname\np7533\nVJustin Bieber\'s "Believe"-00\np7534\nsVtitle\np7535\nVPSY\'s "Gangnam Style"\np7536\nsVcreative_id\np7537\nV6006734645765\np7538\nsVpreview_url\np7539\nVhttp://www.facebook.com/ads/api/creative_preview.php?cid=6006734645765\np7540\nsVid\np7541\nV6006734645765\np7542\nsVimage_url\np7543\nVhttps://fbcdn-creative-a.akamaihd.net/hads-ak-prn1/s110x80/708166_6006734473765_45003_n.jpg\np7544\nsVcount_current_adgroups\np7545\nI2\nsVrun_status\np7546\nI1\nsVtype\np7547\nI1\nsVlink_url\np7548\nVhttp://www.buzzfeed.com/h1/fbad/buzzfeedmusicpartner/you-wanted-a-hit-7p85\np7549\nsVview_tag\np7550\ng34\nsa(dp7551\nValt_view_tags\np7552\n(lp7553\nsVbody\np7554\nVJust One the Hit Songs on Our Top Chart Rdio playlist on BuzzFeed!\\u000a\np7555\nsVimage_hash\np7556\nVff337ba274974606691bfeaca5828873\np7557\nsVname\np7558\nVJustin Bieber\'s "Believe"\np7559\nsVtitle\np7560\nVJustin Bieber\'s "Believe"\np7561\nsVcreative_id\np7562\nV6006734469165\np7563\nsVpreview_url\np7564\nVhttp://www.facebook.com/ads/api/creative_preview.php?cid=6006734469165\np7565\nsVid\np7566\nV6006734469165\np7567\nsVimage_url\np7568\nVhttps://fbcdn-creative-a.akamaihd.net/hads-ak-prn1/s110x80/708197_6006734454365_36188_n.jpg\np7569\nsVcount_current_adgroups\np7570\nI2\nsVrun_status\np7571\nI1\nsVtype\np7572\nI1\nsVlink_url\np7573\nVhttp://www.buzzfeed.com/h1/fbad/buzzfeedmusicpartner/you-wanted-a-hit-7p85\np7574\nsVview_tag\np7575\ng34\nsa(dp7576\nValt_view_tags\np7577\n(lp7578\nsVbody\np7579\nVLook how far we\'ve come! Check out "12 Important Steps In The History Of Television!"\np7580\nsVimage_hash\np7581\nVbd88ebec0d9ba36f483f138364438406\np7582\nsVname\np7583\nVHistory Of Television \np7584\nsVtitle\np7585\nVHistory Of Television \np7586\nsVcreative_id\np7587\nV6007164283365\np7588\nsVpreview_url\np7589\nVhttp://www.facebook.com/ads/api/creative_preview.php?cid=6007164283365\np7590\nsVid\np7591\nV6007164283365\np7592\nsVimage_url\np7593\nVhttps://fbcdn-creative-a.akamaihd.net/hads-ak-prn1/s110x80/708191_6007164281965_61382_n.jpg\np7594\nsVcount_current_adgroups\np7595\nI2\nsVrun_status\np7596\nI1\nsVtype\np7597\nI1\nsVlink_url\np7598\nVhttp://www.buzzfeed.com/h1/fbad/boxee/important-steps-in-the-history-of-television\np7599\nsVview_tag\np7600\ng34\nsa(dp7601\nValt_view_tags\np7602\n(lp7603\nsVbody\np7604\nVNow check out "16 Things We Should Stop Doing In 2013" on BuzzFeed.\np7605\nsVimage_hash\np7606\nV5a4c4b56f52456ae6b2952dd7418d4e7\np7607\nsVname\np7608\nVHappy New Year!\np7609\nsVtitle\np7610\nVHappy New Year!\np7611\nsVcreative_id\np7612\nV6007331809365\np7613\nsVpreview_url\np7614\nVhttp://www.facebook.com/ads/api/creative_preview.php?cid=6007331809365\np7615\nsVid\np7616\nV6007331809365\np7617\nsVimage_url\np7618\nVhttps://fbcdn-creative-a.akamaihd.net/hads-ak-prn1/s110x80/735358_600733171'
p6
sS'hash'
p7
S'df79a03af479ef13505501f2f633b19e9968d361'
p8
sS'stack'
p9
S''
s.