(dp1
S'args'
p2
S''
sS'methodname'
p3
S''
sS'packet_num'
p4
I40
sS'returnval'
p5
S'.buzzfeed.com/h1/fbad/thecarriediaries/15-things-high-schoolers-do-to-prepare-to-lose-the\np4978\nsVview_tag\np4979\ng34\nsa(dp4980\nValt_view_tags\np4981\n(lp4982\nsVbody\np4983\nVGrab your magnifying glass. Can you crack these creepy crime mysteries? \np4984\nsVimage_hash\np4985\nV47f9642738e4183693f361fbc4ab59cb\np4986\nsVname\np4987\nVBizarre Unsolved Crimes\np4988\nsVtitle\np4989\nVBizarre Unsolved Crimes\np4990\nsVcreative_id\np4991\nV6007598323365\np4992\nsVpreview_url\np4993\nVhttp://www.facebook.com/ads/api/creative_preview.php?cid=6007598323365\np4994\nsVid\np4995\nV6007598323365\np4996\nsVimage_url\np4997\nVhttps://fbcdn-creative-a.akamaihd.net/hads-ak-prn1/s110x80/735347_6007598321765_53993_n.jpg\np4998\nsVcount_current_adgroups\np4999\nI1\nsVrun_status\np5000\nI1\nsVtype\np5001\nI1\nsVlink_url\np5002\nVhttp://ad.doubleclick.net/click;h=v2|4029|0|0|%2a|w;266257480;0-0;0;92132325;31-1|1;51989610|51950158|1;;;pc=[TPAS_ID]%3fhttp://www.buzzfeed.com/h1/fbad/bbcamerica/9-totally-bizarre-unsolved-crimes?utm_source=BuzzFeed&utm_medium=banner&utm_campaign=ripper\np5003\nsVview_tag\np5004\ng34\nsa(dp5005\nValt_view_tags\np5006\n(lp5007\nsVbody\np5008\nVSerial Killer or Cereal Inventor? See how many you can get right - Only on BuzzFeed!\np5009\nsVimage_hash\np5010\nVdaa9eaa3e95d2955602199e64ce7c6ab\np5011\nsVname\np5012\nVTake the Quiz!-00\np5013\nsVtitle\np5014\nVTake the Quiz!\np5015\nsVcreative_id\np5016\nV6007598229965\np5017\nsVpreview_url\np5018\nVhttp://www.facebook.com/ads/api/creative_preview.php?cid=6007598229965\np5019\nsVid\np5020\nV6007598229965\np5021\nsVimage_url\np5022\nVhttps://fbcdn-creative-a.akamaihd.net/hads-ak-ash3/s110x80/735301_6007598228165_43817_n.jpg\np5023\nsVcount_current_adgroups\np5024\nI1\nsVrun_status\np5025\nI1\nsVtype\np5026\nI1\nsVlink_url\np5027\nVhttp://ad.doubleclick.net/click;h=v2|4029|0|0|%2a|w;266257480;0-0;0;92132325;31-1|1;51989610|51950158|1;;;pc=[TPAS_ID]%3fhttp://www.buzzfeed.com/h1/fbad/bbcamerica/serial-killer-or-cereal-inventor?utm_source=BuzzFeed&utm_medium=banner&utm_campaign=ripper\np5028\nsVview_tag\np5029\ng34\nsa(dp5030\nValt_view_tags\np5031\n(lp5032\nsVbody\np5033\nVSerial Killer or Cereal Inventor? See how many you can get right - Only on BuzzFeed!\np5034\nsVimage_hash\np5035\nV3b56519681903da87decaa294afd0d38\np5036\nsVname\np5037\nVTake the Quiz!\np5038\nsVtitle\np5039\nVTake the Quiz!\np5040\nsVcreative_id\np5041\nV6007598214965\np5042\nsVpreview_url\np5043\nVhttp://www.facebook.com/ads/api/creative_preview.php?cid=6007598214965\np5044\nsVid\np5045\nV6007598214965\np5046\nsVimage_url\np5047\nVhttps://fbcdn-creative-a.akamaihd.net/hads-ak-ash3/s110x80/735309_6007598213965_13132_n.jpg\np5048\nsVcount_current_adgroups\np5049\nI1\nsVrun_status\np5050\nI1\nsVtype\np5051\nI1\nsVlink_url\np5052\nVhttp://ad.doubleclick.net/click;h=v2|4029|0|0|%2a|w;266257480;0-0;0;92132325;31-1|1;51989610|51950158|1;;;pc=[TPAS_ID]%3fhttp://www.buzzfeed.com/h1/fbad/bbcamerica/serial-killer-or-cereal-inventor?utm_source=BuzzFeed&utm_medium=banner&utm_campaign=ripper\np5053\nsVview_tag\np5054\ng34\nsa(dp5055\nValt_view_tags\np5056\n(lp5057\nsVbody\np5058\nVSome rules are should never be broken. See the "13 Rules You Should Follow" and learn!\np5059\nsVimage_hash\np5060\nV907f182b8790904a8bf47a71e316b34c\np5061\nsVname\np5062\nVRules For Everyone\np5063\nsVtitle\np5064\nVRules For Everyone\np5065\nsVcreative_id\np5066\nV6007598196365\np5067\nsVpreview_url\np5068\nVhttp://www.facebook.com/ads/api/creative_preview.php?cid=6007598196365\np5069\nsVid\np5070\nV6007598196365\np5071\nsVimage_url\np5072\nVhttps://fbcdn-creative-a.akamaihd.net/hads-ak-ash3/s110x80/735303_6007598124565_37759_n.jpg\np5073\nsVcount_current_adgroups\np5074\nI1\nsVrun_status\np5075\nI1\nsVtype\np5076\nI1\nsVlink_url\np5077\nVhttp://www.buzzfeed.com/h1/fbad/parkermovie/13-rules-you-should-always-follow-8c9x\np5078\nsVview_tag\np5079\ng34\nsa(dp5080\nValt_view_tags\np5081\n(lp5082\nsVbody\np5083\nVIt\'s gonna take a lot more than that! Check out "10 Examples Of Shameless Shaming" here!\np5084\nsVimage_hash\np5085\nVa98db13993fa6d8f25a02c70c28e4edb\np5086\nsVname\np5087\nVShameless Getting Shamed?\np5088\nsVtitle\np5089\nVShameless Getting Shamed?\np5090\nsVcreative_id\np5091\nV6007597819965\np5092\nsVpreview_url\np5093\nVhttp://www.facebook.com/ads/api/c'
p6
sS'hash'
p7
S'df79a03af479ef13505501f2f633b19e9968d361'
p8
sS'stack'
p9
S''
s.