(dp1
S'args'
p2
S''
sS'methodname'
p3
S''
sS'packet_num'
p4
I86
sS'returnval'
p5
S'0697\nVfcc0357c31e441002f2d3a13ed09883b\np10698\nsVname\np10699\nVDikembe to the Rescue!\np10700\nsVtitle\np10701\nVDikembe to the Rescue!\np10702\nsVcreative_id\np10703\nV6006734085365\np10704\nsVpreview_url\np10705\nVhttp://www.facebook.com/ads/api/creative_preview.php?cid=6006734085365\np10706\nsVid\np10707\nV6006734085365\np10708\nsVimage_url\np10709\nVhttps://fbcdn-creative-a.akamaihd.net/hads-ak-prn1/s110x80/708173_6006733997565_41737_n.jpg\np10710\nsVcount_current_adgroups\np10711\nI1\nsVrun_status\np10712\nI1\nsVtype\np10713\nI1\nsVlink_url\np10714\nVhttp://ad.doubleclick.net/clk;266024571;91824355;j\np10715\nsVview_tag\np10716\ng34\nsa(dp10717\nValt_view_tags\np10718\n(lp10719\nsVbody\np10720\nVHelp Dikembe Mutombo Save The World- Play the Game now on BuzzFeed!\np10721\nsVimage_hash\np10722\nVfcc0357c31e441002f2d3a13ed09883b\np10723\nsVname\np10724\nVDikembe to the Rescue!-02\np10725\nsVtitle\np10726\nVBeat This Game w/Dikembe!\np10727\nsVcreative_id\np10728\nV6007103342565\np10729\nsVpreview_url\np10730\nVhttp://www.facebook.com/ads/api/creative_preview.php?cid=6007103342565\np10731\nsVid\np10732\nV6007103342565\np10733\nsVimage_url\np10734\nVhttps://fbcdn-creative-a.akamaihd.net/hads-ak-prn1/s110x80/708173_6006733997565_41737_n.jpg\np10735\nsVcount_current_adgroups\np10736\nI1\nsVrun_status\np10737\nI1\nsVtype\np10738\nI1\nsVlink_url\np10739\nVhttp://ad.doubleclick.net/clk;266024571;91824355;j\np10740\nsVview_tag\np10741\ng34\nsa(dp10742\nValt_view_tags\np10743\n(lp10744\nsVbody\np10745\nVThe End is Near - Help Dikembe Mutombo Save The World on BuzzFeed!\np10746\nsVimage_hash\np10747\nVfcc0357c31e441002f2d3a13ed09883b\np10748\nsVname\np10749\nVDikembe to the Rescue!-01\np10750\nsVtitle\np10751\nVTry & Beat This Game!\np10752\nsVcreative_id\np10753\nV6007103321165\np10754\nsVpreview_url\np10755\nVhttp://www.facebook.com/ads/api/creative_preview.php?cid=6007103321165\np10756\nsVid\np10757\nV6007103321165\np10758\nsVimage_url\np10759\nVhttps://fbcdn-creative-a.akamaihd.net/hads-ak-prn1/s110x80/708173_6006733997565_41737_n.jpg\np10760\nsVcount_current_adgroups\np10761\nI1\nsVrun_status\np10762\nI1\nsVtype\np10763\nI1\nsVlink_url\np10764\nVhttp://ad.doubleclick.net/clk;266024571;91824355;j\np10765\nsVview_tag\np10766\ng34\nsa(dp10767\nValt_view_tags\np10768\n(lp10769\nsVbody\np10770\nVSee more amazing pictures & find out about great skiing/snowboarding locales!\np10771\nsVimage_hash\np10772\nV3bdb00125b878c3d47aa5e015701e472\np10773\nsVname\np10774\nVHeavenly Ski Resort-00\np10775\nsVtitle\np10776\nVMount Rose\np10777\nsVcreative_id\np10778\nV6007103522765\np10779\nsVpreview_url\np10780\nVhttp://www.facebook.com/ads/api/creative_preview.php?cid=6007103522765\np10781\nsVid\np10782\nV6007103522765\np10783\nsVimage_url\np10784\nVhttps://fbcdn-creative-a.akamaihd.net/hads-ak-ash3/s110x80/708167_6007103502565_63665_n.jpg\np10785\nsVcount_current_adgroups\np10786\nI2\nsVrun_status\np10787\nI1\nsVtype\np10788\nI1\nsVlink_url\np10789\nVhttp://bs.serving-sys.com/BurstingPipe/adServer.bs?cn=tf&c=20&mc=click&pli=5899163&PluID=0&ord=%n&rtu=http://www.buzzfeed.com/h1/fbad/nevada/10-skiing-pictures-that-will-make-your-heart-stop-8dgq\np10790\nsVview_tag\np10791\ng34\nsa(dp10792\nValt_view_tags\np10793\n(lp10794\nsVbody\np10795\nVSee more "Skiing Pictures That Will Make Your Heart Stop" only on BuzzFeed!\np10796\nsVimage_hash\np10797\nVa2799a2bf88a9f0302f4c7dda2fb6f99\np10798\nsVname\np10799\nVHeavenly Ski Resort\np10800\nsVtitle\np10801\nVHeavenly Ski Resort\np10802\nsVcreative_id\np10803\nV6007103488565\np10804\nsVpreview_url\np10805\nVhttp://www.facebook.com/ads/api/creative_preview.php?cid=6007103488565\np10806\nsVid\np10807\nV6007103488565\np10808\nsVimage_url\np10809\nVhttps://fbcdn-creative-a.akamaihd.net/hads-ak-prn1/s110x80/708183_6007103403765_28361_n.jpg\np10810\nsVcount_current_adgroups\np10811\nI2\nsVrun_status\np10812\nI1\nsVtype\np10813\nI1\nsVlink_url\np10814\nVhttp://bs.serving-sys.com/BurstingPipe/adServer.bs?cn=tf&c=20&mc=click&pli=5899163&PluID=0&ord=%n&rtu=http://www.buzzfeed.com/h1/fbad/nevada/10-skiing-pictures-that-will-make-your-heart-stop-8dgq\np10815\nsVview_tag\np10816\ng34\nsa(dp10817\nVname\np10818\nVAd from a Page post #6,006,787,186,965\np10819\nsVauto_update\np10820\nI00\nsVstory_id\np10821\nV413400145396714\np10822\nsVcreative_id\np10823\nV6006787186965\np1'
p6
sS'hash'
p7
S'df79a03af479ef13505501f2f633b19e9968d361'
p8
sS'stack'
p9
S''
s.