(dp1
S'args'
p2
S''
sS'methodname'
p3
S''
sS'packet_num'
p4
I47
sS'returnval'
p5
S'itle\np5864\nVLove Zooey\'s Style?\np5865\nsVcreative_id\np5866\nV6007328859365\np5867\nsVpreview_url\np5868\nVhttp://www.facebook.com/ads/api/creative_preview.php?cid=6007328859365\np5869\nsVid\np5870\nV6007328859365\np5871\nsVimage_url\np5872\nVhttps://fbcdn-creative-a.akamaihd.net/hads-ak-prn1/s110x80/735326_6007328857565_58502_n.jpg\np5873\nsVcount_current_adgroups\np5874\nI1\nsVrun_status\np5875\nI1\nsVtype\np5876\nI1\nsVlink_url\np5877\nVhttp://www.buzzfeed.com/h1/fbad/fox/the-guide-to-jess-from-new-girl-fashion\np5878\nsVview_tag\np5879\ng34\nsa(dp5880\nValt_view_tags\np5881\n(lp5882\nsVbody\np5883\nVNow you can be as cute as New Girl\'s Jess. Find out how you can get her wardrobe here!\np5884\nsVimage_hash\np5885\nV05d397fde7dd27e7b6d0773f7caf3df6\np5886\nsVname\np5887\nVLove Zooey\'s Style?-00\np5888\nsVtitle\np5889\nVLove Zooey\'s Style?\np5890\nsVcreative_id\np5891\nV6007328837565\np5892\nsVpreview_url\np5893\nVhttp://www.facebook.com/ads/api/creative_preview.php?cid=6007328837565\np5894\nsVid\np5895\nV6007328837565\np5896\nsVimage_url\np5897\nVhttps://fbcdn-creative-a.akamaihd.net/hads-ak-prn1/s110x80/735358_6007328661165_52587_n.jpg\np5898\nsVcount_current_adgroups\np5899\nI1\nsVrun_status\np5900\nI1\nsVtype\np5901\nI1\nsVlink_url\np5902\nVhttp://www.buzzfeed.com/h1/fbad/fox/the-guide-to-jess-from-new-girl-fashion\np5903\nsVview_tag\np5904\ng34\nsa(dp5905\nValt_view_tags\np5906\n(lp5907\nsVbody\np5908\nVNow you can be as cute as New Girl\'s Jess. Find out how you can get her wardrobe here!\np5909\nsVimage_hash\np5910\nV37be55491e8221ae41f70a2ba60cf7f7\np5911\nsVname\np5912\nVLove Zooey\'s Style?-00-00\np5913\nsVtitle\np5914\nVLove Zooey\'s Style?\np5915\nsVcreative_id\np5916\nV6007328850765\np5917\nsVpreview_url\np5918\nVhttp://www.facebook.com/ads/api/creative_preview.php?cid=6007328850765\np5919\nsVid\np5920\nV6007328850765\np5921\nsVimage_url\np5922\nVhttps://fbcdn-creative-a.akamaihd.net/hads-ak-ash3/s110x80/735348_6007328847965_29986_n.jpg\np5923\nsVcount_current_adgroups\np5924\nI1\nsVrun_status\np5925\nI1\nsVtype\np5926\nI1\nsVlink_url\np5927\nVhttp://www.buzzfeed.com/h1/fbad/fox/the-guide-to-jess-from-new-girl-fashion\np5928\nsVview_tag\np5929\ng34\nsa(dp5930\nValt_view_tags\np5931\n(lp5932\nsVbody\np5933\nVThere\'s more than meets the eye. See "The Subtext Of That Photo You Shared At The Bar!" \np5934\nsVimage_hash\np5935\nVea35db012adaaef542957726e3b0fae4\np5936\nsVname\np5937\nVAnalayze that Instagram-00-00\np5938\nsVtitle\np5939\nVBar Photos Analyzed\np5940\nsVcreative_id\np5941\nV6007504189565\np5942\nsVpreview_url\np5943\nVhttp://www.facebook.com/ads/api/creative_preview.php?cid=6007504189565\np5944\nsVid\np5945\nV6007504189565\np5946\nsVimage_url\np5947\nVhttps://fbcdn-creative-a.akamaihd.net/hads-ak-prn1/s110x80/735360_6007504186765_10881_n.jpg\np5948\nsVcount_current_adgroups\np5949\nI1\nsVrun_status\np5950\nI1\nsVtype\np5951\nI1\nsVlink_url\np5952\nVhttp://ad.doubleclick.net/clk;266629037;92602821;k\np5953\nsVview_tag\np5954\ng34\nsa(dp5955\nValt_view_tags\np5956\n(lp5957\nsVbody\np5958\nVThink that\'s crazy? Check out "10 Food Sculptures Too Incredible To Eat" on BuzzFeed!\np5959\nsVimage_hash\np5960\nVec4ff4c5dda168fe85c34d9278ce8fe8\np5961\nsVname\np5962\nVCheese Henge?\np5963\nsVtitle\np5964\nVCheese Henge?\np5965\nsVcreative_id\np5966\nV6007503458165\np5967\nsVpreview_url\np5968\nVhttp://www.facebook.com/ads/api/creative_preview.php?cid=6007503458165\np5969\nsVid\np5970\nV6007503458165\np5971\nsVimage_url\np5972\nVhttps://fbcdn-creative-a.akamaihd.net/hads-ak-prn1/s110x80/735352_6007503412165_28661_n.jpg\np5973\nsVcount_current_adgroups\np5974\nI1\nsVrun_status\np5975\nI1\nsVtype\np5976\nI1\nsVlink_url\np5977\nVhttp://ad.doubleclick.net/clk;266368181;92278783;a?http://www.buzzfeed.com/h1/fbad/pillsbury/10-food-sculptures-too-incredible-to-eat-2pec\np5978\nsVview_tag\np5979\ng34\nsa(dp5980\nValt_view_tags\np5981\n(lp5982\nsVbody\np5983\nVCheck out a few ways to get some laughs (or cries) out of your kids, Kimmel style.\np5984\nsVimage_hash\np5985\nVb56f125ce0cc26a9eadd3cfbd467cbfc\np5986\nsVname\np5987\nVPrank Your Children!\np5988\nsVtitle\np5989\nVPrank Your Children!\np5990\nsVcreative_id\np5991\nV6007487985965\np5992\nsVpreview_url\np5993\nVhttp://www.facebook.com/ads/api/creative_preview.php?cid=6007487985965\np5994\nsVid\np5995\nV6007487985965\np5996\nsVimage_'
p6
sS'hash'
p7
S'df79a03af479ef13505501f2f633b19e9968d361'
p8
sS'stack'
p9
S''
s.