(dp1
S'args'
p2
S''
sS'methodname'
p3
S''
sS'packet_num'
p4
I37
sS'returnval'
p5
S'6286\np4615\nsVaction.type\np4616\nVlike\np4617\nsa(dp4618\nVpost\np4619\nV454564371276286\np4620\nsVaction.type\np4621\nVcomment\np4622\nsa(dp4623\nVpost.object\np4624\nV454564371276286\np4625\nsVaction.type\np4626\nVpost\np4627\nsasVcluster_id\np4628\nI6007531694165\nsVcount_current_adgroups\np4629\nI1\nsVrun_status\np4630\nI1\nsVtype\np4631\nI25\nsVid\np4632\nV6007531698365\np4633\nsa(dp4634\nVname\np4635\nVAd from a Page post #6,007,531,696,165\np4636\nsVauto_update\np4637\nI00\nsVurl_tags\np4638\ng34\nsVcreative_id\np4639\nV6007531696165\np4640\nsVcount_current_adgroups\np4641\nI1\nsVpreview_url\np4642\nVhttp://www.facebook.com/ads/api/creative_preview.php?cid=6007531696165\np4643\nsVobject_id\np4644\nV238205562866018\np4645\nsVaction_spec\np4646\nNsVstory_id\np4647\nV454564371276286\np4648\nsVrun_status\np4649\nI1\nsVtype\np4650\nI27\nsVid\np4651\nV6007531696165\np4652\nsVaction_t\np4653\nVBgABAQcIAAZQ5yOSCgAJAAAAAImt0MwKABAAANiljfVJYg0AGgYKAAAADwEKAAAAAAAAAFADAQAAAAAAAANUAwIAAAAAAAAARAC4AAGdbIPgof4AuQAAAAAAAABkALoAARlyfE3bXwIjAAAAAAAAAAgDAAAAAAAAAAACAGUAAAAAAAAAAQDDAAAAT1RSNB4BuwAAAAAAAABqAAoAAAAAia3QzAABAAGdbIPgof4BtgAAAABQ5yOSAeQAAZ1sg+Ch/g0AGwYLAAAAAUADAAABB01vdmllIG92ZXIgSG9sbHl3b29kLCBhbmQgbWFrZSB3YXkgZm9yIFRWISBEbyB5b3UgYWdyZWU/IGh0dHA6Ly9iemZkLml0L1VvcGQ3cyBvb29vbyAxMSBSZWFzb25zIFdoeSBUViBTaG93cyBBcmUgVGhlIE5ldyBNb3ZpZXMgb29vb28gTW92aWUgb3ZlciBIb2xseXdvb2QsIGFuZCBtYWtlIHdheSBmb3IgVFYhIENhdGNoIGFsbCB5b3VyIGZhdm9yaXRlIHNob3dzIGluIG9uZSBzcG90IHVzaW5nIFRpbWUgV2FybmVyIENhYmxlJ3MgbmV3IFNvY2lhbCBPbmUgQXBwCgAcAAGdbIPgof4A\np4654\nsa(dp4655\nValt_view_tags\np4656\n(lp4657\nsVbody\np4658\nVSee More Insane Stock Image Concepts No One Should Ever Use - Only on BuzzFeed!\np4659\nsVimage_hash\np4660\nV109b4854b647b70b5b04c8db2994280d\np4661\nsVname\np4662\nVThis Handy Hand...-00\np4663\nsVtitle\np4664\nVThis Scary Nurse-Clown\np4665\nsVcreative_id\np4666\nV6007599354765\np4667\nsVpreview_url\np4668\nVhttp://www.facebook.com/ads/api/creative_preview.php?cid=6007599354765\np4669\nsVid\np4670\nV6007599354765\np4671\nsVimage_url\np4672\nVhttps://fbcdn-creative-a.akamaihd.net/hads-ak-prn1/s110x80/735328_6007599345565_7293_n.jpg\np4673\nsVcount_current_adgroups\np4674\nI1\nsVrun_status\np4675\nI1\nsVtype\np4676\nI1\nsVlink_url\np4677\nVhttp://ad.doubleclick.net/clk;266123085;91730184;f;pc=[TPAS_ID]?http://www.buzzfeed.com/h1/fbad/tacobell/insane-stock-image-concepts-no-one-should-ever-use-10az\np4678\nsVview_tag\np4679\ng34\nsa(dp4680\nValt_view_tags\np4681\n(lp4682\nsVbody\np4683\nVSee More Insane Stock Image Concepts No One Should Ever Use - Only on BuzzFeed!\np4684\nsVimage_hash\np4685\nV1607f08b0991f53a649935e4b75930a0\np4686\nsVname\np4687\nVThis Handy Hand...\np4688\nsVtitle\np4689\nVThis Handy Hand...\np4690\nsVcreative_id\np4691\nV6007599315365\np4692\nsVpreview_url\np4693\nVhttp://www.facebook.com/ads/api/creative_preview.php?cid=6007599315365\np4694\nsVid\np4695\nV6007599315365\np4696\nsVimage_url\np4697\nVhttps://fbcdn-creative-a.akamaihd.net/hads-ak-ash3/s110x80/735302_6007599236365_41899_n.jpg\np4698\nsVcount_current_adgroups\np4699\nI1\nsVrun_status\np4700\nI1\nsVtype\np4701\nI1\nsVlink_url\np4702\nVhttp://ad.doubleclick.net/clk;266123085;91730184;f;pc=[TPAS_ID]?http://www.buzzfeed.com/h1/fbad/tacobell/insane-stock-image-concepts-no-one-should-ever-use-10az\np4703\nsVview_tag\np4704\ng34\nsa(dp4705\nValt_view_tags\np4706\n(lp4707\nsVbody\np4708\nVJust One of the "10 Small Fictional Cities w/Big Problems" - See them all on BuzzFeed!\np4709\nsVimage_hash\np4710\nV961d08b53f691ede8b7e98c6487ee872\np4711\nsVname\np4712\nVSilent Hill-00\np4713\nsVtitle\np4714\nVWelcome to Silent Hill...\np4715\nsVcreative_id\np4716\nV6007597198765\np4717\nsVpreview_url\np4718\nVhttp://www.facebook.com/ads/api/creative_preview.php?cid=6007597198765\np4719\nsVid\np4720\nV6007597198765\np4721\nsVimage_url\np4722\nVhttps://fbcdn-creative-a.akamaihd.net/hads-ak-prn1/s110x80/735336_6007597142765_2227_n.jpg\np4723\nsVcount_current_adgroups\np4724\nI1\nsVrun_status\np4725\nI1\nsVtype\np4726\nI1\nsVlink_url\np4727\nVhttp://www.buzzfeed.com/h1/fbad/banshee/10-small-fictional-cities-with-big-fictional-probl\np4728\nsVview_tag\np4729\ng34\nsa(dp4730\nValt_view_tags\np4731\n(lp4732\nsVbody\np4733\nVStadiums made of snacks? Why not! Check out "The 15 Greatest Snackadiums On The Internet!"\np4'
p6
sS'hash'
p7
S'df79a03af479ef13505501f2f633b19e9968d361'
p8
sS'stack'
p9
S''
s.