(dp1
S'args'
p2
S''
sS'methodname'
p3
S''
sS'packet_num'
p4
I99
sS'returnval'
p5
S'_id\np12356\nV6006754263165\np12357\nsVpreview_url\np12358\nVhttp://www.facebook.com/ads/api/creative_preview.php?cid=6006754263165\np12359\nsVid\np12360\nV6006754263165\np12361\nsVimage_url\np12362\nVhttps://fbcdn-creative-a.akamaihd.net/hads-ak-prn1/s110x80/708178_6006754206765_57441_n.jpg\np12363\nsVcount_current_adgroups\np12364\nI1\nsVrun_status\np12365\nI1\nsVtype\np12366\nI1\nsVlink_url\np12367\nVhttp://ad.doubleclick.net/clk;266017873;91816160;l\np12368\nsVview_tag\np12369\ng34\nsa(dp12370\nValt_view_tags\np12371\n(lp12372\nsVbody\np12373\nVBy David Bowie & Bing Crosby. Check out more "Holiday Cover Songs By Unexpected Bands"\np12374\nsVimage_hash\np12375\nVde062b5f97bd2d99d3baf70a84d0ee43\np12376\nsVname\np12377\nV"Silent Night" by Weezer-00-00\np12378\nsVtitle\np12379\nV"The Little Drummer Boy"\np12380\nsVcreative_id\np12381\nV6006754429765\np12382\nsVpreview_url\np12383\nVhttp://www.facebook.com/ads/api/creative_preview.php?cid=6006754429765\np12384\nsVid\np12385\nV6006754429765\np12386\nsVimage_url\np12387\nVhttps://fbcdn-creative-a.akamaihd.net/hads-ak-ash3/s110x80/708199_6006754279165_2113_n.jpg\np12388\nsVcount_current_adgroups\np12389\nI1\nsVrun_status\np12390\nI1\nsVtype\np12391\nI1\nsVlink_url\np12392\nVhttp://ad.doubleclick.net/clk;266017873;91816160;l\np12393\nsVview_tag\np12394\ng34\nsa(dp12395\nValt_view_tags\np12396\n(lp12397\nsVbody\np12398\nVJust One of the "10 Holiday Cover Songs By Unexpected Bands" - See them all on BuzzFeed!\np12399\nsVimage_hash\np12400\nV5cfc3f3c5b8ab803c5887ea929a28d57\np12401\nsVname\np12402\nV"Silent Night" by Weezer\np12403\nsVtitle\np12404\nV"Silent Night" by Weezer\np12405\nsVcreative_id\np12406\nV6006754186365\np12407\nsVpreview_url\np12408\nVhttp://www.facebook.com/ads/api/creative_preview.php?cid=6006754186365\np12409\nsVid\np12410\nV6006754186365\np12411\nsVimage_url\np12412\nVhttps://fbcdn-creative-a.akamaihd.net/hads-ak-prn1/s110x80/708179_6006754100165_43506_n.jpg\np12413\nsVcount_current_adgroups\np12414\nI1\nsVrun_status\np12415\nI1\nsVtype\np12416\nI1\nsVlink_url\np12417\nVhttp://ad.doubleclick.net/clk;266017873;91816160;l\np12418\nsVview_tag\np12419\ng34\nsa(dp12420\nValt_view_tags\np12421\n(lp12422\nsVbody\np12423\nVFeast Your Eyes on the "15 Holiday Foods We Wish Were Around All Year" - Only on BuzzFeed!\np12424\nsVimage_hash\np12425\nVeb87d654b4670a12773967de69e9cf54\np12426\nsVname\np12427\nVBuche de Noel-00\np12428\nsVtitle\np12429\nVHoliday Eggnog\np12430\nsVcreative_id\np12431\nV6006753559565\np12432\nsVpreview_url\np12433\nVhttp://www.facebook.com/ads/api/creative_preview.php?cid=6006753559565\np12434\nsVid\np12435\nV6006753559565\np12436\nsVimage_url\np12437\nVhttps://fbcdn-creative-a.akamaihd.net/hads-ak-prn1/s110x80/708194_6006753522765_26888_n.jpg\np12438\nsVcount_current_adgroups\np12439\nI1\nsVrun_status\np12440\nI1\nsVtype\np12441\nI1\nsVlink_url\np12442\nVhttp://ad.doubleclick.net/clk;266017902;91816177;m\np12443\nsVview_tag\np12444\ng34\nsa(dp12445\nValt_view_tags\np12446\n(lp12447\nsVbody\np12448\nVFeast Your Eyes on the "15 Holiday Foods We Wish Were Around All Year" - Only on BuzzFeed!\np12449\nsVimage_hash\np12450\nV6bc003069cb4d28d29765cd6c53dbe2e\np12451\nsVname\np12452\nVBuche de Noel\np12453\nsVtitle\np12454\nVBuche de Noel\np12455\nsVcreative_id\np12456\nV6006753508165\np12457\nsVpreview_url\np12458\nVhttp://www.facebook.com/ads/api/creative_preview.php?cid=6006753508165\np12459\nsVid\np12460\nV6006753508165\np12461\nsVimage_url\np12462\nVhttps://fbcdn-creative-a.akamaihd.net/hads-ak-ash3/s110x80/701892_6006753442965_49470_n.jpg\np12463\nsVcount_current_adgroups\np12464\nI1\nsVrun_status\np12465\nI1\nsVtype\np12466\nI1\nsVlink_url\np12467\nVhttp://ad.doubleclick.net/clk;266017902;91816177;m\np12468\nsVview_tag\np12469\ng34\nsa(dp12470\nValt_view_tags\np12471\n(lp12472\nsVbody\np12473\nVJust One of "The 8 Most Awesome Old School Basketball Video Games" - Check them out!\np12474\nsVimage_hash\np12475\nV56b04f00a668cbf12d9baf4e5c4a7f8c\np12476\nsVname\np12477\nVDikembe to the Rescue!-00\np12478\nsVtitle\np12479\nVPat Riley Basketball\np12480\nsVcreative_id\np12481\nV6006750642965\np12482\nsVpreview_url\np12483\nVhttp://www.facebook.com/ads/api/creative_preview.php?cid=6006750642965\np12484\nsVid\np12485\nV6006750642965\np12486\nsVimage_url\np12487\nVhttps://fbcdn-creative-a.akamaihd.net/hads-ak-prn1/s11'
p6
sS'hash'
p7
S'df79a03af479ef13505501f2f633b19e9968d361'
p8
sS'stack'
p9
S''
s.