(dp1
S'args'
p2
S''
sS'methodname'
p3
S''
sS'packet_num'
p4
I35
sS'returnval'
p5
S'\nsVlink_url\np4378\nVhttp://ad.doubleclick.net/clk;266976723;92922096;a\np4379\nsVview_tag\np4380\ng34\nsa(dp4381\nValt_view_tags\np4382\n(lp4383\nsVbody\np4384\nVIt\'s one of the 15 Toys From Our Childhood That Were Way Too Good To Share - See them all!\np4385\nsVimage_hash\np4386\nVeb28d57170054e45789e6ce469ffbb5d\np4387\nsVname\np4388\nVRemember This Game?-00\np4389\nsVtitle\np4390\nVEtch A Sketch!\np4391\nsVcreative_id\np4392\nV6007603019565\np4393\nsVpreview_url\np4394\nVhttp://www.facebook.com/ads/api/creative_preview.php?cid=6007603019565\np4395\nsVid\np4396\nV6007603019565\np4397\nsVimage_url\np4398\nVhttps://fbcdn-creative-a.akamaihd.net/hads-ak-prn1/s110x80/735331_6007603000165_13963_n.jpg\np4399\nsVcount_current_adgroups\np4400\nI1\nsVrun_status\np4401\nI1\nsVtype\np4402\nI1\nsVlink_url\np4403\nVhttp://ad.doubleclick.net/clk;266123085;91730184;f;pc=[TPAS_ID]?http://www.buzzfeed.com/h1/fbad/tacobell/15-toys-from-our-chidlhood-that-were-way-to-good-t-10az\np4404\nsVview_tag\np4405\ng34\nsa(dp4406\nValt_view_tags\np4407\n(lp4408\nsVbody\np4409\nVIt\'s one of the 15 Toys From Our Childhood That Were Way Too Good To Share - See them all!\np4410\nsVimage_hash\np4411\nV649f102eaa74577c93c89896c4be835d\np4412\nsVname\np4413\nVRemember This Game?\np4414\nsVtitle\np4415\nVRemember This Game?\np4416\nsVcreative_id\np4417\nV6007602990165\np4418\nsVpreview_url\np4419\nVhttp://www.facebook.com/ads/api/creative_preview.php?cid=6007602990165\np4420\nsVid\np4421\nV6007602990165\np4422\nsVimage_url\np4423\nVhttps://fbcdn-creative-a.akamaihd.net/hads-ak-prn1/s110x80/735362_6007602954965_24030_n.jpg\np4424\nsVcount_current_adgroups\np4425\nI1\nsVrun_status\np4426\nI1\nsVtype\np4427\nI1\nsVlink_url\np4428\nVhttp://ad.doubleclick.net/clk;266123085;91730184;f;pc=[TPAS_ID]?http://www.buzzfeed.com/h1/fbad/tacobell/15-toys-from-our-chidlhood-that-were-way-to-good-t-10az\np4429\nsVview_tag\np4430\ng34\nsa(dp4431\nValt_view_tags\np4432\n(lp4433\nsVbody\np4434\nVCheck out "Our Favorite Moments From Shameless Thus Far" and get ready for Season 3!\np4435\nsVimage_hash\np4436\nV7a957b006933c36fba67eb3b1c2d354d\np4437\nsVname\np4438\nVGotta Love Shameless-00\np4439\nsVtitle\np4440\nVGotta Love Shameless\np4441\nsVcreative_id\np4442\nV6007601179765\np4443\nsVpreview_url\np4444\nVhttp://www.facebook.com/ads/api/creative_preview.php?cid=6007601179765\np4445\nsVid\np4446\nV6007601179765\np4447\nsVimage_url\np4448\nVhttps://fbcdn-creative-a.akamaihd.net/hads-ak-prn1/s110x80/735347_6007601169165_12915_n.jpg\np4449\nsVcount_current_adgroups\np4450\nI1\nsVrun_status\np4451\nI1\nsVtype\np4452\nI1\nsVlink_url\np4453\nVhttp://www.buzzfeed.com/h1/fbad/shameless/our-favorite-moments-from-shameless-thus-far\np4454\nsVview_tag\np4455\ng34\nsa(dp4456\nValt_view_tags\np4457\n(lp4458\nsVbody\np4459\nVIn the age of sharing everything, there are some things you shouldn\'t- Check them out!\np4460\nsVimage_hash\np4461\nVa1ca4d9780de222840a2b0e7d000df3a\np4462\nsVname\np4463\nV15 Regrettable Instagrams-00-00\np4464\nsVtitle\np4465\nV15 Regrettable Instagrams\np4466\nsVcreative_id\np4467\nV6007601090965\np4468\nsVpreview_url\np4469\nVhttp://www.facebook.com/ads/api/creative_preview.php?cid=6007601090965\np4470\nsVid\np4471\nV6007601090965\np4472\nsVimage_url\np4473\nVhttps://fbcdn-creative-a.akamaihd.net/hads-ak-prn1/s110x80/735331_6007601088165_61059_n.jpg\np4474\nsVcount_current_adgroups\np4475\nI1\nsVrun_status\np4476\nI1\nsVtype\np4477\nI1\nsVlink_url\np4478\nVhttp://ad.doubleclick.net/clk;266540055;91014478;g;pc=[TPAS_ID]?http://www.buzzfeed.com/h1/fbad/hbo/15-instagrams-that-girls-will-surely-regret-587n\np4479\nsVview_tag\np4480\ng34\nsa(dp4481\nValt_view_tags\np4482\n(lp4483\nsVbody\np4484\nVIn the age of sharing everything, there are some things you shouldn\'t- Check them out!\np4485\nsVimage_hash\np4486\nVfaafc8197e00d08b1e502b946945ce8f\np4487\nsVname\np4488\nV15 Regrettable Instagrams\np4489\nsVtitle\np4490\nV15 Regrettable Instagrams\np4491\nsVcreative_id\np4492\nV6007601065165\np4493\nsVpreview_url\np4494\nVhttp://www.facebook.com/ads/api/creative_preview.php?cid=6007601065165\np4495\nsVid\np4496\nV6007601065165\np4497\nsVimage_url\np4498\nVhttps://fbcdn-creative-a.akamaihd.net/hads-ak-ash3/s110x80/735349_6007601012765_27622_n.jpg\np4499\nsVcount_current_adgroups\np4500\nI1\nsVrun_status\np4501\nI1\nsVtype\np'
p6
sS'hash'
p7
S'df79a03af479ef13505501f2f633b19e9968d361'
p8
sS'stack'
p9
S''
s.