(dp1
S'args'
p2
S''
sS'methodname'
p3
S''
sS'packet_num'
p4
I8
sS'returnval'
p5
S'74199565\np1049\nsVid\np1050\nV6007874199565\np1051\nsVimage_url\np1052\nVhttps://fbcdn-creative-a.akamaihd.net/hads-ak-ash3/s110x80/735303_6007874196765_4700_n.jpg\np1053\nsVcount_current_adgroups\np1054\nI1\nsVrun_status\np1055\nI1\nsVtype\np1056\nI1\nsVlink_url\np1057\nVhttp://www.buzzfeed.com/h1/fbad/samsungcamera/a-cats-guide-to-nyc-7uaw\np1058\nsVview_tag\np1059\ng34\nsa(dp1060\nValt_view_tags\np1061\n(lp1062\nsVbody\np1063\nVCelebrate John McClane & his most badass moments, in GIF form - Only on BuzzFeed!\np1064\nsVimage_hash\np1065\nVfb2855cf955d9a18b73b02842ff6bbaf\np1066\nsVname\np1067\nV15 Badass Die Hard Gifs-00\np1068\nsVtitle\np1069\nV15 Badass Die Hard Gifs\np1070\nsVcreative_id\np1071\nV6007868183565\np1072\nsVpreview_url\np1073\nVhttp://www.facebook.com/ads/api/creative_preview.php?cid=6007868183565\np1074\nsVid\np1075\nV6007868183565\np1076\nsVimage_url\np1077\nVhttps://fbcdn-creative-a.akamaihd.net/hads-ak-prn1/s110x80/735331_6007868181965_46665_n.png\np1078\nsVcount_current_adgroups\np1079\nI1\nsVrun_status\np1080\nI1\nsVtype\np1081\nI1\nsVlink_url\np1082\nVhttp://www.buzzfeed.com/h1/fbad/mikesharderlemonade/the-15-most-badass-die-hard-gifs-8p2l\np1083\nsVview_tag\np1084\ng34\nsa(dp1085\nValt_view_tags\np1086\n(lp1087\nsVbody\np1088\nVCelebrate John McClane & his most badass moments, in GIF form - Only on BuzzFeed!\np1089\nsVimage_hash\np1090\nV11c815244e8e719795a5a3027dd1a188\np1091\nsVname\np1092\nV15 Badass Die Hard Gifs-00-00\np1093\nsVtitle\np1094\nV15 Badass Die Hard Gifs\np1095\nsVcreative_id\np1096\nV6007868192765\np1097\nsVpreview_url\np1098\nVhttp://www.facebook.com/ads/api/creative_preview.php?cid=6007868192765\np1099\nsVid\np1100\nV6007868192765\np1101\nsVimage_url\np1102\nVhttps://fbcdn-creative-a.akamaihd.net/hads-ak-ash3/s110x80/735306_6007868190165_46038_n.png\np1103\nsVcount_current_adgroups\np1104\nI1\nsVrun_status\np1105\nI1\nsVtype\np1106\nI1\nsVlink_url\np1107\nVhttp://www.buzzfeed.com/h1/fbad/mikesharderlemonade/the-15-most-badass-die-hard-gifs-8p2l\np1108\nsVview_tag\np1109\ng34\nsa(dp1110\nValt_view_tags\np1111\n(lp1112\nsVbody\np1113\nVCelebrate John McClane & his most badass moments, in GIF form - Only on BuzzFeed!\np1114\nsVimage_hash\np1115\nVed2b08c4df5763d3f454ecb33cc8430c\np1116\nsVname\np1117\nV15 Badass Die Hard Gifs\np1118\nsVtitle\np1119\nV15 Badass Die Hard Gifs\np1120\nsVcreative_id\np1121\nV6007868174165\np1122\nsVpreview_url\np1123\nVhttp://www.facebook.com/ads/api/creative_preview.php?cid=6007868174165\np1124\nsVid\np1125\nV6007868174165\np1126\nsVimage_url\np1127\nVhttps://fbcdn-creative-a.akamaihd.net/hads-ak-ash3/s110x80/735309_6007868121365_50227_n.png\np1128\nsVcount_current_adgroups\np1129\nI1\nsVrun_status\np1130\nI1\nsVtype\np1131\nI1\nsVlink_url\np1132\nVhttp://www.buzzfeed.com/h1/fbad/mikesharderlemonade/the-15-most-badass-die-hard-gifs-8p2l\np1133\nsVview_tag\np1134\ng34\nsa(dp1135\nValt_view_tags\np1136\n(lp1137\nsVbody\np1138\nVTake notes, these people are doing it right. Check out "11 People Paying It Forward" here!\np1139\nsVimage_hash\np1140\nV95b89c61aaaded1d0b55ca7b6df5fb2b\np1141\nsVname\np1142\nVPaying It Forward-00\np1143\nsVtitle\np1144\nVPaying It Forward!\np1145\nsVcreative_id\np1146\nV6007847578765\np1147\nsVpreview_url\np1148\nVhttp://www.facebook.com/ads/api/creative_preview.php?cid=6007847578765\np1149\nsVid\np1150\nV6007847578765\np1151\nsVimage_url\np1152\nVhttps://fbcdn-creative-a.akamaihd.net/hads-ak-prn1/s110x80/735353_6007847568365_27199_n.png\np1153\nsVcount_current_adgroups\np1154\nI1\nsVrun_status\np1155\nI1\nsVtype\np1156\nI1\nsVlink_url\np1157\nVhttp://mm.sitecompass.com/BurstingPipe/adServer.bs?cn=tf&c=20&mc=click&pli=6099528&PluID=0&ord=%n&rtu=http://www.buzzfeed.com/h1/fbad/archetypeme/11-people-paying-it-forward\np1158\nsVview_tag\np1159\ng34\nsa(dp1160\nValt_view_tags\np1161\n(lp1162\nsVbody\np1163\nVWanna see some awesome photography? Check out these awesome instagrammers and find more.\np1164\nsVimage_hash\np1165\nV70ab5cb7b1eaca4667f3409b066dc12f\np1166\nsVname\np1167\nVMust Follow Instagrammers-00\np1168\nsVtitle\np1169\nVMust Follow Instagrammers\np1170\nsVcreative_id\np1171\nV6007847541765\np1172\nsVpreview_url\np1173\nVhttp://www.facebook.com/ads/api/creative_preview.php?cid=6007847541765\np1174\nsVid\np1175\nV6007847541765\np1176\nsVimage_url\np1177\nVhttps://fbcdn-creative'
p6
sS'hash'
p7
S'df79a03af479ef13505501f2f633b19e9968d361'
p8
sS'stack'
p9
S''
s.