(dp1
S'args'
p2
S''
sS'methodname'
p3
S''
sS'packet_num'
p4
I21
sS'returnval'
p5
S'com/ads/api/creative_preview.php?cid=6007694833365\np2645\nsVid\np2646\nV6007694833365\np2647\nsVimage_url\np2648\nVhttps://fbcdn-creative-a.akamaihd.net/hads-ak-prn1/s110x80/735316_6007694790565_4643_n.png\np2649\nsVcount_current_adgroups\np2650\nI2\nsVrun_status\np2651\nI1\nsVtype\np2652\nI1\nsVlink_url\np2653\nVhttp://ad.doubleclick.net/clk;266123085;91730184;f;pc=[TPAS_ID]?http://www.buzzfeed.com/h1/fbad/tacobell/13-tweets-that-shouldve-never-been-shared\np2654\nsVview_tag\np2655\ng34\nsa(dp2656\nValt_view_tags\np2657\n(lp2658\nsVbody\np2659\nVSome people just don\'t know when to keep things to themselves, especially on Facebook.\np2660\nsVimage_hash\np2661\nV4295adca5c203e317ac761b953a5ed32\np2662\nsVname\np2663\nVThe Worst FB Statuses\np2664\nsVtitle\np2665\nVThe Worst FB Statuses\np2666\nsVcreative_id\np2667\nV6007694670565\np2668\nsVpreview_url\np2669\nVhttp://www.facebook.com/ads/api/creative_preview.php?cid=6007694670565\np2670\nsVid\np2671\nV6007694670565\np2672\nsVimage_url\np2673\nVhttps://fbcdn-creative-a.akamaihd.net/hads-ak-ash3/s110x80/735347_6007694613965_61678_n.png\np2674\nsVcount_current_adgroups\np2675\nI2\nsVrun_status\np2676\nI1\nsVtype\np2677\nI1\nsVlink_url\np2678\nVhttp://ad.doubleclick.net/clk;266123085;91730184;f;pc=[TPAS_ID]?http://www.buzzfeed.com/h1/fbad/tacobell/the-worst-fb-statuses-no-one-should-share-again\np2679\nsVview_tag\np2680\ng34\nsa(dp2681\nValt_view_tags\np2682\n(lp2683\nsVbody\np2684\nVJust one of the "15 Reasons Why Toys In The 90s Were Just Plain Better!" Check out more!\np2685\nsVimage_hash\np2686\nV344a4cb9840d47f6088087aad068d705\np2687\nsVname\np2688\nVOnly 151 Pokemon!\np2689\nsVtitle\np2690\nVOnly 151 Pokemon!\np2691\nsVcreative_id\np2692\nV6007694514565\np2693\nsVpreview_url\np2694\nVhttp://www.facebook.com/ads/api/creative_preview.php?cid=6007694514565\np2695\nsVid\np2696\nV6007694514565\np2697\nsVimage_url\np2698\nVhttps://fbcdn-creative-a.akamaihd.net/hads-ak-prn1/s110x80/735347_6007694423565_43460_n.png\np2699\nsVcount_current_adgroups\np2700\nI3\nsVrun_status\np2701\nI1\nsVtype\np2702\nI1\nsVlink_url\np2703\nVhttp://ad.doubleclick.net/clk;267179552;91565483;y?http://www.buzzfeed.com/h1/fbad/kingofthenerds/15-reasons-why-toys-in-the-90s-were-just-plain-bet-77y5\np2704\nsVview_tag\np2705\ng34\nsa(dp2706\nValt_view_tags\np2707\n(lp2708\nsVbody\np2709\nVCheck out the "12 Things You\'ll Learn When You Visit The Hoover Dam" from our NV Road Trip\np2710\nsVimage_hash\np2711\nVfbb5652c7362b4d4206c2d478f8fc662\np2712\nsVname\np2713\nVGreetings from Nevada!\np2714\nsVtitle\np2715\nVGreetings from Nevada!\np2716\nsVcreative_id\np2717\nV6007692004765\np2718\nsVpreview_url\np2719\nVhttp://www.facebook.com/ads/api/creative_preview.php?cid=6007692004765\np2720\nsVid\np2721\nV6007692004765\np2722\nsVimage_url\np2723\nVhttps://fbcdn-creative-a.akamaihd.net/hads-ak-ash3/s110x80/735298_6007692003365_47653_n.jpg\np2724\nsVcount_current_adgroups\np2725\nI6\nsVrun_status\np2726\nI1\nsVtype\np2727\nI1\nsVlink_url\np2728\nVhttp://bs.serving-sys.com/BurstingPipe/adServer.bs?cn=tf&c=20&mc=click&pli=5899163&PluID=0&ord=%n&rtu=http://www.buzzfeed.com/h1/fbad/nevada/11-things-youll-learn-when-you-visit-the-hoover-d\np2729\nsVview_tag\np2730\ng34\nsa(dp2731\nValt_view_tags\np2732\n(lp2733\nsVbody\np2734\nVJust one of the "21 Awesome Things That You Can Do Because You\'re An Adult" -See them all!\np2735\nsVimage_hash\np2736\nV9dea00e3a8264f97a64de1b31f01ace7\np2737\nsVname\np2738\nVJunk Food for Breakfast?\np2739\nsVtitle\np2740\nVJunk Food for Breakfast?\np2741\nsVcreative_id\np2742\nV6007675415565\np2743\nsVpreview_url\np2744\nVhttp://www.facebook.com/ads/api/creative_preview.php?cid=6007675415565\np2745\nsVid\np2746\nV6007675415565\np2747\nsVimage_url\np2748\nVhttps://fbcdn-creative-a.akamaihd.net/hads-ak-ash3/s110x80/735305_6007675387965_44493_n.png\np2749\nsVcount_current_adgroups\np2750\nI1\nsVrun_status\np2751\nI1\nsVtype\np2752\nI1\nsVlink_url\np2753\nVhttp://bs.serving-sys.com/BurstingPipe/adServer.bs?cn=tf&c=20&mc=click&pli=6053855&PluID=0&ord=%n&rtu=http://www.buzzfeed.com/h1/fbad/comedycentral/21-awesome-things-that-you-can-do-because-youre-a\np2754\nsVview_tag\np2755\ng34\nsa(dp2756\nValt_view_tags\np2757\n(lp2758\nsVbody\np2759\nVIf you like that, then you\'ll love the "15 Pets Dressed Up As Superheroes" on BuzzFeed!\n'
p6
sS'hash'
p7
S'df79a03af479ef13505501f2f633b19e9968d361'
p8
sS'stack'
p9
S''
s.