(dp1
S'args'
p2
S'(t.'
p3
sS'methodname'
p4
S'__json_response'
p5
sS'packet_num'
p6
I0
sS'returnval'
p7
S'(dp0\nVcount\np1\nI5353\nsVlimit\np2\nV1000\np3\nsVpaging\np4\n(dp5\nVprevious\np6\nVhttps://graph.facebook.com/act_40156177/adcreatives?access_token=AAAAACn63CWkBAMqpbBAZCzY9ZAxUwkgZCUeUFd0WWNyXRuxBY2JJahcZBMBO0q2D8Hyp5OZAMKZCFcbZBMWBZClqLQFENvjildZCZCVCSD3vTlfAZDZD&limit=1000&offset=4000\np7\nsVnext\np8\nVhttps://graph.facebook.com/act_40156177/adcreatives?access_token=AAAAACn63CWkBAMqpbBAZCzY9ZAxUwkgZCUeUFd0WWNyXRuxBY2JJahcZBMBO0q2D8Hyp5OZAMKZCFcbZBMWBZClqLQFENvjildZCZCVCSD3vTlfAZDZD&limit=1000&offset=6000\np9\nssVdata\np10\n(lp11\n(dp12\nValt_view_tags\np13\n(lp14\nsVbody\np15\nVAlex Blagg sits down with Nicolas Cage and forces him to confront his worst nightmare:\np16\nsVimage_hash\np17\nV8c58957637893ffa9a05f6438317ac12\np18\nsVname\np19\nVNicolas Cage On Nicolas -01\np20\nsVtitle\np21\nVNicolas Cage On Nicolas \np22\nsVcreative_id\np23\nV6003086891565\np24\nsVpreview_url\np25\nVhttp://www.facebook.com/ads/api/creative_preview.php?cid=6003086891565\np26\nsVid\np27\nV6003086891565\np28\nsVimage_url\np29\nVhttps://fbcdn-creative-a.akamaihd.net/hads-ak-prn1/s110x80/708171_6006844889165_52272_n.jpg\np30\nsVcount_current_adgroups\np31\nI0\nsVrun_status\np32\nI1\nsVtype\np33\nI1\nsVlink_url\np34\nVhttp://buzzfeed.com/ht/awesomer/nicolas-cage-on-nicolas-cage/HFAA1\np35\nsVview_tag\np36\nV\np37\nsa(dp38\nValt_view_tags\np39\n(lp40\nsVbody\np41\nVAlex Blagg sits down with Nicolas Cage and forces him to confront his worst nightmare:\np42\nsVimage_hash\np43\nV8c58957637893ffa9a05f6438317ac12\np44\nsVname\np45\nVNicolas Cage On Nicolas -00\np46\nsVtitle\np47\nVNicolas Cage On Nicolas \np48\nsVcreative_id\np49\nV6003086875765\np50\nsVpreview_url\np51\nVhttp://www.facebook.com/ads/api/creative_preview.php?cid=6003086875765\np52\nsVid\np53\nV6003086875765\np54\nsVimage_url\np55\nVhttps://fbcdn-creative-a.akamaihd.net/hads-ak-prn1/s110x80/708171_6006844889165_52272_n.jpg\np56\nsVcount_current_adgroups\np57\nI0\nsVrun_status\np58\nI1\nsVtype\np59\nI1\nsVlink_url\np60\nVhttp://buzzfeed.com/ht/awesomer/nicolas-cage-on-nicolas-cage/HFAA1\np61\nsVview_tag\np62\ng37\nsa(dp63\nValt_view_tags\np64\n(lp65\nsVbody\np66\nVA friend in need of small, bent wiener pics is a friend indeed.\np67\nsVimage_hash\np68\nV40dd8777682a5159b2cd59e6b26e4222\np69\nsVname\np70\nVWana See A Pic?-00\np71\nsVtitle\np72\nVWana See A Pic?\np73\nsVcreative_id\np74\nV6003086817965\np75\nsVpreview_url\np76\nVhttp://www.facebook.com/ads/api/creative_preview.php?cid=6003086817965\np77\nsVid\np78\nV6003086817965\np79\nsVimage_url\np80\nVhttps://fbcdn-creative-a.akamaihd.net/hads-ak-prn1/s110x80/708192_6006844431565_1821_n.jpg\np81\nsVcount_current_adgroups\np82\nI0\nsVrun_status\np83\nI1\nsVtype\np84\nI1\nsVlink_url\np85\nVhttp://buzzfeed.com/ht/awesomer/wana-see-a-pic/HFAA1\np86\nsVview_tag\np87\ng37\nsa(dp88\nValt_view_tags\np89\n(lp90\nsVbody\np91\nVA friend in need of small, bent wiener pics is a friend indeed.\np92\nsVimage_hash\np93\nV40dd8777682a5159b2cd59e6b26e4222\np94\nsVname\np95\nVWana See A Pic?\np96\nsVtitle\np97\nVWana See A Pic?\np98\nsVcreative_id\np99\nV6003086718165\np100\nsVpreview_url\np101\nVhttp://www.facebook.com/ads/api/creative_preview.php?cid=6003086718165\np102\nsVid\np103\nV6003086718165\np104\nsVimage_url\np105\nVhttps://fbcdn-creative-a.akamaihd.net/hads-ak-prn1/s110x80/708192_6006844431565_1821_n.jpg\np106\nsVcount_current_adgroups\np107\nI0\nsVrun_status\np108\nI1\nsVtype\np109\nI1\nsVlink_url\np110\nVhttp://buzzfeed.com/ht/awesomer/wana-see-a-pic/HFAA1\np111\nsVview_tag\np112\ng37\nsa(dp113\nValt_view_tags\np114\n(lp115\nsVbody\np116\nVWhat do you get when you cross The Fonz and a common house cat?\np117\nsVimage_hash\np118\nV98315b3454ed10481e309fc67856a91c\np119\nsVname\np120\nVCat Gives A Thumbs Up\np121\nsVtitle\np122\nVCat Gives A Thumbs Up\np123\nsVcreative_id\np124\nV6003086653965\np125\nsVpreview_url\np126\nVhttp://www.facebook.com/ads/api/creative_preview.php?cid=6003086653965\np127\nsVid\np128\nV6003086653965\np129\nsVimage_url\np130\nVhttps://fbcdn-creative-a.akamaihd.net/hads-ak-ash3/s110x80/708176_6006844960165_11053_n.jpg\np131\nsVcount_current_adgroups\np132\nI0\nsVrun_status\np133\nI1\nsVtype\np134\nI1\nsVlink_url\np135\nVhttp://buzzfeed.com/ht/awesomer/cat-gives-a-thumbs-up/HFAA1\np136\nsVview_tag\np137\ng37\nsa(dp138\nValt_view_tags\np139\n(lp140\nsVbody\np141\nVThis office suffers f'
p8
sS'hash'
p9
S'e414257bcbea91da0507957745e72677bbf9ee55'
p10
sS'stack'
p11
S''
s.