(dp1
S'args'
p2
S''
sS'methodname'
p3
S''
sS'packet_num'
p4
I63
sS'returnval'
p5
S'e Roosevelt in Los Angeles to talk about women\'s health\np8556\nsVimage_hash\np8557\nV94e70b5f58d016355dbaaf3c3aa7b9c5\np8558\nsVname\np8559\nVNancy O\'Dell Talks Favor\np8560\nsVtitle\np8561\nVNancy O\'Dell Talks Favor\np8562\nsVcreative_id\np8563\nV6003200258765\np8564\nsVpreview_url\np8565\nVhttp://www.facebook.com/ads/api/creative_preview.php?cid=6003200258765\np8566\nsVid\np8567\nV6003200258765\np8568\nsVimage_url\np8569\nVhttps://fbcdn-creative-a.akamaihd.net/hads-ak-prn1/s110x80/708196_6006844942965_49775_n.jpg\np8570\nsVcount_current_adgroups\np8571\nI0\nsVrun_status\np8572\nI1\nsVtype\np8573\nI1\nsVlink_url\np8574\nVhttp://buzzfeed.com/ht/yoplait/nancy-odell-talks-favorite-yoplait-yogurt-fla-24ii/HFAA1\np8575\nsVview_tag\np8576\ng37\nsa(dp8577\nValt_view_tags\np8578\n(lp8579\nsVbody\np8580\nVImportant events like a wedding coming up? This behind the scenes look at Yoplait Light\'s Two Week Tune Up commercial finds a girl sud\np8581\nsVimage_hash\np8582\nVefbf8337458a76372962b04827d3b575\np8583\nsVname\np8584\nVTest\np8585\nsVtitle\np8586\nVTest\np8587\nsVcreative_id\np8588\nV6003200340765\np8589\nsVpreview_url\np8590\nVhttp://www.facebook.com/ads/api/creative_preview.php?cid=6003200340765\np8591\nsVid\np8592\nV6003200340765\np8593\nsVimage_url\np8594\nVhttps://fbcdn-creative-a.akamaihd.net/hads-ak-ash3/s110x80/708206_6006845500765_14573_n.jpg\np8595\nsVcount_current_adgroups\np8596\nI0\nsVrun_status\np8597\nI1\nsVtype\np8598\nI1\nsVlink_url\np8599\nVhttp://buzzfeed.com/ht/yoplait/yoplait-lights-twtu-behind-the-scenes-weddi-24ii/HFAA1\np8600\nsVview_tag\np8601\ng37\nsa(dp8602\nVname\np8603\nVPage Post Story #6003572147565\np8604\nsVauto_update\np8605\nI1\nsVstory_id\np8606\nI104306316334598\nsVcreative_id\np8607\nV6003572147565\np8608\nsVpreview_url\np8609\nVhttp://www.facebook.com/ads/api/creative_preview.php?cid=6003572147565\np8610\nsVobject_id\np8611\nV21898300328\np8612\nsVcount_current_adgroups\np8613\nI0\nsVrun_status\np8614\nI1\nsVtype\np8615\nI27\nsVid\np8616\nV6003572147565\np8617\nsa(dp8618\nVname\np8619\nVSponsored Page Post #6003824888965\np8620\nsVauto_update\np8621\nI1\nsVstory_id\np8622\nI277134165639491\nsVcreative_id\np8623\nV6003824888965\np8624\nsVpreview_url\np8625\nVhttp://www.facebook.com/ads/api/creative_preview.php?cid=6003824888965\np8626\nsVobject_id\np8627\nV21898300328\np8628\nsVcount_current_adgroups\np8629\nI0\nsVrun_status\np8630\nI1\nsVtype\np8631\nI27\nsVid\np8632\nV6003824888965\np8633\nsa(dp8634\nValt_view_tags\np8635\n(lp8636\nsVbody\np8637\nVCheck out this list of star inspired cocktails brought to you by BuzzFeed. \\u000a Success means having a cocktail named after you, right?\np8638\nsVimage_hash\np8639\nV6ab1076196f0fdac183588e3ac830e6a\np8640\nsVname\np8641\nVDrinks From Famous People-11\np8642\nsVtitle\np8643\nVDrinks From Famous People\np8644\nsVcreative_id\np8645\nV6003853190365\np8646\nsVpreview_url\np8647\nVhttp://www.facebook.com/ads/api/creative_preview.php?cid=6003853190365\np8648\nsVid\np8649\nV6003853190365\np8650\nsVimage_url\np8651\nVhttps://fbcdn-creative-a.akamaihd.net/hads-ak-prn1/s110x80/708195_6006844694965_4658_n.jpg\np8652\nsVcount_current_adgroups\np8653\nI0\nsVrun_status\np8654\nI1\nsVtype\np8655\nI1\nsVlink_url\np8656\nVhttp://t.cpmadvisors.com/click?cr=7475&bl=1000001319&sl=4726&se=1&pu=151042&v=214748360&ci=blank&so=facebook&prc=1.00&verbdir=http://www.buzzfeed.com/ht/sailorjerryrum/10-drinks-named-after-famous-people/HFB1510421\np8657\nsVview_tag\np8658\ng37\nsa(dp8659\nValt_view_tags\np8660\n(lp8661\nsVbody\np8662\nVCheck out "10 Drinks Named After Famous People" - a BuzzFeed Exclusive! \\u000a Along with Sailor Jerry, check out these popular drinks!\np8663\nsVimage_hash\np8664\nV745f56f8dd02e0dbb99dc5ebe7a8042a\np8665\nsVname\np8666\nV10 Star Inspired Drinks!-11\np8667\nsVtitle\np8668\nV10 Star Inspired Drinks!\np8669\nsVcreative_id\np8670\nV6003853206765\np8671\nsVpreview_url\np8672\nVhttp://www.facebook.com/ads/api/creative_preview.php?cid=6003853206765\np8673\nsVid\np8674\nV6003853206765\np8675\nsVimage_url\np8676\nVhttps://fbcdn-creative-a.akamaihd.net/hads-ak-ash3/s110x80/701898_6006844752965_36688_n.jpg\np8677\nsVcount_current_adgroups\np8678\nI0\nsVrun_status\np8679\nI1\nsVtype\np8680\nI1\nsVlink_url\np8681\nVhttp://t.cpmadvisors.com/click?cr=7476&bl=1000001319&sl=4726&se=1&pu=151032&v=214748360&ci=blank&so'
p6
sS'hash'
p7
S'e414257bcbea91da0507957745e72677bbf9ee55'
p8
sS'stack'
p9
S''
s.