(dp1
S'args'
p2
S''
sS'methodname'
p3
S''
sS'packet_num'
p4
I23
sS'returnval'
p5
S"pe\np3109\nI1\nsVlink_url\np3110\nVhttp://www.buzzfeed.com/dollarvand\np3111\nsVview_tag\np3112\ng37\nsa(dp3113\nValt_view_tags\np3114\n(lp3115\nsVbody\np3116\nVAsylum has a big profile on Peggy but they totally 'shopped the last image in the slideshow.  Read the whole story and view the sl\np3117\nsVimage_hash\np3118\nV42a8c4e96de13a61b1f95108317e29e0\np3119\nsVname\np3120\nVPeggy Loves Goatse-00\np3121\nsVtitle\np3122\nVPeggy Loves Goatse\np3123\nsVcreative_id\np3124\nV6002896429565\np3125\nsVpreview_url\np3126\nVhttp://www.facebook.com/ads/api/creative_preview.php?cid=6002896429565\np3127\nsVid\np3128\nV6002896429565\np3129\nsVimage_url\np3130\nVhttps://fbcdn-creative-a.akamaihd.net/hads-ak-prn1/s110x80/708205_6006844453165_11292_n.jpg\np3131\nsVcount_current_adgroups\np3132\nI0\nsVrun_status\np3133\nI1\nsVtype\np3134\nI1\nsVlink_url\np3135\nVhttp://buzzfeed.com/jonah/peggy-loves-goatse\np3136\nsVview_tag\np3137\ng37\nsa(dp3138\nValt_view_tags\np3139\n(lp3140\nsVbody\np3141\nVMedia that that DOES something to your brain??\np3142\nsVimage_hash\np3143\nV8ae42eefbfa8463b73ddc1e412da8294\np3144\nsVname\np3145\nVDo You Like Stuff Like T-00\np3146\nsVtitle\np3147\nVDo You Like Stuff Like T\np3148\nsVcreative_id\np3149\nV6002896431365\np3150\nsVpreview_url\np3151\nVhttp://www.facebook.com/ads/api/creative_preview.php?cid=6002896431365\np3152\nsVid\np3153\nV6002896431365\np3154\nsVimage_url\np3155\nVhttps://fbcdn-creative-a.akamaihd.net/hads-ak-prn1/s110x80/708199_6006844881365_15917_n.jpg\np3156\nsVcount_current_adgroups\np3157\nI0\nsVrun_status\np3158\nI1\nsVtype\np3159\nI1\nsVlink_url\np3160\nVhttp://buzzfeed.com/jonah/do-you-like-stuff-like-this\np3161\nsVview_tag\np3162\ng37\nsa(dp3163\nValt_view_tags\np3164\n(lp3165\nsVbody\np3166\nVGE Wind\np3167\nsVimage_hash\np3168\nV2485a84364c3f44adb5d4a57236804e6\np3169\nsVname\np3170\nVGE Wind\np3171\nsVtitle\np3172\nVGE Wind\np3173\nsVcreative_id\np3174\nV6002896169165\np3175\nsVpreview_url\np3176\nVhttp://www.facebook.com/ads/api/creative_preview.php?cid=6002896169165\np3177\nsVid\np3178\nV6002896169165\np3179\nsVimage_url\np3180\nVhttps://fbcdn-creative-a.akamaihd.net/hads-ak-prn1/s110x80/708167_6006844275765_51017_n.jpg\np3181\nsVcount_current_adgroups\np3182\nI0\nsVrun_status\np3183\nI1\nsVtype\np3184\nI1\nsVlink_url\np3185\nVhttp://buzzfeed.com/jonsteinberg/ge-wind\np3186\nsVview_tag\np3187\ng37\nsa(dp3188\nValt_view_tags\np3189\n(lp3190\nsVbody\np3191\nVGet set for 45 levels of Angry Birds madness with a Halloween theme debuting in the App Store for iPhone and iPad midnight tonight. So\np3192\nsVimage_hash\np3193\nV5d44147f9a2d733f335f590435911485\np3194\nsVname\np3195\nVNew Angry Birds\np3196\nsVtitle\np3197\nVNew Angry Birds\np3198\nsVcreative_id\np3199\nV6002896170965\np3200\nsVpreview_url\np3201\nVhttp://www.facebook.com/ads/api/creative_preview.php?cid=6002896170965\np3202\nsVid\np3203\nV6002896170965\np3204\nsVimage_url\np3205\nVhttps://fbcdn-creative-a.akamaihd.net/hads-ak-prn1/s110x80/708195_6006844625565_12617_n.jpg\np3206\nsVcount_current_adgroups\np3207\nI0\nsVrun_status\np3208\nI1\nsVtype\np3209\nI1\nsVlink_url\np3210\nVhttp://buzzfeed.com/jonsteinberg/new-angry-birds-halloween-launches-midnight-toni\np3211\nsVview_tag\np3212\ng37\nsa(dp3213\nValt_view_tags\np3214\n(lp3215\nsVbody\np3216\nVThis would be a nice gift for all the non-believers in your life this holiday season, especially if the Rapture happens soon and billi\np3217\nsVimage_hash\np3218\nVb7042657e3f275aec8e4b35a583adc1a\np3219\nsVname\np3220\nVRapture Letters\np3221\nsVtitle\np3222\nVRapture Letters\np3223\nsVcreative_id\np3224\nV6002896071165\np3225\nsVpreview_url\np3226\nVhttp://www.facebook.com/ads/api/creative_preview.php?cid=6002896071165\np3227\nsVid\np3228\nV6002896071165\np3229\nsVimage_url\np3230\nVhttps://fbcdn-creative-a.akamaihd.net/hads-ak-prn1/s110x80/708173_6006845149965_59308_n.jpg\np3231\nsVcount_current_adgroups\np3232\nI0\nsVrun_status\np3233\nI1\nsVtype\np3234\nI1\nsVlink_url\np3235\nVhttp://buzzfeed.com/scott/rapture-letters\np3236\nsVview_tag\np3237\ng37\nsa(dp3238\nValt_view_tags\np3239\n(lp3240\nsVbody\np3241\nVBuzzFeed's proud to announce our own social network: nthng. By not joining nthng, you can not share photos with your friends, not\np3242\nsVimage_hash\np3243\nV31ed97d384419e59900bd9734e257a46\np3244\nsVname\np3245\nVnthng.com: The Best Soci\np32"
p6
sS'hash'
p7
S'e414257bcbea91da0507957745e72677bbf9ee55'
p8
sS'stack'
p9
S''
s.