(dp1
S'args'
p2
S''
sS'methodname'
p3
S''
sS'packet_num'
p4
I31
sS'returnval'
p5
S"s 8-Bit Link and\np4173\nsVcreative_id\np4174\nV6002896029565\np4175\nsVpreview_url\np4176\nVhttp://www.facebook.com/ads/api/creative_preview.php?cid=6002896029565\np4177\nsVid\np4178\nV6002896029565\np4179\nsVimage_url\np4180\nVhttps://fbcdn-creative-a.akamaihd.net/hads-ak-ash3/s110x80/708180_6006844839365_36501_n.jpg\np4181\nsVcount_current_adgroups\np4182\nI0\nsVrun_status\np4183\nI1\nsVtype\np4184\nI1\nsVlink_url\np4185\nVhttp://buzzfeed.com/ashleybaccam/skittles-8-bit-link-and-mario\np4186\nsVview_tag\np4187\ng37\nsa(dp4188\nValt_view_tags\np4189\n(lp4190\nsVbody\np4191\nVMy favorite video game ever turned into a nifty hand felted craft!\np4192\nsVimage_hash\np4193\nVdf27486bf7bbf55ea29297bd71fca8e4\np4194\nsVname\np4195\nVHandmade Katamari Playse\np4196\nsVtitle\np4197\nVHandmade Katamari Playse\np4198\nsVcreative_id\np4199\nV6002896031365\np4200\nsVpreview_url\np4201\nVhttp://www.facebook.com/ads/api/creative_preview.php?cid=6002896031365\np4202\nsVid\np4203\nV6002896031365\np4204\nsVimage_url\np4205\nVhttps://fbcdn-creative-a.akamaihd.net/hads-ak-ash3/s110x80/708179_6006845387965_36745_n.jpg\np4206\nsVcount_current_adgroups\np4207\nI0\nsVrun_status\np4208\nI1\nsVtype\np4209\nI1\nsVlink_url\np4210\nVhttp://buzzfeed.com/ashleybaccam/handmade-katamari-playset\np4211\nsVview_tag\np4212\ng37\nsa(dp4213\nValt_view_tags\np4214\n(lp4215\nsVbody\np4216\nVIt's very important to brush your canines. (Along with your molars, premolars, and incisors!)\np4217\nsVimage_hash\np4218\nVd5ee170283533c7973180fee7c6b8a26\np4219\nsVname\np4220\nVDogs Brushing Their Teet\np4221\nsVtitle\np4222\nVDogs Brushing Their Teet\np4223\nsVcreative_id\np4224\nV6002896033165\np4225\nsVpreview_url\np4226\nVhttp://www.facebook.com/ads/api/creative_preview.php?cid=6002896033165\np4227\nsVid\np4228\nV6002896033165\np4229\nsVimage_url\np4230\nVhttps://fbcdn-creative-a.akamaihd.net/hads-ak-prn1/s110x80/708164_6006845326765_9812_n.jpg\np4231\nsVcount_current_adgroups\np4232\nI0\nsVrun_status\np4233\nI1\nsVtype\np4234\nI1\nsVlink_url\np4235\nVhttp://buzzfeed.com/ashleybaccam/dogs-brushing-their-teeth\np4236\nsVview_tag\np4237\ng37\nsa(dp4238\nValt_view_tags\np4239\n(lp4240\nsVbody\np4241\nVNot all inventions are created equal. The children of the future will be laughing at the Snuggie the same way we are laughing at these\np4242\nsVimage_hash\np4243\nV01e17540ab4f1e17d09b3fd6830f791e\np4244\nsVname\np4245\nVRidiculous Retro Inventi\np4246\nsVtitle\np4247\nVRidiculous Retro Inventi\np4248\nsVcreative_id\np4249\nV6002896034965\np4250\nsVpreview_url\np4251\nVhttp://www.facebook.com/ads/api/creative_preview.php?cid=6002896034965\np4252\nsVid\np4253\nV6002896034965\np4254\nsVimage_url\np4255\nVhttps://fbcdn-creative-a.akamaihd.net/hads-ak-ash3/s110x80/708174_6006844058365_60172_n.jpg\np4256\nsVcount_current_adgroups\np4257\nI0\nsVrun_status\np4258\nI1\nsVtype\np4259\nI1\nsVlink_url\np4260\nVhttp://buzzfeed.com/ashleybaccam/ridiculous-vintage-inventions-that-never-caught-on\np4261\nsVview_tag\np4262\ng37\nsa(dp4263\nValt_view_tags\np4264\n(lp4265\nsVbody\np4266\nVIf Wikileaks were discovered in the town of Whoville, such a mess would erupt! Watch it, Grinch! We know about your schemes. I read it\np4267\nsVimage_hash\np4268\nVe106695b40e239f66099618ba4e42c61\np4269\nsVname\np4270\nVHow WikiLeaks Stole Chri\np4271\nsVtitle\np4272\nVHow WikiLeaks Stole Chri\np4273\nsVcreative_id\np4274\nV6002896036765\np4275\nsVpreview_url\np4276\nVhttp://www.facebook.com/ads/api/creative_preview.php?cid=6002896036765\np4277\nsVid\np4278\nV6002896036765\np4279\nsVimage_url\np4280\nVhttps://fbcdn-creative-a.akamaihd.net/hads-ak-ash3/s110x80/701894_6006845402965_9041_n.jpg\np4281\nsVcount_current_adgroups\np4282\nI0\nsVrun_status\np4283\nI1\nsVtype\np4284\nI1\nsVlink_url\np4285\nVhttp://buzzfeed.com/ashleybaccam/how-wikileaks-stole-christmas\np4286\nsVview_tag\np4287\ng37\nsa(dp4288\nValt_view_tags\np4289\n(lp4290\nsVbody\np4291\nVIt's flu season, and Washington is very serious about your health.\np4292\nsVimage_hash\np4293\nVbc6f8b79901afd9edffbaf589a38caf9\np4294\nsVname\np4295\nVWashYourHandsington\np4296\nsVtitle\np4297\nVWashYourHandsington\np4298\nsVcreative_id\np4299\nV6002896038565\np4300\nsVpreview_url\np4301\nVhttp://www.facebook.com/ads/api/creative_preview.php?cid=6002896038565\np4302\nsVid\np4303\nV6002896038565\np4304\nsVimage_url\np4305\n"
p6
sS'hash'
p7
S'e414257bcbea91da0507957745e72677bbf9ee55'
p8
sS'stack'
p9
S''
s.