(dp1
S'args'
p2
S''
sS'methodname'
p3
S''
sS'packet_num'
p4
I30
sS'returnval'
p5
S"-of-california-girls\np4036\nsVview_tag\np4037\ng37\nsa(dp4038\nValt_view_tags\np4039\n(lp4040\nsVbody\np4041\nVOl' Gipper was quite a looker back in the day. Why didn't he stick to acting?\np4042\nsVimage_hash\np4043\nVcfbd66de853f7d90117303d9daf92133\np4044\nsVname\np4045\nVFunny Vintage Ronald Rea\np4046\nsVtitle\np4047\nVFunny Vintage Ronald Rea\np4048\nsVcreative_id\np4049\nV6002896020565\np4050\nsVpreview_url\np4051\nVhttp://www.facebook.com/ads/api/creative_preview.php?cid=6002896020565\np4052\nsVid\np4053\nV6002896020565\np4054\nsVimage_url\np4055\nVhttps://fbcdn-creative-a.akamaihd.net/hads-ak-ash3/s110x80/708196_6006845292965_1690_n.jpg\np4056\nsVcount_current_adgroups\np4057\nI0\nsVrun_status\np4058\nI1\nsVtype\np4059\nI1\nsVlink_url\np4060\nVhttp://buzzfeed.com/ashleybaccam/funny-vintage-ronald-reagan-ads\np4061\nsVview_tag\np4062\ng37\nsa(dp4063\nValt_view_tags\np4064\n(lp4065\nsVbody\np4066\nVThis actually happened.\np4067\nsVimage_hash\np4068\nV6a4ececa171ee83b5f5b9b1621f6958b\np4069\nsVname\np4070\nVTopless Acrobats Perform\np4071\nsVtitle\np4072\nVTopless Acrobats Perform\np4073\nsVcreative_id\np4074\nV6002896022365\np4075\nsVpreview_url\np4076\nVhttp://www.facebook.com/ads/api/creative_preview.php?cid=6002896022365\np4077\nsVid\np4078\nV6002896022365\np4079\nsVimage_url\np4080\nVhttps://fbcdn-creative-a.akamaihd.net/hads-ak-ash3/s110x80/708195_6006844693365_56149_n.jpg\np4081\nsVcount_current_adgroups\np4082\nI0\nsVrun_status\np4083\nI1\nsVtype\np4084\nI1\nsVlink_url\np4085\nVhttp://buzzfeed.com/ashleybaccam/topless-acrobats-perform-for-the-pope\np4086\nsVview_tag\np4087\ng37\nsa(dp4088\nValt_view_tags\np4089\n(lp4090\nsVbody\np4091\nVGet ready for more fighting, fist pumping, and smushing from the Guidos and Guidettes you love to hate. Season 3 is sure to please and\np4092\nsVimage_hash\np4093\nV816d5561b65148f3a19aed696fac26c0\np4094\nsVname\np4095\nVJersey Shore Season 3 Pr\np4096\nsVtitle\np4097\nVJersey Shore Season 3 Pr\np4098\nsVcreative_id\np4099\nV6002896024165\np4100\nsVpreview_url\np4101\nVhttp://www.facebook.com/ads/api/creative_preview.php?cid=6002896024165\np4102\nsVid\np4103\nV6002896024165\np4104\nsVimage_url\np4105\nVhttps://fbcdn-creative-a.akamaihd.net/hads-ak-ash3/s110x80/708196_6006844823965_47299_n.jpg\np4106\nsVcount_current_adgroups\np4107\nI0\nsVrun_status\np4108\nI1\nsVtype\np4109\nI1\nsVlink_url\np4110\nVhttp://buzzfeed.com/ashleybaccam/get-ready-for-jersey-shore-season-3\np4111\nsVview_tag\np4112\ng37\nsa(dp4113\nValt_view_tags\np4114\n(lp4115\nsVbody\np4116\nVWhy, Emma, why!? You are so beautiful, but what was the stylist in this photoshoot thinking!?\np4117\nsVimage_hash\np4118\nVfaa548cefde017ab1983c167c2dc681c\np4119\nsVname\np4120\nVEmma Watson's Lime Green\np4121\nsVtitle\np4122\nVEmma Watson's Lime Green\np4123\nsVcreative_id\np4124\nV6002896025965\np4125\nsVpreview_url\np4126\nVhttp://www.facebook.com/ads/api/creative_preview.php?cid=6002896025965\np4127\nsVid\np4128\nV6002896025965\np4129\nsVimage_url\np4130\nVhttps://fbcdn-creative-a.akamaihd.net/hads-ak-prn1/s110x80/708179_6006845569165_31737_n.jpg\np4131\nsVcount_current_adgroups\np4132\nI0\nsVrun_status\np4133\nI1\nsVtype\np4134\nI1\nsVlink_url\np4135\nVhttp://buzzfeed.com/ashleybaccam/emma-watsons-lime-green-brassiere\np4136\nsVview_tag\np4137\ng37\nsa(dp4138\nValt_view_tags\np4139\n(lp4140\nsVbody\np4141\nVIf the nativity story took place today...\np4142\nsVimage_hash\np4143\nVc98d8527fcc59c07e23b8632b8f8d918\np4144\nsVname\np4145\nVThe Digital Story of the\np4146\nsVtitle\np4147\nVThe Digital Story of the\np4148\nsVcreative_id\np4149\nV6002896027765\np4150\nsVpreview_url\np4151\nVhttp://www.facebook.com/ads/api/creative_preview.php?cid=6002896027765\np4152\nsVid\np4153\nV6002896027765\np4154\nsVimage_url\np4155\nVhttps://fbcdn-creative-a.akamaihd.net/hads-ak-prn1/s110x80/708172_6006845256365_12564_n.jpg\np4156\nsVcount_current_adgroups\np4157\nI0\nsVrun_status\np4158\nI1\nsVtype\np4159\nI1\nsVlink_url\np4160\nVhttp://buzzfeed.com/ashleybaccam/the-digital-story-of-the-nativity\np4161\nsVview_tag\np4162\ng37\nsa(dp4163\nValt_view_tags\np4164\n(lp4165\nsVbody\np4166\nVThe logical next step is a stop motion animation of Skittle-pixel game characters.\np4167\nsVimage_hash\np4168\nV83b26b26dfbf1342b5b0b3e95822fd96\np4169\nsVname\np4170\nVSkittles 8-Bit Link and\np4171\nsVtitle\np4172\nVSkittle"
p6
sS'hash'
p7
S'e414257bcbea91da0507957745e72677bbf9ee55'
p8
sS'stack'
p9
S''
s.