(dp1
S'args'
p2
S''
sS'methodname'
p3
S''
sS'packet_num'
p4
I9
sS'returnval'
p5
S's Save Lives\np1248\nsVcreative_id\np1249\nV6002930405165\np1250\nsVpreview_url\np1251\nVhttp://www.facebook.com/ads/api/creative_preview.php?cid=6002930405165\np1252\nsVid\np1253\nV6002930405165\np1254\nsVimage_url\np1255\nVhttps://fbcdn-creative-a.akamaihd.net/hads-ak-ash3/s110x80/701894_6006844832765_8091_n.jpg\np1256\nsVcount_current_adgroups\np1257\nI0\nsVrun_status\np1258\nI1\nsVtype\np1259\nI1\nsVlink_url\np1260\nVhttp://www.buzzfeed.com/ht/awesomer/which-recently-released-book-will-save-your-life/HFAA1\np1261\nsVview_tag\np1262\ng37\nsa(dp1263\nValt_view_tags\np1264\n(lp1265\nsVbody\np1266\nVSometimes the distinction can be a little tricky.\np1267\nsVimage_hash\np1268\nVf6da58d7426b2580454c6e026a1783b4\np1269\nsVname\np1270\nVZombie Or Supermodel-00\np1271\nsVtitle\np1272\nVZombie Or Supermodel\np1273\nsVcreative_id\np1274\nV6002930434165\np1275\nsVpreview_url\np1276\nVhttp://www.facebook.com/ads/api/creative_preview.php?cid=6002930434165\np1277\nsVid\np1278\nV6002930434165\np1279\nsVimage_url\np1280\nVhttps://fbcdn-creative-a.akamaihd.net/hads-ak-ash3/s110x80/708163_6006845543765_39084_n.jpg\np1281\nsVcount_current_adgroups\np1282\nI0\nsVrun_status\np1283\nI1\nsVtype\np1284\nI1\nsVlink_url\np1285\nVhttp://www.buzzfeed.com/ht/awesomer/zombie-or-supermodel/HFAA1\np1286\nsVview_tag\np1287\ng37\nsa(dp1288\nValt_view_tags\np1289\n(lp1290\nsVbody\np1291\nVI\'m not sure that means what that cat thinks it means.\np1292\nsVimage_hash\np1293\nV6cadbc1fe94a8521441716636121afdf\np1294\nsVname\np1295\nVNo Dogs\np1296\nsVtitle\np1297\nVNo Dogs\np1298\nsVcreative_id\np1299\nV6002930410565\np1300\nsVpreview_url\np1301\nVhttp://www.facebook.com/ads/api/creative_preview.php?cid=6002930410565\np1302\nsVid\np1303\nV6002930410565\np1304\nsVimage_url\np1305\nVhttps://fbcdn-creative-a.akamaihd.net/hads-ak-ash3/s110x80/701901_6006844711365_28306_n.jpg\np1306\nsVcount_current_adgroups\np1307\nI0\nsVrun_status\np1308\nI1\nsVtype\np1309\nI1\nsVlink_url\np1310\nVhttp://www.buzzfeed.com/ht/awesomer/no-dogs/HFAA1\np1311\nsVview_tag\np1312\ng37\nsa(dp1313\nValt_view_tags\np1314\n(lp1315\nsVbody\np1316\nVGeeky crotchet dolls from Deviant Artist smapte created totally freehand without patterns or templates. Real nerds don\'t need patt\np1317\nsVimage_hash\np1318\nVc786e108addbbfd40d401bf0e7002585\np1319\nsVname\np1320\nVNerdy Crochet Creations-00\np1321\nsVtitle\np1322\nVNerdy Crochet Creations\np1323\nsVcreative_id\np1324\nV6002930430565\np1325\nsVpreview_url\np1326\nVhttp://www.facebook.com/ads/api/creative_preview.php?cid=6002930430565\np1327\nsVid\np1328\nV6002930430565\np1329\nsVimage_url\np1330\nVhttps://fbcdn-creative-a.akamaihd.net/hads-ak-prn1/s110x80/708172_6006845246565_16861_n.jpg\np1331\nsVcount_current_adgroups\np1332\nI0\nsVrun_status\np1333\nI1\nsVtype\np1334\nI1\nsVlink_url\np1335\nVhttp://www.buzzfeed.com/ht/awesomer/nerdy-crochet-creations/HFAA1\np1336\nsVview_tag\np1337\ng37\nsa(dp1338\nValt_view_tags\np1339\n(lp1340\nsVbody\np1341\nVMr. Penguin may be a jerk, but Mr. Sea Lion\'s response seemed a little dramatic.\np1342\nsVimage_hash\np1343\nV47e99b739b0001c2d6cf2f74411264cc\np1344\nsVname\np1345\nVRude Penguin vs Sea Lion-00\np1346\nsVtitle\np1347\nVRude Penguin vs Sea Lion\np1348\nsVcreative_id\np1349\nV6002930437765\np1350\nsVpreview_url\np1351\nVhttp://www.facebook.com/ads/api/creative_preview.php?cid=6002930437765\np1352\nsVid\np1353\nV6002930437765\np1354\nsVimage_url\np1355\nVhttps://fbcdn-creative-a.akamaihd.net/hads-ak-prn1/s110x80/708181_6006844485965_4494_n.jpg\np1356\nsVcount_current_adgroups\np1357\nI0\nsVrun_status\np1358\nI1\nsVtype\np1359\nI1\nsVlink_url\np1360\nVhttp://www.buzzfeed.com/ht/awesomer/rude-penguin-upsets-sea-lion/HFAA1\np1361\nsVview_tag\np1362\ng37\nsa(dp1363\nValt_view_tags\np1364\n(lp1365\nsVbody\np1366\nVRebel sled dog heard about the human sport of "dog sledding."\np1367\nsVimage_hash\np1368\nV013e6bf1ec320c2073458336452045eb\np1369\nsVname\np1370\nVDog Steals Sled Escapes\np1371\nsVtitle\np1372\nVDog Steals Sled Escapes\np1373\nsVcreative_id\np1374\nV6002930406965\np1375\nsVpreview_url\np1376\nVhttp://www.facebook.com/ads/api/creative_preview.php?cid=6002930406965\np1377\nsVid\np1378\nV6002930406965\np1379\nsVimage_url\np1380\nVhttps://fbcdn-creative-a.akamaihd.net/hads-ak-ash3/s110x80/708174_6006844057365_43217_n.jpg\np1381\nsVcount_current_adgroups\np1382\nI0\nsVru'
p6
sS'hash'
p7
S'e414257bcbea91da0507957745e72677bbf9ee55'
p8
sS'stack'
p9
S''
s.