(dp1
S'args'
p2
S''
sS'methodname'
p3
S''
sS'packet_num'
p4
I33
sS'returnval'
p5
S'hey had superheroes! This image series is an elementary school boy\'s dream.\np4442\nsVimage_hash\np4443\nVbb2aeead162341e2bb040820fa5b06bc\np4444\nsVname\np4445\nVDinosaur Superheroes\np4446\nsVtitle\np4447\nVDinosaur Superheroes\np4448\nsVcreative_id\np4449\nV6002896049365\np4450\nsVpreview_url\np4451\nVhttp://www.facebook.com/ads/api/creative_preview.php?cid=6002896049365\np4452\nsVid\np4453\nV6002896049365\np4454\nsVimage_url\np4455\nVhttps://fbcdn-creative-a.akamaihd.net/hads-ak-prn1/s110x80/708201_6006845174965_25209_n.jpg\np4456\nsVcount_current_adgroups\np4457\nI0\nsVrun_status\np4458\nI1\nsVtype\np4459\nI1\nsVlink_url\np4460\nVhttp://buzzfeed.com/ashleybaccam/dinosaur-superheroes\np4461\nsVview_tag\np4462\ng37\nsa(dp4463\nValt_view_tags\np4464\n(lp4465\nsVbody\np4466\nVIn the same vein as Dino Ignacio\'s human centipede hack, other users on Facebook have been taking advantage of the new tagged phot\np4467\nsVimage_hash\np4468\nVc11d8909948bf4dcf0031d661832fb03\np4469\nsVname\np4470\nVCool Facebook Profile Pi\np4471\nsVtitle\np4472\nVCool Facebook Profile Pi\np4473\nsVcreative_id\np4474\nV6002896051165\np4475\nsVpreview_url\np4476\nVhttp://www.facebook.com/ads/api/creative_preview.php?cid=6002896051165\np4477\nsVid\np4478\nV6002896051165\np4479\nsVimage_url\np4480\nVhttps://fbcdn-creative-a.akamaihd.net/hads-ak-ash3/s110x80/708199_6006845211365_33374_n.jpg\np4481\nsVcount_current_adgroups\np4482\nI0\nsVrun_status\np4483\nI1\nsVtype\np4484\nI1\nsVlink_url\np4485\nVhttp://buzzfeed.com/ashleybaccam/cool-facebook-profile-picture-hacks\np4486\nsVview_tag\np4487\ng37\nsa(dp4488\nValt_view_tags\np4489\n(lp4490\nsVbody\np4491\nVBecause Tumblr is srs bizniz.\np4492\nsVimage_hash\np4493\nV6369085f5c1167ae2dbce99b61b81671\np4494\nsVname\np4495\nVThe Rules of Tumblr\np4496\nsVtitle\np4497\nVThe Rules of Tumblr\np4498\nsVcreative_id\np4499\nV6002896052965\np4500\nsVpreview_url\np4501\nVhttp://www.facebook.com/ads/api/creative_preview.php?cid=6002896052965\np4502\nsVid\np4503\nV6002896052965\np4504\nsVimage_url\np4505\nVhttps://fbcdn-creative-a.akamaihd.net/hads-ak-prn1/s110x80/708177_6006844657565_42417_n.jpg\np4506\nsVcount_current_adgroups\np4507\nI0\nsVrun_status\np4508\nI1\nsVtype\np4509\nI1\nsVlink_url\np4510\nVhttp://buzzfeed.com/ashleybaccam/the-rules-of-tumblr\np4511\nsVview_tag\np4512\ng37\nsa(dp4513\nValt_view_tags\np4514\n(lp4515\nsVbody\np4516\nVNow this is a letter worth framing. The scammers become the scammed.\np4517\nsVimage_hash\np4518\nV0f16d408964ba82ac83e738aee0d2d21\np4519\nsVname\np4520\nVTrolling Cash4Gold\np4521\nsVtitle\np4522\nVTrolling Cash4Gold\np4523\nsVcreative_id\np4524\nV6002896055365\np4525\nsVpreview_url\np4526\nVhttp://www.facebook.com/ads/api/creative_preview.php?cid=6002896055365\np4527\nsVid\np4528\nV6002896055365\np4529\nsVimage_url\np4530\nVhttps://fbcdn-creative-a.akamaihd.net/hads-ak-ash3/s110x80/708185_6006844143965_50689_n.jpg\np4531\nsVcount_current_adgroups\np4532\nI0\nsVrun_status\np4533\nI1\nsVtype\np4534\nI1\nsVlink_url\np4535\nVhttp://buzzfeed.com/chrismenning/trolling-cash4gold\np4536\nsVview_tag\np4537\ng37\nsa(dp4538\nValt_view_tags\np4539\n(lp4540\nsVbody\np4541\nV"We\'d marry a tree as long as it served a mission."\np4542\nsVimage_hash\np4543\nV4e1138d9758fb4f8421d518e0fac69ff\np4544\nsVname\np4545\nVMormon Parody of Califor\np4546\nsVtitle\np4547\nVMormon Parody of Califor\np4548\nsVcreative_id\np4549\nV6002896013165\np4550\nsVpreview_url\np4551\nVhttp://www.facebook.com/ads/api/creative_preview.php?cid=6002896013165\np4552\nsVid\np4553\nV6002896013165\np4554\nsVimage_url\np4555\nVhttps://fbcdn-creative-a.akamaihd.net/hads-ak-ash3/s110x80/701895_6006844528365_44264_n.jpg\np4556\nsVcount_current_adgroups\np4557\nI0\nsVrun_status\np4558\nI1\nsVtype\np4559\nI1\nsVlink_url\np4560\nVhttp://buzzfeed.com/ashleybaccam/morman-parody-of-california-girls\np4561\nsVview_tag\np4562\ng37\nsa(dp4563\nValt_view_tags\np4564\n(lp4565\nsVbody\np4566\nVA gritty re-imagining of Super Mario Brothers set in a violent gangland Mushroom Kingdom.\np4567\nsVimage_hash\np4568\nV1a5bfc53b04d6d1a870c861916f99fba\np4569\nsVname\np4570\nVIf Super Mario Bros. Was-01\np4571\nsVtitle\np4572\nVIf Super Mario Bros. Was\np4573\nsVcreative_id\np4574\nV6002892235565\np4575\nsVpreview_url\np4576\nVhttp://www.facebook.com/ads/api/creative_preview.php?cid=6002892235565\np4577\nsVid\np4578\nV600'
p6
sS'hash'
p7
S'e414257bcbea91da0507957745e72677bbf9ee55'
p8
sS'stack'
p9
S''
s.