(dp1
S'args'
p2
S''
sS'methodname'
p3
S''
sS'packet_num'
p4
I50
sS'returnval'
p5
S'tus\np6733\nI1\nsVtype\np6734\nI1\nsVlink_url\np6735\nVhttp://buzzfeed.com/rickyftw/cat-muzzle-19ta\np6736\nsVview_tag\np6737\ng37\nsa(dp6738\nValt_view_tags\np6739\n(lp6740\nsVbody\np6741\nVSo apparently there\xe2s this show on Cartoon Network called \xe2Sym-Bionic Titan\xe2 which aired an episode in November wher\np6742\nsVimage_hash\np6743\nV2057e14e368ab3c07e7171e0c8635cc9\np6744\nsVname\np6745\nVKids Cartoon Shows Are G\np6746\nsVtitle\np6747\nVKids Cartoon Shows Are G\np6748\nsVcreative_id\np6749\nV6002879011365\np6750\nsVpreview_url\np6751\nVhttp://www.facebook.com/ads/api/creative_preview.php?cid=6002879011365\np6752\nsVid\np6753\nV6002879011365\np6754\nsVimage_url\np6755\nVhttps://fbcdn-creative-a.akamaihd.net/hads-ak-prn1/s110x80/708205_6006844248365_20395_n.jpg\np6756\nsVcount_current_adgroups\np6757\nI0\nsVrun_status\np6758\nI1\nsVtype\np6759\nI1\nsVlink_url\np6760\nVhttp://buzzfeed.com/rickyftw/kids-cartoon-shows-are-getting-awesome-sym-bionic-19ta\np6761\nsVview_tag\np6762\ng37\nsa(dp6763\nValt_view_tags\np6764\n(lp6765\nsVbody\np6766\nVThis has got to be the absolute coolest way to score a touchdown.\np6767\nsVimage_hash\np6768\nVe1544895effa1fe29a4443a5c19efbbf\np6769\nsVname\np6770\nVAmazing Middle School Fo\np6771\nsVtitle\np6772\nVAmazing Middle School Fo\np6773\nsVcreative_id\np6774\nV6002879013165\np6775\nsVpreview_url\np6776\nVhttp://www.facebook.com/ads/api/creative_preview.php?cid=6002879013165\np6777\nsVid\np6778\nV6002879013165\np6779\nsVimage_url\np6780\nVhttps://fbcdn-creative-a.akamaihd.net/hads-ak-ash3/s110x80/701894_6006845405165_17376_n.jpg\np6781\nsVcount_current_adgroups\np6782\nI0\nsVrun_status\np6783\nI1\nsVtype\np6784\nI1\nsVlink_url\np6785\nVhttp://buzzfeed.com/rickyftw/middle-school-football-team-scores-with-an-amazing-19ta\np6786\nsVview_tag\np6787\ng37\nsa(dp6788\nValt_view_tags\np6789\n(lp6790\nsVbody\np6791\nVWhy does this even exist\xe2\xa6.it covers the cat\xe2s eyes? For some reason I feel like that would only piss off the feline even f\np6792\nsVimage_hash\np6793\nVe1dce3edfce0d2cf60db428a7c6af01b\np6794\nsVname\np6795\nVCat Muzzle-00\np6796\nsVtitle\np6797\nVCat Muzzle\np6798\nsVcreative_id\np6799\nV6002879005965\np6800\nsVpreview_url\np6801\nVhttp://www.facebook.com/ads/api/creative_preview.php?cid=6002879005965\np6802\nsVid\np6803\nV6002879005965\np6804\nsVimage_url\np6805\nVhttps://fbcdn-creative-a.akamaihd.net/hads-ak-prn1/s110x80/708157_6006845411165_52759_n.jpg\np6806\nsVcount_current_adgroups\np6807\nI0\nsVrun_status\np6808\nI1\nsVtype\np6809\nI1\nsVlink_url\np6810\nVhttp://buzzfeed.com/rickyftw/cat-muzzle-19ta\np6811\nsVview_tag\np6812\ng37\nsa(dp6813\nValt_view_tags\np6814\n(lp6815\nsVbody\np6816\nVWhy does this even exist\xe2\xa6.it covers the cat\xe2s eyes? For some reason I feel like that would only piss off the feline even further! This is so full of fail, anyone that uses this should buy a matching one for themselves.\np6817\nsVimage_hash\np6818\nVe1dce3edfce0d2cf60db428a7c6af01b\np6819\nsVname\np6820\nVCat Muzzle\np6821\nsVtitle\np6822\nVCat Muzzle\np6823\nsVcreative_id\np6824\nV6002878996565\np6825\nsVpreview_url\np6826\nVhttp://www.facebook.com/ads/api/creative_preview.php?cid=6002878996565\np6827\nsVid\np6828\nV6002878996565\np6829\nsVimage_url\np6830\nVhttps://fbcdn-creative-a.akamaihd.net/hads-ak-prn1/s110x80/708157_6006845411165_52759_n.jpg\np6831\nsVcount_current_adgroups\np6832\nI0\nsVrun_status\np6833\nI1\nsVtype\np6834\nI1\nsVlink_url\np6835\nVhttp://buzzfeed.com/rickyftw/cat-muzzle-19ta\np6836\nsVview_tag\np6837\ng37\nsa(dp6838\nValt_view_tags\np6839\n(lp6840\nsVbody\np6841\nVThis is the body\np6842\nsVimage_hash\np6843\nV564fb22a16816f179f4f569e83436dd3\np6844\nsVname\np6845\nVTest Creative 1291927766\np6846\nsVtitle\np6847\nVTest Creative 1291927766\np6848\nsVcreative_id\np6849\nV6002878325965\np6850\nsVpreview_url\np6851\nVhttp://www.facebook.com/ads/api/creative_preview.php?cid=6002878325965\np6852\nsVid\np6853\nV6002878325965\np6854\nsVimage_url\np6855\nVhttps://fbcdn-creative-a.akamaihd.net/hads-ak-ash3/s110x80/708176_6006844590565_48352_n.jpg\np6856\nsVcount_current_adgroups\np6857\nI0\nsVrun_status\np6858\nI1\nsVtype\np6859\nI1\nsVlink_url\np6860\nVhttp://buzzfeed.com\np6861\nsVview_tag\np6862\ng37\nsa(dp6863\nValt_view_tags\np6864\n(lp6865\nsVbody\np6866\nVTest Campaign 1 body\np6867\nsVimage_hash\np6868\nV564fb22a16816f179f4f569e83436dd3\np686'
p6
sS'hash'
p7
S'e414257bcbea91da0507957745e72677bbf9ee55'
p8
sS'stack'
p9
S''
s.