(dp1
S'args'
p2
S''
sS'methodname'
p3
S''
sS'packet_num'
p4
I3
sS'returnval'
p5
S'31\nsVcount_current_adgroups\np432\nI0\nsVrun_status\np433\nI1\nsVtype\np434\nI1\nsVlink_url\np435\nVhttp://buzzfeed.com/ht/awesomer/no-thumbtacks-in-wall/HFAA1\np436\nsVview_tag\np437\ng37\nsa(dp438\nValt_view_tags\np439\n(lp440\nsVbody\np441\nVThis office suffers from a total lack of accountability.\np442\nsVimage_hash\np443\nVc29861d40fefa4f2c647f87503cb8b98\np444\nsVname\np445\nVNo Thumbtacks In Wall-06\np446\nsVtitle\np447\nVNo Thumbtacks In Wall\np448\nsVcreative_id\np449\nV6003082339765\np450\nsVpreview_url\np451\nVhttp://www.facebook.com/ads/api/creative_preview.php?cid=6003082339765\np452\nsVid\np453\nV6003082339765\np454\nsVimage_url\np455\nVhttps://fbcdn-creative-a.akamaihd.net/hads-ak-ash3/s110x80/708205_6006845217565_10980_n.jpg\np456\nsVcount_current_adgroups\np457\nI0\nsVrun_status\np458\nI1\nsVtype\np459\nI1\nsVlink_url\np460\nVhttp://buzzfeed.com/ht/awesomer/no-thumbtacks-in-wall/HFAA1\np461\nsVview_tag\np462\ng37\nsa(dp463\nValt_view_tags\np464\n(lp465\nsVbody\np466\nVBe a part of the biggest experiment in rock history. Join Maroon 5 and Coca-Cola as they tear down the virtual walls of the recording \np467\nsVimage_hash\np468\nVb74e5d22b20d171ed68b2b691c8630a4\np469\nsVname\np470\nVSee Maroon 5 Live\np471\nsVtitle\np472\nVSee Maroon 5 Live\np473\nsVcreative_id\np474\nV6003082270165\np475\nsVpreview_url\np476\nVhttp://www.facebook.com/ads/api/creative_preview.php?cid=6003082270165\np477\nsVid\np478\nV6003082270165\np479\nsVimage_url\np480\nVhttps://fbcdn-creative-a.akamaihd.net/hads-ak-prn1/s110x80/708173_6006845151365_22748_n.jpg\np481\nsVcount_current_adgroups\np482\nI0\nsVrun_status\np483\nI1\nsVtype\np484\nI1\nsVlink_url\np485\nVhttp://www.buzzfeed.com/ht/cocacola/see-maroon-5-live-in-the-studio-right-now/HFAA1\np486\nsVview_tag\np487\ng37\nsa(dp488\nValt_view_tags\np489\n(lp490\nsVbody\np491\nVThis office suffers from a total lack of accountability.\np492\nsVimage_hash\np493\nVc29861d40fefa4f2c647f87503cb8b98\np494\nsVname\np495\nVNo Thumbtacks In Wall-02\np496\nsVtitle\np497\nVNo Thumbtacks In Wall\np498\nsVcreative_id\np499\nV6003082274565\np500\nsVpreview_url\np501\nVhttp://www.facebook.com/ads/api/creative_preview.php?cid=6003082274565\np502\nsVid\np503\nV6003082274565\np504\nsVimage_url\np505\nVhttps://fbcdn-creative-a.akamaihd.net/hads-ak-ash3/s110x80/708205_6006845217565_10980_n.jpg\np506\nsVcount_current_adgroups\np507\nI0\nsVrun_status\np508\nI1\nsVtype\np509\nI1\nsVlink_url\np510\nVhttp://buzzfeed.com/ht/awesomer/no-thumbtacks-in-wall/HFAA1\np511\nsVview_tag\np512\ng37\nsa(dp513\nValt_view_tags\np514\n(lp515\nsVbody\np516\nVThis office suffers from a total lack of accountability.\np517\nsVimage_hash\np518\nVc29861d40fefa4f2c647f87503cb8b98\np519\nsVname\np520\nVNo Thumbtacks In Wall-01\np521\nsVtitle\np522\nVNo Thumbtacks In Wall\np523\nsVcreative_id\np524\nV6003082267565\np525\nsVpreview_url\np526\nVhttp://www.facebook.com/ads/api/creative_preview.php?cid=6003082267565\np527\nsVid\np528\nV6003082267565\np529\nsVimage_url\np530\nVhttps://fbcdn-creative-a.akamaihd.net/hads-ak-ash3/s110x80/708205_6006845217565_10980_n.jpg\np531\nsVcount_current_adgroups\np532\nI0\nsVrun_status\np533\nI1\nsVtype\np534\nI1\nsVlink_url\np535\nVhttp://buzzfeed.com/ht/awesomer/no-thumbtacks-in-wall/HFAA1\np536\nsVview_tag\np537\ng37\nsa(dp538\nValt_view_tags\np539\n(lp540\nsVbody\np541\nVThis office suffers from a total lack of accountability.\np542\nsVimage_hash\np543\nVc29861d40fefa4f2c647f87503cb8b98\np544\nsVname\np545\nVNo Thumbtacks In Wall-00\np546\nsVtitle\np547\nVNo Thumbtacks In Wall\np548\nsVcreative_id\np549\nV6003082258565\np550\nsVpreview_url\np551\nVhttp://www.facebook.com/ads/api/creative_preview.php?cid=6003082258565\np552\nsVid\np553\nV6003082258565\np554\nsVimage_url\np555\nVhttps://fbcdn-creative-a.akamaihd.net/hads-ak-ash3/s110x80/708205_6006845217565_10980_n.jpg\np556\nsVcount_current_adgroups\np557\nI0\nsVrun_status\np558\nI1\nsVtype\np559\nI1\nsVlink_url\np560\nVhttp://buzzfeed.com/ht/awesomer/no-thumbtacks-in-wall/HFAA1\np561\nsVview_tag\np562\ng37\nsa(dp563\nValt_view_tags\np564\n(lp565\nsVbody\np566\nVThis office suffers from a total lack of accountability.\np567\nsVimage_hash\np568\nVc29861d40fefa4f2c647f87503cb8b98\np569\nsVname\np570\nVNo Thumbtacks In Wall\np571\nsVtitle\np572\nVNo Thumbtacks In Wall\np573\nsVcreative_id\np574\nV6003082166565\np575\nsVpreview_url\np576\nVhttp://w'
p6
sS'hash'
p7
S'e414257bcbea91da0507957745e72677bbf9ee55'
p8
sS'stack'
p9
S''
s.