(dp1
S'args'
p2
S''
sS'methodname'
p3
S''
sS'packet_num'
p4
I32
sS'returnval'
p5
S'Vhttps://fbcdn-creative-a.akamaihd.net/hads-ak-prn1/s110x80/708189_6006845183565_36988_n.jpg\np4306\nsVcount_current_adgroups\np4307\nI0\nsVrun_status\np4308\nI1\nsVtype\np4309\nI1\nsVlink_url\np4310\nVhttp://buzzfeed.com/ashleybaccam/washyourhandsington\np4311\nsVview_tag\np4312\ng37\nsa(dp4313\nValt_view_tags\np4314\n(lp4315\nsVbody\np4316\nVOhhh... so that\'s what\'s in Swiss Miss Hot Chocolate!\np4317\nsVimage_hash\np4318\nV879dbbf05895022eb94496fd05cf762e\np4319\nsVname\np4320\nVLittle Packets of Cozy\np4321\nsVtitle\np4322\nVLittle Packets of Cozy\np4323\nsVcreative_id\np4324\nV6002896040365\np4325\nsVpreview_url\np4326\nVhttp://www.facebook.com/ads/api/creative_preview.php?cid=6002896040365\np4327\nsVid\np4328\nV6002896040365\np4329\nsVimage_url\np4330\nVhttps://fbcdn-creative-a.akamaihd.net/hads-ak-ash3/s110x80/708205_6006844863165_52390_n.jpg\np4331\nsVcount_current_adgroups\np4332\nI0\nsVrun_status\np4333\nI1\nsVtype\np4334\nI1\nsVlink_url\np4335\nVhttp://buzzfeed.com/ashleybaccam/little-packets-of-cozy\np4336\nsVview_tag\np4337\ng37\nsa(dp4338\nValt_view_tags\np4339\n(lp4340\nsVbody\np4341\nVEverybody poops.\np4342\nsVimage_hash\np4343\nVa0b9fa0d8c1c1df5d058ced44cae6508\np4344\nsVname\np4345\nVUniversal Bathroom\np4346\nsVtitle\np4347\nVUniversal Bathroom\np4348\nsVcreative_id\np4349\nV6002896042165\np4350\nsVpreview_url\np4351\nVhttp://www.facebook.com/ads/api/creative_preview.php?cid=6002896042165\np4352\nsVid\np4353\nV6002896042165\np4354\nsVimage_url\np4355\nVhttps://fbcdn-creative-a.akamaihd.net/hads-ak-ash3/s110x80/701896_6006845014565_12708_n.jpg\np4356\nsVcount_current_adgroups\np4357\nI0\nsVrun_status\np4358\nI1\nsVtype\np4359\nI1\nsVlink_url\np4360\nVhttp://buzzfeed.com/ashleybaccam/universal-bathroom\np4361\nsVview_tag\np4362\ng37\nsa(dp4363\nValt_view_tags\np4364\n(lp4365\nsVbody\np4366\nVIt\'s important to teach your children the classics while they\'re young.\np4367\nsVimage_hash\np4368\nV9bc339d2504e8e74db1df5303d058f35\np4369\nsVname\np4370\nVAdorable Little Boy Reci\np4371\nsVtitle\np4372\nVAdorable Little Boy Reci\np4373\nsVcreative_id\np4374\nV6002896043965\np4375\nsVpreview_url\np4376\nVhttp://www.facebook.com/ads/api/creative_preview.php?cid=6002896043965\np4377\nsVid\np4378\nV6002896043965\np4379\nsVimage_url\np4380\nVhttps://fbcdn-creative-a.akamaihd.net/hads-ak-snc7/s110x80/701900_6006844979565_38174_n.jpg\np4381\nsVcount_current_adgroups\np4382\nI0\nsVrun_status\np4383\nI1\nsVtype\np4384\nI1\nsVlink_url\np4385\nVhttp://buzzfeed.com/ashleybaccam/adorable-little-boy-recites-o-captain-my-captain\np4386\nsVview_tag\np4387\ng37\nsa(dp4388\nValt_view_tags\np4389\n(lp4390\nsVbody\np4391\nVEvery student group and clique ever at Emerson College is in this Lady Gaga lipdub!\np4392\nsVimage_hash\np4393\nV05f7b53f35ec023657bf1d49c6796d5b\np4394\nsVname\np4395\nVEmerson College Lady Gag\np4396\nsVtitle\np4397\nVEmerson College Lady Gag\np4398\nsVcreative_id\np4399\nV6002896045765\np4400\nsVpreview_url\np4401\nVhttp://www.facebook.com/ads/api/creative_preview.php?cid=6002896045765\np4402\nsVid\np4403\nV6002896045765\np4404\nsVimage_url\np4405\nVhttps://fbcdn-creative-a.akamaihd.net/hads-ak-ash3/s110x80/701892_6006844083565_49118_n.jpg\np4406\nsVcount_current_adgroups\np4407\nI0\nsVrun_status\np4408\nI1\nsVtype\np4409\nI1\nsVlink_url\np4410\nVhttp://buzzfeed.com/ashleybaccam/emerson-college-lady-gaga-lip-dub\np4411\nsVview_tag\np4412\ng37\nsa(dp4413\nValt_view_tags\np4414\n(lp4415\nsVbody\np4416\nVDanil Polevoy transforms vintage photographs into comical, anachronistic collages. It\'s like an interesting game of "what doesn\x03\np4417\nsVimage_hash\np4418\nV87ddfe30648b5f63a8ea2b471b087eac\np4419\nsVname\np4420\nVAmazing Anachronistic Ph\np4421\nsVtitle\np4422\nVAmazing Anachronistic Ph\np4423\nsVcreative_id\np4424\nV6002896047565\np4425\nsVpreview_url\np4426\nVhttp://www.facebook.com/ads/api/creative_preview.php?cid=6002896047565\np4427\nsVid\np4428\nV6002896047565\np4429\nsVimage_url\np4430\nVhttps://fbcdn-creative-a.akamaihd.net/hads-ak-prn1/s110x80/708205_6006844864165_51608_n.jpg\np4431\nsVcount_current_adgroups\np4432\nI0\nsVrun_status\np4433\nI1\nsVtype\np4434\nI1\nsVlink_url\np4435\nVhttp://buzzfeed.com/ashleybaccam/amazing-anachronistic-photo-collages\np4436\nsVview_tag\np4437\ng37\nsa(dp4438\nValt_view_tags\np4439\n(lp4440\nsVbody\np4441\nVDinosaurs wouldn\'t have died off if t'
p6
sS'hash'
p7
S'e414257bcbea91da0507957745e72677bbf9ee55'
p8
sS'stack'
p9
S''
s.