(dp1
S'args'
p2
S''
sS'methodname'
p3
S''
sS'packet_num'
p4
I35
sS'returnval'
p5
S'p5371\nI20000\nsVstart_time\np5372\nV2012-07-31T16:43:00-0700\np5373\nsVcampaign_id\np5374\nI6005578255165\nsVaccount_id\np5375\nI40156177\nsVdaily_imps\np5376\nI0\nsVend_time\np5377\nV2012-08-11T20:30:00-0700\np5378\nsVfrequency_cap\np5379\nI0\nsVcreated_time\np5380\nV2012-07-31T13:49:33-0700\np5381\nsVupdated_time\np5382\nV2012-08-10T10:50:45-0700\np5383\nsVcampaign_status\np5384\nI2\nsVid\np5385\nV6005578255165\np5386\nsVname\np5387\nVRed Stripe: June-Aug_2012 | The-Definitive-Collection-Of-Hooray-Gifs-6Phl\np5388\nsa(dp5389\nVdaily_budget\np5390\nI30000\nsVstart_time\np5391\nV2012-07-31T13:51:37-0700\np5392\nsVcampaign_id\np5393\nI6005578261365\nsVaccount_id\np5394\nI40156177\nsVdaily_imps\np5395\nI0\nsVend_time\np5396\nV2012-08-05T20:00:00-0700\np5397\nsVfrequency_cap\np5398\nI0\nsVcreated_time\np5399\nV2012-07-31T13:51:37-0700\np5400\nsVupdated_time\np5401\nV2012-09-21T13:11:56-0700\np5402\nsVcampaign_status\np5403\nI2\nsVid\np5404\nV6005578261365\np5405\nsVname\np5406\nVBuzzFeed RND: API SS Test|ktlincoln/an-olympic-fencer-refuses-to-leave-the-floor-after\np5407\nsa(dp5408\nVdaily_budget\np5409\nI30000\nsVstart_time\np5410\nV2012-07-31T17:07:00-0700\np5411\nsVcampaign_id\np5412\nI6005578291365\nsVaccount_id\np5413\nI40156177\nsVdaily_imps\np5414\nI0\nsVend_time\np5415\nV2012-08-03T20:00:00-0700\np5416\nsVfrequency_cap\np5417\nI0\nsVcreated_time\np5418\nV2012-07-31T14:10:31-0700\np5419\nsVupdated_time\np5420\nV2012-09-21T13:11:58-0700\np5421\nsVcampaign_status\np5422\nI2\nsVid\np5423\nV6005578291365\np5424\nsVname\np5425\nVKiller Joe: July_Aug 2012 | 10-Gut-Churning-Scenes-From-Controversial-Movies-6Tzm\np5426\nsa(dp5427\nVdaily_budget\np5428\nI25000\nsVstart_time\np5429\nV2012-08-01T09:24:00-0700\np5430\nsVcampaign_id\np5431\nI6005582601965\nsVaccount_id\np5432\nI40156177\nsVdaily_imps\np5433\nI0\nsVend_time\np5434\nV2012-08-02T20:24:00-0700\np5435\nsVfrequency_cap\np5436\nI0\nsVcreated_time\np5437\nV2012-08-01T07:37:35-0700\np5438\nsVupdated_time\np5439\nV2012-09-21T13:12:00-0700\np5440\nsVcampaign_status\np5441\nI2\nsVid\np5442\nV6005582601965\np5443\nsVname\np5444\nVBig Red Soda: Experiments: Month-Month_Year | The-11-Most-Important-Science-Fair-Projects-Of-Our\np5445\nsa(dp5446\nVdaily_budget\np5447\nI25000\nsVstart_time\np5448\nV2012-08-01T09:42:00-0700\np5449\nsVcampaign_id\np5450\nI6005582667765\nsVaccount_id\np5451\nI40156177\nsVdaily_imps\np5452\nI0\nsVend_time\np5453\nV2012-08-02T20:42:00-0700\np5454\nsVfrequency_cap\np5455\nI0\nsVcreated_time\np5456\nV2012-08-01T07:57:34-0700\np5457\nsVupdated_time\np5458\nV2012-09-21T13:12:01-0700\np5459\nsVcampaign_status\np5460\nI2\nsVid\np5461\nV6005582667765\np5462\nsVname\np5463\nVBig Red Soda: Experiments: Aug_2012 | Science-Fair-Projects-Expectations-Vs-Reality\np5464\nsa(dp5465\nVdaily_budget\np5466\nI25000\nsVstart_time\np5467\nV2012-08-01T11:02:00-0700\np5468\nsVcampaign_id\np5469\nI6005582716365\nsVaccount_id\np5470\nI40156177\nsVdaily_imps\np5471\nI0\nsVend_time\np5472\nV2012-08-04T20:02:00-0700\np5473\nsVfrequency_cap\np5474\nI0\nsVcreated_time\np5475\nV2012-08-01T08:14:41-0700\np5476\nsVupdated_time\np5477\nV2012-09-21T13:12:03-0700\np5478\nsVcampaign_status\np5479\nI2\nsVid\np5480\nV6005582716365\np5481\nsVname\np5482\nVBig Red Soda: Experiments: Aug_2012 | The-9-Best-Things-To-Come-Out-Of-Garages\np5483\nsa(dp5484\nVname\np5485\nVBuzzFeed RND: Olympic Tweet Fail\np5486\nsVstart_time\np5487\nV2012-08-02T06:00:00-0700\np5488\nsVcampaign_id\np5489\nI6005583343765\nsVfrequency_cap\np5490\nI0\nsVdaily_imps\np5491\nI0\nsVlifetime_budget\np5492\nI30000\nsVend_time\np5493\nV2012-08-02T13:00:00-0700\np5494\nsVcreated_time\np5495\nV2012-08-01T11:19:44-0700\np5496\nsVupdated_time\np5497\nV2012-09-21T13:12:05-0700\np5498\nsVcampaign_status\np5499\nI2\nsVid\np5500\nV6005583343765\np5501\nsVaccount_id\np5502\nI40156177\nsa(dp5503\nVdaily_budget\np5504\nI40000\nsVstart_time\np5505\nV2012-08-01T13:41:00-0700\np5506\nsVcampaign_id\np5507\nI6005583414565\nsVaccount_id\np5508\nI40156177\nsVdaily_imps\np5509\nI0\nsVend_time\np5510\nV2012-08-05T20:41:00-0700\np5511\nsVfrequency_cap\np5512\nI0\nsVcreated_time\np5513\nV2012-08-01T11:58:01-0700\np5514\nsVupdated_time\np5515\nV2012-09-21T13:12:07-0700\np5516\nsVcampaign_status\np5517\nI2\nsVid\np5518\nV6005583414565\np5519\nsVname\np5520\nVFord Fusion: ROAF July-Sept 2012 | The-Definitive-Collection-Of-Joel-Mchale-Gifs\np5521\nsa(dp5522\nVdaily_budget\np5523\nI25000'
p6
sS'hash'
p7
S'ebf54ec3e1c56bfa3ad0d78e48de63f888e62efd'
p8
sS'stack'
p9
S''
s.