(dp1
S'args'
p2
S''
sS'methodname'
p3
S''
sS'packet_num'
p4
I52
sS'returnval'
p5
S'970\nsVname\np7971\nVGE: Nostalgia: Sept_2012 | Timeless-Ge-Ads-Through-The-Years-6Ieg\np7972\nsa(dp7973\nVdaily_budget\np7974\nI20200\nsVstart_time\np7975\nV2012-09-05T12:22:53-0700\np7976\nsVcampaign_id\np7977\nI6005776594165\nsVaccount_id\np7978\nI40156177\nsVdaily_imps\np7979\nI0\nsVend_time\np7980\nV2012-09-14T23:25:00-0700\np7981\nsVfrequency_cap\np7982\nI0\nsVcreated_time\np7983\nV2012-09-05T12:22:53-0700\np7984\nsVupdated_time\np7985\nV2012-09-21T13:15:46-0700\np7986\nsVcampaign_status\np7987\nI2\nsVid\np7988\nV6005776594165\np7989\nsVname\np7990\nVRed Stripe: June-Aug_2012 | 19-Reasons-Why-Work-Will-Rock-Today-6Phl\np7991\nsa(dp7992\nVdaily_budget\np7993\nI20000\nsVstart_time\np7994\nV2012-09-07T07:11:00-0700\np7995\nsVcampaign_id\np7996\nI6005780132365\nsVaccount_id\np7997\nI40156177\nsVdaily_imps\np7998\nI0\nsVend_time\np7999\nV2012-09-08T23:11:00-0700\np8000\nsVfrequency_cap\np8001\nI0\nsVcreated_time\np8002\nV2012-09-06T11:24:27-0700\np8003\nsVupdated_time\np8004\nV2012-09-21T13:15:48-0700\np8005\nsVcampaign_status\np8006\nI2\nsVid\np8007\nV6005780132365\np8008\nsVname\np8009\nVMSFT Bing: Sept-Oct_2012 | 24-Things-You-Havent-Considered-But-Probably-Sho\np8010\nsa(dp8011\nVdaily_budget\np8012\nI10000\nsVstart_time\np8013\nV2012-09-06T18:08:00-0700\np8014\nsVcampaign_id\np8015\nI6005780795565\nsVaccount_id\np8016\nI40156177\nsVdaily_imps\np8017\nI0\nsVend_time\np8018\nV2012-09-07T20:30:00-0700\np8019\nsVfrequency_cap\np8020\nI0\nsVcreated_time\np8021\nV2012-09-06T15:13:37-0700\np8022\nsVupdated_time\np8023\nV2012-09-21T13:15:50-0700\np8024\nsVcampaign_status\np8025\nI2\nsVid\np8026\nV6005780795565\np8027\nsVname\np8028\nVGE: Nostalgia: Sept_2012 | Famous-Geeks-Hanging-Out-In-The-1900S-6Ieg\np8029\nsa(dp8030\nVdaily_budget\np8031\nI30000\nsVstart_time\np8032\nV2012-09-07T13:40:21-0700\np8033\nsVcampaign_id\np8034\nI6005780843765\nsVaccount_id\np8035\nI40156177\nsVdaily_imps\np8036\nI0\nsVend_time\np8037\nV2012-09-12T20:30:00-0700\np8038\nsVfrequency_cap\np8039\nI0\nsVcreated_time\np8040\nV2012-09-06T15:36:16-0700\np8041\nsVupdated_time\np8042\nV2012-09-21T13:15:52-0700\np8043\nsVcampaign_status\np8044\nI2\nsVid\np8045\nV6005780843765\np8046\nsVname\np8047\nVGE: Nostalgia: Sept_2012 | The-Evolution-Of-10-Edison-Inventions-We-Still-Use-6Ieg\np8048\nsa(dp8049\nVdaily_budget\np8050\nI50000\nsVstart_time\np8051\nV2012-09-07T08:20:54-0700\np8052\nsVcampaign_id\np8053\nI6005782754565\nsVaccount_id\np8054\nI40156177\nsVdaily_imps\np8055\nI0\nsVend_time\np8056\nV2012-09-30T00:00:00-0700\np8057\nsVfrequency_cap\np8058\nI0\nsVcreated_time\np8059\nV2012-09-07T08:20:54-0700\np8060\nsVupdated_time\np8061\nV2012-09-27T07:49:11-0700\np8062\nsVcampaign_status\np8063\nI2\nsVid\np8064\nV6005782754565\np8065\nsVname\np8066\nVVirgin Mobile: Q3 2012 | 20-of-the-best-things-in-life-that-are-free-5l87\np8067\nsa(dp8068\nVdaily_budget\np8069\nI50000\nsVstart_time\np8070\nV2012-09-07T09:09:45-0700\np8071\nsVcampaign_id\np8072\nI6005782885365\nsVaccount_id\np8073\nI40156177\nsVdaily_imps\np8074\nI0\nsVend_time\np8075\nV2012-09-08T20:30:00-0700\np8076\nsVfrequency_cap\np8077\nI0\nsVcreated_time\np8078\nV2012-09-07T09:09:45-0700\np8079\nsVupdated_time\np8080\nV2012-09-21T13:15:56-0700\np8081\nsVcampaign_status\np8082\nI2\nsVid\np8083\nV6005782885365\np8084\nsVname\np8085\nVFord Fusion: ROAF July-Sept 2012 | 10-Celebrities-Living-Their-Best-Lives\np8086\nsa(dp8087\nVname\np8088\nVNBC: New Normal: Aug-Sept 2012 | 11-People-Who-Should-Have-Our-Babies\np8089\nsVstart_time\np8090\nV2012-09-07T14:35:28-0700\np8091\nsVcampaign_id\np8092\nI6005784298365\nsVfrequency_cap\np8093\nI0\nsVdaily_imps\np8094\nI0\nsVlifetime_budget\np8095\nI50000\nsVend_time\np8096\nV2012-09-10T00:00:00-0700\np8097\nsVcreated_time\np8098\nV2012-09-07T14:35:29-0700\np8099\nsVupdated_time\np8100\nV2012-09-21T13:16:02-0700\np8101\nsVcampaign_status\np8102\nI2\nsVid\np8103\nV6005784298365\np8104\nsVaccount_id\np8105\nI40156177\nsa(dp8106\nVname\np8107\nVNBC: New Normal: Aug-Sept 2012 | The-Most-Famous-Gay-Parents-And-Their-Families\np8108\nsVstart_time\np8109\nV2012-09-07T14:37:10-0700\np8110\nsVcampaign_id\np8111\nI6005784303765\nsVfrequency_cap\np8112\nI0\nsVdaily_imps\np8113\nI0\nsVlifetime_budget\np8114\nI50000\nsVend_time\np8115\nV2012-09-10T00:00:00-0700\np8116\nsVcreated_time\np8117\nV2012-09-07T14:37:10-0700\np8118\nsVupdated_time\np8119\nV2012-09-21T13:16:03-0700\np8120\nsVcampaign_status\np8121\nI2\ns'
p6
sS'hash'
p7
S'ebf54ec3e1c56bfa3ad0d78e48de63f888e62efd'
p8
sS'stack'
p9
S''
s.