(dp1
S'args'
p2
S''
sS'methodname'
p3
S''
sS'packet_num'
p4
I21
sS'returnval'
p5
S'0\nsVstart_time\np3244\nV2012-06-18T07:42:12-0700\np3245\nsVcampaign_id\np3246\nI6005321713965\nsVaccount_id\np3247\nI40156177\nsVdaily_imps\np3248\nI0\nsVend_time\np3249\nV2012-06-30T20:00:00-0700\np3250\nsVfrequency_cap\np3251\nI0\nsVcreated_time\np3252\nV2012-06-18T07:42:13-0700\np3253\nsVupdated_time\np3254\nV2012-06-26T13:35:39-0700\np3255\nsVcampaign_status\np3256\nI2\nsVid\np3257\nV6005321713965\np3258\nsVname\np3259\nVWashington Lottery: June 2012 | 10-Of-The-Most-Expensive-And-Outrageous-Auction-It-68Vg\np3260\nsa(dp3261\nVdaily_budget\np3262\nI100000\nsVstart_time\np3263\nV2012-06-18T11:33:58-0700\np3264\nsVcampaign_id\np3265\nI6005323726565\nsVaccount_id\np3266\nI40156177\nsVdaily_imps\np3267\nI0\nsVend_time\np3268\nV2012-06-25T00:00:00-0700\np3269\nsVfrequency_cap\np3270\nI0\nsVcreated_time\np3271\nV2012-06-18T11:33:58-0700\np3272\nsVupdated_time\np3273\nV2012-09-21T13:08:43-0700\np3274\nsVcampaign_status\np3275\nI2\nsVid\np3276\nV6005323726565\np3277\nsVname\np3278\nVOrganic (Samir): June 2012 | API SS | things-they-dont-teach-you-in-business-school\np3279\nsa(dp3280\nVname\np3281\nVHulu Spoilers: June 2012 | Directors-With-The-Biggest-Cult-Followings\np3282\nsVstart_time\np3283\nV2012-06-18T14:34:00-0700\np3284\nsVcampaign_id\np3285\nI6005323735365\nsVfrequency_cap\np3286\nI0\nsVdaily_imps\np3287\nI0\nsVlifetime_budget\np3288\nI60000\nsVend_time\np3289\nV2012-06-25T20:00:00-0700\np3290\nsVcreated_time\np3291\nV2012-06-18T11:43:00-0700\np3292\nsVupdated_time\np3293\nV2012-09-21T13:08:45-0700\np3294\nsVcampaign_status\np3295\nI2\nsVid\np3296\nV6005323735365\np3297\nsVaccount_id\np3298\nI40156177\nsa(dp3299\nVname\np3300\nVHulu Spoilers: June 2012 | Kevin-Smiths-Greatest-Film-Characters\np3301\nsVstart_time\np3302\nV2012-06-18T14:51:00-0700\np3303\nsVcampaign_id\np3304\nI6005323986165\nsVfrequency_cap\np3305\nI0\nsVdaily_imps\np3306\nI0\nsVlifetime_budget\np3307\nI40000\nsVend_time\np3308\nV2012-06-25T20:00:00-0700\np3309\nsVcreated_time\np3310\nV2012-06-18T11:58:31-0700\np3311\nsVupdated_time\np3312\nV2012-09-21T13:08:47-0700\np3313\nsVcampaign_status\np3314\nI2\nsVid\np3315\nV6005323986165\np3316\nsVaccount_id\np3317\nI40156177\nsa(dp3318\nVname\np3319\nVMSFT Bing: June 2012 | 14-Types-Of-Friends-You-Have-On-Facebook\np3320\nsVstart_time\np3321\nV2012-06-18T12:26:56-0700\np3322\nsVcampaign_id\np3323\nI6005324759765\nsVfrequency_cap\np3324\nI0\nsVdaily_imps\np3325\nI0\nsVlifetime_budget\np3326\nI30000\nsVend_time\np3327\nV2012-06-18T20:30:00-0700\np3328\nsVcreated_time\np3329\nV2012-06-18T12:26:56-0700\np3330\nsVupdated_time\np3331\nV2012-09-21T13:08:49-0700\np3332\nsVcampaign_status\np3333\nI2\nsVid\np3334\nV6005324759765\np3335\nsVaccount_id\np3336\nI40156177\nsa(dp3337\nVname\np3338\nVMSFT Bing: June 2012 | Cheap-And-Delicious-Eats-And-How-To-Find-Them\np3339\nsVstart_time\np3340\nV2012-06-19T06:00:00-0700\np3341\nsVcampaign_id\np3342\nI6005324784965\nsVfrequency_cap\np3343\nI0\nsVdaily_imps\np3344\nI0\nsVlifetime_budget\np3345\nI30000\nsVend_time\np3346\nV2012-06-21T20:30:00-0700\np3347\nsVcreated_time\np3348\nV2012-06-18T12:38:56-0700\np3349\nsVupdated_time\np3350\nV2012-09-21T13:08:51-0700\np3351\nsVcampaign_status\np3352\nI2\nsVid\np3353\nV6005324784965\np3354\nsVaccount_id\np3355\nI40156177\nsa(dp3356\nVname\np3357\nVTostitos: Q2 2012 | 10-Things-That-Will-Remind-You-Of-A-Summer-Bbq-4Hwd\np3358\nsVstart_time\np3359\nV2012-06-18T18:17:00-0700\np3360\nsVcampaign_id\np3361\nI6005326323965\nsVfrequency_cap\np3362\nI0\nsVdaily_imps\np3363\nI0\nsVlifetime_budget\np3364\nI30000\nsVend_time\np3365\nV2012-06-27T20:17:00-0700\np3366\nsVcreated_time\np3367\nV2012-06-18T15:21:36-0700\np3368\nsVupdated_time\np3369\nV2012-09-21T13:08:52-0700\np3370\nsVcampaign_status\np3371\nI2\nsVid\np3372\nV6005326323965\np3373\nsVaccount_id\np3374\nI40156177\nsa(dp3375\nVname\np3376\nVTED: June 2012 | The-Worst-Behaved-Teddy-Bear-Of-All-Time-6Gxf\np3377\nsVstart_time\np3378\nV2012-06-19T12:46:00-0700\np3379\nsVcampaign_id\np3380\nI6005332260365\nsVfrequency_cap\np3381\nI0\nsVdaily_imps\np3382\nI0\nsVlifetime_budget\np3383\nI50000\nsVend_time\np3384\nV2012-06-27T20:00:00-0700\np3385\nsVcreated_time\np3386\nV2012-06-19T10:27:33-0700\np3387\nsVupdated_time\np3388\nV2012-09-21T13:08:54-0700\np3389\nsVcampaign_status\np3390\nI2\nsVid\np3391\nV6005332260365\np3392\nsVaccount_id\np3393\nI40156177\nsa(dp3394\nVname\np3395\nVCanon PowerShot: June_July 2012 | 15-Pictures-You-'
p6
sS'hash'
p7
S'ebf54ec3e1c56bfa3ad0d78e48de63f888e62efd'
p8
sS'stack'
p9
S''
s.