(dp1
S'args'
p2
S''
sS'methodname'
p3
S''
sS'packet_num'
p4
I55
sS'returnval'
p5
S'bile: Q3 2012 | 10-times-its-really-not-ok-to-instagram-5l87\np8431\nsVstart_time\np8432\nV2012-09-11T15:41:03-0700\np8433\nsVcampaign_id\np8434\nI6005802916565\nsVfrequency_cap\np8435\nI0\nsVdaily_imps\np8436\nI0\nsVlifetime_budget\np8437\nI50000\nsVend_time\np8438\nV2012-09-30T23:00:00-0700\np8439\nsVcreated_time\np8440\nV2012-09-11T15:41:04-0700\np8441\nsVupdated_time\np8442\nV2012-09-27T07:49:06-0700\np8443\nsVcampaign_status\np8444\nI2\nsVid\np8445\nV6005802916565\np8446\nsVaccount_id\np8447\nI40156177\nsa(dp8448\nVdaily_budget\np8449\nI77700\nsVstart_time\np8450\nV2012-09-12T08:00:00-0700\np8451\nsVcampaign_id\np8452\nI6005804961165\nsVaccount_id\np8453\nI40156177\nsVdaily_imps\np8454\nI0\nsVend_time\np8455\nV2012-09-21T23:24:00-0700\np8456\nsVfrequency_cap\np8457\nI0\nsVcreated_time\np8458\nV2012-09-12T07:29:01-0700\np8459\nsVupdated_time\np8460\nV2012-09-21T13:16:55-0700\np8461\nsVcampaign_status\np8462\nI2\nsVid\np8463\nV6005804961165\np8464\nsVname\np8465\nVNBC: Animal Practice : Sept_2012 | 15-Sweet-Animalhuman-Friendships\np8466\nsa(dp8467\nVdaily_budget\np8468\nI42500\nsVstart_time\np8469\nV2012-09-12T11:30:00-0700\np8470\nsVcampaign_id\np8471\nI6005805958365\nsVaccount_id\np8472\nI40156177\nsVdaily_imps\np8473\nI0\nsVend_time\np8474\nV2012-09-17T23:54:00-0700\np8475\nsVfrequency_cap\np8476\nI0\nsVcreated_time\np8477\nV2012-09-12T09:57:29-0700\np8478\nsVupdated_time\np8479\nV2012-09-21T13:16:59-0700\np8480\nsVcampaign_status\np8481\nI2\nsVid\np8482\nV6005805958365\np8483\nsVname\np8484\nVNBC: Animal Practice : Sept_2012 | The-Most-Iconic-Animals-In-Showbiz\np8485\nsa(dp8486\nVdaily_budget\np8487\nI40000\nsVstart_time\np8488\nV2012-09-13T06:22:00-0700\np8489\nsVcampaign_id\np8490\nI6005806472565\nsVaccount_id\np8491\nI40156177\nsVdaily_imps\np8492\nI0\nsVend_time\np8493\nV2012-09-13T23:22:00-0700\np8494\nsVfrequency_cap\np8495\nI0\nsVcreated_time\np8496\nV2012-09-12T12:39:07-0700\np8497\nsVupdated_time\np8498\nV2012-09-21T13:17:03-0700\np8499\nsVcampaign_status\np8500\nI2\nsVid\np8501\nV6005806472565\np8502\nsVname\np8503\nVLooper: Sept_2012 | The-Official-Career-Timeline-Of-Joseph-Gordon-Levi\np8504\nsa(dp8505\nVdaily_budget\np8506\nI50000\nsVstart_time\np8507\nV2012-09-13T09:02:00-0700\np8508\nsVcampaign_id\np8509\nI6005812071565\nsVaccount_id\np8510\nI40156177\nsVdaily_imps\np8511\nI0\nsVend_time\np8512\nV2012-09-14T23:02:00-0700\np8513\nsVfrequency_cap\np8514\nI0\nsVcreated_time\np8515\nV2012-09-13T06:23:29-0700\np8516\nsVupdated_time\np8517\nV2012-09-21T13:17:05-0700\np8518\nsVcampaign_status\np8519\nI2\nsVid\np8520\nV6005812071565\np8521\nsVname\np8522\nVVirgin Mobile: Q3 2012 | 17-awesome-political-bumper-stickers-5l87\np8523\nsa(dp8524\nVdaily_budget\np8525\nI40000\nsVstart_time\np8526\nV2012-09-13T07:18:40-0700\np8527\nsVcampaign_id\np8528\nI6005812236565\nsVaccount_id\np8529\nI40156177\nsVdaily_imps\np8530\nI0\nsVend_time\np8531\nV2012-09-14T20:30:00-0700\np8532\nsVfrequency_cap\np8533\nI0\nsVcreated_time\np8534\nV2012-09-13T07:17:41-0700\np8535\nsVupdated_time\np8536\nV2012-09-21T13:17:07-0700\np8537\nsVcampaign_status\np8538\nI2\nsVid\np8539\nV6005812236565\np8540\nsVname\np8541\nVStarbucks: DoubleShot: Sept-Oct 2012 | 14-Sweet-Shots-Of-Celebs-With-Their-Stunt-Doubles-78M6\np8542\nsa(dp8543\nVdaily_budget\np8544\nI40000\nsVstart_time\np8545\nV2012-09-13T07:48:07-0700\np8546\nsVcampaign_id\np8547\nI6005812270565\nsVaccount_id\np8548\nI40156177\nsVdaily_imps\np8549\nI0\nsVend_time\np8550\nV2012-09-14T20:30:00-0700\np8551\nsVfrequency_cap\np8552\nI0\nsVcreated_time\np8553\nV2012-09-13T07:30:18-0700\np8554\nsVupdated_time\np8555\nV2012-09-21T13:17:08-0700\np8556\nsVcampaign_status\np8557\nI2\nsVid\np8558\nV6005812270565\np8559\nsVname\np8560\nVStarbucks: DoubleShot: Sept-Oct 2012 | 24-Double-Takes-That-Will-Leave-You-Puzzled-78M6\np8561\nsa(dp8562\nVdaily_budget\np8563\nI40000\nsVstart_time\np8564\nV2012-09-13T09:06:05-0700\np8565\nsVcampaign_id\np8566\nI6005812650965\nsVaccount_id\np8567\nI40156177\nsVdaily_imps\np8568\nI0\nsVend_time\np8569\nV2012-09-14T20:30:00-0700\np8570\nsVfrequency_cap\np8571\nI0\nsVcreated_time\np8572\nV2012-09-13T09:06:05-0700\np8573\nsVupdated_time\np8574\nV2012-09-21T13:17:14-0700\np8575\nsVcampaign_status\np8576\nI2\nsVid\np8577\nV6005812650965\np8578\nsVname\np8579\nVPedigree: Aug-Oct 2012 | 20-Reasons-Why-Dogs-Are-Mans-Best-Friend\np8580\nsa(dp8581\nVname\np8582\nVPedigree: Aug-Oct 2012 | 20-Reasons-Why-Dogs'
p6
sS'hash'
p7
S'ebf54ec3e1c56bfa3ad0d78e48de63f888e62efd'
p8
sS'stack'
p9
S''
s.