(dp1
S'args'
p2
S''
sS'methodname'
p3
S''
sS'packet_num'
p4
I31
sS'returnval'
p5
S'7\nsa(dp4762\nVdaily_budget\np4763\nI15000\nsVstart_time\np4764\nV2012-07-20T12:34:00-0700\np4765\nsVcampaign_id\np4766\nI6005536169365\nsVaccount_id\np4767\nI40156177\nsVdaily_imps\np4768\nI0\nsVend_time\np4769\nV2012-07-21T20:00:00-0700\np4770\nsVfrequency_cap\np4771\nI0\nsVcreated_time\np4772\nV2012-07-20T09:39:27-0700\np4773\nsVupdated_time\np4774\nV2012-09-21T13:11:03-0700\np4775\nsVcampaign_status\np4776\nI2\nsVid\np4777\nV6005536169365\np4778\nsVname\np4779\nVTemptations: July - August_2012 | 16-Reasons-Why-Your-Cat-Deserves-Treats\np4780\nsa(dp4781\nVname\np4782\nVTemptations: July - August_2012 | Brand Channel\np4783\nsVstart_time\np4784\nV2012-07-20T12:41:00-0700\np4785\nsVcampaign_id\np4786\nI6005536191165\nsVfrequency_cap\np4787\nI0\nsVdaily_imps\np4788\nI0\nsVlifetime_budget\np4789\nI35000\nsVend_time\np4790\nV2012-07-25T20:00:00-0700\np4791\nsVcreated_time\np4792\nV2012-07-20T09:48:38-0700\np4793\nsVupdated_time\np4794\nV2012-09-21T13:11:05-0700\np4795\nsVcampaign_status\np4796\nI2\nsVid\np4797\nV6005536191165\np4798\nsVaccount_id\np4799\nI40156177\nsa(dp4800\nVname\np4801\nVMikes Hard Lemonade: July-Aug 2012 | 18-Of-The-Most-Refreshing-Things-In-The-World-6J5C\np4802\nsVstart_time\np4803\nV2012-07-23T10:17:00-0700\np4804\nsVcampaign_id\np4805\nI6005542542565\nsVfrequency_cap\np4806\nI0\nsVdaily_imps\np4807\nI0\nsVlifetime_budget\np4808\nI112500\nsVend_time\np4809\nV2012-07-31T20:00:00-0700\np4810\nsVcreated_time\np4811\nV2012-07-23T07:50:10-0700\np4812\nsVupdated_time\np4813\nV2012-09-21T13:11:07-0700\np4814\nsVcampaign_status\np4815\nI2\nsVid\np4816\nV6005542542565\np4817\nsVaccount_id\np4818\nI40156177\nsa(dp4819\nVdaily_budget\np4820\nI10000\nsVstart_time\np4821\nV2012-07-23T14:54:00-0700\np4822\nsVcampaign_id\np4823\nI6005543198165\nsVaccount_id\np4824\nI40156177\nsVdaily_imps\np4825\nI0\nsVend_time\np4826\nV2012-07-25T20:00:00-0700\np4827\nsVfrequency_cap\np4828\nI0\nsVcreated_time\np4829\nV2012-07-23T11:59:11-0700\np4830\nsVupdated_time\np4831\nV2012-09-21T13:11:09-0700\np4832\nsVcampaign_status\np4833\nI2\nsVid\np4834\nV6005543198165\np4835\nsVname\np4836\nVTemptations: July - August_2012 | Cats-That-Deserve-Treats-For-Just-Being-Cute\np4837\nsa(dp4838\nVdaily_budget\np4839\nI20000\nsVstart_time\np4840\nV2012-07-24T09:00:00-0700\np4841\nsVcampaign_id\np4842\nI6005543465565\nsVaccount_id\np4843\nI40156177\nsVdaily_imps\np4844\nI0\nsVend_time\np4845\nV2012-07-26T20:41:00-0700\np4846\nsVfrequency_cap\np4847\nI0\nsVcreated_time\np4848\nV2012-07-23T14:16:22-0700\np4849\nsVupdated_time\np4850\nV2012-09-21T13:11:11-0700\np4851\nsVcampaign_status\np4852\nI2\nsVid\np4853\nV6005543465565\np4854\nsVname\np4855\nVE Online: July-Aug_2012 | 11-Celebrities-Who-Successfully-Reinvented-Themsel-6U0R\np4856\nsa(dp4857\nVdaily_budget\np4858\nI20000\nsVstart_time\np4859\nV2012-07-24T09:17:00-0700\np4860\nsVcampaign_id\np4861\nI6005543516365\nsVaccount_id\np4862\nI40156177\nsVdaily_imps\np4863\nI0\nsVend_time\np4864\nV2012-07-26T20:17:00-0700\np4865\nsVfrequency_cap\np4866\nI0\nsVcreated_time\np4867\nV2012-07-23T14:45:31-0700\np4868\nsVupdated_time\np4869\nV2012-09-21T13:11:13-0700\np4870\nsVcampaign_status\np4871\nI2\nsVid\np4872\nV6005543516365\np4873\nsVname\np4874\nVE Online: July-Aug_2012 | A-History-Of-How-We-Get-Pop-Culture-6U0R\np4875\nsa(dp4876\nVdaily_budget\np4877\nI20000\nsVstart_time\np4878\nV2012-07-24T08:35:35-0700\np4879\nsVcampaign_id\np4880\nI6005545427965\nsVaccount_id\np4881\nI40156177\nsVdaily_imps\np4882\nI0\nsVend_time\np4883\nV2012-08-03T20:30:00-0700\np4884\nsVfrequency_cap\np4885\nI0\nsVcreated_time\np4886\nV2012-07-24T08:35:35-0700\np4887\nsVupdated_time\np4888\nV2012-09-21T13:11:14-0700\np4889\nsVcampaign_status\np4890\nI2\nsVid\np4891\nV6005545427965\np4892\nsVname\np4893\nVFord Fusion: ROAF July-Sept 2012 | Stressed-Out-Animals-Who-Really-Need-A-Break\np4894\nsa(dp4895\nVdaily_budget\np4896\nI40000\nsVstart_time\np4897\nV2012-07-24T13:51:42-0700\np4898\nsVcampaign_id\np4899\nI6005549238765\nsVaccount_id\np4900\nI40156177\nsVdaily_imps\np4901\nI0\nsVend_time\np4902\nV2012-07-25T20:30:00-0700\np4903\nsVfrequency_cap\np4904\nI0\nsVcreated_time\np4905\nV2012-07-24T13:51:43-0700\np4906\nsVupdated_time\np4907\nV2012-09-21T13:11:16-0700\np4908\nsVcampaign_status\np4909\nI2\nsVid\np4910\nV6005549238765\np4911\nsVname\np4912\nVJordan Olympics: July-Aug 2012 | 26-Most-Stunning-Basketball-Courts-On-The-Planet-6Peo\np4913\nsa(dp4914\nVdaily_b'
p6
sS'hash'
p7
S'ebf54ec3e1c56bfa3ad0d78e48de63f888e62efd'
p8
sS'stack'
p9
S''
s.