(dp1
S'args'
p2
S''
sS'methodname'
p3
S''
sS'packet_num'
p4
I28
sS'returnval'
p5
S'3:00-0700\np4309\nsVcampaign_id\np4310\nI6005494509965\nsVaccount_id\np4311\nI40156177\nsVdaily_imps\np4312\nI0\nsVend_time\np4313\nV2012-07-19T20:00:00-0700\np4314\nsVfrequency_cap\np4315\nI0\nsVcreated_time\np4316\nV2012-07-12T14:28:53-0700\np4317\nsVupdated_time\np4318\nV2012-09-21T13:10:23-0700\np4319\nsVcampaign_status\np4320\nI2\nsVid\np4321\nV6005494509965\np4322\nsVname\np4323\nVGE Aviation Farnsborough: July_2012 | 9-People-Totally-Obsessed-With-Airplanes-6Rc8\np4324\nsa(dp4325\nVname\np4326\nVVirgin Mobile: Q3 2012 | 20-reasons-to-reapply-sunscreen-5l87\np4327\nsVstart_time\np4328\nV2012-07-12T17:30:00-0700\np4329\nsVcampaign_id\np4330\nI6005494777365\nsVfrequency_cap\np4331\nI0\nsVdaily_imps\np4332\nI0\nsVlifetime_budget\np4333\nI35000\nsVend_time\np4334\nV2012-07-13T20:30:00-0700\np4335\nsVcreated_time\np4336\nV2012-07-12T14:37:28-0700\np4337\nsVupdated_time\np4338\nV2012-09-21T13:10:25-0700\np4339\nsVcampaign_status\np4340\nI2\nsVid\np4341\nV6005494777365\np4342\nsVaccount_id\np4343\nI40156177\nsa(dp4344\nVname\np4345\nVVerizon FiOS: Phase 1 | June_July 2012 | The-Evolution-Of-Internet-Connectivity\np4346\nsVstart_time\np4347\nV2012-07-16T06:30:00-0700\np4348\nsVcampaign_id\np4349\nI6005494814765\nsVfrequency_cap\np4350\nI0\nsVdaily_imps\np4351\nI0\nsVlifetime_budget\np4352\nI30000\nsVend_time\np4353\nV2012-07-16T20:30:00-0700\np4354\nsVcreated_time\np4355\nV2012-07-12T15:09:28-0700\np4356\nsVupdated_time\np4357\nV2012-09-21T13:10:27-0700\np4358\nsVcampaign_status\np4359\nI2\nsVid\np4360\nV6005494814765\np4361\nsVaccount_id\np4362\nI40156177\nsa(dp4363\nVname\np4364\nVGE Aviation Farnsborough: July_2012 | 15-Instagram-Feeds-That-You-Have-To-Follow-6Rc8\np4365\nsVstart_time\np4366\nV2012-07-13T17:28:00-0700\np4367\nsVcampaign_id\np4368\nI6005500811365\nsVfrequency_cap\np4369\nI0\nsVdaily_imps\np4370\nI0\nsVlifetime_budget\np4371\nI70000\nsVend_time\np4372\nV2012-07-18T20:28:00-0700\np4373\nsVcreated_time\np4374\nV2012-07-13T14:33:26-0700\np4375\nsVupdated_time\np4376\nV2012-09-21T13:10:29-0700\np4377\nsVcampaign_status\np4378\nI2\nsVid\np4379\nV6005500811365\np4380\nsVaccount_id\np4381\nI40156177\nsa(dp4382\nVdaily_budget\np4383\nI20000\nsVstart_time\np4384\nV2012-07-13T17:53:00-0700\np4385\nsVcampaign_id\np4386\nI6005500854765\nsVaccount_id\np4387\nI40156177\nsVdaily_imps\np4388\nI0\nsVend_time\np4389\nV2012-07-15T20:53:00-0700\np4390\nsVfrequency_cap\np4391\nI0\nsVcreated_time\np4392\nV2012-07-13T14:57:11-0700\np4393\nsVupdated_time\np4394\nV2012-07-15T20:52:00-0700\np4395\nsVcampaign_status\np4396\nI2\nsVid\np4397\nV6005500854765\np4398\nsVname\np4399\nVVirgin Mobile: Q3 2012 | 10-of-historys-most-groundbreaking-inventions-fo-5l87\np4400\nsa(dp4401\nVname\np4402\nVVirgin Mobile: Q3 2012 | 25-ways-the-internet-can-save-your-crappy-day-5l87\np4403\nsVstart_time\np4404\nV2012-07-16T08:00:00-0700\np4405\nsVcampaign_id\np4406\nI6005500885365\nsVfrequency_cap\np4407\nI0\nsVdaily_imps\np4408\nI0\nsVlifetime_budget\np4409\nI25000\nsVend_time\np4410\nV2012-07-18T20:00:00-0700\np4411\nsVcreated_time\np4412\nV2012-07-13T15:19:19-0700\np4413\nsVupdated_time\np4414\nV2012-09-21T13:10:31-0700\np4415\nsVcampaign_status\np4416\nI2\nsVid\np4417\nV6005500885365\np4418\nsVaccount_id\np4419\nI40156177\nsa(dp4420\nVdaily_budget\np4421\nI30000\nsVstart_time\np4422\nV2012-07-16T18:07:00-0700\np4423\nsVcampaign_id\np4424\nI6005512004765\nsVaccount_id\np4425\nI40156177\nsVdaily_imps\np4426\nI0\nsVend_time\np4427\nV2012-07-18T18:07:00-0700\np4428\nsVfrequency_cap\np4429\nI0\nsVcreated_time\np4430\nV2012-07-16T15:10:06-0700\np4431\nsVupdated_time\np4432\nV2012-09-21T13:10:33-0700\np4433\nsVcampaign_status\np4434\nI2\nsVid\np4435\nV6005512004765\np4436\nsVname\np4437\nVUSA Political Animals: July 2012 | 5-Really-Crazy-Things-Reporters-Have-Done-To-Get-A\np4438\nsa(dp4439\nVdaily_budget\np4440\nI25000\nsVstart_time\np4441\nV2012-07-16T18:12:00-0700\np4442\nsVcampaign_id\np4443\nI6005512017365\nsVaccount_id\np4444\nI40156177\nsVdaily_imps\np4445\nI0\nsVend_time\np4446\nV2012-07-18T18:12:00-0700\np4447\nsVfrequency_cap\np4448\nI0\nsVcreated_time\np4449\nV2012-07-16T15:17:02-0700\np4450\nsVupdated_time\np4451\nV2012-09-21T13:10:35-0700\np4452\nsVcampaign_status\np4453\nI2\nsVid\np4454\nV6005512017365\np4455\nsVname\np4456\nVUSA Political Animals: July 2012 | 9-Inspirational-Quotes-From-Independent-Women-Who\np4457\nsa(dp4458\nVdaily_budget\np4459\nI20000\nsVstart_time\np446'
p6
sS'hash'
p7
S'ebf54ec3e1c56bfa3ad0d78e48de63f888e62efd'
p8
sS'stack'
p9
S''
s.