(dp1
S'args'
p2
S''
sS'methodname'
p3
S''
sS'packet_num'
p4
I27
sS'returnval'
p5
S'p4157\nsVcampaign_id\np4158\nI6005483659965\nsVaccount_id\np4159\nI40156177\nsVdaily_imps\np4160\nI0\nsVend_time\np4161\nV2012-07-11T20:00:00-0700\np4162\nsVfrequency_cap\np4163\nI0\nsVcreated_time\np4164\nV2012-07-10T08:22:36-0700\np4165\nsVupdated_time\np4166\nV2012-09-21T13:10:08-0700\np4167\nsVcampaign_status\np4168\nI2\nsVid\np4169\nV6005483659965\np4170\nsVname\np4171\nVAnimal Planet: My Cat : July 2012 | The-Best-Of-The-Demon-Cat-Meme-6Msy\np4172\nsa(dp4173\nVdaily_budget\np4174\nI40000\nsVstart_time\np4175\nV2012-07-10T16:43:00-0700\np4176\nsVcampaign_id\np4177\nI6005484595165\nsVaccount_id\np4178\nI40156177\nsVdaily_imps\np4179\nI0\nsVend_time\np4180\nV2012-07-13T20:00:00-0700\np4181\nsVfrequency_cap\np4182\nI0\nsVcreated_time\np4183\nV2012-07-10T13:58:58-0700\np4184\nsVupdated_time\np4185\nV2012-09-21T13:10:10-0700\np4186\nsVcampaign_status\np4187\nI2\nsVid\np4188\nV6005484595165\np4189\nsVname\np4190\nVCanon PowerShot: June_July 2012 | 20-Awesome-Action-Shots-Taken-At-The-Perfect-Momen-5U1T\np4191\nsa(dp4192\nVdaily_budget\np4193\nI20000\nsVstart_time\np4194\nV2012-07-10T17:51:00-0700\np4195\nsVcampaign_id\np4196\nI6005485291165\nsVaccount_id\np4197\nI40156177\nsVdaily_imps\np4198\nI0\nsVend_time\np4199\nV2012-07-12T17:51:00-0700\np4200\nsVfrequency_cap\np4201\nI0\nsVcreated_time\np4202\nV2012-07-10T14:54:01-0700\np4203\nsVupdated_time\np4204\nV2012-07-12T07:08:47-0700\np4205\nsVcampaign_status\np4206\nI2\nsVid\np4207\nV6005485291165\np4208\nsVname\np4209\nVAnimal Planet: My Cat : July 2012 | The-Definitive-Collection-Of-Crazy-Cat-Gifs-6Msy\np4210\nsa(dp4211\nVname\np4212\nVJordan Olympics: July-Aug 2012 | 10-Of-The-Most-Inspiring-Underdog-Stories-In-Sport-6Peo\np4213\nsVstart_time\np4214\nV2012-07-16T06:30:00-0700\np4215\nsVcampaign_id\np4216\nI6005488512365\nsVfrequency_cap\np4217\nI0\nsVdaily_imps\np4218\nI0\nsVlifetime_budget\np4219\nI35000\nsVend_time\np4220\nV2012-07-16T20:30:00-0700\np4221\nsVcreated_time\np4222\nV2012-07-11T13:06:34-0700\np4223\nsVupdated_time\np4224\nV2012-09-21T13:10:12-0700\np4225\nsVcampaign_status\np4226\nI2\nsVid\np4227\nV6005488512365\np4228\nsVaccount_id\np4229\nI40156177\nsa(dp4230\nVname\np4231\nVTED Chase 2: July_2012 | The-Official-Mark-Wahlberg-Aging-Timeline-6Gxf\np4232\nsVstart_time\np4233\nV2012-07-11T16:28:00-0700\np4234\nsVcampaign_id\np4235\nI6005489052965\nsVfrequency_cap\np4236\nI0\nsVdaily_imps\np4237\nI0\nsVlifetime_budget\np4238\nI40000\nsVend_time\np4239\nV2012-07-13T20:00:00-0700\np4240\nsVcreated_time\np4241\nV2012-07-11T13:36:00-0700\np4242\nsVupdated_time\np4243\nV2012-09-21T13:10:14-0700\np4244\nsVcampaign_status\np4245\nI2\nsVid\np4246\nV6005489052965\np4247\nsVaccount_id\np4248\nI40156177\nsa(dp4249\nVdaily_budget\np4250\nI10000\nsVstart_time\np4251\nV2012-07-12T13:17:00-0700\np4252\nsVcampaign_id\np4253\nI6005493878365\nsVaccount_id\np4254\nI40156177\nsVdaily_imps\np4255\nI0\nsVend_time\np4256\nV2012-07-13T20:17:00-0700\np4257\nsVfrequency_cap\np4258\nI0\nsVcreated_time\np4259\nV2012-07-12T10:22:10-0700\np4260\nsVupdated_time\np4261\nV2012-09-21T13:10:16-0700\np4262\nsVcampaign_status\np4263\nI2\nsVid\np4264\nV6005493878365\np4265\nsVname\np4266\nVTED Chase 2: July_2012 | 20-Celebrities-And-Their-Favorite-Toys-6Gxf\np4267\nsa(dp4268\nVdaily_budget\np4269\nI12000\nsVstart_time\np4270\nV2012-07-12T13:33:00-0700\np4271\nsVcampaign_id\np4272\nI6005493904765\nsVaccount_id\np4273\nI40156177\nsVdaily_imps\np4274\nI0\nsVend_time\np4275\nV2012-07-13T20:00:00-0700\np4276\nsVfrequency_cap\np4277\nI0\nsVcreated_time\np4278\nV2012-07-12T10:34:03-0700\np4279\nsVupdated_time\np4280\nV2012-09-21T13:10:19-0700\np4281\nsVcampaign_status\np4282\nI2\nsVid\np4283\nV6005493904765\np4284\nsVname\np4285\nVTED Chase 2: July_2012 | Best-Quotes-From-The-Worlds-Naughtiest-Bear-Ted\np4286\nsa(dp4287\nVdaily_budget\np4288\nI40000\nsVstart_time\np4289\nV2012-07-12T17:01:00-0700\np4290\nsVcampaign_id\np4291\nI6005494469365\nsVaccount_id\np4292\nI40156177\nsVdaily_imps\np4293\nI0\nsVend_time\np4294\nV2012-07-13T20:01:00-0700\np4295\nsVfrequency_cap\np4296\nI0\nsVcreated_time\np4297\nV2012-07-12T14:07:34-0700\np4298\nsVupdated_time\np4299\nV2012-09-21T13:10:22-0700\np4300\nsVcampaign_status\np4301\nI2\nsVid\np4302\nV6005494469365\np4303\nsVname\np4304\nVCanon PowerShot: June_July 2012 | 30-Amazing-Summer-Sunsets-To-Help-You-Feel-Zen-5U1T\np4305\nsa(dp4306\nVdaily_budget\np4307\nI30000\nsVstart_time\np4308\nV2012-07-12T17:2'
p6
sS'hash'
p7
S'ebf54ec3e1c56bfa3ad0d78e48de63f888e62efd'
p8
sS'stack'
p9
S''
s.