(dp1
S'args'
p2
S''
sS'methodname'
p3
S''
sS'packet_num'
p4
I41
sS'returnval'
p5
S'0\nsVfrequency_cap\np6291\nI0\nsVcreated_time\np6292\nV2012-08-09T10:25:00-0700\np6293\nsVupdated_time\np6294\nV2012-09-21T13:13:18-0700\np6295\nsVcampaign_status\np6296\nI2\nsVid\np6297\nV6005621962165\np6298\nsVname\np6299\nVComedy Central:Roast of Roseanne: Aug_2012 | The-Best-90S-Sitcoms-As-Told-Through-Gifs-1Jmu\np6300\nsa(dp6301\nVdaily_budget\np6302\nI80000\nsVstart_time\np6303\nV2012-08-09T10:57:22-0700\np6304\nsVcampaign_id\np6305\nI6005622003765\nsVaccount_id\np6306\nI40156177\nsVdaily_imps\np6307\nI0\nsVend_time\np6308\nV2012-08-09T20:30:00-0700\np6309\nsVfrequency_cap\np6310\nI0\nsVcreated_time\np6311\nV2012-08-09T10:33:21-0700\np6312\nsVupdated_time\np6313\nV2012-09-21T13:13:20-0700\np6314\nsVcampaign_status\np6315\nI2\nsVid\np6316\nV6005622003765\np6317\nsVname\np6318\nVIntel Film Maker: Aug_2012 | 12-Things-You-Probably-Didnt-Know-About-The-Coppo\np6319\nsa(dp6320\nVdaily_budget\np6321\nI20000\nsVstart_time\np6322\nV2012-08-09T12:05:00-0700\np6323\nsVcampaign_id\np6324\nI6005622282565\nsVaccount_id\np6325\nI40156177\nsVdaily_imps\np6326\nI0\nsVend_time\np6327\nV2012-08-10T13:59:00-0700\np6328\nsVfrequency_cap\np6329\nI0\nsVcreated_time\np6330\nV2012-08-09T11:05:16-0700\np6331\nsVupdated_time\np6332\nV2012-09-21T13:13:22-0700\np6333\nsVcampaign_status\np6334\nI2\nsVid\np6335\nV6005622282565\np6336\nsVname\np6337\nVT-Mobile: July-Aug_2012 | The-22-Absolute-Best-Photobomb-Faceswaps\np6338\nsa(dp6339\nVdaily_budget\np6340\nI9375\nsVstart_time\np6341\nV2012-08-09T12:05:00-0700\np6342\nsVcampaign_id\np6343\nI6005622303165\nsVaccount_id\np6344\nI40156177\nsVdaily_imps\np6345\nI0\nsVend_time\np6346\nV2012-08-13T21:05:00-0700\np6347\nsVfrequency_cap\np6348\nI0\nsVcreated_time\np6349\nV2012-08-09T11:11:21-0700\np6350\nsVupdated_time\np6351\nV2012-09-21T13:13:24-0700\np6352\nsVcampaign_status\np6353\nI2\nsVid\np6354\nV6005622303165\np6355\nsVname\np6356\nVT-Mobile: July-Aug_2012 | The-Dos-And-Donts-Of-Photosharing\np6357\nsa(dp6358\nVdaily_budget\np6359\nI25000\nsVstart_time\np6360\nV2012-08-09T13:11:42-0700\np6361\nsVcampaign_id\np6362\nI6005623694565\nsVaccount_id\np6363\nI40156177\nsVdaily_imps\np6364\nI0\nsVend_time\np6365\nV2012-08-14T20:30:00-0700\np6366\nsVfrequency_cap\np6367\nI0\nsVcreated_time\np6368\nV2012-08-09T13:05:10-0700\np6369\nsVupdated_time\np6370\nV2012-09-21T13:13:26-0700\np6371\nsVcampaign_status\np6372\nI2\nsVid\np6373\nV6005623694565\np6374\nsVname\np6375\nVRed Stripe: June-Aug_2012 | 14-Reasons-Why-You-Should-Celebrate-Today-6Phl\np6376\nsa(dp6377\nVdaily_budget\np6378\nI25000\nsVstart_time\np6379\nV2012-08-09T15:00:00-0700\np6380\nsVcampaign_id\np6381\nI6005624430965\nsVaccount_id\np6382\nI40156177\nsVdaily_imps\np6383\nI0\nsVend_time\np6384\nV2012-08-10T22:52:00-0700\np6385\nsVfrequency_cap\np6386\nI0\nsVcreated_time\np6387\nV2012-08-09T14:09:27-0700\np6388\nsVupdated_time\np6389\nV2012-09-21T13:13:27-0700\np6390\nsVcampaign_status\np6391\nI2\nsVid\np6392\nV6005624430965\np6393\nsVname\np6394\nVComedy Central:Roast of Roseanne: Aug_2012 | The-Best-Spoilers-From-Roseannes-Roast\np6395\nsa(dp6396\nVname\np6397\nVBBCA: Copper: Aug_2012 | Famous-New-York-Landmarks-Youd-Never-Recognize-To\np6398\nsVstart_time\np6399\nV2012-08-10T09:07:44-0700\np6400\nsVcampaign_id\np6401\nI6005626526565\nsVfrequency_cap\np6402\nI0\nsVdaily_imps\np6403\nI0\nsVlifetime_budget\np6404\nI40000\nsVend_time\np6405\nV2012-08-14T20:30:00-0700\np6406\nsVcreated_time\np6407\nV2012-08-10T09:07:45-0700\np6408\nsVupdated_time\np6409\nV2012-09-21T13:13:30-0700\np6410\nsVcampaign_status\np6411\nI2\nsVid\np6412\nV6005626526565\np6413\nsVaccount_id\np6414\nI40156177\nsa(dp6415\nVdaily_budget\np6416\nI15000\nsVstart_time\np6417\nV2012-08-13T06:41:50-0700\np6418\nsVcampaign_id\np6419\nI6005644811765\nsVaccount_id\np6420\nI40156177\nsVdaily_imps\np6421\nI0\nsVend_time\np6422\nV2012-08-18T20:30:00-0700\np6423\nsVfrequency_cap\np6424\nI0\nsVcreated_time\np6425\nV2012-08-13T06:41:50-0700\np6426\nsVupdated_time\np6427\nV2012-09-21T13:13:32-0700\np6428\nsVcampaign_status\np6429\nI2\nsVid\np6430\nV6005644811765\np6431\nsVname\np6432\nVMTV: The Inbetweeners: Aug_2012 | 16-Celebrities-You-Probably-Knew-Werent-Always-Co\np6433\nsa(dp6434\nVname\np6435\nVTemptations: July - August_2012 | the-craziest-things-your-cat-will-do-for-treats\np6436\nsVstart_time\np6437\nV2012-08-13T12:28:55-0700\np6438\nsVcampaign_id\np6439\nI6005653203965\nsVfrequency_cap\np6440\nI0\nsVdaily_imps\n'
p6
sS'hash'
p7
S'ebf54ec3e1c56bfa3ad0d78e48de63f888e62efd'
p8
sS'stack'
p9
S''
s.