(dp1
S'args'
p2
S''
sS'methodname'
p3
S''
sS'packet_num'
p4
I33
sS'returnval'
p5
S' 2012 | 20-timeline-cover-photo-cliches-were-already-sick-5l87\np5068\nsVstart_time\np5069\nV2012-07-28T08:00:00-0700\np5070\nsVcampaign_id\np5071\nI6005558884765\nsVfrequency_cap\np5072\nI0\nsVdaily_imps\np5073\nI0\nsVlifetime_budget\np5074\nI25000\nsVend_time\np5075\nV2012-07-29T20:00:00-0700\np5076\nsVcreated_time\np5077\nV2012-07-25T18:44:23-0700\np5078\nsVupdated_time\np5079\nV2012-09-21T13:11:33-0700\np5080\nsVcampaign_status\np5081\nI2\nsVid\np5082\nV6005558884765\np5083\nsVaccount_id\np5084\nI40156177\nsa(dp5085\nVname\np5086\nVVirgin Mobile: Q3 2012 | 11-ridiculous-real-paralyzing-phobias-5l87\np5087\nsVstart_time\np5088\nV2012-07-25T22:28:00-0700\np5089\nsVcampaign_id\np5090\nI6005558995365\nsVfrequency_cap\np5091\nI0\nsVdaily_imps\np5092\nI0\nsVlifetime_budget\np5093\nI35000\nsVend_time\np5094\nV2012-07-27T20:00:00-0700\np5095\nsVcreated_time\np5096\nV2012-07-25T19:42:53-0700\np5097\nsVupdated_time\np5098\nV2012-09-21T13:11:35-0700\np5099\nsVcampaign_status\np5100\nI2\nsVid\np5101\nV6005558995365\np5102\nsVaccount_id\np5103\nI40156177\nsa(dp5104\nVname\np5105\nVVirgin Mobile Live User Page | the-middle-class-kids-of-instagram-5l87\np5106\nsVstart_time\np5107\nV2012-07-26T15:29:00-0700\np5108\nsVcampaign_id\np5109\nI6005562194165\nsVfrequency_cap\np5110\nI0\nsVdaily_imps\np5111\nI0\nsVlifetime_budget\np5112\nI40000\nsVend_time\np5113\nV2012-07-28T20:00:00-0700\np5114\nsVcreated_time\np5115\nV2012-07-26T13:02:30-0700\np5116\nsVupdated_time\np5117\nV2012-09-21T13:11:37-0700\np5118\nsVcampaign_status\np5119\nI2\nsVid\np5120\nV6005562194165\np5121\nsVaccount_id\np5122\nI40156177\nsa(dp5123\nVname\np5124\nVOld Navy: Funnovations July 2012 | The-Most-Awesome-Public-Parties-6Mok\np5125\nsVstart_time\np5126\nV2012-07-26T14:38:55-0700\np5127\nsVcampaign_id\np5128\nI6005564689965\nsVfrequency_cap\np5129\nI0\nsVdaily_imps\np5130\nI0\nsVlifetime_budget\np5131\nI50000\nsVend_time\np5132\nV2012-07-27T20:30:00-0700\np5133\nsVcreated_time\np5134\nV2012-07-26T14:38:56-0700\np5135\nsVupdated_time\np5136\nV2012-07-27T13:47:13-0700\np5137\nsVcampaign_status\np5138\nI2\nsVid\np5139\nV6005564689965\np5140\nsVaccount_id\np5141\nI40156177\nsa(dp5142\nVdaily_budget\np5143\nI20000\nsVstart_time\np5144\nV2012-07-27T08:55:42-0700\np5145\nsVcampaign_id\np5146\nI6005567307365\nsVaccount_id\np5147\nI40156177\nsVdaily_imps\np5148\nI0\nsVend_time\np5149\nV2012-07-30T20:30:00-0700\np5150\nsVfrequency_cap\np5151\nI0\nsVcreated_time\np5152\nV2012-07-27T08:55:43-0700\np5153\nsVupdated_time\np5154\nV2012-09-21T13:11:39-0700\np5155\nsVcampaign_status\np5156\nI2\nsVid\np5157\nV6005567307365\np5158\nsVname\np5159\nVHVR Phase 2: June-Sept 2012 | 10-Burgers-Made-Better-With-One-Secret-Ingredient\np5160\nsa(dp5161\nVname\np5162\nVMcDonalds: Olympics: July_Aug 2012 | Awesomely-Creative-Ways-Of-Showing-Your-Olympic-Spn\np5163\nsVstart_time\np5164\nV2012-07-27T11:53:00-0700\np5165\nsVcampaign_id\np5166\nI6005567325365\nsVfrequency_cap\np5167\nI0\nsVdaily_imps\np5168\nI0\nsVlifetime_budget\np5169\nI60000\nsVend_time\np5170\nV2012-07-28T08:00:00-0700\np5171\nsVcreated_time\np5172\nV2012-07-27T09:00:33-0700\np5173\nsVupdated_time\np5174\nV2012-09-21T13:11:41-0700\np5175\nsVcampaign_status\np5176\nI2\nsVid\np5177\nV6005567325365\np5178\nsVaccount_id\np5179\nI40156177\nsa(dp5180\nVname\np5181\nVMcDonalds: Olympics: July_Aug 2012 | Awesomely-Creative-Ways-Of-Showing-Your-Olympic-Sp\np5182\nsVstart_time\np5183\nV2012-07-27T12:02:00-0700\np5184\nsVcampaign_id\np5185\nI6005567334965\nsVfrequency_cap\np5186\nI0\nsVdaily_imps\np5187\nI0\nsVlifetime_budget\np5188\nI60000\nsVend_time\np5189\nV2012-07-28T08:00:00-0700\np5190\nsVcreated_time\np5191\nV2012-07-27T09:03:35-0700\np5192\nsVupdated_time\np5193\nV2012-07-27T13:01:05-0700\np5194\nsVcampaign_status\np5195\nI2\nsVid\np5196\nV6005567334965\np5197\nsVaccount_id\np5198\nI40156177\nsa(dp5199\nVname\np5200\nVMikes Hard Lemonade: July-Aug 2012 | You-Know-You-Need-A-Vacation-When-6J5C\np5201\nsVstart_time\np5202\nV2012-07-27T11:22:36-0700\np5203\nsVcampaign_id\np5204\nI6005567611765\nsVfrequency_cap\np5205\nI0\nsVdaily_imps\np5206\nI0\nsVlifetime_budget\np5207\nI40000\nsVend_time\np5208\nV2012-07-30T20:30:00-0700\np5209\nsVcreated_time\np5210\nV2012-07-27T11:22:37-0700\np5211\nsVupdated_time\np5212\nV2012-07-30T08:55:17-0700\np5213\nsVcampaign_status\np5214\nI2\nsVid\np5215\nV6005567611765\np5216\nsVaccount_id\np5217\nI40156177\nsa(dp5218\nVdaily_budget\np52'
p6
sS'hash'
p7
S'ebf54ec3e1c56bfa3ad0d78e48de63f888e62efd'
p8
sS'stack'
p9
S''
s.