(dp1
S'args'
p2
S''
sS'methodname'
p3
S''
sS'packet_num'
p4
I14
sS'returnval'
p5
S'Phrases\np2180\nsVstart_time\np2181\nV2012-06-09T06:00:00-0700\np2182\nsVcampaign_id\np2183\nI6005277048765\nsVfrequency_cap\np2184\nI0\nsVdaily_imps\np2185\nI0\nsVlifetime_budget\np2186\nI5000\nsVend_time\np2187\nV2012-06-11T15:30:00-0700\np2188\nsVcreated_time\np2189\nV2012-06-07T10:46:10-0700\np2190\nsVupdated_time\np2191\nV2012-09-21T13:07:09-0700\np2192\nsVcampaign_status\np2193\nI2\nsVid\np2194\nV6005277048765\np2195\nsVaccount_id\np2196\nI40156177\nsa(dp2197\nVname\np2198\nVStoli Vodka: May_June 2012 | 10-Original-Shots-To-Make-For-Yourself-This-Summer\np2199\nsVstart_time\np2200\nV2012-06-07T16:12:00-0700\np2201\nsVcampaign_id\np2202\nI6005277875965\nsVfrequency_cap\np2203\nI0\nsVdaily_imps\np2204\nI0\nsVlifetime_budget\np2205\nI10000\nsVend_time\np2206\nV2012-06-13T20:00:00-0700\np2207\nsVcreated_time\np2208\nV2012-06-07T13:16:02-0700\np2209\nsVupdated_time\np2210\nV2012-06-13T07:24:35-0700\np2211\nsVcampaign_status\np2212\nI2\nsVid\np2213\nV6005277875965\np2214\nsVaccount_id\np2215\nI40156177\nsa(dp2216\nVname\np2217\nVTrident: May_June 2012 | The-Most-Insane-Festivals-Around-The-World\np2218\nsVstart_time\np2219\nV2012-06-07T16:45:00-0700\np2220\nsVcampaign_id\np2221\nI6005278145365\nsVfrequency_cap\np2222\nI0\nsVdaily_imps\np2223\nI0\nsVlifetime_budget\np2224\nI20000\nsVend_time\np2225\nV2012-06-08T20:00:00-0700\np2226\nsVcreated_time\np2227\nV2012-06-07T14:12:53-0700\np2228\nsVupdated_time\np2229\nV2012-09-21T13:07:11-0700\np2230\nsVcampaign_status\np2231\nI2\nsVid\np2232\nV6005278145365\np2233\nsVaccount_id\np2234\nI40156177\nsa(dp2235\nVdaily_budget\np2236\nI30000\nsVstart_time\np2237\nV2012-06-08T10:28:15-0700\np2238\nsVcampaign_id\np2239\nI6005280503965\nsVaccount_id\np2240\nI40156177\nsVdaily_imps\np2241\nI0\nsVend_time\np2242\nV2012-06-12T00:00:00-0700\np2243\nsVfrequency_cap\np2244\nI0\nsVcreated_time\np2245\nV2012-06-08T10:28:15-0700\np2246\nsVupdated_time\np2247\nV2012-09-21T13:07:12-0700\np2248\nsVcampaign_status\np2249\nI2\nsVid\np2250\nV6005280503965\np2251\nsVname\np2252\nVBuzzFeed RND: API SS Test | buzzfeedshift/27-ways-sex-and-the-city-would-be-different-if-i\np2253\nsa(dp2254\nVname\np2255\nVWashington Lottery: June 2012 | 10-Things-Youd-Never-Think-To-Do-If-You-Won-The-L-68Vg\np2256\nsVstart_time\np2257\nV2012-06-11T08:02:48-0700\np2258\nsVcampaign_id\np2259\nI6005285660565\nsVfrequency_cap\np2260\nI0\nsVdaily_imps\np2261\nI0\nsVlifetime_budget\np2262\nI81500\nsVend_time\np2263\nV2012-06-11T20:30:00-0700\np2264\nsVcreated_time\np2265\nV2012-06-11T08:02:48-0700\np2266\nsVupdated_time\np2267\nV2012-09-21T13:07:14-0700\np2268\nsVcampaign_status\np2269\nI2\nsVid\np2270\nV6005285660565\np2271\nsVaccount_id\np2272\nI40156177\nsa(dp2273\nVname\np2274\nVAxe: Susan Glenn: May_June 2012  | What-To-Expect-When-Encountering-Your-Susan-Glenn\np2275\nsVstart_time\np2276\nV2012-06-11T12:17:00-0700\np2277\nsVcampaign_id\np2278\nI6005287226565\nsVfrequency_cap\np2279\nI0\nsVdaily_imps\np2280\nI0\nsVlifetime_budget\np2281\nI30000\nsVend_time\np2282\nV2012-06-13T20:00:00-0700\np2283\nsVcreated_time\np2284\nV2012-06-11T09:29:29-0700\np2285\nsVupdated_time\np2286\nV2012-09-21T13:07:16-0700\np2287\nsVcampaign_status\np2288\nI2\nsVid\np2289\nV6005287226565\np2290\nsVaccount_id\np2291\nI40156177\nsa(dp2292\nVname\np2293\nVJDTH: June 2012 | The-Worlds-Most-Incredible-Bars-68T2\np2294\nsVstart_time\np2295\nV2012-06-11T14:07:00-0700\np2296\nsVcampaign_id\np2297\nI6005287401565\nsVfrequency_cap\np2298\nI0\nsVdaily_imps\np2299\nI0\nsVlifetime_budget\np2300\nI30000\nsVend_time\np2301\nV2012-06-13T20:00:00-0700\np2302\nsVcreated_time\np2303\nV2012-06-11T11:19:01-0700\np2304\nsVupdated_time\np2305\nV2012-09-21T13:07:18-0700\np2306\nsVcampaign_status\np2307\nI2\nsVid\np2308\nV6005287401565\np2309\nsVaccount_id\np2310\nI40156177\nsa(dp2311\nVname\np2312\nVJDTH: June 2012 | Easy-Party-Tricks-To-Impress-Your-Friends-This-Sum-68T2\np2313\nsVstart_time\np2314\nV2012-06-11T14:19:00-0700\np2315\nsVcampaign_id\np2316\nI6005287415765\nsVfrequency_cap\np2317\nI0\nsVdaily_imps\np2318\nI0\nsVlifetime_budget\np2319\nI20000\nsVend_time\np2320\nV2012-06-13T20:00:00-0700\np2321\nsVcreated_time\np2322\nV2012-06-11T11:26:53-0700\np2323\nsVupdated_time\np2324\nV2012-09-21T13:07:20-0700\np2325\nsVcampaign_status\np2326\nI2\nsVid\np2327\nV6005287415765\np2328\nsVaccount_id\np2329\nI40156177\nsa(dp2330\nVname\np2331\nVVitamin Water: May_June 2012 | 10-Flash-Mobs-That-Caught-Everyon'
p6
sS'hash'
p7
S'ebf54ec3e1c56bfa3ad0d78e48de63f888e62efd'
p8
sS'stack'
p9
S''
s.