(dp1
S'args'
p2
S''
sS'methodname'
p3
S''
sS'packet_num'
p4
I10
sS'returnval'
p5
S'77\nsa(dp1570\nVname\np1571\nVPepsi: Next | Your-Favorite-Childhood-Foods-With-A-Twist\np1572\nsVstart_time\np1573\nV2012-05-31T08:00:00-0700\np1574\nsVcampaign_id\np1575\nI6005248174565\nsVfrequency_cap\np1576\nI0\nsVdaily_imps\np1577\nI0\nsVlifetime_budget\np1578\nI35000\nsVend_time\np1579\nV2012-06-01T20:00:00-0700\np1580\nsVcreated_time\np1581\nV2012-05-31T07:51:15-0700\np1582\nsVupdated_time\np1583\nV2012-06-01T13:22:14-0700\np1584\nsVcampaign_status\np1585\nI2\nsVid\np1586\nV6005248174565\np1587\nsVaccount_id\np1588\nI40156177\nsa(dp1589\nVname\np1590\nVSchwinn: May 2012 | Growing-Up-Schwinn-An-Aging-Timeline-5Vrq\np1591\nsVstart_time\np1592\nV2012-05-31T12:00:00-0700\np1593\nsVcampaign_id\np1594\nI6005250303765\nsVfrequency_cap\np1595\nI0\nsVdaily_imps\np1596\nI0\nsVlifetime_budget\np1597\nI35000\nsVend_time\np1598\nV2012-06-04T20:00:00-0700\np1599\nsVcreated_time\np1600\nV2012-05-31T11:45:51-0700\np1601\nsVupdated_time\np1602\nV2012-09-21T13:06:09-0700\np1603\nsVcampaign_status\np1604\nI2\nsVid\np1605\nV6005250303765\np1606\nsVaccount_id\np1607\nI40156177\nsa(dp1608\nVname\np1609\nVStoli Vodka: May_June 2012 | 20-Of-The-Most-Original-Stage-Costumes-5Qtg\np1610\nsVstart_time\np1611\nV2012-05-31T12:00:00-0700\np1612\nsVcampaign_id\np1613\nI6005250357965\nsVfrequency_cap\np1614\nI0\nsVdaily_imps\np1615\nI0\nsVlifetime_budget\np1616\nI10000\nsVend_time\np1617\nV2012-06-01T20:00:00-0700\np1618\nsVcreated_time\np1619\nV2012-05-31T11:56:03-0700\np1620\nsVupdated_time\np1621\nV2012-09-21T13:06:11-0700\np1622\nsVcampaign_status\np1623\nI2\nsVid\np1624\nV6005250357965\np1625\nsVaccount_id\np1626\nI40156177\nsa(dp1627\nVdaily_budget\np1628\nI2500\nsVstart_time\np1629\nV2012-05-31T12:17:34-0700\np1630\nsVcampaign_id\np1631\nI6005250415565\nsVaccount_id\np1632\nI40156177\nsVdaily_imps\np1633\nI0\nsVend_time\np1634\nV2012-06-03T00:00:00-0700\np1635\nsVfrequency_cap\np1636\nI0\nsVcreated_time\np1637\nV2012-05-31T12:17:34-0700\np1638\nsVupdated_time\np1639\nV2012-09-21T13:06:13-0700\np1640\nsVcampaign_status\np1641\nI2\nsVid\np1642\nV6005250415565\np1643\nsVname\np1644\nVBuzzFeed RND:  API SS Test | 40 Of The Most Powerful Photographs Ever Taken\np1645\nsa(dp1646\nVname\np1647\nVStoli Vodka: May_June 2012 | Call-Me-Maybe-Is-The-Song-Of-Summer-2012-5Qtg\np1648\nsVstart_time\np1649\nV2012-05-31T13:00:00-0700\np1650\nsVcampaign_id\np1651\nI6005250507765\nsVfrequency_cap\np1652\nI0\nsVdaily_imps\np1653\nI0\nsVlifetime_budget\np1654\nI10000\nsVend_time\np1655\nV2012-06-01T20:00:00-0700\np1656\nsVcreated_time\np1657\nV2012-05-31T12:54:41-0700\np1658\nsVupdated_time\np1659\nV2012-09-21T13:06:14-0700\np1660\nsVcampaign_status\np1661\nI2\nsVid\np1662\nV6005250507765\np1663\nsVaccount_id\np1664\nI40156177\nsa(dp1665\nVname\np1666\nVMTV Movie Awards: May-June 2012 | One-Crazy-Rap-Battle-69Vw\np1667\nsVstart_time\np1668\nV2012-06-01T09:00:00-0700\np1669\nsVcampaign_id\np1670\nI6005254508765\nsVfrequency_cap\np1671\nI0\nsVdaily_imps\np1672\nI0\nsVlifetime_budget\np1673\nI35000\nsVend_time\np1674\nV2012-06-03T12:00:00-0700\np1675\nsVcreated_time\np1676\nV2012-06-01T08:45:56-0700\np1677\nsVupdated_time\np1678\nV2012-09-21T13:06:16-0700\np1679\nsVcampaign_status\np1680\nI2\nsVid\np1681\nV6005254508765\np1682\nsVaccount_id\np1683\nI40156177\nsa(dp1684\nVname\np1685\nVTostitos: Q2 2012 | Vintage-Beach-Party-Throwbacks-To-Get-Your-Ready-F-4Hwd\np1686\nsVstart_time\np1687\nV2012-06-01T16:45:00-0700\np1688\nsVcampaign_id\np1689\nI6005256106965\nsVfrequency_cap\np1690\nI0\nsVdaily_imps\np1691\nI0\nsVlifetime_budget\np1692\nI35000\nsVend_time\np1693\nV2012-06-04T20:45:00-0700\np1694\nsVcreated_time\np1695\nV2012-06-01T14:01:19-0700\np1696\nsVupdated_time\np1697\nV2012-09-21T13:06:18-0700\np1698\nsVcampaign_status\np1699\nI2\nsVid\np1700\nV6005256106965\np1701\nsVaccount_id\np1702\nI40156177\nsa(dp1703\nVname\np1704\nVVirgin Mobile: Q2 2012 | drunk-text-expectations-vs-drunk-text-realities-5l87\np1705\nsVstart_time\np1706\nV2012-06-01T17:30:00-0700\np1707\nsVcampaign_id\np1708\nI6005256195165\nsVfrequency_cap\np1709\nI0\nsVdaily_imps\np1710\nI0\nsVlifetime_budget\np1711\nI100000\nsVend_time\np1712\nV2012-06-04T21:30:00-0700\np1713\nsVcreated_time\np1714\nV2012-06-01T14:36:36-0700\np1715\nsVupdated_time\np1716\nV2012-09-21T13:06:21-0700\np1717\nsVcampaign_status\np1718\nI2\nsVid\np1719\nV6005256195165\np1720\nsVaccount_id\np1721\nI40156177\nsa(dp1722\nVdaily_budget\np1723\nI30000\nsVstart_time\np'
p6
sS'hash'
p7
S'ebf54ec3e1c56bfa3ad0d78e48de63f888e62efd'
p8
sS'stack'
p9
S''
s.