(dp1
S'args'
p2
S''
sS'methodname'
p3
S''
sS'packet_num'
p4
I5
sS'returnval'
p5
S'85\nsVcampaign_status\np786\nI2\nsVid\np787\nV6005653919565\np788\nsVname\np789\nVFord Fusion: ROAF July-Sept 2012 | Vintage-Fashion-Trends-That-Should-Never-Come-Back\np790\nsa(dp791\nVdaily_budget\np792\nI40000\nsVstart_time\np793\nV2012-08-13T14:48:40-0700\np794\nsVcampaign_id\np795\nI6005653949565\nsVaccount_id\np796\nI40156177\nsVdaily_imps\np797\nI0\nsVend_time\np798\nV2012-08-17T20:30:00-0700\np799\nsVfrequency_cap\np800\nI0\nsVcreated_time\np801\nV2012-08-13T14:48:41-0700\np802\nsVupdated_time\np803\nV2012-09-21T13:13:39-0700\np804\nsVcampaign_status\np805\nI2\nsVid\np806\nV6005653949565\np807\nsVname\np808\nVFord Fusion: ROAF July-Sept 2012 | Animals-Who-Might-Dress-Better-Than-You\np809\nsa(dp810\nVdaily_budget\np811\nI35000\nsVstart_time\np812\nV2012-08-14T14:40:53-0700\np813\nsVcampaign_id\np814\nI6005659603765\nsVaccount_id\np815\nI40156177\nsVdaily_imps\np816\nI0\nsVend_time\np817\nV2012-08-16T20:30:00-0700\np818\nsVfrequency_cap\np819\nI0\nsVcreated_time\np820\nV2012-08-14T14:27:59-0700\np821\nsVupdated_time\np822\nV2012-09-21T13:13:41-0700\np823\nsVcampaign_status\np824\nI2\nsVid\np825\nV6005659603765\np826\nsVname\np827\nVIntel Film Maker: Aug_2012 | 21-Unforgettable-Movie-One-Liners\np828\nsa(dp829\nVdaily_budget\np830\nI30000\nsVstart_time\np831\nV2012-08-15T07:00:00-0700\np832\nsVcampaign_id\np833\nI6005659653565\nsVaccount_id\np834\nI40156177\nsVdaily_imps\np835\nI0\nsVend_time\np836\nV2012-08-17T22:38:00-0700\np837\nsVfrequency_cap\np838\nI0\nsVcreated_time\np839\nV2012-08-14T14:51:04-0700\np840\nsVupdated_time\np841\nV2012-08-16T08:32:40-0700\np842\nsVcampaign_status\np843\nI2\nsVid\np844\nV6005659653565\np845\nsVname\np846\nVSyFy: Face Off Season 3: Aug_2012 | 24-Of-The-Hottest-Body-Paint-Transformations-Ever-6Wms\np847\nsa(dp848\nVdaily_budget\np849\nI20000\nsVstart_time\np850\nV2012-08-15T07:55:00-0700\np851\nsVcampaign_id\np852\nI6005659679965\nsVaccount_id\np853\nI40156177\nsVdaily_imps\np854\nI0\nsVend_time\np855\nV2012-08-16T21:55:00-0700\np856\nsVfrequency_cap\np857\nI0\nsVcreated_time\np858\nV2012-08-14T15:04:27-0700\np859\nsVupdated_time\np860\nV2012-09-21T13:13:43-0700\np861\nsVcampaign_status\np862\nI2\nsVid\np863\nV6005659679965\np864\nsVname\np865\nVSyFy: Face Off Season 3: Aug_2012 | 45-Behind-The-Scenes-Photos-That-Youve-Probably-N-6Wms\np866\nsa(dp867\nVdaily_budget\np868\nI25000\nsVstart_time\np869\nV2012-08-15T09:00:00-0700\np870\nsVcampaign_id\np871\nI6005662210965\nsVaccount_id\np872\nI40156177\nsVdaily_imps\np873\nI0\nsVend_time\np874\nV2012-08-16T22:41:00-0700\np875\nsVfrequency_cap\np876\nI0\nsVcreated_time\np877\nV2012-08-15T07:47:48-0700\np878\nsVupdated_time\np879\nV2012-09-21T13:13:45-0700\np880\nsVcampaign_status\np881\nI2\nsVid\np882\nV6005662210965\np883\nsVname\np884\nVIntel/Toshiba: Aug-Sept_2012 | 14-Classic-Movies-That-Would-Have-Been-Better-If-C\np885\nsa(dp886\nVdaily_budget\np887\nI25000\nsVstart_time\np888\nV2012-08-15T08:51:00-0700\np889\nsVcampaign_id\np890\nI6005662243565\nsVaccount_id\np891\nI40156177\nsVdaily_imps\np892\nI0\nsVend_time\np893\nV2012-08-16T22:51:00-0700\np894\nsVfrequency_cap\np895\nI0\nsVcreated_time\np896\nV2012-08-15T07:59:49-0700\np897\nsVupdated_time\np898\nV2012-09-21T13:13:47-0700\np899\nsVcampaign_status\np900\nI2\nsVid\np901\nV6005662243565\np902\nsVname\np903\nVRed Stripe: June-Aug_2012 | 11-Little-Hoorays-That-Make-Life-Better-6Phl\np904\nsa(dp905\nVdaily_budget\np906\nI25000\nsVstart_time\np907\nV2012-08-15T08:12:03-0700\np908\nsVcampaign_id\np909\nI6005662602765\nsVaccount_id\np910\nI40156177\nsVdaily_imps\np911\nI0\nsVend_time\np912\nV2012-08-16T20:30:00-0700\np913\nsVfrequency_cap\np914\nI0\nsVcreated_time\np915\nV2012-08-15T08:12:03-0700\np916\nsVupdated_time\np917\nV2012-09-21T13:13:48-0700\np918\nsVcampaign_status\np919\nI2\nsVid\np920\nV6005662602765\np921\nsVname\np922\nVBBCA: Copper: Aug_2012 | Cops-Who-You-Wish-Were-Real\np923\nsa(dp924\nVdaily_budget\np925\nI50000\nsVstart_time\np926\nV2012-08-15T09:05:06-0700\np927\nsVcampaign_id\np928\nI6005666151365\nsVaccount_id\np929\nI40156177\nsVdaily_imps\np930\nI0\nsVend_time\np931\nV2012-08-15T20:30:00-0700\np932\nsVfrequency_cap\np933\nI0\nsVcreated_time\np934\nV2012-08-15T09:05:06-0700\np935\nsVupdated_time\np936\nV2012-09-21T13:13:50-0700\np937\nsVcampaign_status\np938\nI2\nsVid\np939\nV6005666151365\np940\nsVname\np941\nVMTV: The Inbetweeners: Aug_2012 | 26-High-School-Gifs-To-Make-You-Feel-Better-About\np942\nsa(dp943\n'
p6
sS'hash'
p7
S'eea59f1b9def2ad3bf4f9766d4bc8aaf707455fd'
p8
sS'stack'
p9
S''
s.