(dp1
S'args'
p2
S''
sS'methodname'
p3
S''
sS'packet_num'
p4
I24
sS'returnval'
p5
S'maihd.net/hads-ak-prn1/s110x80/735357_6007674133365_54754_n.jpg\np3000\nsVcount_current_adgroups\np3001\nI1\nsVrun_status\np3002\nI1\nsVtype\np3003\nI1\nsVlink_url\np3004\nVhttp://bs.serving-sys.com/BurstingPipe/adServer.bs?cn=tf&c=20&mc=click&pli=6054208&PluID=0&ord=%n&rtu=http://www.buzzfeed.com/h1/fbad/comedycentral/10-most-recognizable-that-guy-actors-in-comedy-1jmu\np3005\nsVview_tag\np3006\ng35\nsa(dp3007\nValt_view_tags\np3008\n(lp3009\nsVbody\np3010\nVYou know. It\'s that guy. See the rest of the Most Recognizable "That Guy" Actors In Comedy\np3011\nsVimage_hash\np3012\nV0e3fe4fb3ff5fd7211496ef54304c3ae\np3013\nsVname\np3014\nVKen Jeong-00\np3015\nsVtitle\np3016\nVPaul Scheer\np3017\nsVcreative_id\np3018\nV6007674124965\np3019\nsVpreview_url\np3020\nVhttp://www.facebook.com/ads/api/creative_preview.php?cid=6007674124965\np3021\nsVid\np3022\nV6007674124965\np3023\nsVimage_url\np3024\nVhttps://fbcdn-creative-a.akamaihd.net/hads-ak-ash3/s110x80/735304_6007674090765_4233_n.jpg\np3025\nsVcount_current_adgroups\np3026\nI1\nsVrun_status\np3027\nI1\nsVtype\np3028\nI1\nsVlink_url\np3029\nVhttp://bs.serving-sys.com/BurstingPipe/adServer.bs?cn=tf&c=20&mc=click&pli=6054208&PluID=0&ord=%n&rtu=http://www.buzzfeed.com/h1/fbad/comedycentral/10-most-recognizable-that-guy-actors-in-comedy-1jmu\np3030\nsVview_tag\np3031\ng35\nsa(dp3032\nValt_view_tags\np3033\n(lp3034\nsVbody\np3035\nVYou know. It\'s that guy. See the rest of the Most Recognizable "That Guy" Actors In Comedy\np3036\nsVimage_hash\np3037\nVc37b9b05d5b598fb305cfcb9b0f78c2a\np3038\nsVname\np3039\nVKen Jeong\np3040\nsVtitle\np3041\nVKen Jeong\np3042\nsVcreative_id\np3043\nV6007674082765\np3044\nsVpreview_url\np3045\nVhttp://www.facebook.com/ads/api/creative_preview.php?cid=6007674082765\np3046\nsVid\np3047\nV6007674082765\np3048\nsVimage_url\np3049\nVhttps://fbcdn-creative-a.akamaihd.net/hads-ak-prn1/s110x80/735293_6007674035165_881_n.jpg\np3050\nsVcount_current_adgroups\np3051\nI1\nsVrun_status\np3052\nI1\nsVtype\np3053\nI1\nsVlink_url\np3054\nVhttp://bs.serving-sys.com/BurstingPipe/adServer.bs?cn=tf&c=20&mc=click&pli=6054208&PluID=0&ord=%n&rtu=http://www.buzzfeed.com/h1/fbad/comedycentral/10-most-recognizable-that-guy-actors-in-comedy-1jmu\np3055\nsVview_tag\np3056\ng35\nsa(dp3057\nValt_view_tags\np3058\n(lp3059\nsVbody\np3060\nVYou don\'t get far in life by working hard, my friend. See the list on BuzzFeed!\np3061\nsVimage_hash\np3062\nV84b166d3e2151bfa08a74beb44facd57\np3063\nsVname\np3064\nV22 Ways To Get By In Life\np3065\nsVtitle\np3066\nV22 Ways To Get By In Life\np3067\nsVcreative_id\np3068\nV6007673889765\np3069\nsVpreview_url\np3070\nVhttp://www.facebook.com/ads/api/creative_preview.php?cid=6007673889765\np3071\nsVid\np3072\nV6007673889765\np3073\nsVimage_url\np3074\nVhttps://fbcdn-creative-a.akamaihd.net/hads-ak-prn1/s110x80/735318_6007673826965_24263_n.jpg\np3075\nsVcount_current_adgroups\np3076\nI2\nsVrun_status\np3077\nI1\nsVtype\np3078\nI1\nsVlink_url\np3079\nVhttp://bs.serving-sys.com/BurstingPipe/adServer.bs?cn=tf&c=20&mc=click&pli=6053855&PluID=0&ord=%n&rtu=http://www.buzzfeed.com/h1/fbad/comedycentral/22-ways-to-get-by-in-life-without-really-trying\np3080\nsVview_tag\np3081\ng35\nsa(dp3082\nValt_view_tags\np3083\n(lp3084\nsVbody\np3085\nVShe\'s one of the 10 Women Who Are Making The World A Better Place - See who made the list!\np3086\nsVimage_hash\np3087\nV0fbe66ede7536e5f52442e56be9272e9\np3088\nsVname\np3089\nVMelinda Gates-00\np3090\nsVtitle\np3091\nVAngelina Jolie\np3092\nsVcreative_id\np3093\nV6007623306165\np3094\nsVpreview_url\np3095\nVhttp://www.facebook.com/ads/api/creative_preview.php?cid=6007623306165\np3096\nsVid\np3097\nV6007623306165\np3098\nsVimage_url\np3099\nVhttps://fbcdn-creative-a.akamaihd.net/hads-ak-prn1/s110x80/735330_6007623289965_26091_n.jpg\np3100\nsVcount_current_adgroups\np3101\nI2\nsVrun_status\np3102\nI1\nsVtype\np3103\nI1\nsVlink_url\np3104\nVhttp://www.buzzfeed.com/h1/fbad/doubledivas/10-women-who-are-making-the-world-a-better-place-8edm\np3105\nsVview_tag\np3106\ng35\nsa(dp3107\nValt_view_tags\np3108\n(lp3109\nsVbody\np3110\nVShe\'s one of the 10 Women Who Are Making The World A Better Place - See who made the list!\np3111\nsVimage_hash\np3112\nVbcebdfe05c790e78b0dc26945c9dc7c7\np3113\nsVname\np3114\nVMelinda Gates\np3115\nsVtitle\np3116\nVMelinda Gates\np3117\nsV'
p6
sS'hash'
p7
S'f1fc18fbecf6a8166d34ccd8bdb83f16e03675a6'
p8
sS'stack'
p9
S''
s.