(dp1
S'args'
p2
S''
sS'methodname'
p3
S''
sS'packet_num'
p4
I16
sS'returnval'
p5
S'6007793271765\np2050\nsVid\np2051\nV6007793271765\np2052\nsVimage_url\np2053\nVhttps://fbcdn-creative-a.akamaihd.net/hads-ak-prn1/s110x80/735298_6007793266165_5302_n.png\np2054\nsVcount_current_adgroups\np2055\nI1\nsVrun_status\np2056\nI1\nsVtype\np2057\nI1\nsVlink_url\np2058\nVhttp://bs.serving-sys.com/BurstingPipe/adServer.bs?cn=tf&c=20&mc=click&pli=5899163&PluID=0&ord=%n&rtu=http://www.buzzfeed.com/h1/fbad/nevada/the-20-coolest-old-school-games-at-the-pinball-hal\np2059\nsVview_tag\np2060\ng35\nsa(dp2061\nValt_view_tags\np2062\n(lp2063\nsVbody\np2064\nVJust One of the "20 Coolest Old School Games At The Pinball Hall Of Fame" - See the all!\np2065\nsVimage_hash\np2066\nV7065c2eaab68ed842f2f9d348cc404c4\np2067\nsVname\np2068\nVTRON\np2069\nsVtitle\np2070\nVTRON\np2071\nsVcreative_id\np2072\nV6007792104965\np2073\nsVpreview_url\np2074\nVhttp://www.facebook.com/ads/api/creative_preview.php?cid=6007792104965\np2075\nsVid\np2076\nV6007792104965\np2077\nsVimage_url\np2078\nVhttps://fbcdn-creative-a.akamaihd.net/hads-ak-prn1/s110x80/735336_6007792043965_4458_n.png\np2079\nsVcount_current_adgroups\np2080\nI1\nsVrun_status\np2081\nI1\nsVtype\np2082\nI1\nsVlink_url\np2083\nVhttp://bs.serving-sys.com/BurstingPipe/adServer.bs?cn=tf&c=20&mc=click&pli=5899163&PluID=0&ord=%n&rtu=http://www.buzzfeed.com/h1/fbad/nevada/the-20-coolest-old-school-games-at-the-pinball-hal\np2084\nsVview_tag\np2085\ng35\nsa(dp2086\nValt_view_tags\np2087\n(lp2088\nsVbody\np2089\nVCome take a look at The Little A\'Le\'Inn - a must-stop for our little green friends.\np2090\nsVimage_hash\np2091\nVbd74d889ecfb04a1fdf4775bb234147c\np2092\nsVname\np2093\nVEarthlings Welcome!\np2094\nsVtitle\np2095\nVEarthlings Welcome!\np2096\nsVcreative_id\np2097\nV6007790656365\np2098\nsVpreview_url\np2099\nVhttp://www.facebook.com/ads/api/creative_preview.php?cid=6007790656365\np2100\nsVid\np2101\nV6007790656365\np2102\nsVimage_url\np2103\nVhttps://fbcdn-creative-a.akamaihd.net/hads-ak-prn1/s110x80/735357_6007790635565_53781_n.png\np2104\nsVcount_current_adgroups\np2105\nI4\nsVrun_status\np2106\nI1\nsVtype\np2107\nI1\nsVlink_url\np2108\nVhttp://bs.serving-sys.com/BurstingPipe/adServer.bs?cn=tf&c=20&mc=click&pli=5899163&PluID=0&ord=%n&rtu=http://www.buzzfeed.com/h1/fbad/nevada/a-look-at-the-world-famous-little-aleinn\np2109\nsVview_tag\np2110\ng35\nsa(dp2111\nValt_view_tags\np2112\n(lp2113\nsVbody\np2114\nVJust One of the Things You Do On A Redneck Vacation - See them all on BuzzFeed!\np2115\nsVimage_hash\np2116\nV4d6e2369ec019dd933ea9edd0c79c9f1\np2117\nsVname\np2118\nVDance It Up!-00\np2119\nsVtitle\np2120\nVExperience Wildlife!\np2121\nsVcreative_id\np2122\nV6007789630565\np2123\nsVpreview_url\np2124\nVhttp://www.facebook.com/ads/api/creative_preview.php?cid=6007789630565\np2125\nsVid\np2126\nV6007789630565\np2127\nsVimage_url\np2128\nVhttps://fbcdn-creative-a.akamaihd.net/hads-ak-ash3/s110x80/735318_6007789625165_51480_n.png\np2129\nsVcount_current_adgroups\np2130\nI1\nsVrun_status\np2131\nI1\nsVtype\np2132\nI1\nsVlink_url\np2133\nVhttp://www.buzzfeed.com/h1/fbad/redneckvacation/this-is-what-you-do-on-a-redneck-vacation\np2134\nsVview_tag\np2135\ng35\nsa(dp2136\nValt_view_tags\np2137\n(lp2138\nsVbody\np2139\nVJust One of the Things You Do On A Redneck Vacation - See them all on BuzzFeed!\np2140\nsVimage_hash\np2141\nV90fb22bd19f3fdbe11e1a955634d4d40\np2142\nsVname\np2143\nVDance It Up!\np2144\nsVtitle\np2145\nVDance It Up!\np2146\nsVcreative_id\np2147\nV6007789623365\np2148\nsVpreview_url\np2149\nVhttp://www.facebook.com/ads/api/creative_preview.php?cid=6007789623365\np2150\nsVid\np2151\nV6007789623365\np2152\nsVimage_url\np2153\nVhttps://fbcdn-creative-a.akamaihd.net/hads-ak-ash3/s110x80/735308_6007789488565_14022_n.png\np2154\nsVcount_current_adgroups\np2155\nI1\nsVrun_status\np2156\nI1\nsVtype\np2157\nI1\nsVlink_url\np2158\nVhttp://www.buzzfeed.com/h1/fbad/redneckvacation/this-is-what-you-do-on-a-redneck-vacation\np2159\nsVview_tag\np2160\ng35\nsa(dp2161\nValt_view_tags\np2162\n(lp2163\nsVbody\np2164\nVHit the road & Check out The 11 Best Places To Go On A Redneck Vacation!\np2165\nsVimage_hash\np2166\nVa2bc4798271fb287fc510c6e576da701\np2167\nsVname\np2168\nVRedneck Vacation Spots!-00-00\np2169\nsVtitle\np2170\nVCarHenge in Nebraska\np2171\nsVcreative_id\np2172\nV6007789458965\np2173\nsVpreview_url\np2174\nVhttp://www.facebook'
p6
sS'hash'
p7
S'f1fc18fbecf6a8166d34ccd8bdb83f16e03675a6'
p8
sS'stack'
p9
S''
s.