(dp1
S'args'
p2
S''
sS'methodname'
p3
S''
sS'packet_num'
p4
I32
sS'returnval'
p5
S'ative_preview.php?cid=6007625776565\np3996\nsVid\np3997\nV6007625776565\np3998\nsVimage_url\np3999\nVhttps://fbcdn-creative-a.akamaihd.net/hads-ak-ash3/s110x80/735359_6007625710765_47974_n.jpg\np4000\nsVcount_current_adgroups\np4001\nI1\nsVrun_status\np4002\nI1\nsVtype\np4003\nI1\nsVlink_url\np4004\nVhttp://ad.doubleclick.net/clk;266543194;92810455;n?http://www.buzzfeed.com/h1/fbad/syfy/13-times-when-its-okay-to-freak-out-6wms\np4005\nsVview_tag\np4006\ng35\nsa(dp4007\nValt_view_tags\np4008\n(lp4009\nsVbody\np4010\nVPudding For Airline Miles? Check out more of "The 10 Greatest Get-Rich-Quick Schemes!"\np4011\nsVimage_hash\np4012\nVde3bfb113970981901d07205728f300f\np4013\nsVname\np4014\nVPudding For Airline Miles-01\np4015\nsVtitle\np4016\nVGet-Rich-Quick Schemes!\np4017\nsVcreative_id\np4018\nV6007625694965\np4019\nsVpreview_url\np4020\nVhttp://www.facebook.com/ads/api/creative_preview.php?cid=6007625694965\np4021\nsVid\np4022\nV6007625694965\np4023\nsVimage_url\np4024\nVhttps://fbcdn-creative-a.akamaihd.net/hads-ak-prn1/s110x80/735315_6007597860365_29962_n.jpg\np4025\nsVcount_current_adgroups\np4026\nI1\nsVrun_status\np4027\nI1\nsVtype\np4028\nI1\nsVlink_url\np4029\nVhttp://www.buzzfeed.com/h1/fbad/shameless/the-10-greatest-get-rich-quick-schemes-of-all-time\np4030\nsVview_tag\np4031\ng35\nsa(dp4032\nValt_view_tags\np4033\n(lp4034\nsVbody\np4035\nVThink that\'s crazy? See more of "The 10 Greatest Get-Rich-Quick Schemes Of All Time!"\np4036\nsVimage_hash\np4037\nVde3bfb113970981901d07205728f300f\np4038\nsVname\np4039\nVPudding For Airline Miles\np4040\nsVtitle\np4041\nVPudding For Airline Miles\np4042\nsVcreative_id\np4043\nV6007597926965\np4044\nsVpreview_url\np4045\nVhttp://www.facebook.com/ads/api/creative_preview.php?cid=6007597926965\np4046\nsVid\np4047\nV6007597926965\np4048\nsVimage_url\np4049\nVhttps://fbcdn-creative-a.akamaihd.net/hads-ak-prn1/s110x80/735315_6007597860365_29962_n.jpg\np4050\nsVcount_current_adgroups\np4051\nI1\nsVrun_status\np4052\nI1\nsVtype\np4053\nI1\nsVlink_url\np4054\nVhttp://www.buzzfeed.com/h1/fbad/shameless/the-10-greatest-get-rich-quick-schemes-of-all-time\np4055\nsVview_tag\np4056\ng35\nsa(dp4057\nValt_view_tags\np4058\n(lp4059\nsVbody\np4060\nVNot care what people think? See the"Things We Would Do Differently If We Were Kids Again!"\np4061\nsVimage_hash\np4062\nVd8cb52d05313cf42f4e8c7b109a50373\np4063\nsVname\np4064\nVWhat Would You Do?\np4065\nsVtitle\np4066\nVWhat Would You Do?\np4067\nsVcreative_id\np4068\nV6007510759165\np4069\nsVpreview_url\np4070\nVhttp://www.facebook.com/ads/api/creative_preview.php?cid=6007510759165\np4071\nsVid\np4072\nV6007510759165\np4073\nsVimage_url\np4074\nVhttps://fbcdn-creative-a.akamaihd.net/hads-ak-ash3/s110x80/735316_6007510607365_55467_n.jpg\np4075\nsVcount_current_adgroups\np4076\nI2\nsVrun_status\np4077\nI1\nsVtype\np4078\nI1\nsVlink_url\np4079\nVhttp://ad.doubleclick.net/clk;266212546;92028855;m;pc=[TPAS_ID]?http://www.buzzfeed.com/h1/fbad/ragu/things-we-would-do-differently-if-we-were-kids-aga\np4080\nsVview_tag\np4081\ng35\nsa(dp4082\nValt_view_tags\np4083\n(lp4084\nsVbody\np4085\nVHe can play it all! Check out "The Nicolas Cage Career Timeline" on BuzzFeed!\np4086\nsVimage_hash\np4087\nV8bacba1f48699e0353cf682707137eb5\np4088\nsVname\np4089\nVNick Cage Career Timeline\np4090\nsVtitle\np4091\nVNick Cage Career Timeline\np4092\nsVcreative_id\np4093\nV6007505066165\np4094\nsVpreview_url\np4095\nVhttp://www.facebook.com/ads/api/creative_preview.php?cid=6007505066165\np4096\nsVid\np4097\nV6007505066165\np4098\nsVimage_url\np4099\nVhttps://fbcdn-creative-a.akamaihd.net/hads-ak-prn1/s110x80/735344_6007505016165_1491_n.jpg\np4100\nsVcount_current_adgroups\np4101\nI2\nsVrun_status\np4102\nI1\nsVtype\np4103\nI1\nsVlink_url\np4104\nVhttp://www.buzzfeed.com/h1/fbad/stolen/the-nicolas-cage-career-timeline\np4105\nsVview_tag\np4106\ng35\nsa(dp4107\nValt_view_tags\np4108\n(lp4109\nsVbody\np4110\nVCheck out this post and add your own annoyance for a chance to win a trip to Chicago!\np4111\nsVimage_hash\np4112\nVc1537eb68c9b9bac6592b0f38ed7bfdf\np4113\nsVname\np4114\nVAnnoyances Equal Prizes!\np4115\nsVtitle\np4116\nVAnnoyances Equal Prizes!\np4117\nsVcreative_id\np4118\nV6007594394565\np4119\nsVpreview_url\np4120\nVhttp://www.facebook.com/ads/api/creative_preview.php?cid=6007594394565\np4121\nsVid\np4122\nV60075943945'
p6
sS'hash'
p7
S'f1fc18fbecf6a8166d34ccd8bdb83f16e03675a6'
p8
sS'stack'
p9
S''
s.