(dp1
S'args'
p2
S''
sS'methodname'
p3
S''
sS'packet_num'
p4
I26
sS'returnval'
p5
S'9\nVhttps://fbcdn-creative-a.akamaihd.net/hads-ak-prn1/s110x80/735358_6007670287165_35303_n.jpg\np3250\nsVcount_current_adgroups\np3251\nI1\nsVrun_status\np3252\nI1\nsVtype\np3253\nI1\nsVlink_url\np3254\nVhttp://ad.doubleclick.net/clk;267179552;91565483;y?http://www.buzzfeed.com/h1/fbad/kingofthenerds/10-of-the-hardest-video-games-of-all-time-77y5\np3255\nsVview_tag\np3256\ng35\nsa(dp3257\nValt_view_tags\np3258\n(lp3259\nsVbody\np3260\nVJust One of the "Top 10 Things To Binge On" - See the whole list on BuzzFeed!\np3261\nsVimage_hash\np3262\nV960c3afbaf0dcfa3645aaa8056ea78a6\np3263\nsVname\np3264\nVFacebook-00-00\np3265\nsVtitle\np3266\nVInternet Cats\np3267\nsVcreative_id\np3268\nV6007672721165\np3269\nsVpreview_url\np3270\nVhttp://www.facebook.com/ads/api/creative_preview.php?cid=6007672721165\np3271\nsVid\np3272\nV6007672721165\np3273\nsVimage_url\np3274\nVhttps://fbcdn-creative-a.akamaihd.net/hads-ak-prn1/s110x80/735330_6007672698165_56934_n.jpg\np3275\nsVcount_current_adgroups\np3276\nI1\nsVrun_status\np3277\nI1\nsVtype\np3278\nI1\nsVlink_url\np3279\nVhttp://ad.doubleclick.net/clk;266450459;92417075;p?http://www.buzzfeed.com/h1/fbad/suits/top-10-things-to-binge-on\np3280\nsVview_tag\np3281\ng35\nsa(dp3282\nValt_view_tags\np3283\n(lp3284\nsVbody\np3285\nVJust One of the "Top 10 Things To Binge On" - See the whole list on BuzzFeed!\np3286\nsVimage_hash\np3287\nVb05b1a82ffab4f7e50e5f9c663e90922\np3288\nsVname\np3289\nVFacebook-00\np3290\nsVtitle\np3291\nVRyan Gosling\np3292\nsVcreative_id\np3293\nV6007672688965\np3294\nsVpreview_url\np3295\nVhttp://www.facebook.com/ads/api/creative_preview.php?cid=6007672688965\np3296\nsVid\np3297\nV6007672688965\np3298\nsVimage_url\np3299\nVhttps://fbcdn-creative-a.akamaihd.net/hads-ak-prn1/s110x80/735358_6007672664965_32995_n.jpg\np3300\nsVcount_current_adgroups\np3301\nI1\nsVrun_status\np3302\nI1\nsVtype\np3303\nI1\nsVlink_url\np3304\nVhttp://ad.doubleclick.net/clk;266450459;92417075;p?http://www.buzzfeed.com/h1/fbad/suits/top-10-things-to-binge-on\np3305\nsVview_tag\np3306\ng35\nsa(dp3307\nValt_view_tags\np3308\n(lp3309\nsVbody\np3310\nVJust One of the "15 People Who Just Look Better In A Suit" - See who else made the cut!\np3311\nsVimage_hash\np3312\nV1d00c3176ba325660014438ef27265bd\np3313\nsVname\np3314\nVJoseph Gordon Levitt-01-00-00\np3315\nsVtitle\np3316\nVRobert Pattinson\np3317\nsVcreative_id\np3318\nV6007672570965\np3319\nsVpreview_url\np3320\nVhttp://www.facebook.com/ads/api/creative_preview.php?cid=6007672570965\np3321\nsVid\np3322\nV6007672570965\np3323\nsVimage_url\np3324\nVhttps://fbcdn-creative-a.akamaihd.net/hads-ak-ash3/s110x80/735341_6007672550765_63205_n.jpg\np3325\nsVcount_current_adgroups\np3326\nI1\nsVrun_status\np3327\nI1\nsVtype\np3328\nI1\nsVlink_url\np3329\nVhttp://ad.doubleclick.net/clk;266450459;92417075;p?http://www.buzzfeed.com/h1/fbad/suits/15-people-who-just-look-better-in-a-suit\np3330\nsVview_tag\np3331\ng35\nsa(dp3332\nValt_view_tags\np3333\n(lp3334\nsVbody\np3335\nVJust One of the "15 People Who Just Look Better In A Suit" - See who else made the cut!\np3336\nsVimage_hash\np3337\nV772e98b0b888a2d4df43b00d5850364b\np3338\nsVname\np3339\nVJoseph Gordon Levitt-01\np3340\nsVtitle\np3341\nVJoseph Gordon Levitt\np3342\nsVcreative_id\np3343\nV6007672278765\np3344\nsVpreview_url\np3345\nVhttp://www.facebook.com/ads/api/creative_preview.php?cid=6007672278765\np3346\nsVid\np3347\nV6007672278765\np3348\nsVimage_url\np3349\nVhttps://fbcdn-creative-a.akamaihd.net/hads-ak-ash3/s110x80/735301_6007672210365_20772_n.jpg\np3350\nsVcount_current_adgroups\np3351\nI1\nsVrun_status\np3352\nI1\nsVtype\np3353\nI1\nsVlink_url\np3354\nVhttp://ad.doubleclick.net/clk;266450459;92417075;p?http://www.buzzfeed.com/h1/fbad/suits/15-people-who-just-look-better-in-a-suit\np3355\nsVview_tag\np3356\ng35\nsa(dp3357\nValt_view_tags\np3358\n(lp3359\nsVbody\np3360\nVThese guys go all out! Check out "24 Of The Best Cosplays Ever" on BuzzFeed!\np3361\nsVimage_hash\np3362\nV952b114f31a1fad837d05cb9f6d701fd\np3363\nsVname\np3364\nVCommander Shepard-01\np3365\nsVtitle\np3366\nVJecht From Final Fantasy\np3367\nsVcreative_id\np3368\nV6007671012165\np3369\nsVpreview_url\np3370\nVhttp://www.facebook.com/ads/api/creative_preview.php?cid=6007671012165\np3371\nsVid\np3372\nV6007671012165\np3373\nsVimage_url\np3374\nVhttps://fbcdn-creative-a.akamaihd.net'
p6
sS'hash'
p7
S'f1fc18fbecf6a8166d34ccd8bdb83f16e03675a6'
p8
sS'stack'
p9
S''
s.