(dp1
S'args'
p2
S''
sS'methodname'
p3
S''
sS'packet_num'
p4
I22
sS'returnval'
p5
S'roes" on BuzzFeed!\np2761\nsVimage_hash\np2762\nV8c4172f8b0ec0dd5f1aea501c184c98a\np2763\nsVname\np2764\nVThorgi!-00\np2765\nsVtitle\np2766\nVThe Batcat!\np2767\nsVcreative_id\np2768\nV6007671322365\np2769\nsVpreview_url\np2770\nVhttp://www.facebook.com/ads/api/creative_preview.php?cid=6007671322365\np2771\nsVid\np2772\nV6007671322365\np2773\nsVimage_url\np2774\nVhttps://fbcdn-creative-a.akamaihd.net/hads-ak-prn1/s110x80/735317_6007671259365_33489_n.png\np2775\nsVcount_current_adgroups\np2776\nI1\nsVrun_status\np2777\nI1\nsVtype\np2778\nI1\nsVlink_url\np2779\nVhttp://bs.serving-sys.com/BurstingPipe/adServer.bs?cn=tf&c=20&mc=click&pli=6041976&PluID=0&ord=%n&rtu=http://www.buzzfeed.com/h1/fbad/cwarrow/15-pets-dressed-up-as-superheroes\np2780\nsVview_tag\np2781\ng35\nsa(dp2782\nValt_view_tags\np2783\n(lp2784\nsVbody\np2785\nVJust one of the "21 Awesome Things That You Can Do Because You\'re An Adult" -See them all!\np2786\nsVimage_hash\np2787\nVf0d8ed73a89ee3a7aa22bd091933022e\np2788\nsVname\np2789\nVJunk Food for Breakfast?-00\np2790\nsVtitle\np2791\nVDrinking & Netflixing\np2792\nsVcreative_id\np2793\nV6007675451765\np2794\nsVpreview_url\np2795\nVhttp://www.facebook.com/ads/api/creative_preview.php?cid=6007675451765\np2796\nsVid\np2797\nV6007675451765\np2798\nsVimage_url\np2799\nVhttps://fbcdn-creative-a.akamaihd.net/hads-ak-ash3/s110x80/735322_6007675432965_37006_n.png\np2800\nsVcount_current_adgroups\np2801\nI1\nsVrun_status\np2802\nI1\nsVtype\np2803\nI1\nsVlink_url\np2804\nVhttp://bs.serving-sys.com/BurstingPipe/adServer.bs?cn=tf&c=20&mc=click&pli=6053855&PluID=0&ord=%n&rtu=http://www.buzzfeed.com/h1/fbad/comedycentral/21-awesome-things-that-you-can-do-because-youre-a\np2805\nsVview_tag\np2806\ng35\nsa(dp2807\nValt_view_tags\np2808\n(lp2809\nsVbody\np2810\nVJust One of the "Top 10 Things To Binge On" - See the whole list on BuzzFeed!\np2811\nsVimage_hash\np2812\nVb4727d377828bbb43d0069b5fdd169c3\np2813\nsVname\np2814\nVFacebook\np2815\nsVtitle\np2816\nVFacebook\np2817\nsVcreative_id\np2818\nV6007672647765\np2819\nsVpreview_url\np2820\nVhttp://www.facebook.com/ads/api/creative_preview.php?cid=6007672647765\np2821\nsVid\np2822\nV6007672647765\np2823\nsVimage_url\np2824\nVhttps://fbcdn-creative-a.akamaihd.net/hads-ak-prn1/s110x80/735360_6007672606365_48828_n.png\np2825\nsVcount_current_adgroups\np2826\nI1\nsVrun_status\np2827\nI1\nsVtype\np2828\nI1\nsVlink_url\np2829\nVhttp://ad.doubleclick.net/clk;266450459;92417075;p?http://www.buzzfeed.com/h1/fbad/suits/top-10-things-to-binge-on\np2830\nsVview_tag\np2831\ng35\nsa(dp2832\nValt_view_tags\np2833\n(lp2834\nsVbody\np2835\nVCheck out these work out & diet commercials that are almost too absurd to be true!\np2836\nsVimage_hash\np2837\nVa2fe635940bf7e8f22fd2068854f7124\np2838\nsVname\np2839\nVWacky Diet Informercials\np2840\nsVtitle\np2841\nVWacky Diet Informercials\np2842\nsVcreative_id\np2843\nV6007648969565\np2844\nsVpreview_url\np2845\nVhttp://www.facebook.com/ads/api/creative_preview.php?cid=6007648969565\np2846\nsVid\np2847\nV6007648969565\np2848\nsVimage_url\np2849\nVhttps://fbcdn-creative-a.akamaihd.net/hads-ak-prn1/s110x80/735356_6007648771565_55977_n.jpg\np2850\nsVcount_current_adgroups\np2851\nI2\nsVrun_status\np2852\nI1\nsVtype\np2853\nI1\nsVlink_url\np2854\nVhttp://bs.serving-sys.com/BurstingPipe/adServer.bs?cn=tf&c=20&mc=click&pli=6054208&PluID=0&ord=%n&rtu=http://www.buzzfeed.com/h1/fbad/comedycentral/the-wackiest-weight-loss-infomercial-gifs-1jmu\np2855\nsVview_tag\np2856\ng35\nsa(dp2857\nValt_view_tags\np2858\n(lp2859\nsVbody\np2860\nVCheck out these work out & diet commercials that are almost too absurd to be true!\np2861\nsVimage_hash\np2862\nV025377570300ebf2f497813599c88c49\np2863\nsVname\np2864\nVWacky Diet Informercials-00\np2865\nsVtitle\np2866\nVWacky Diet Informercials\np2867\nsVcreative_id\np2868\nV6007648992765\np2869\nsVpreview_url\np2870\nVhttp://www.facebook.com/ads/api/creative_preview.php?cid=6007648992765\np2871\nsVid\np2872\nV6007648992765\np2873\nsVimage_url\np2874\nVhttps://fbcdn-creative-a.akamaihd.net/hads-ak-ash3/s110x80/735358_6007648987365_49071_n.jpg\np2875\nsVcount_current_adgroups\np2876\nI2\nsVrun_status\np2877\nI1\nsVtype\np2878\nI1\nsVlink_url\np2879\nVhttp://bs.serving-sys.com/BurstingPipe/adServer.bs?cn=tf&c=20&mc=click&pli=6054208&PluID=0&ord=%n&rtu=http://www.buzzfeed.co'
p6
sS'hash'
p7
S'f1fc18fbecf6a8166d34ccd8bdb83f16e03675a6'
p8
sS'stack'
p9
S''
s.