(dp1
S'args'
p2
S''
sS'methodname'
p3
S''
sS'packet_num'
p4
I148
sS'returnval'
p5
S'Most Awesome Cover Letters On The Internet!"\np18498\nsVimage_hash\np18499\nVa3c2a2cc075b11305e20476628bf989d\np18500\nsVname\np18501\nVNick Cage Pic As A Resume\np18502\nsVtitle\np18503\nVNick Cage Pic As A Resume\np18504\nsVcreative_id\np18505\nV6006028583765\np18506\nsVpreview_url\np18507\nVhttp://www.facebook.com/ads/api/creative_preview.php?cid=6006028583765\np18508\nsVid\np18509\nV6006028583765\np18510\nsVimage_url\np18511\nVhttps://fbcdn-creative-a.akamaihd.net/hads-ak-ash3/s110x80/708199_6006845033565_10483_n.jpg\np18512\nsVcount_current_adgroups\np18513\nI1\nsVrun_status\np18514\nI1\nsVtype\np18515\nI1\nsVlink_url\np18516\nVhttp://www.buzzfeed.com/h1/fbad/microsoftoutlook/the-10-most-awesome-cover-letters-on-the-internet-76ab\np18517\nsVview_tag\np18518\ng35\nsa(dp18519\nValt_view_tags\np18520\n(lp18521\nsVbody\np18522\nVDefinitely a bad idea. Check out "The 10 Most Awesome Cover Letters On The Internet!"\np18523\nsVimage_hash\np18524\nV03330fbc079546eae8225fa33076490f\np18525\nsVname\np18526\nVNick Cage Pic As A Resume-00\np18527\nsVtitle\np18528\nVNick Cage Pic As A Resume\np18529\nsVcreative_id\np18530\nV6006031916365\np18531\nsVpreview_url\np18532\nVhttp://www.facebook.com/ads/api/creative_preview.php?cid=6006031916365\np18533\nsVid\np18534\nV6006031916365\np18535\nsVimage_url\np18536\nVhttps://fbcdn-creative-a.akamaihd.net/hads-ak-ash3/s110x80/708194_6006844066565_64211_n.jpg\np18537\nsVcount_current_adgroups\np18538\nI1\nsVrun_status\np18539\nI1\nsVtype\np18540\nI1\nsVlink_url\np18541\nVhttp://www.buzzfeed.com/h1/fbad/microsoftoutlook/the-10-most-awesome-cover-letters-on-the-internet-76ab\np18542\nsVview_tag\np18543\ng35\nsa(dp18544\nValt_view_tags\np18545\n(lp18546\nsVbody\np18547\nVHe\'s just one of "15 Guys Everybody Knows" on BuzzFeed!\np18548\nsVimage_hash\np18549\nV67beb44fa169bdbed8bd3822c2a48d64\np18550\nsVname\np18551\nVThe Eager PE Teacher\np18552\nsVtitle\np18553\nVThe Eager PE Teacher\np18554\nsVcreative_id\np18555\nV6006201850765\np18556\nsVpreview_url\np18557\nVhttp://www.facebook.com/ads/api/creative_preview.php?cid=6006201850765\np18558\nsVid\np18559\nV6006201850765\np18560\nsVimage_url\np18561\nVhttps://fbcdn-creative-a.akamaihd.net/hads-ak-prn1/s110x80/708186_6006844678365_49595_n.png\np18562\nsVcount_current_adgroups\np18563\nI1\nsVrun_status\np18564\nI1\nsVtype\np18565\nI1\nsVlink_url\np18566\nVhttp://ad.doubleclick.net/clk;264844113;90520017;w\np18567\nsVview_tag\np18568\ng35\nsa(dp18569\nValt_view_tags\np18570\n(lp18571\nsVbody\np18572\nVHe\'s just one of "15 Guys Everybody Knows" on BuzzFeed!\np18573\nsVimage_hash\np18574\nV7cdbb102f61e59f69be45bf73d3e32d3\np18575\nsVname\np18576\nVThe Eager PE Teacher-01\np18577\nsVtitle\np18578\nVThe Guy w/a Tiki Bar\np18579\nsVcreative_id\np18580\nV6006201857765\np18581\nsVpreview_url\np18582\nVhttp://www.facebook.com/ads/api/creative_preview.php?cid=6006201857765\np18583\nsVid\np18584\nV6006201857765\np18585\nsVimage_url\np18586\nVhttps://fbcdn-creative-a.akamaihd.net/hads-ak-ash3/s110x80/708182_6006844798165_45651_n.png\np18587\nsVcount_current_adgroups\np18588\nI1\nsVrun_status\np18589\nI1\nsVtype\np18590\nI1\nsVlink_url\np18591\nVhttp://ad.doubleclick.net/clk;264844113;90520017;w\np18592\nsVview_tag\np18593\ng35\nsa(dp18594\nValt_view_tags\np18595\n(lp18596\nsVbody\np18597\nVHe\'s just one of "15 Guys Everybody Knows" on BuzzFeed!\np18598\nsVimage_hash\np18599\nVe7a3b16243fecd640ed2aec6223f4b3b\np18600\nsVname\np18601\nVThe Eager PE Teacher-00\np18602\nsVtitle\np18603\nVThe Volunteer Firefighter\np18604\nsVcreative_id\np18605\nV6006201855765\np18606\nsVpreview_url\np18607\nVhttp://www.facebook.com/ads/api/creative_preview.php?cid=6006201855765\np18608\nsVid\np18609\nV6006201855765\np18610\nsVimage_url\np18611\nVhttps://fbcdn-creative-a.akamaihd.net/hads-ak-prn1/s110x80/708171_6006845448165_14471_n.png\np18612\nsVcount_current_adgroups\np18613\nI1\nsVrun_status\np18614\nI1\nsVtype\np18615\nI1\nsVlink_url\np18616\nVhttp://ad.doubleclick.net/clk;264844113;90520017;w\np18617\nsVview_tag\np18618\ng35\nsa(dp18619\nValt_view_tags\np18620\n(lp18621\nsVbody\np18622\nVThere aren\'t enough filters to fix these. See the "20 Reasons Instagram Isn\'t For Bros!"\np18623\nsVimage_hash\np18624\nV0d6cb7b12a9b7f8a30c9171e61d1d7a3\np18625\nsVname\np18626\nVOh No Insta-Bros!-00\np18627\nsVtitle\np18628\nVOh No Insta-Bros!\np18629\nsVcrea'
p6
sS'hash'
p7
S'f1fc18fbecf6a8166d34ccd8bdb83f16e03675a6'
p8
sS'stack'
p9
S''
s.