(dp1
S'args'
p2
S''
sS'methodname'
p3
S''
sS'packet_num'
p4
I195
sS'returnval'
p5
S'er?\np24545\nsVtitle\np24546\nVA Mac Bottle Opener?\np24547\nsVcreative_id\np24548\nV6006002170365\np24549\nsVpreview_url\np24550\nVhttp://www.facebook.com/ads/api/creative_preview.php?cid=6006002170365\np24551\nsVid\np24552\nV6006002170365\np24553\nsVimage_url\np24554\nVhttps://fbcdn-creative-a.akamaihd.net/hads-ak-prn1/s110x80/708177_6006844157765_19421_n.jpg\np24555\nsVcount_current_adgroups\np24556\nI1\nsVrun_status\np24557\nI1\nsVtype\np24558\nI1\nsVlink_url\np24559\nVhttp://ad.doubleclick.net/clk;263065399;88398972;k\np24560\nsVview_tag\np24561\ng35\nsa(dp24562\nValt_view_tags\np24563\n(lp24564\nsVbody\np24565\nVIt made the list of "32 Of The Most Epic Beards Ever." Check out the entire list here!\np24566\nsVimage_hash\np24567\nV6075a613bcf0b3586de1c74cc22250fc\np24568\nsVname\np24569\nVBaby Beard?-01\np24570\nsVtitle\np24571\nVBaby Beard?\np24572\nsVcreative_id\np24573\nV6006002275965\np24574\nsVpreview_url\np24575\nVhttp://www.facebook.com/ads/api/creative_preview.php?cid=6006002275965\np24576\nsVid\np24577\nV6006002275965\np24578\nsVimage_url\np24579\nVhttps://fbcdn-creative-a.akamaihd.net/hads-ak-ash3/s110x80/701903_6006844641165_56809_n.jpg\np24580\nsVcount_current_adgroups\np24581\nI1\nsVrun_status\np24582\nI1\nsVtype\np24583\nI1\nsVlink_url\np24584\nVhttp://www.buzzfeed.com/h1/fbad/duckdynasty/32-of-the-most-epic-beards-ever-7d62\np24585\nsVview_tag\np24586\ng35\nsa(dp24587\nValt_view_tags\np24588\n(lp24589\nsVbody\np24590\nVIn a Corn Maze? Check out more "Unbelievable Things Seen From Great Heights" on BuzzFeed!\np24591\nsVimage_hash\np24592\nVbd0aa0605dd896de238bc7b7c8c93652\np24593\nsVname\np24594\nVIs that Oprah?\np24595\nsVtitle\np24596\nVIs that Oprah?\np24597\nsVcreative_id\np24598\nV6005997666765\np24599\nsVpreview_url\np24600\nVhttp://www.facebook.com/ads/api/creative_preview.php?cid=6005997666765\np24601\nsVid\np24602\nV6005997666765\np24603\nsVimage_url\np24604\nVhttps://fbcdn-creative-a.akamaihd.net/hads-ak-prn1/s110x80/708189_6006845186365_46803_n.jpg\np24605\nsVcount_current_adgroups\np24606\nI1\nsVrun_status\np24607\nI1\nsVtype\np24608\nI1\nsVlink_url\np24609\nVhttp://www.buzzfeed.com/h1/fbad/generalelectric/15-unbelievable-things-seen-from-great-heights-6ieg\np24610\nsVview_tag\np24611\ng35\nsa(dp24612\nValt_view_tags\np24613\n(lp24614\nsVbody\np24615\nVA KFC logo from Space and more "Unbelievable Things Seen From Great Heights" on BuzzFeed!\np24616\nsVimage_hash\np24617\nV4af1a16e1ebce2365ec76735d5026586\np24618\nsVname\np24619\nVIs that Oprah?-00\np24620\nsVtitle\np24621\nVIs that Colonel Sanders?\np24622\nsVcreative_id\np24623\nV6005997683965\np24624\nsVpreview_url\np24625\nVhttp://www.facebook.com/ads/api/creative_preview.php?cid=6005997683965\np24626\nsVid\np24627\nV6005997683965\np24628\nsVimage_url\np24629\nVhttps://fbcdn-creative-a.akamaihd.net/hads-ak-prn1/s110x80/708167_6006844502765_38821_n.jpg\np24630\nsVcount_current_adgroups\np24631\nI1\nsVrun_status\np24632\nI1\nsVtype\np24633\nI1\nsVlink_url\np24634\nVhttp://www.buzzfeed.com/h1/fbad/generalelectric/15-unbelievable-things-seen-from-great-heights-6ieg\np24635\nsVview_tag\np24636\ng35\nsa(dp24637\nValt_view_tags\np24638\n(lp24639\nsVbody\np24640\nVIt made the list of "32 Of The Most Epic Beards Ever." Check out the entire list here!\np24641\nsVimage_hash\np24642\nV1779296d5debdcfed26d862dda541c21\np24643\nsVname\np24644\nVBaby Beard?-00-00-00\np24645\nsVtitle\np24646\nVSeneca Crane\'s Beard\np24647\nsVcreative_id\np24648\nV6006002274165\np24649\nsVpreview_url\np24650\nVhttp://www.facebook.com/ads/api/creative_preview.php?cid=6006002274165\np24651\nsVid\np24652\nV6006002274165\np24653\nsVimage_url\np24654\nVhttps://fbcdn-creative-a.akamaihd.net/hads-ak-prn1/s110x80/708166_6006844194365_42389_n.jpg\np24655\nsVcount_current_adgroups\np24656\nI1\nsVrun_status\np24657\nI1\nsVtype\np24658\nI1\nsVlink_url\np24659\nVhttp://www.buzzfeed.com/h1/fbad/duckdynasty/32-of-the-most-epic-beards-ever-7d62\np24660\nsVview_tag\np24661\ng35\nsa(dp24662\nValt_view_tags\np24663\n(lp24664\nsVbody\np24665\nVHe holds the title of most tattooed man. See more "Things You Never Knew About Tattoos!"\np24666\nsVimage_hash\np24667\nVdc4713b23e7ceae857e83107cc39a199\np24668\nsVname\np24669\nVMaori Tattoos -00\np24670\nsVtitle\np24671\nVLucky Diamond Rich\np24672\nsVcreative_id\np24673\nV6006001889165\np24674\nsVpreview_url\np246'
p6
sS'hash'
p7
S'f1fc18fbecf6a8166d34ccd8bdb83f16e03675a6'
p8
sS'stack'
p9
S''
s.