(dp1
S'args'
p2
S''
sS'methodname'
p3
S''
sS'packet_num'
p4
I113
sS'returnval'
p5
S'8\nsVbody\np14169\nVJust one of the "11 Obscure Holidays You Should Remember To Celebrate!" See them all!\np14170\nsVimage_hash\np14171\nV377200424bf651bd93a1657555a99fcf\np14172\nsVname\np14173\nVPublic Sleeping Day?\np14174\nsVtitle\np14175\nVPublic Sleeping Day?\np14176\nsVcreative_id\np14177\nV6006457656165\np14178\nsVpreview_url\np14179\nVhttp://www.facebook.com/ads/api/creative_preview.php?cid=6006457656165\np14180\nsVid\np14181\nV6006457656165\np14182\nsVimage_url\np14183\nVhttps://fbcdn-creative-a.akamaihd.net/hads-ak-ash3/s110x80/708193_6006844375965_46811_n.png\np14184\nsVcount_current_adgroups\np14185\nI1\nsVrun_status\np14186\nI1\nsVtype\np14187\nI1\nsVlink_url\np14188\nVhttp://ad.doubleclick.net/clk;265349090;91012994;m?http://www.buzzfeed.com/h1/fbad/quiznos/11-obscure-holidays-you-should-remember-to-celebra-7ppi\np14189\nsVview_tag\np14190\ng35\nsa(dp14191\nValt_view_tags\np14192\n(lp14193\nsVbody\np14194\nVSee the rest of the "15 Delicious Cookie Reaction GIFs" and get ready for Free Cookie Day!\np14195\nsVimage_hash\np14196\nVdc15f9fe693e079bcad63b859ca60c52\np14197\nsVname\np14198\nVRalph Wiggum-00\np14199\nsVtitle\np14200\nVRalph Wiggum!\np14201\nsVcreative_id\np14202\nV6006452690765\np14203\nsVpreview_url\np14204\nVhttp://www.facebook.com/ads/api/creative_preview.php?cid=6006452690765\np14205\nsVid\np14206\nV6006452690765\np14207\nsVimage_url\np14208\nVhttps://fbcdn-creative-a.akamaihd.net/hads-ak-prn1/s110x80/708191_6006845368365_65170_n.png\np14209\nsVcount_current_adgroups\np14210\nI1\nsVrun_status\np14211\nI1\nsVtype\np14212\nI1\nsVlink_url\np14213\nVhttp://ad.doubleclick.net/clk;265349090;91012994;m?http://www.buzzfeed.com/h1/fbad/quiznos/15-delicious-cookie-reaction-gifs-7ppi\np14214\nsVview_tag\np14215\ng35\nsa(dp14216\nValt_view_tags\np14217\n(lp14218\nsVbody\np14219\nVJust One of the "10 Painfully Awkward Money Moments" - Only on BuzzFeed!\np14220\nsVimage_hash\np14221\nVba498f6230c0861ce637a5ff1b72b907\np14222\nsVname\np14223\nVCredit Card Declined?-00\np14224\nsVtitle\np14225\nVSplitting the Bill?\np14226\nsVcreative_id\np14227\nV6006492748565\np14228\nsVpreview_url\np14229\nVhttp://www.facebook.com/ads/api/creative_preview.php?cid=6006492748565\np14230\nsVid\np14231\nV6006492748565\np14232\nsVimage_url\np14233\nVhttps://fbcdn-creative-a.akamaihd.net/hads-ak-ash3/s110x80/701890_6006492693765_89_n.jpg\np14234\nsVcount_current_adgroups\np14235\nI1\nsVrun_status\np14236\nI1\nsVtype\np14237\nI1\nsVlink_url\np14238\nVhttp://ad.doubleclick.net/clk;265632703;91348914;m\np14239\nsVview_tag\np14240\ng35\nsa(dp14241\nValt_view_tags\np14242\n(lp14243\nsVbody\np14244\nVJust One of the "10 Painfully Awkward Money Moments" - Only on BuzzFeed!\np14245\nsVimage_hash\np14246\nV6bf3097b6ad7d8b795a4dcc60eb62cd5\np14247\nsVname\np14248\nVCredit Card Declined?\np14249\nsVtitle\np14250\nVCredit Card Declined?\np14251\nsVcreative_id\np14252\nV6006492680965\np14253\nsVpreview_url\np14254\nVhttp://www.facebook.com/ads/api/creative_preview.php?cid=6006492680965\np14255\nsVid\np14256\nV6006492680965\np14257\nsVimage_url\np14258\nVhttps://fbcdn-creative-a.akamaihd.net/hads-ak-prn1/s110x80/708189_6006492624765_32799_n.jpg\np14259\nsVcount_current_adgroups\np14260\nI1\nsVrun_status\np14261\nI1\nsVtype\np14262\nI1\nsVlink_url\np14263\nVhttp://ad.doubleclick.net/clk;265632703;91348914;m\np14264\nsVview_tag\np14265\ng35\nsa(dp14266\nValt_view_tags\np14267\n(lp14268\nsVbody\np14269\nVWe\'ve got "21 Small Things In Life That Are Absolutely Delightful" on BuzzFeed!\np14270\nsVimage_hash\np14271\nV14d08b77e579e1781969b235f8cb7f8a\np14272\nsVname\np14273\nVHey Photogenic Guy\np14274\nsVtitle\np14275\nVHey Photogenic Guy\np14276\nsVcreative_id\np14277\nV6006201401765\np14278\nsVpreview_url\np14279\nVhttp://www.facebook.com/ads/api/creative_preview.php?cid=6006201401765\np14280\nsVid\np14281\nV6006201401765\np14282\nsVimage_url\np14283\nVhttps://fbcdn-creative-a.akamaihd.net/hads-ak-ash3/s110x80/708170_6006844181565_13959_n.png\np14284\nsVcount_current_adgroups\np14285\nI1\nsVrun_status\np14286\nI1\nsVtype\np14287\nI1\nsVlink_url\np14288\nVhttp://ad.doubleclick.net/clk;263772494;89472740;y\np14289\nsVview_tag\np14290\ng35\nsa(dp14291\nValt_view_tags\np14292\n(lp14293\nsVbody\np14294\nVReady to return to Pandora? Check out "Borderlands 2" new DLC  here!\np14295\nsVimage_hash\np14296\nV052f8d13'
p6
sS'hash'
p7
S'f1fc18fbecf6a8166d34ccd8bdb83f16e03675a6'
p8
sS'stack'
p9
S''
s.