(dp1
S'args'
p2
S''
sS'methodname'
p3
S''
sS'packet_num'
p4
I142
sS'returnval'
p5
S'e3275f903a\np17794\nsVname\np17795\nVRob Pattinson & K-Stew-00\np17796\nsVtitle\np17797\nVThe Olsens, Smiling?\np17798\nsVcreative_id\np17799\nV6006233539965\np17800\nsVpreview_url\np17801\nVhttp://www.facebook.com/ads/api/creative_preview.php?cid=6006233539965\np17802\nsVid\np17803\nV6006233539965\np17804\nsVimage_url\np17805\nVhttps://fbcdn-creative-a.akamaihd.net/hads-ak-prn1/s110x80/708189_6006845183365_10145_n.png\np17806\nsVcount_current_adgroups\np17807\nI1\nsVrun_status\np17808\nI1\nsVtype\np17809\nI1\nsVlink_url\np17810\nVhttp://ad.doubleclick.net/clk;265033673;90699709;x\np17811\nsVview_tag\np17812\ng35\nsa(dp17813\nValt_view_tags\np17814\n(lp17815\nsVbody\np17816\nVCheck out 20 Of The Gnarliest Waves Ever Ridden on BuzzFeed!\\u000a\np17817\nsVimage_hash\np17818\nV582fd4601db86ecc91609b53f52ab0e8\np17819\nsVname\np17820\nVCowabunga Dude!-00\np17821\nsVtitle\np17822\nVAwesome Surfing GIFs\np17823\nsVcreative_id\np17824\nV6006233140765\np17825\nsVpreview_url\np17826\nVhttp://www.facebook.com/ads/api/creative_preview.php?cid=6006233140765\np17827\nsVid\np17828\nV6006233140765\np17829\nsVimage_url\np17830\nVhttps://fbcdn-creative-a.akamaihd.net/hads-ak-ash3/s110x80/708167_6006844599365_18405_n.png\np17831\nsVcount_current_adgroups\np17832\nI1\nsVrun_status\np17833\nI1\nsVtype\np17834\nI1\nsVlink_url\np17835\nVhttp://www.buzzfeed.com/h1/fbad/tmobile/20-of-the-gnarliest-waves-ever-ridden-4hce\np17836\nsVview_tag\np17837\ng35\nsa(dp17838\nValt_view_tags\np17839\n(lp17840\nsVbody\np17841\nVCheck out 20 Of The Gnarliest Waves Ever Ridden (in GIF form) on BuzzFeed!\\u000a\np17842\nsVimage_hash\np17843\nVb7313b60dd6c19e7ffd6a0541630a8ff\np17844\nsVname\np17845\nVCowabunga Dude!\np17846\nsVtitle\np17847\nVCowabunga Dude!\np17848\nsVcreative_id\np17849\nV6006233128965\np17850\nsVpreview_url\np17851\nVhttp://www.facebook.com/ads/api/creative_preview.php?cid=6006233128965\np17852\nsVid\np17853\nV6006233128965\np17854\nsVimage_url\np17855\nVhttps://fbcdn-creative-a.akamaihd.net/hads-ak-prn1/s110x80/708173_6006845150965_56324_n.png\np17856\nsVcount_current_adgroups\np17857\nI1\nsVrun_status\np17858\nI1\nsVtype\np17859\nI1\nsVlink_url\np17860\nVhttp://www.buzzfeed.com/h1/fbad/tmobile/20-of-the-gnarliest-waves-ever-ridden-4hce\np17861\nsVview_tag\np17862\ng35\nsa(dp17863\nValt_view_tags\np17864\n(lp17865\nsVbody\np17866\nVTurn it up with BuzzFeed\'s "10 Songs That Are Better Than Life" powered by Rdio!\\u000a\np17867\nsVimage_hash\np17868\nVa928ee4337ba74427691caedccafcdac\np17869\nsVname\np17870\nVWant to Listen to a Hit?-00-00-00-00\np17871\nsVtitle\np17872\nVRock On! \np17873\nsVcreative_id\np17874\nV6006226236565\np17875\nsVpreview_url\np17876\nVhttp://www.facebook.com/ads/api/creative_preview.php?cid=6006226236565\np17877\nsVid\np17878\nV6006226236565\np17879\nsVimage_url\np17880\nVhttps://fbcdn-creative-a.akamaihd.net/hads-ak-ash3/s110x80/708187_6006845069165_27732_n.png\np17881\nsVcount_current_adgroups\np17882\nI3\nsVrun_status\np17883\nI1\nsVtype\np17884\nI1\nsVlink_url\np17885\nVhttp://www.buzzfeed.com/h1/fbad/buzzfeedmusicpartner/10-songs-that-are-better-than-your-entire-life-7p85\np17886\nsVview_tag\np17887\ng35\nsa(dp17888\nValt_view_tags\np17889\n(lp17890\nsVbody\np17891\nVPokemon & Other Things From Childhood That Never Stopped Being Fun - Only on BuzzFeed!\np17892\nsVimage_hash\np17893\nV3ad052085c2576a874e6b5cd9cccb482\np17894\nsVname\np17895\nVPlaying Mario Kart!-00\np17896\nsVtitle\np17897\nV"Gotta Catch \'Em All!"\np17898\nsVcreative_id\np17899\nV6006225685965\np17900\nsVpreview_url\np17901\nVhttp://www.facebook.com/ads/api/creative_preview.php?cid=6006225685965\np17902\nsVid\np17903\nV6006225685965\np17904\nsVimage_url\np17905\nVhttps://fbcdn-creative-a.akamaihd.net/hads-ak-ash3/s110x80/708206_6006844393765_40355_n.png\np17906\nsVcount_current_adgroups\np17907\nI1\nsVrun_status\np17908\nI1\nsVtype\np17909\nI1\nsVlink_url\np17910\nVhttp://ad.doubleclick.net/clk;265009684;90685345;t\np17911\nsVview_tag\np17912\ng35\nsa(dp17913\nValt_view_tags\np17914\n(lp17915\nsVbody\np17916\nVJust One of the Things From Childhood That Never Stopped Being Fun - See more on BuzzFeed!\np17917\nsVimage_hash\np17918\nVab4477328d129db4413bf16b8fbc4a2c\np17919\nsVname\np17920\nVPlaying Mario Kart!-01\np17921\nsVtitle\np17922\nVOld-School Cartoons\np17923\nsVcreative_id\np17924\nV6006225695965\np17925\nsVpr'
p6
sS'hash'
p7
S'f1fc18fbecf6a8166d34ccd8bdb83f16e03675a6'
p8
sS'stack'
p9
S''
s.