(dp1
S'args'
p2
S''
sS'methodname'
p3
S''
sS'packet_num'
p4
I13
sS'returnval'
p5
S'\np1666\nVbf27992849e5e0c2f4d7baf169f17307\np1667\nsVname\np1668\nVA Fish Out of Water?\np1669\nsVtitle\np1670\nVA Fish Out of Water?\np1671\nsVcreative_id\np1672\nV6007824626965\np1673\nsVpreview_url\np1674\nVhttp://www.facebook.com/ads/api/creative_preview.php?cid=6007824626965\np1675\nsVid\np1676\nV6007824626965\np1677\nsVimage_url\np1678\nVhttps://fbcdn-creative-a.akamaihd.net/hads-ak-prn1/s110x80/735323_6007824625365_45176_n.jpg\np1679\nsVcount_current_adgroups\np1680\nI1\nsVrun_status\np1681\nI1\nsVtype\np1682\nI1\nsVlink_url\np1683\nVhttp://www.buzzfeed.com/h1/fbad/redneckvacation/13-folks-who-are-out-of-their-element\np1684\nsVview_tag\np1685\ng35\nsa(dp1686\nValt_view_tags\np1687\n(lp1688\nsVbody\np1689\nVThere aint nothin so refined as a redneck- Check out 13 Redneck Versions Of Fancy Things!\np1690\nsVimage_hash\np1691\nVf1ed4136bd1d688fe1bd52bf01fb95fb\np1692\nsVname\np1693\nVIs That a Candlebra?\np1694\nsVtitle\np1695\nVIs That a Candlebra?\np1696\nsVcreative_id\np1697\nV6007789305965\np1698\nsVpreview_url\np1699\nVhttp://www.facebook.com/ads/api/creative_preview.php?cid=6007789305965\np1700\nsVid\np1701\nV6007789305965\np1702\nsVimage_url\np1703\nVhttps://fbcdn-creative-a.akamaihd.net/hads-ak-prn1/s110x80/735338_6007788730965_1392_n.png\np1704\nsVcount_current_adgroups\np1705\nI1\nsVrun_status\np1706\nI1\nsVtype\np1707\nI1\nsVlink_url\np1708\nVhttp://www.buzzfeed.com/h1/fbad/redneckvacation/14-redneck-versions-of-fancy-things\np1709\nsVview_tag\np1710\ng35\nsa(dp1711\nValt_view_tags\np1712\n(lp1713\nsVbody\np1714\nVThere aint nothin so refined as a redneck- Check out 13 Redneck Versions Of Fancy Things!\np1715\nsVimage_hash\np1716\nVff30d7244a8b070abd101a040ad27809\np1717\nsVname\np1718\nVIs That a Candlebra?-00\np1719\nsVtitle\np1720\nVParty Glasses, Y\'all!\np1721\nsVcreative_id\np1722\nV6007789309965\np1723\nsVpreview_url\np1724\nVhttp://www.facebook.com/ads/api/creative_preview.php?cid=6007789309965\np1725\nsVid\np1726\nV6007789309965\np1727\nsVimage_url\np1728\nVhttps://fbcdn-creative-a.akamaihd.net/hads-ak-ash3/s110x80/735352_6007789307965_42642_n.png\np1729\nsVcount_current_adgroups\np1730\nI1\nsVrun_status\np1731\nI1\nsVtype\np1732\nI1\nsVlink_url\np1733\nVhttp://www.buzzfeed.com/h1/fbad/redneckvacation/14-redneck-versions-of-fancy-things\np1734\nsVview_tag\np1735\ng35\nsa(dp1736\nValt_view_tags\np1737\n(lp1738\nsVbody\np1739\nVWho would have known? Check out "11 Celebrities That Aren\'t Afraid To Be A Little Nerdy!"\np1740\nsVimage_hash\np1741\nV67735f3e991d9314ba1f2ff2633889d7\np1742\nsVname\np1743\nVDiesel Loves D&D?-00-00\np1744\nsVtitle\np1745\nVBond Loves Halo?\np1746\nsVcreative_id\np1747\nV6007819968165\np1748\nsVpreview_url\np1749\nVhttp://www.facebook.com/ads/api/creative_preview.php?cid=6007819968165\np1750\nsVid\np1751\nV6007819968165\np1752\nsVimage_url\np1753\nVhttps://fbcdn-creative-a.akamaihd.net/hads-ak-prn1/s110x80/735313_6007819934165_55875_n.png\np1754\nsVcount_current_adgroups\np1755\nI1\nsVrun_status\np1756\nI1\nsVtype\np1757\nI1\nsVlink_url\np1758\nVhttp://ad.doubleclick.net/clk;267179552;91565483;y?http://www.buzzfeed.com/h1/fbad/kingofthenerds/11-celebrities-that-arent-afraid-to-be-a-little-n-77y5\np1759\nsVview_tag\np1760\ng35\nsa(dp1761\nValt_view_tags\np1762\n(lp1763\nsVbody\np1764\nVWho would have known? Check out "11 Celebrities That Aren\'t Afraid To Be A Little Nerdy!"\np1765\nsVimage_hash\np1766\nV495ff0f2238cae857994ef054612c654\np1767\nsVname\np1768\nVDiesel Loves D&D?-00\np1769\nsVtitle\np1770\nVDiesel Loves D&D?\np1771\nsVcreative_id\np1772\nV6007819898765\np1773\nsVpreview_url\np1774\nVhttp://www.facebook.com/ads/api/creative_preview.php?cid=6007819898765\np1775\nsVid\np1776\nV6007819898765\np1777\nsVimage_url\np1778\nVhttps://fbcdn-creative-a.akamaihd.net/hads-ak-prn1/s110x80/735352_6007792727365_45523_n.png\np1779\nsVcount_current_adgroups\np1780\nI1\nsVrun_status\np1781\nI1\nsVtype\np1782\nI1\nsVlink_url\np1783\nVhttp://ad.doubleclick.net/clk;267179552;91565483;y?http://www.buzzfeed.com/h1/fbad/kingofthenerds/11-celebrities-that-arent-afraid-to-be-a-little-n-77y5\np1784\nsVview_tag\np1785\ng35\nsa(dp1786\nValt_view_tags\np1787\n(lp1788\nsVbody\np1789\nVHe made the list of "15 Awesome Video Games That Time Forgot!" Check out the rest!\np1790\nsVimage_hash\np1791\nV150d923b521496ed72bcd5a8d10e660e\np1792\nsVname\np1793\nVCan'
p6
sS'hash'
p7
S'f1fc18fbecf6a8166d34ccd8bdb83f16e03675a6'
p8
sS'stack'
p9
S''
s.