(dp1
S'args'
p2
S''
sS'methodname'
p3
S''
sS'packet_num'
p4
I135
sS'returnval'
p5
S' it looks. See more "8-Bit Things In The Real World!"\np16932\nsVimage_hash\np16933\nV71fab6a94ca3f481f8e4696073f74290\np16934\nsVname\np16935\nV8-Bit Car Decals-00\np16936\nsVtitle\np16937\nV8-Bit Dirt Bike?\np16938\nsVcreative_id\np16939\nV6006249865565\np16940\nsVpreview_url\np16941\nVhttp://www.facebook.com/ads/api/creative_preview.php?cid=6006249865565\np16942\nsVid\np16943\nV6006249865565\np16944\nsVimage_url\np16945\nVhttps://fbcdn-creative-a.akamaihd.net/hads-ak-prn1/s110x80/708190_6006844736765_57952_n.png\np16946\nsVcount_current_adgroups\np16947\nI1\nsVrun_status\np16948\nI1\nsVtype\np16949\nI1\nsVlink_url\np16950\nVhttp://www.buzzfeed.com/h1/fbad/virginmobilelive/20-8-bit-things-in-the-real-world-5l87\np16951\nsVview_tag\np16952\ng35\nsa(dp16953\nValt_view_tags\np16954\n(lp16955\nsVbody\np16956\nVGet real! There is no such thing. See more "Things No One Ever Said" on BuzzFeed!\np16957\nsVimage_hash\np16958\nV0f08c729c78d3b6fcd75ef84befc77f2\np16959\nsVname\np16960\nVToo Many Cats?\np16961\nsVtitle\np16962\nVToo Many Cats?\np16963\nsVcreative_id\np16964\nV6006249829165\np16965\nsVpreview_url\np16966\nVhttp://www.facebook.com/ads/api/creative_preview.php?cid=6006249829165\np16967\nsVid\np16968\nV6006249829165\np16969\nsVimage_url\np16970\nVhttps://fbcdn-creative-a.akamaihd.net/hads-ak-ash3/s110x80/708185_6006844143765_20912_n.png\np16971\nsVcount_current_adgroups\np16972\nI1\nsVrun_status\np16973\nI1\nsVtype\np16974\nI1\nsVlink_url\np16975\nVhttp://www.buzzfeed.com/h1/fbad/virginmobilelive/15-things-no-one-ever-said-5l87\np16976\nsVview_tag\np16977\ng35\nsa(dp16978\nValt_view_tags\np16979\n(lp16980\nsVbody\np16981\nVWho would make these and upload them? See more of "The Terrible Taxidermy Of Instagram!"\np16982\nsVimage_hash\np16983\nVc96a525f9257edc395575878d59c3115\np16984\nsVname\np16985\nVThat\'s A Cheetah?\np16986\nsVtitle\np16987\nVThat\'s A Cheetah?\np16988\nsVcreative_id\np16989\nV6006249803565\np16990\nsVpreview_url\np16991\nVhttp://www.facebook.com/ads/api/creative_preview.php?cid=6006249803565\np16992\nsVid\np16993\nV6006249803565\np16994\nsVimage_url\np16995\nVhttps://fbcdn-creative-a.akamaihd.net/hads-ak-prn1/s110x80/708172_6006845255565_4108_n.png\np16996\nsVcount_current_adgroups\np16997\nI1\nsVrun_status\np16998\nI1\nsVtype\np16999\nI1\nsVlink_url\np17000\nVhttp://www.buzzfeed.com/h1/fbad/virginmobilelive/the-terrible-taxidermy-of-instagram-5l87\np17001\nsVview_tag\np17002\ng35\nsa(dp17003\nValt_view_tags\np17004\n(lp17005\nsVbody\np17006\nVCaused by dirty underwear? See how "8 Small Decisions Made Maximum Impact" on BuzzFeed!\np17007\nsVimage_hash\np17008\nVbfe7c7e7cf7d0687b0324905f4399614\np17009\nsVname\np17010\nVBuddy Holly\'s Death...\np17011\nsVtitle\np17012\nVBuddy Holly\'s Death...\np17013\nsVcreative_id\np17014\nV6006201877765\np17015\nsVpreview_url\np17016\nVhttp://www.facebook.com/ads/api/creative_preview.php?cid=6006201877765\np17017\nsVid\np17018\nV6006201877765\np17019\nsVimage_url\np17020\nVhttps://fbcdn-creative-a.akamaihd.net/hads-ak-ash3/s110x80/708192_6006845203165_42295_n.png\np17021\nsVcount_current_adgroups\np17022\nI1\nsVrun_status\np17023\nI1\nsVtype\np17024\nI1\nsVlink_url\np17025\nVhttp://ad.doubleclick.net/clk;264844149;90520029;i\np17026\nsVview_tag\np17027\ng35\nsa(dp17028\nValt_view_tags\np17029\n(lp17030\nsVbody\np17031\nVFind how Harrison Ford became an actor & other "Small Decisions That Made Maximum Impact!"\np17032\nsVimage_hash\np17033\nVe9725d4549fd55018c951dee43b317fa\np17034\nsVname\np17035\nVBuddy Holly\'s Death...-00\np17036\nsVtitle\np17037\nVCarpenter Turned Actor?\np17038\nsVcreative_id\np17039\nV6006201885365\np17040\nsVpreview_url\np17041\nVhttp://www.facebook.com/ads/api/creative_preview.php?cid=6006201885365\np17042\nsVid\np17043\nV6006201885365\np17044\nsVimage_url\np17045\nVhttps://fbcdn-creative-a.akamaihd.net/hads-ak-ash3/s110x80/708199_6006845462165_10304_n.png\np17046\nsVcount_current_adgroups\np17047\nI1\nsVrun_status\np17048\nI1\nsVtype\np17049\nI1\nsVlink_url\np17050\nVhttp://ad.doubleclick.net/clk;264844149;90520029;i\np17051\nsVview_tag\np17052\ng35\nsa(dp17053\nValt_view_tags\np17054\n(lp17055\nsVbody\np17056\nVBrought to you by Climate Reality Project\'s "24 Hours of Reality" - Watch it Now!\np17057\nsVimage_hash\np17058\nVe7eaf352ff6ba66feef19b31c8eadfc9\np17059\nsVname\np17060\nVYou\'re Invited...-00\np1'
p6
sS'hash'
p7
S'f1fc18fbecf6a8166d34ccd8bdb83f16e03675a6'
p8
sS'stack'
p9
S''
s.