(dp1
S'args'
p2
S''
sS'methodname'
p3
S''
sS'packet_num'
p4
I139
sS'returnval'
p5
S'6006237478365\np17435\nsVpreview_url\np17436\nVhttp://www.facebook.com/ads/api/creative_preview.php?cid=6006237478365\np17437\nsVid\np17438\nV6006237478365\np17439\nsVimage_url\np17440\nVhttps://fbcdn-creative-a.akamaihd.net/hads-ak-ash3/s110x80/708187_6006845069165_27732_n.png\np17441\nsVcount_current_adgroups\np17442\nI3\nsVrun_status\np17443\nI1\nsVtype\np17444\nI1\nsVlink_url\np17445\nVhttp://www.buzzfeed.com/h1/fbad/buzzfeedmusicpartner/10-mind-blowing-tracks-for-the-mind-blown\np17446\nsVview_tag\np17447\ng35\nsa(dp17448\nValt_view_tags\np17449\n(lp17450\nsVbody\np17451\nVJust One of the "12 Little Ways To Win In Life" on BuzzFeed!\np17452\nsVimage_hash\np17453\nVc8f9db802851a977d1673345bb98baa3\np17454\nsVname\np17455\nVBeing Someone\'s Hero-00\np17456\nsVtitle\np17457\nVBeing Someone\'s Hero\np17458\nsVcreative_id\np17459\nV6006236679565\np17460\nsVpreview_url\np17461\nVhttp://www.facebook.com/ads/api/creative_preview.php?cid=6006236679565\np17462\nsVid\np17463\nV6006236679565\np17464\nsVimage_url\np17465\nVhttps://fbcdn-creative-a.akamaihd.net/hads-ak-prn1/s110x80/708172_6006845254565_17618_n.png\np17466\nsVcount_current_adgroups\np17467\nI1\nsVrun_status\np17468\nI1\nsVtype\np17469\nI1\nsVlink_url\np17470\nVhttp://ad.doubleclick.net/clk;265073608;90721754;l\np17471\nsVview_tag\np17472\ng35\nsa(dp17473\nVname\np17474\nVAd from a Page post #6,006,243,818,165\np17475\nsVauto_update\np17476\nI00\nsVstory_id\np17477\nV506684636018108\np17478\nsVcreative_id\np17479\nV6006243818165\np17480\nsVpreview_url\np17481\nVhttp://www.facebook.com/ads/api/creative_preview.php?cid=6006243818165\np17482\nsVaction_t\np17483\nVBgABAPcIAAZQo7mYCgAQAADYpY31SWINABoGCgAAABsBGQABzNO1i1jnAqkAAAAAAPAAfgLcAAAAAAAl/7sCqgAAAAAA8AB+At0AAAAAACX/uwF1AAAAAAABBtsAmwAAAAAAAAAIAGYAANpa5O1xpgC9AAHM07SNCL4A/AAAAAAAHRCsAcAAAAAAAAAAAQJMAAAAAAAAAAECTgAAAAAAAAIWAk8AAAAAAAACHQJQAAAAAAAAAhYCUQAAAAAAAAIdAlQAAAAAAAACFgJVAAAAAAAAAh0CVwAAAAAAAAABAlIAAAAAAAAAAAJTAAAAAAAAAAACVgAAAAAAAAAAAA4AAAAAUKO5mAGGAAAAAAAAAAAAAQABzNO1vjW8AbYAAAAAUKO5mAHkAAHM07W+NbwNABsGCwAAAAFAAwAAAEwyMSBZb3VUdWJlIENvbW1lbnRzIFRoYXQgU2FpZCBJdCBBbGwgaHR0cDovL2J6ZmQuaXQvUldtQVROIG9vb29vIFdhbGwgUGhvdG9zCgAcAAHM07SNCL4A\np17484\nsVaction_spec\np17485\nNsVobject_id\np17486\nV238205562866018\np17487\nsVcount_current_adgroups\np17488\nI1\nsVrun_status\np17489\nI1\nsVtype\np17490\nI27\nsVid\np17491\nV6006243818165\np17492\nsa(dp17493\nValt_view_tags\np17494\n(lp17495\nsVbody\np17496\nVTo Change the World. Start Now by watching Climate Reality Project\'s "24 Hours of Reality"\np17497\nsVimage_hash\np17498\nVeaa837d39cdaac7173390f9ec5031573\np17499\nsVname\np17500\nVYou\'re Invited...\np17501\nsVtitle\np17502\nVYou\'re Invited...\np17503\nsVcreative_id\np17504\nV6006237387765\np17505\nsVpreview_url\np17506\nVhttp://www.facebook.com/ads/api/creative_preview.php?cid=6006237387765\np17507\nsVid\np17508\nV6006237387765\np17509\nsVimage_url\np17510\nVhttps://fbcdn-creative-a.akamaihd.net/hads-ak-ash3/s110x80/708164_6006845470765_5040_n.png\np17511\nsVcount_current_adgroups\np17512\nI1\nsVrun_status\np17513\nI1\nsVtype\np17514\nI1\nsVlink_url\np17515\nVhttp://www.buzzfeed.com/climatereality?utm_source=facebook&utm_medium=seed&utm_campaign=climatereality\np17516\nsVview_tag\np17517\ng35\nsa(dp17518\nValt_view_tags\np17519\n(lp17520\nsVbody\np17521\nVJust One of "TV\'s Most Awkward Workplace Romances" - See More on BuzzFeed!\np17522\nsVimage_hash\np17523\nVb6e1655b079a078389a9e1e041965996\np17524\nsVname\np17525\nVWill & Emma on "Glee"-00\np17526\nsVtitle\np17527\nVSeymour & Edna\np17528\nsVcreative_id\np17529\nV6006236354565\np17530\nsVpreview_url\np17531\nVhttp://www.facebook.com/ads/api/creative_preview.php?cid=6006236354565\np17532\nsVid\np17533\nV6006236354565\np17534\nsVimage_url\np17535\nVhttps://fbcdn-creative-a.akamaihd.net/hads-ak-prn1/s110x80/708173_6006845149565_18559_n.png\np17536\nsVcount_current_adgroups\np17537\nI1\nsVrun_status\np17538\nI1\nsVtype\np17539\nI1\nsVlink_url\np17540\nVhttp://www.buzzfeed.com/h1/fbad/fox/tvs-most-awkward-workplace-romances-7juf\np17541\nsVview_tag\np17542\ng35\nsa(dp17543\nValt_view_tags\np17544\n(lp17545\nsVbody\np17546\nVJust One of "TV\'s Most Awkward Workplace Romances" - See More on BuzzFeed!\np17547\nsVimage_hash\np17548\nV712124d3b837cf2a7e81b603c5477fb5\np17549\nsVname\np17550\nVWill & Emma on "Glee"'
p6
sS'hash'
p7
S'f1fc18fbecf6a8166d34ccd8bdb83f16e03675a6'
p8
sS'stack'
p9
S''
s.