(dp1
S'args'
p2
S''
sS'methodname'
p3
S''
sS'packet_num'
p4
I49
sS'returnval'
p5
S"reative_preview.php?cid=6007484812365\np6120\nsVid\np6121\nV6007484812365\np6122\nsVimage_url\np6123\nVhttps://fbcdn-creative-a.akamaihd.net/hads-ak-prn1/s110x80/735351_6007484659365_10497_n.jpg\np6124\nsVcount_current_adgroups\np6125\nI1\nsVrun_status\np6126\nI1\nsVtype\np6127\nI1\nsVlink_url\np6128\nVhttp://www.buzzfeed.com/h1/fbad/thecarriediaries/17-bad-things-men-did-on-sex-and-the-city-8e5c\np6129\nsVview_tag\np6130\ng35\nsa(dp6131\nValt_view_tags\np6132\n(lp6133\nsVbody\np6134\nVSome of the best songs about sex were recorded in the 80s. Check out the best ones here!\np6135\nsVimage_hash\np6136\nV25eee6204dd8d50f7cc24fb7d4afee4e\np6137\nsVname\np6138\nVThe 80's Were Sexy -00\np6139\nsVtitle\np6140\nVThe 80's Were Sexy \np6141\nsVcreative_id\np6142\nV6007484508165\np6143\nsVpreview_url\np6144\nVhttp://www.facebook.com/ads/api/creative_preview.php?cid=6007484508165\np6145\nsVid\np6146\nV6007484508165\np6147\nsVimage_url\np6148\nVhttps://fbcdn-creative-a.akamaihd.net/hads-ak-prn1/s110x80/735316_6007484309765_5130_n.jpg\np6149\nsVcount_current_adgroups\np6150\nI1\nsVrun_status\np6151\nI1\nsVtype\np6152\nI1\nsVlink_url\np6153\nVhttp://www.buzzfeed.com/h1/fbad/thecarriediaries/15-really-explicit-and-hilarious-songs-about-sex\np6154\nsVview_tag\np6155\ng35\nsa(dp6156\nValt_view_tags\np6157\n(lp6158\nsVbody\np6159\nVSome of the best songs about sex were recorded in the 80s. Check out the best ones here!\np6160\nsVimage_hash\np6161\nV8bc7dd4d6ea2cc9f0f4cc698a6b718fb\np6162\nsVname\np6163\nVThe 80's Were Sexy \np6164\nsVtitle\np6165\nVThe 80's Were Sexy \np6166\nsVcreative_id\np6167\nV6007484291165\np6168\nsVpreview_url\np6169\nVhttp://www.facebook.com/ads/api/creative_preview.php?cid=6007484291165\np6170\nsVid\np6171\nV6007484291165\np6172\nsVimage_url\np6173\nVhttps://fbcdn-creative-a.akamaihd.net/hads-ak-ash3/s110x80/735344_6007484288965_33758_n.jpg\np6174\nsVcount_current_adgroups\np6175\nI1\nsVrun_status\np6176\nI1\nsVtype\np6177\nI1\nsVlink_url\np6178\nVhttp://www.buzzfeed.com/h1/fbad/thecarriediaries/15-really-explicit-and-hilarious-songs-about-sex\np6179\nsVview_tag\np6180\ng35\nsa(dp6181\nValt_view_tags\np6182\n(lp6183\nsVbody\np6184\nVJust One of the 10 Big Ways Our World Has Changed In Last Decade- See them all on BuzzFeed\np6185\nsVimage_hash\np6186\nV4a45bf9647f06d4ad809a8c1ab55d9cf\np6187\nsVname\np6188\nVThe Evolution of Phones-01\np6189\nsVtitle\np6190\nVSteve Job's Legacy\np6191\nsVcreative_id\np6192\nV6007482201365\np6193\nsVpreview_url\np6194\nVhttp://www.facebook.com/ads/api/creative_preview.php?cid=6007482201365\np6195\nsVid\np6196\nV6007482201365\np6197\nsVimage_url\np6198\nVhttps://fbcdn-creative-a.akamaihd.net/hads-ak-prn1/s110x80/735298_6007482180965_35417_n.jpg\np6199\nsVcount_current_adgroups\np6200\nI1\nsVrun_status\np6201\nI1\nsVtype\np6202\nI1\nsVlink_url\np6203\nVhttp://clk.atdmt.com/ULA/go/425320197/direct/01/?href=http://www.buzzfeed.com/h1/fbad/zerodarkthirty/10-big-ways-our-world-has-changed-in-last-decade-8alx\np6204\nsVview_tag\np6205\ng35\nsa(dp6206\nValt_view_tags\np6207\n(lp6208\nsVbody\np6209\nVJust One of the 10 Big Ways Our World Has Changed In Last Decade- See them all on BuzzFeed\np6210\nsVimage_hash\np6211\nV963ebbaa8d90b951eeaba25bedd49f0c\np6212\nsVname\np6213\nVThe Evolution of Phones-00\np6214\nsVtitle\np6215\nVThe Rise of Fantasy Books\np6216\nsVcreative_id\np6217\nV6007482166965\np6218\nsVpreview_url\np6219\nVhttp://www.facebook.com/ads/api/creative_preview.php?cid=6007482166965\np6220\nsVid\np6221\nV6007482166965\np6222\nsVimage_url\np6223\nVhttps://fbcdn-creative-a.akamaihd.net/hads-ak-prn1/s110x80/735327_6007482124765_42535_n.jpg\np6224\nsVcount_current_adgroups\np6225\nI1\nsVrun_status\np6226\nI1\nsVtype\np6227\nI1\nsVlink_url\np6228\nVhttp://clk.atdmt.com/ULA/go/425320197/direct/01/?href=http://www.buzzfeed.com/h1/fbad/zerodarkthirty/10-big-ways-our-world-has-changed-in-last-decade-8alx\np6229\nsVview_tag\np6230\ng35\nsa(dp6231\nValt_view_tags\np6232\n(lp6233\nsVbody\np6234\nVJust One of the 10 Big Ways Our World Has Changed In Last Decade- See them all on BuzzFeed\np6235\nsVimage_hash\np6236\nV5cd42f96386395af57b6fe7d900cbf7a\np6237\nsVname\np6238\nVThe Evolution of Phones\np6239\nsVtitle\np6240\nVThe Evolution of Phones\np6241\nsVcreative_id\np6242\nV6007482109565\np6243\nsVpreview_url\np6244\nVhttp://www.facebook.com/ads"
p6
sS'hash'
p7
S'f1fc18fbecf6a8166d34ccd8bdb83f16e03675a6'
p8
sS'stack'
p9
S''
s.