(dp1
S'args'
p2
S''
sS'methodname'
p3
S''
sS'packet_num'
p4
I41
sS'returnval'
p5
S'ebook.com/ads/api/creative_preview.php?cid=6007597819965\np5095\nsVid\np5096\nV6007597819965\np5097\nsVimage_url\np5098\nVhttps://fbcdn-creative-a.akamaihd.net/hads-ak-prn1/s110x80/735321_6007597761365_39170_n.jpg\np5099\nsVcount_current_adgroups\np5100\nI1\nsVrun_status\np5101\nI1\nsVtype\np5102\nI1\nsVlink_url\np5103\nVhttp://www.buzzfeed.com/h1/fbad/shameless/10-examples-of-shameless-shaming\np5104\nsVview_tag\np5105\ng35\nsa(dp5106\nValt_view_tags\np5107\n(lp5108\nsVbody\np5109\nVCheck out "Our Favorite Moments From Shameless Thus Far" and get ready for Season 3!\np5110\nsVimage_hash\np5111\nV0fcaa6f81f316fa2a0a1cdeedf37cf86\np5112\nsVname\np5113\nVGotta Love Shameless\np5114\nsVtitle\np5115\nVGotta Love Shameless\np5116\nsVcreative_id\np5117\nV6007597738565\np5118\nsVpreview_url\np5119\nVhttp://www.facebook.com/ads/api/creative_preview.php?cid=6007597738565\np5120\nsVid\np5121\nV6007597738565\np5122\nsVimage_url\np5123\nVhttps://fbcdn-creative-a.akamaihd.net/hads-ak-ash3/s110x80/735359_6007597700965_17301_n.jpg\np5124\nsVcount_current_adgroups\np5125\nI1\nsVrun_status\np5126\nI1\nsVtype\np5127\nI1\nsVlink_url\np5128\nVhttp://www.buzzfeed.com/h1/fbad/shameless/our-favorite-moments-from-shameless-thus-far\np5129\nsVview_tag\np5130\ng35\nsa(dp5131\nValt_view_tags\np5132\n(lp5133\nsVbody\np5134\nVNot every hero is a poster-boy. Check out "Our 16 Favorite Anti-Heroes" only on BuzzFeed!\np5135\nsVimage_hash\np5136\nV03e0a5a65b1d516814fa479c88e3172f\np5137\nsVname\np5138\nVX-Men\'s Wolverine-00-00\np5139\nsVtitle\np5140\nVTony Soprano\np5141\nsVcreative_id\np5142\nV6007597532565\np5143\nsVpreview_url\np5144\nVhttp://www.facebook.com/ads/api/creative_preview.php?cid=6007597532565\np5145\nsVid\np5146\nV6007597532565\np5147\nsVimage_url\np5148\nVhttps://fbcdn-creative-a.akamaihd.net/hads-ak-prn1/s110x80/735320_6007597516365_63962_n.jpg\np5149\nsVcount_current_adgroups\np5150\nI1\nsVrun_status\np5151\nI1\nsVtype\np5152\nI1\nsVlink_url\np5153\nVhttp://www.buzzfeed.com/h1/fbad/banshee/our-16-favorite-anti-heroes\np5154\nsVview_tag\np5155\ng35\nsa(dp5156\nValt_view_tags\np5157\n(lp5158\nsVbody\np5159\nVNot every hero is a poster-boy. Check out "Our 16 Favorite Anti-Heroes" only on BuzzFeed!\np5160\nsVimage_hash\np5161\nV120ab35356ea8383c840094079bdf7fb\np5162\nsVname\np5163\nVX-Men\'s Wolverine-00\np5164\nsVtitle\np5165\nVWalter White\np5166\nsVcreative_id\np5167\nV6007597465365\np5168\nsVpreview_url\np5169\nVhttp://www.facebook.com/ads/api/creative_preview.php?cid=6007597465365\np5170\nsVid\np5171\nV6007597465365\np5172\nsVimage_url\np5173\nVhttps://fbcdn-creative-a.akamaihd.net/hads-ak-ash3/s110x80/735362_6007597447365_4337_n.jpg\np5174\nsVcount_current_adgroups\np5175\nI1\nsVrun_status\np5176\nI1\nsVtype\np5177\nI1\nsVlink_url\np5178\nVhttp://www.buzzfeed.com/h1/fbad/banshee/our-16-favorite-anti-heroes\np5179\nsVview_tag\np5180\ng35\nsa(dp5181\nValt_view_tags\np5182\n(lp5183\nsVbody\np5184\nVNot every hero is a poster-boy. Check out "Our 16 Favorite Anti-Heroes" only on BuzzFeed!\np5185\nsVimage_hash\np5186\nV3cef986c7a984dfdee90e21f716eed68\np5187\nsVname\np5188\nVX-Men\'s Wolverine\np5189\nsVtitle\np5190\nVX-Men\'s Wolverine\np5191\nsVcreative_id\np5192\nV6007597439565\np5193\nsVpreview_url\np5194\nVhttp://www.facebook.com/ads/api/creative_preview.php?cid=6007597439565\np5195\nsVid\np5196\nV6007597439565\np5197\nsVimage_url\np5198\nVhttps://fbcdn-creative-a.akamaihd.net/hads-ak-ash3/s110x80/735347_6007597438165_30584_n.jpg\np5199\nsVcount_current_adgroups\np5200\nI1\nsVrun_status\np5201\nI1\nsVtype\np5202\nI1\nsVlink_url\np5203\nVhttp://www.buzzfeed.com/h1/fbad/banshee/our-16-favorite-anti-heroes\np5204\nsVview_tag\np5205\ng35\nsa(dp5206\nValt_view_tags\np5207\n(lp5208\nsVbody\np5209\nVJust One of the "10 Small Fictional Cities w/Big Problems" - See them all on BuzzFeed!\np5210\nsVimage_hash\np5211\nV6654811d2423a4564fcf0e5e67d87610\np5212\nsVname\np5213\nVSilent Hill-00-00-00\np5214\nsVtitle\np5215\nVWelcome to Gotham City\np5216\nsVcreative_id\np5217\nV6007597268365\np5218\nsVpreview_url\np5219\nVhttp://www.facebook.com/ads/api/creative_preview.php?cid=6007597268365\np5220\nsVid\np5221\nV6007597268365\np5222\nsVimage_url\np5223\nVhttps://fbcdn-creative-a.akamaihd.net/hads-ak-ash3/s110x80/735312_6007597251965_59737_n.jpg\np5224\nsVcount_current_adgroups\np5225\nI1\nsVrun_status\np5226\nI1\nsVtype\np'
p6
sS'hash'
p7
S'f1fc18fbecf6a8166d34ccd8bdb83f16e03675a6'
p8
sS'stack'
p9
S''
s.