(dp1
S'args'
p2
S''
sS'methodname'
p3
S''
sS'packet_num'
p4
I101
sS'returnval'
p5
S'time\np12619\nsVview_tag\np12620\ng35\nsa(dp12621\nValt_view_tags\np12622\n(lp12623\nsVbody\np12624\nVCheck out these "18 Mind Blowing Hacks For Food On-The-Go" on BuzzFeed!\np12625\nsVimage_hash\np12626\nVef1b56d756c9e0620401218a59217fda\np12627\nsVname\np12628\nVThai Chicken Pies To Go-00\np12629\nsVtitle\np12630\nVAre you a Lifehacker?\np12631\nsVcreative_id\np12632\nV6006738175365\np12633\nsVpreview_url\np12634\nVhttp://www.facebook.com/ads/api/creative_preview.php?cid=6006738175365\np12635\nsVid\np12636\nV6006738175365\np12637\nsVimage_url\np12638\nVhttps://fbcdn-creative-a.akamaihd.net/hads-ak-prn1/s110x80/708206_6006845497765_928_n.png\np12639\nsVcount_current_adgroups\np12640\nI1\nsVrun_status\np12641\nI1\nsVtype\np12642\nI1\nsVlink_url\np12643\nVhttp://www.buzzfeed.com/h1/fbad/campbellsgo/20-mind-blowing-hacks-for-food-on-the-go\np12644\nsVview_tag\np12645\ng35\nsa(dp12646\nValt_view_tags\np12647\n(lp12648\nsVbody\np12649\nVIn a rush? Check out these "18 Mind Blowing Hacks For Food On-The-Go" on BuzzFeed!\np12650\nsVimage_hash\np12651\nVef1b56d756c9e0620401218a59217fda\np12652\nsVname\np12653\nVThai Chicken Pies To Go\np12654\nsVtitle\np12655\nVThai Chicken Pies To Go\np12656\nsVcreative_id\np12657\nV6006216633765\np12658\nsVpreview_url\np12659\nVhttp://www.facebook.com/ads/api/creative_preview.php?cid=6006216633765\np12660\nsVid\np12661\nV6006216633765\np12662\nsVimage_url\np12663\nVhttps://fbcdn-creative-a.akamaihd.net/hads-ak-prn1/s110x80/708206_6006845497765_928_n.png\np12664\nsVcount_current_adgroups\np12665\nI1\nsVrun_status\np12666\nI1\nsVtype\np12667\nI1\nsVlink_url\np12668\nVhttp://www.buzzfeed.com/h1/fbad/campbellsgo/20-mind-blowing-hacks-for-food-on-the-go\np12669\nsVview_tag\np12670\ng35\nsa(dp12671\nValt_view_tags\np12672\n(lp12673\nsVbody\np12674\nVCheck out these "12 Places That Are Almost Too Beautiful To Be Real" on BuzzFeed.\np12675\nsVimage_hash\np12676\nV8c6dd6458c4afbaf0bae5a82102bddd3\np12677\nsVname\np12678\nVThe Marble Caves In Chile-00\np12679\nsVtitle\np12680\nVUnreal Landmarks!\np12681\nsVcreative_id\np12682\nV6006738082765\np12683\nsVpreview_url\np12684\nVhttp://www.facebook.com/ads/api/creative_preview.php?cid=6006738082765\np12685\nsVid\np12686\nV6006738082765\np12687\nsVimage_url\np12688\nVhttps://fbcdn-creative-a.akamaihd.net/hads-ak-prn1/s110x80/708168_6006595198765_37952_n.jpg\np12689\nsVcount_current_adgroups\np12690\nI1\nsVrun_status\np12691\nI1\nsVtype\np12692\nI1\nsVlink_url\np12693\nVhttp://www.buzzfeed.com/h1/fbad/campbellsgo/12-places-that-are-almost-too-beautiful-to-be-real\np12694\nsVview_tag\np12695\ng35\nsa(dp12696\nValt_view_tags\np12697\n(lp12698\nsVbody\np12699\nVCheck out these "12 Places That Are Almost Too Beautiful To Be Real" on BuzzFeed.\np12700\nsVimage_hash\np12701\nV8c6dd6458c4afbaf0bae5a82102bddd3\np12702\nsVname\np12703\nVThe Marble Caves In Chile\np12704\nsVtitle\np12705\nVThe Marble Caves In Chile\np12706\nsVcreative_id\np12707\nV6006595241765\np12708\nsVpreview_url\np12709\nVhttp://www.facebook.com/ads/api/creative_preview.php?cid=6006595241765\np12710\nsVid\np12711\nV6006595241765\np12712\nsVimage_url\np12713\nVhttps://fbcdn-creative-a.akamaihd.net/hads-ak-prn1/s110x80/708168_6006595198765_37952_n.jpg\np12714\nsVcount_current_adgroups\np12715\nI1\nsVrun_status\np12716\nI1\nsVtype\np12717\nI1\nsVlink_url\np12718\nVhttp://www.buzzfeed.com/h1/fbad/campbellsgo/12-places-that-are-almost-too-beautiful-to-be-real\np12719\nsVview_tag\np12720\ng35\nsa(dp12721\nVname\np12722\nVAd from a Page post #6,006,734,201,765\np12723\nsVauto_update\np12724\nI00\nsVstory_id\np12725\nV409837705751418\np12726\nsVcreative_id\np12727\nV6006734201765\np12728\nsVpreview_url\np12729\nVhttp://www.facebook.com/ads/api/creative_preview.php?cid=6006734201765\np12730\nsVaction_t\np12731\nVBgABAQcIAAZQxmO/CgAJAAAAAImt0MwKABAAANiljfVJYg0AGgYKAAAACwEKAAAAAAAAAFAAuAABdL7G3et6ALkAAAAAAAAAZAC6AAGQJjXQps4CIwAAAAAAAAAIAMMAAABPVFI0HgG7AAAAAAAAAGoACgAAAACJrdDMAAEAAXS+xt3regG2AAAAAFDGY78B5AABdL7G3et6DQAbBgsAAAABQAMAAAFBUGxheSB0byBzZWUgaWYgeW91IHdoYXQgaXQgdGFrZXMgdG8gc2F2ZSB0aGUgd29ybGQhIC0gaHR0cDovL2J6ZmQuaXQvVnZISGdJIG9vb29vIEhlbHAgRGlrZW1iZSBNdXRvbWJvIFNhdmUgVGhlIFdvcmxkISBvb29vbyBIZSdzIG9ubHkgZ290IDQgYW5kIGEgaGFsZiB3ZWVrcywgYW5kIGEgc2lkZWtpY2sgbmFtZWQgU2NpZW5jZSB0aGUgQmVhci4gUGxheSB0aGUgZ2FtZSBiZWxvdywgb3IgaGVhZCB0byB3d3c'
p6
sS'hash'
p7
S'f1fc18fbecf6a8166d34ccd8bdb83f16e03675a6'
p8
sS'stack'
p9
S''
s.