(dp1
S'args'
p2
S''
sS'methodname'
p3
S''
sS'packet_num'
p4
I122
sS'returnval'
p5
S'1\nsVtitle\np15302\nVHow is OJ Made?\np15303\nsVcreative_id\np15304\nV6006196154565\np15305\nsVpreview_url\np15306\nVhttp://www.facebook.com/ads/api/creative_preview.php?cid=6006196154565\np15307\nsVid\np15308\nV6006196154565\np15309\nsVimage_url\np15310\nVhttps://fbcdn-creative-a.akamaihd.net/hads-ak-ash3/s110x80/708199_6006845033965_1864_n.png\np15311\nsVcount_current_adgroups\np15312\nI1\nsVrun_status\np15313\nI1\nsVtype\np15314\nI1\nsVlink_url\np15315\nVhttp://www.buzzfeed.com/h1/fbad/generalelectric/see-the-east-coast-in-156-seconds\np15316\nsVview_tag\np15317\ng35\nsa(dp15318\nValt_view_tags\np15319\n(lp15320\nsVbody\np15321\nVDo you have what it takes to be a geek? Check it out on BuzzFeed!\np15322\nsVimage_hash\np15323\nV40a5b87d70599b11c23bc8dad45aea5b\np15324\nsVname\np15325\nVLightsaber Battle!\np15326\nsVtitle\np15327\nVLightsaber Battle!\np15328\nsVcreative_id\np15329\nV6006195419565\np15330\nsVpreview_url\np15331\nVhttp://www.facebook.com/ads/api/creative_preview.php?cid=6006195419565\np15332\nsVid\np15333\nV6006195419565\np15334\nsVimage_url\np15335\nVhttps://fbcdn-creative-a.akamaihd.net/hads-ak-prn1/s110x80/708192_6006844430765_57539_n.png\np15336\nsVcount_current_adgroups\np15337\nI1\nsVrun_status\np15338\nI1\nsVtype\np15339\nI1\nsVlink_url\np15340\nVhttp://www.buzzfeed.com/h1/fbad/tmobile/14-things-every-geek-should-own-4hce\np15341\nsVview_tag\np15342\ng35\nsa(dp15343\nValt_view_tags\np15344\n(lp15345\nsVbody\np15346\nVCheck out More "Things Every Geek Should Own" on BuzzFeed!\np15347\nsVimage_hash\np15348\nV2c353aca3013744af2aef17585bcc329\np15349\nsVname\np15350\nVLightsaber Battle!-00\np15351\nsVtitle\np15352\nVA Nintendo Coffee Table?\np15353\nsVcreative_id\np15354\nV6006195450765\np15355\nsVpreview_url\np15356\nVhttp://www.facebook.com/ads/api/creative_preview.php?cid=6006195450765\np15357\nsVid\np15358\nV6006195450765\np15359\nsVimage_url\np15360\nVhttps://fbcdn-creative-a.akamaihd.net/hads-ak-prn1/s110x80/708181_6006844316765_32355_n.png\np15361\nsVcount_current_adgroups\np15362\nI1\nsVrun_status\np15363\nI1\nsVtype\np15364\nI1\nsVlink_url\np15365\nVhttp://www.buzzfeed.com/h1/fbad/tmobile/14-things-every-geek-should-own-4hce\np15366\nsVview_tag\np15367\ng35\nsa(dp15368\nValt_view_tags\np15369\n(lp15370\nsVbody\np15371\nVCheck out More "Things Every Geek Should Own" on BuzzFeed!\np15372\nsVimage_hash\np15373\nV8aa8c7207ddbf52d21556b34461cb844\np15374\nsVname\np15375\nVLightsaber Battle!-00-00\np15376\nsVtitle\np15377\nVAn 8-Bit Lamp!\np15378\nsVcreative_id\np15379\nV6006195465965\np15380\nsVpreview_url\np15381\nVhttp://www.facebook.com/ads/api/creative_preview.php?cid=6006195465965\np15382\nsVid\np15383\nV6006195465965\np15384\nsVimage_url\np15385\nVhttps://fbcdn-creative-a.akamaihd.net/hads-ak-prn1/s110x80/708199_6006844880165_48744_n.png\np15386\nsVcount_current_adgroups\np15387\nI1\nsVrun_status\np15388\nI1\nsVtype\np15389\nI1\nsVlink_url\np15390\nVhttp://www.buzzfeed.com/h1/fbad/tmobile/14-things-every-geek-should-own-4hce\np15391\nsVview_tag\np15392\ng35\nsa(dp15393\nVname\np15394\nVAd from a Page post #6,006,320,339,565\np15395\nsVauto_update\np15396\nI00\nsVstory_id\np15397\nV309052162541668\np15398\nsVcreative_id\np15399\nV6006320339565\np15400\nsVpreview_url\np15401\nVhttp://www.facebook.com/ads/api/creative_preview.php?cid=6006320339565\np15402\nsVaction_t\np15403\nVBgABAQcIAAZQq+TMCgAJAAAAAImt0MwKABAAANiljfVJYg0AGgYKAAAACwEKAAAAAAAAAFAAuAABGRTQXYhkALkAAAAAAAAAZAC6AAFZBF8C7x8CIwAAAAAAAAAIAMMAAABPVFI0HgG7AAAAAAAAAGoACgAAAACJrdDMAAEAARkU0F2IZAG2AAAAAFCr5MwB5AABGRTQXYhkDQAbBgsAAAABQAMAAAFBQ2hlY2sgb3V0IHRoZXNlIGluc2FuZSBXb3JsZCBSZWNvcmQgaG9sZGVycy4gaHR0cDovL2J6ZmQuaXQvVWRxakF1IG9vb29vIDggV29ybGQgUmVjb3JkIEZlYXRzIFRoYXQgV2lsbCBCbG93IFlvdXIgTWluZCBvb29vbyBUaGUgYXJlIHNvbWUgaW5jcmVkaWJsZSB3b3JsZCByZWNvcmRzIG91dCB0aGVyZS4gVGFrZSBhIGxvb2sgYXQgc29tZSBhbWF6aW5nIHN0dW50cyBwZW9wbGUgaGF2ZSBjb21wbGV0ZWQgdG8gcHVzaCB0aGUgbGltaXRzIG9mIHdoYXQncyBwb3NzaWJsZSwgYW5kIHRvIGV4cGVyaWVuY2Ugc29tZSBtaW5kLWJsb3dpbmcgbmV3IGZsYXZvcnMsLi4uCgAcAAEZFNBdiGQA\np15404\nsVaction_spec\np15405\nNsVobject_id\np15406\nV238205562866018\np15407\nsVcount_current_adgroups\np15408\nI1\nsVrun_status\np15409\nI1\nsVtype\np15410\nI27\nsVid\np15411\nV6006320339565\np15412\nsa(dp15413\nValt_view_tags\np15414\n(lp15415\nsVbody\np15416\nVCheck out this slideshow of Vintage Coca'
p6
sS'hash'
p7
S'f1fc18fbecf6a8166d34ccd8bdb83f16e03675a6'
p8
sS'stack'
p9
S''
s.