(dp1
S'args'
p2
S''
sS'methodname'
p3
S''
sS'packet_num'
p4
I8
sS'returnval'
p5
S'eview.php?cid=6007874199565\np1050\nsVid\np1051\nV6007874199565\np1052\nsVimage_url\np1053\nVhttps://fbcdn-creative-a.akamaihd.net/hads-ak-ash3/s110x80/735303_6007874196765_4700_n.jpg\np1054\nsVcount_current_adgroups\np1055\nI1\nsVrun_status\np1056\nI1\nsVtype\np1057\nI1\nsVlink_url\np1058\nVhttp://www.buzzfeed.com/h1/fbad/samsungcamera/a-cats-guide-to-nyc-7uaw\np1059\nsVview_tag\np1060\ng35\nsa(dp1061\nValt_view_tags\np1062\n(lp1063\nsVbody\np1064\nVCelebrate John McClane & his most badass moments, in GIF form - Only on BuzzFeed!\np1065\nsVimage_hash\np1066\nVfb2855cf955d9a18b73b02842ff6bbaf\np1067\nsVname\np1068\nV15 Badass Die Hard Gifs-00\np1069\nsVtitle\np1070\nV15 Badass Die Hard Gifs\np1071\nsVcreative_id\np1072\nV6007868183565\np1073\nsVpreview_url\np1074\nVhttp://www.facebook.com/ads/api/creative_preview.php?cid=6007868183565\np1075\nsVid\np1076\nV6007868183565\np1077\nsVimage_url\np1078\nVhttps://fbcdn-creative-a.akamaihd.net/hads-ak-prn1/s110x80/735331_6007868181965_46665_n.png\np1079\nsVcount_current_adgroups\np1080\nI1\nsVrun_status\np1081\nI1\nsVtype\np1082\nI1\nsVlink_url\np1083\nVhttp://www.buzzfeed.com/h1/fbad/mikesharderlemonade/the-15-most-badass-die-hard-gifs-8p2l\np1084\nsVview_tag\np1085\ng35\nsa(dp1086\nValt_view_tags\np1087\n(lp1088\nsVbody\np1089\nVCelebrate John McClane & his most badass moments, in GIF form - Only on BuzzFeed!\np1090\nsVimage_hash\np1091\nV11c815244e8e719795a5a3027dd1a188\np1092\nsVname\np1093\nV15 Badass Die Hard Gifs-00-00\np1094\nsVtitle\np1095\nV15 Badass Die Hard Gifs\np1096\nsVcreative_id\np1097\nV6007868192765\np1098\nsVpreview_url\np1099\nVhttp://www.facebook.com/ads/api/creative_preview.php?cid=6007868192765\np1100\nsVid\np1101\nV6007868192765\np1102\nsVimage_url\np1103\nVhttps://fbcdn-creative-a.akamaihd.net/hads-ak-ash3/s110x80/735306_6007868190165_46038_n.png\np1104\nsVcount_current_adgroups\np1105\nI1\nsVrun_status\np1106\nI1\nsVtype\np1107\nI1\nsVlink_url\np1108\nVhttp://www.buzzfeed.com/h1/fbad/mikesharderlemonade/the-15-most-badass-die-hard-gifs-8p2l\np1109\nsVview_tag\np1110\ng35\nsa(dp1111\nValt_view_tags\np1112\n(lp1113\nsVbody\np1114\nVCelebrate John McClane & his most badass moments, in GIF form - Only on BuzzFeed!\np1115\nsVimage_hash\np1116\nVed2b08c4df5763d3f454ecb33cc8430c\np1117\nsVname\np1118\nV15 Badass Die Hard Gifs\np1119\nsVtitle\np1120\nV15 Badass Die Hard Gifs\np1121\nsVcreative_id\np1122\nV6007868174165\np1123\nsVpreview_url\np1124\nVhttp://www.facebook.com/ads/api/creative_preview.php?cid=6007868174165\np1125\nsVid\np1126\nV6007868174165\np1127\nsVimage_url\np1128\nVhttps://fbcdn-creative-a.akamaihd.net/hads-ak-ash3/s110x80/735309_6007868121365_50227_n.png\np1129\nsVcount_current_adgroups\np1130\nI1\nsVrun_status\np1131\nI1\nsVtype\np1132\nI1\nsVlink_url\np1133\nVhttp://www.buzzfeed.com/h1/fbad/mikesharderlemonade/the-15-most-badass-die-hard-gifs-8p2l\np1134\nsVview_tag\np1135\ng35\nsa(dp1136\nValt_view_tags\np1137\n(lp1138\nsVbody\np1139\nVTake notes, these people are doing it right. Check out "11 People Paying It Forward" here!\np1140\nsVimage_hash\np1141\nV95b89c61aaaded1d0b55ca7b6df5fb2b\np1142\nsVname\np1143\nVPaying It Forward-00\np1144\nsVtitle\np1145\nVPaying It Forward!\np1146\nsVcreative_id\np1147\nV6007847578765\np1148\nsVpreview_url\np1149\nVhttp://www.facebook.com/ads/api/creative_preview.php?cid=6007847578765\np1150\nsVid\np1151\nV6007847578765\np1152\nsVimage_url\np1153\nVhttps://fbcdn-creative-a.akamaihd.net/hads-ak-prn1/s110x80/735353_6007847568365_27199_n.png\np1154\nsVcount_current_adgroups\np1155\nI1\nsVrun_status\np1156\nI1\nsVtype\np1157\nI1\nsVlink_url\np1158\nVhttp://mm.sitecompass.com/BurstingPipe/adServer.bs?cn=tf&c=20&mc=click&pli=6099528&PluID=0&ord=%n&rtu=http://www.buzzfeed.com/h1/fbad/archetypeme/11-people-paying-it-forward\np1159\nsVview_tag\np1160\ng35\nsa(dp1161\nValt_view_tags\np1162\n(lp1163\nsVbody\np1164\nVWanna see some awesome photography? Check out these awesome instagrammers and find more.\np1165\nsVimage_hash\np1166\nV70ab5cb7b1eaca4667f3409b066dc12f\np1167\nsVname\np1168\nVMust Follow Instagrammers-00\np1169\nsVtitle\np1170\nVMust Follow Instagrammers\np1171\nsVcreative_id\np1172\nV6007847541765\np1173\nsVpreview_url\np1174\nVhttp://www.facebook.com/ads/api/creative_preview.php?cid=6007847541765\np1175\nsVid\np1176\nV6007847541765\np1177\nsVimage_url\np1178\nVhtt'
p6
sS'hash'
p7
S'f1fc18fbecf6a8166d34ccd8bdb83f16e03675a6'
p8
sS'stack'
p9
S''
s.