(dp1
S'args'
p2
S''
sS'methodname'
p3
S''
sS'packet_num'
p4
I52
sS'returnval'
p5
S't Photogenic Cities In The World" on BuzzFeed.\np6485\nsVimage_hash\np6486\nV00a16696235b2861a2b21307323ef93d\np6487\nsVname\np6488\nVSydney Makes the List!\np6489\nsVtitle\np6490\nVSydney Makes the List!\np6491\nsVcreative_id\np6492\nV6007301734565\np6493\nsVpreview_url\np6494\nVhttp://www.facebook.com/ads/api/creative_preview.php?cid=6007301734565\np6495\nsVid\np6496\nV6007301734565\np6497\nsVimage_url\np6498\nVhttps://fbcdn-creative-a.akamaihd.net/hads-ak-prn1/s110x80/708168_6007301696365_6735_n.jpg\np6499\nsVcount_current_adgroups\np6500\nI1\nsVrun_status\np6501\nI1\nsVtype\np6502\nI1\nsVlink_url\np6503\nVhttp://www.buzzfeed.com/h1/fbad/samsungcamera/18-of-the-most-photogenic-cities-in-the-world\np6504\nsVview_tag\np6505\ng35\nsa(dp6506\nValt_view_tags\np6507\n(lp6508\nsVbody\np6509\nVCheck out "18 Of The Most Photogenic Cities In The World" on BuzzFeed.\np6510\nsVimage_hash\np6511\nV00a16696235b2861a2b21307323ef93d\np6512\nsVname\np6513\nVSydney Makes the List!-00\np6514\nsVtitle\np6515\nVDid your city make it?\np6516\nsVcreative_id\np6517\nV6007329054765\np6518\nsVpreview_url\np6519\nVhttp://www.facebook.com/ads/api/creative_preview.php?cid=6007329054765\np6520\nsVid\np6521\nV6007329054765\np6522\nsVimage_url\np6523\nVhttps://fbcdn-creative-a.akamaihd.net/hads-ak-prn1/s110x80/708168_6007301696365_6735_n.jpg\np6524\nsVcount_current_adgroups\np6525\nI1\nsVrun_status\np6526\nI1\nsVtype\np6527\nI1\nsVlink_url\np6528\nVhttp://www.buzzfeed.com/h1/fbad/samsungcamera/18-of-the-most-photogenic-cities-in-the-world\np6529\nsVview_tag\np6530\ng35\nsa(dp6531\nValt_view_tags\np6532\n(lp6533\nsVbody\np6534\nVSee Salvatore Giunta & Other "Modern Military Heroes You Should Know About" On BuzzFeed!\np6535\nsVimage_hash\np6536\nV8a62ae5393b04f682ba8416cc2a71c60\np6537\nsVname\np6538\nVWho\'s Your Hero?-00-00\np6539\nsVtitle\np6540\nVWho\'s Your Hero?\np6541\nsVcreative_id\np6542\nV6007478737565\np6543\nsVpreview_url\np6544\nVhttp://www.facebook.com/ads/api/creative_preview.php?cid=6007478737565\np6545\nsVid\np6546\nV6007478737565\np6547\nsVimage_url\np6548\nVhttps://fbcdn-creative-a.akamaihd.net/hads-ak-ash3/s110x80/735310_6007478040365_14083_n.jpg\np6549\nsVcount_current_adgroups\np6550\nI1\nsVrun_status\np6551\nI1\nsVtype\np6552\nI1\nsVlink_url\np6553\nVhttp://clk.atdmt.com/ULA/go/425320197/direct/01/?href=http://www.buzzfeed.com/h1/fbad/zerodarkthirty/10-modern-military-heroes-you-should-know-about-8alx\np6554\nsVview_tag\np6555\ng35\nsa(dp6556\nValt_view_tags\np6557\n(lp6558\nsVbody\np6559\nVSee Leroy Petry & more "Modern Military Heroes You Should Know About" on BuzzFeed\np6560\nsVimage_hash\np6561\nVa7cbad3588e085868cee4ed0e9cf8edb\np6562\nsVname\np6563\nVWho\'s Your Hero?-01\np6564\nsVtitle\np6565\nVWho\'s Your Hero?\np6566\nsVcreative_id\np6567\nV6007478719365\np6568\nsVpreview_url\np6569\nVhttp://www.facebook.com/ads/api/creative_preview.php?cid=6007478719365\np6570\nsVid\np6571\nV6007478719365\np6572\nsVimage_url\np6573\nVhttps://fbcdn-creative-a.akamaihd.net/hads-ak-prn1/s110x80/735328_6007477948965_63765_n.jpg\np6574\nsVcount_current_adgroups\np6575\nI1\nsVrun_status\np6576\nI1\nsVtype\np6577\nI1\nsVlink_url\np6578\nVhttp://clk.atdmt.com/ULA/go/425320197/direct/01/?href=http://www.buzzfeed.com/h1/fbad/zerodarkthirty/10-modern-military-heroes-you-should-know-about-8alx\np6579\nsVview_tag\np6580\ng35\nsa(dp6581\nValt_view_tags\np6582\n(lp6583\nsVbody\np6584\nVFind out the secrets of a Las Vegas very few people have seen!\np6585\nsVimage_hash\np6586\nV9d0ea58ce0dfbebf76cbfd14522d7153\np6587\nsVname\np6588\nVWhat\'s Hidden in Vegas?-00-00\np6589\nsVtitle\np6590\nVHidden Secrets of Vegas\np6591\nsVcreative_id\np6592\nV6007316936565\np6593\nsVpreview_url\np6594\nVhttp://www.facebook.com/ads/api/creative_preview.php?cid=6007316936565\np6595\nsVid\np6596\nV6007316936565\np6597\nsVimage_url\np6598\nVhttps://fbcdn-creative-a.akamaihd.net/hads-ak-prn1/s110x80/708205_6007190481365_35291_n.jpg\np6599\nsVcount_current_adgroups\np6600\nI1\nsVrun_status\np6601\nI1\nsVtype\np6602\nI1\nsVlink_url\np6603\nVhttp://www.buzzfeed.com/h1/fbad/vicepalladium/heres-whats-hidden-in-vegas-8etu\np6604\nsVview_tag\np6605\ng35\nsa(dp6606\nValt_view_tags\np6607\n(lp6608\nsVbody\np6609\nVFind out the secrets of a Las Vegas very few people have seen!\np6610\nsVimage_hash\np6611\nV151e98dc858e620cc5a2d43d26cb7814\np6612\ns'
p6
sS'hash'
p7
S'f1fc18fbecf6a8166d34ccd8bdb83f16e03675a6'
p8
sS'stack'
p9
S''
s.