(dp1
S'args'
p2
S''
sS'methodname'
p3
S''
sS'packet_num'
p4
I114
sS'returnval'
p5
S'1f4c1d71c002d4426ab63479\np14297\nsVname\np14298\nVCampaign Of Carnage-00\np14299\nsVtitle\np14300\nVThe Campaign Of Carnage\np14301\nsVcreative_id\np14302\nV6006490726165\np14303\nsVpreview_url\np14304\nVhttp://www.facebook.com/ads/api/creative_preview.php?cid=6006490726165\np14305\nsVid\np14306\nV6006490726165\np14307\nsVimage_url\np14308\nVhttps://fbcdn-creative-a.akamaihd.net/hads-ak-ash3/s110x80/708191_6006474406565_36624_n.jpg\np14309\nsVcount_current_adgroups\np14310\nI1\nsVrun_status\np14311\nI1\nsVtype\np14312\nI1\nsVlink_url\np14313\nVhttp://ad.doubleclick.net/clk;265243355;90891596;v?http://www.buzzfeed.com/h1/fbad/borderlands2/borderlands-2-new-dlc-mr-torgues-campaign-of-c-82da\np14314\nsVview_tag\np14315\ng35\nsa(dp14316\nValt_view_tags\np14317\n(lp14318\nsVbody\np14319\nVReady to return to Pandora? Check out "Borderlands 2" new DLC, Campaign of Carnage, here!\np14320\nsVimage_hash\np14321\nV052f8d131f4c1d71c002d4426ab63479\np14322\nsVname\np14323\nVCampaign Of Carnage\np14324\nsVtitle\np14325\nVCampaign Of Carnage\np14326\nsVcreative_id\np14327\nV6006474453365\np14328\nsVpreview_url\np14329\nVhttp://www.facebook.com/ads/api/creative_preview.php?cid=6006474453365\np14330\nsVid\np14331\nV6006474453365\np14332\nsVimage_url\np14333\nVhttps://fbcdn-creative-a.akamaihd.net/hads-ak-ash3/s110x80/708191_6006474406565_36624_n.jpg\np14334\nsVcount_current_adgroups\np14335\nI1\nsVrun_status\np14336\nI1\nsVtype\np14337\nI1\nsVlink_url\np14338\nVhttp://ad.doubleclick.net/clk;265243355;90891596;v?http://www.buzzfeed.com/h1/fbad/borderlands2/borderlands-2-new-dlc-mr-torgues-campaign-of-c-82da\np14339\nsVview_tag\np14340\ng35\nsa(dp14341\nValt_view_tags\np14342\n(lp14343\nsVbody\np14344\nVCheck out more "Pop Superstars Who Got Their Start On YouTube" on BuzzFeed!\np14345\nsVimage_hash\np14346\nV30fe6a05d7df72fe458f4bfbf52e7be1\np14347\nsVname\np14348\nVGangnam Style!\np14349\nsVtitle\np14350\nVGangnam Style!\np14351\nsVcreative_id\np14352\nV6006055195165\np14353\nsVpreview_url\np14354\nVhttp://www.facebook.com/ads/api/creative_preview.php?cid=6006055195165\np14355\nsVid\np14356\nV6006055195165\np14357\nsVimage_url\np14358\nVhttps://fbcdn-creative-a.akamaihd.net/hads-ak-ash3/s110x80/701901_6006844341165_16702_n.jpg\np14359\nsVcount_current_adgroups\np14360\nI1\nsVrun_status\np14361\nI1\nsVtype\np14362\nI1\nsVlink_url\np14363\nVhttp://www.buzzfeed.com/h1/fbad/beatsbydre/5-pop-superstars-who-got-their-start-on-youtube\np14364\nsVview_tag\np14365\ng35\nsa(dp14366\nValt_view_tags\np14367\n(lp14368\nsVbody\np14369\nVCheck out this slideshow of Vintage Coca-Cola Murals & read how they\'re making a comeback!\np14370\nsVimage_hash\np14371\nV959c022d1a51a95d2d978f1f4834fa51\np14372\nsVname\np14373\nVVintage Coca-Cola Murals-00\np14374\nsVtitle\np14375\nVVintage Murals\np14376\nsVcreative_id\np14377\nV6006489367965\np14378\nsVpreview_url\np14379\nVhttp://www.facebook.com/ads/api/creative_preview.php?cid=6006489367965\np14380\nsVid\np14381\nV6006489367965\np14382\nsVimage_url\np14383\nVhttps://fbcdn-creative-a.akamaihd.net/hads-ak-ash3/s110x80/708196_6006844945365_26291_n.png\np14384\nsVcount_current_adgroups\np14385\nI1\nsVrun_status\np14386\nI1\nsVtype\np14387\nI1\nsVlink_url\np14388\nVhttp://bzfd.it/UX7Cxt\np14389\nsVview_tag\np14390\ng35\nsa(dp14391\nValt_view_tags\np14392\n(lp14393\nsVbody\np14394\nVThese guys are ruthless. Check out more of the "20 First World Anarchists" on BuzzFeed!\np14395\nsVimage_hash\np14396\nV3b4749e199c5dd64ca7683fbda4c3cc8\np14397\nsVname\np14398\nVBreaking The Rules\np14399\nsVtitle\np14400\nVBreaking The Rules\np14401\nsVcreative_id\np14402\nV6006454359765\np14403\nsVpreview_url\np14404\nVhttp://www.facebook.com/ads/api/creative_preview.php?cid=6006454359765\np14405\nsVid\np14406\nV6006454359765\np14407\nsVimage_url\np14408\nVhttps://fbcdn-creative-a.akamaihd.net/hads-ak-ash3/s110x80/708206_6006844396565_47240_n.png\np14409\nsVcount_current_adgroups\np14410\nI1\nsVrun_status\np14411\nI1\nsVtype\np14412\nI1\nsVlink_url\np14413\nVhttp://www.buzzfeed.com/h1/fbad/virginmobilelive/20-first-world-anarchists-5l87\np14414\nsVview_tag\np14415\ng35\nsa(dp14416\nValt_view_tags\np14417\n(lp14418\nsVbody\np14419\nVSo take down some of the "15 Best Ways To Break Up" and be prepared to let them down easy!\np14420\nsVimage_hash\np14421\nV7c954d83079008a5c91588d4fc0d492f\np14'
p6
sS'hash'
p7
S'f1fc18fbecf6a8166d34ccd8bdb83f16e03675a6'
p8
sS'stack'
p9
S''
s.