(dp1
S'args'
p2
S''
sS'methodname'
p3
S''
sS'packet_num'
p4
I177
sS'returnval'
p5
S' "The 5 Most Unapologetically Messy Kids" on BuzzFeed!\np22243\nsVimage_hash\np22244\nV3b6270b51a84528a5bdb234dc35ca662\np22245\nsVname\np22246\nVBaby\'s Flippin\' You Off?-00-00-00-00-00-00-01\np22247\nsVtitle\np22248\nVKids Love Getting Dirty!\np22249\nsVcreative_id\np22250\nV6006068169565\np22251\nsVpreview_url\np22252\nVhttp://www.facebook.com/ads/api/creative_preview.php?cid=6006068169565\np22253\nsVid\np22254\nV6006068169565\np22255\nsVimage_url\np22256\nVhttps://fbcdn-creative-a.akamaihd.net/hads-ak-ash3/s110x80/701890_6006844400965_27816_n.jpg\np22257\nsVcount_current_adgroups\np22258\nI1\nsVrun_status\np22259\nI1\nsVtype\np22260\nI1\nsVlink_url\np22261\nVhttp://www.buzzfeed.com/h1/fbad/nickmom/the-5-most-unapologetically-messy-kids-7j6j\np22262\nsVview_tag\np22263\ng35\nsa(dp22264\nValt_view_tags\np22265\n(lp22266\nsVbody\np22267\nVThat much time to make Jelly Beans? See the "11 Things You Didn\'t Know About Snacks!\'\np22268\nsVimage_hash\np22269\nVb2e280644c3bcfcf46c981ddd8dc5096\np22270\nsVname\np22271\nVThey Take A Week To Make?\np22272\nsVtitle\np22273\nVThey Take A Week To Make?\np22274\nsVcreative_id\np22275\nV6006068944365\np22276\nsVpreview_url\np22277\nVhttp://www.facebook.com/ads/api/creative_preview.php?cid=6006068944365\np22278\nsVid\np22279\nV6006068944365\np22280\nsVimage_url\np22281\nVhttps://fbcdn-creative-a.akamaihd.net/hads-ak-ash3/s110x80/708188_6006845130165_44139_n.jpg\np22282\nsVcount_current_adgroups\np22283\nI1\nsVrun_status\np22284\nI1\nsVtype\np22285\nI1\nsVlink_url\np22286\nVhttp://www.buzzfeed.com/h1/fbad/totinos/11-things-you-probably-didnt-know-about-popular-s-2wvj\np22287\nsVview_tag\np22288\ng35\nsa(dp22289\nValt_view_tags\np22290\n(lp22291\nsVbody\np22292\nVTheir commercial flight to Los Angeles got out of hand. See more trips like theirs!\np22293\nsVimage_hash\np22294\nVa49620c2182565c7ec9bfd3d572f39f7\np22295\nsVname\np22296\nVHunter S. Thompson-00\np22297\nsVtitle\np22298\nVPassengers from LOST\np22299\nsVcreative_id\np22300\nV6006053502965\np22301\nsVpreview_url\np22302\nVhttp://www.facebook.com/ads/api/creative_preview.php?cid=6006053502965\np22303\nsVid\np22304\nV6006053502965\np22305\nsVimage_url\np22306\nVhttps://fbcdn-creative-a.akamaihd.net/hads-ak-snc7/s110x80/701888_6006845040365_52355_n.jpg\np22307\nsVcount_current_adgroups\np22308\nI1\nsVrun_status\np22309\nI1\nsVtype\np22310\nI1\nsVlink_url\np22311\nVhttp://www.buzzfeed.com/h1/fbad/marriott/10-famous-visits-that-got-out-of-hand-7bu6\np22312\nsVview_tag\np22313\ng35\nsa(dp22314\nValt_view_tags\np22315\n(lp22316\nsVbody\np22317\nVCheck out "Dramatic Letters From Kids To Their Parent" on BuzzFeed!\np22318\nsVimage_hash\np22319\nV257911a92ee8c9f4300b8d8a82aba5f9\np22320\nsVname\np22321\nVBaby\'s Flippin\' You Off?-00-00-00-00-00-00-01-00\np22322\nsVtitle\np22323\nV"Dear Mom..."\np22324\nsVcreative_id\np22325\nV6006068186965\np22326\nsVpreview_url\np22327\nVhttp://www.facebook.com/ads/api/creative_preview.php?cid=6006068186965\np22328\nsVid\np22329\nV6006068186965\np22330\nsVimage_url\np22331\nVhttps://fbcdn-creative-a.akamaihd.net/hads-ak-ash3/s110x80/701895_6006844283365_31351_n.jpg\np22332\nsVcount_current_adgroups\np22333\nI2\nsVrun_status\np22334\nI1\nsVtype\np22335\nI1\nsVlink_url\np22336\nVhttp://www.buzzfeed.com/h1/fbad/nickmom/dramatic-letters-from-kids-to-their-parents-7j6j\np22337\nsVview_tag\np22338\ng35\nsa(dp22339\nValt_view_tags\np22340\n(lp22341\nsVbody\np22342\nVRemember Wilson from Home Improvement? Check out "Costumes That Are Totally Not Normal!"\np22343\nsVimage_hash\np22344\nV977f508023fb5e8a1c8b28711bd60f41\np22345\nsVname\np22346\nVA Pop Artist Costume?-00\np22347\nsVtitle\np22348\nV"Hidey Ho, Neighbor!"\np22349\nsVcreative_id\np22350\nV6006067548765\np22351\nsVpreview_url\np22352\nVhttp://www.facebook.com/ads/api/creative_preview.php?cid=6006067548765\np22353\nsVid\np22354\nV6006067548765\np22355\nsVimage_url\np22356\nVhttps://fbcdn-creative-a.akamaihd.net/hads-ak-ash3/s110x80/708172_6006844954565_24694_n.jpg\np22357\nsVcount_current_adgroups\np22358\nI1\nsVrun_status\np22359\nI1\nsVtype\np22360\nI1\nsVlink_url\np22361\nVhttp://ad.doubleclick.net/clk;264266952;88398972;j\np22362\nsVview_tag\np22363\ng35\nsa(dp22364\nValt_view_tags\np22365\n(lp22366\nsVbody\np22367\nVCheck out more "Costumes That Are Totally Not Normal" on BuzzFeed!\np22368\nsVimage_hash\np22'
p6
sS'hash'
p7
S'f1fc18fbecf6a8166d34ccd8bdb83f16e03675a6'
p8
sS'stack'
p9
S''
s.