(dp1
S'args'
p2
S''
sS'methodname'
p3
S''
sS'packet_num'
p4
I104
sS'returnval'
p5
S'hristopher Walken Rug-00\np12999\nsVtitle\np13000\nVJesus on Toast\np13001\nsVcreative_id\np13002\nV6006723855565\np13003\nsVpreview_url\np13004\nVhttp://www.facebook.com/ads/api/creative_preview.php?cid=6006723855565\np13005\nsVid\np13006\nV6006723855565\np13007\nsVimage_url\np13008\nVhttps://fbcdn-creative-a.akamaihd.net/hads-ak-ash3/s110x80/708168_6006723834565_36256_n.jpg\np13009\nsVcount_current_adgroups\np13010\nI1\nsVrun_status\np13011\nI1\nsVtype\np13012\nI1\nsVlink_url\np13013\nVhttp://ad.doubleclick.net/clk;266011241;91808074;z\np13014\nsVview_tag\np13015\ng35\nsa(dp13016\nValt_view_tags\np13017\n(lp13018\nsVbody\np13019\nVJust One of the "7 Pickup Basketball Games You Wish You Were At" on BuzzFeed!\np13020\nsVimage_hash\np13021\nVbf644ef4feac98d49c5da43c68f425ac\np13022\nsVname\np13023\nVObama Playing B-ball?\np13024\nsVtitle\np13025\nVObama Playing B-ball?\np13026\nsVcreative_id\np13027\nV6006666997565\np13028\nsVpreview_url\np13029\nVhttp://www.facebook.com/ads/api/creative_preview.php?cid=6006666997565\np13030\nsVid\np13031\nV6006666997565\np13032\nsVimage_url\np13033\nVhttps://fbcdn-creative-a.akamaihd.net/hads-ak-ash3/s110x80/701901_6006666829765_56680_n.jpg\np13034\nsVcount_current_adgroups\np13035\nI1\nsVrun_status\np13036\nI1\nsVtype\np13037\nI1\nsVlink_url\np13038\nVhttp://ad.doubleclick.net/clk;265967793;91718341;b\np13039\nsVview_tag\np13040\ng35\nsa(dp13041\nValt_view_tags\np13042\n(lp13043\nsVbody\np13044\nVJust One of the "7 Pickup Basketball Games You Wish You Were At" on BuzzFeed!\np13045\nsVimage_hash\np13046\nVf91212fca89aeaf8d6ce6b9a4b4f8c78\np13047\nsVname\np13048\nVObama Playing B-ball?-00\np13049\nsVtitle\np13050\nVPlaying B-Ball w/Kanye\np13051\nsVcreative_id\np13052\nV6006667107165\np13053\nsVpreview_url\np13054\nVhttp://www.facebook.com/ads/api/creative_preview.php?cid=6006667107165\np13055\nsVid\np13056\nV6006667107165\np13057\nsVimage_url\np13058\nVhttps://fbcdn-creative-a.akamaihd.net/hads-ak-prn1/s110x80/701892_6006667061565_3803_n.jpg\np13059\nsVcount_current_adgroups\np13060\nI1\nsVrun_status\np13061\nI1\nsVtype\np13062\nI1\nsVlink_url\np13063\nVhttp://ad.doubleclick.net/clk;265967793;91718341;b\np13064\nsVview_tag\np13065\ng35\nsa(dp13066\nValt_view_tags\np13067\n(lp13068\nsVbody\np13069\nVSee more Actors Who Created & Starred In Their Own TV Shows on BuzzFeed!\np13070\nsVimage_hash\np13071\nVbdd38c69f5e70bb2146d1783d7802699\np13072\nsVname\np13073\nVTina Fey in 30 Rock\np13074\nsVtitle\np13075\nVTina Fey in 30 Rock\np13076\nsVcreative_id\np13077\nV6006593098565\np13078\nsVpreview_url\np13079\nVhttp://www.facebook.com/ads/api/creative_preview.php?cid=6006593098565\np13080\nsVid\np13081\nV6006593098565\np13082\nsVimage_url\np13083\nVhttps://fbcdn-creative-a.akamaihd.net/hads-ak-prn1/s110x80/708177_6006593021365_7939_n.jpg\np13084\nsVcount_current_adgroups\np13085\nI1\nsVrun_status\np13086\nI1\nsVtype\np13087\nI1\nsVlink_url\np13088\nVhttp://ad.doubleclick.net/clk;265750268;91504201;c\np13089\nsVview_tag\np13090\ng35\nsa(dp13091\nValt_view_tags\np13092\n(lp13093\nsVbody\np13094\nVJust One of the "Things Better Than Family Holiday Dinners" - See them all on BuzzFeed!\np13095\nsVimage_hash\np13096\nV0127dae4ac10370c7626bca864359862\np13097\nsVname\np13098\nVBecoming a Manbot\np13099\nsVtitle\np13100\nVBecoming a Manbot\np13101\nsVcreative_id\np13102\nV6006617997965\np13103\nsVpreview_url\np13104\nVhttp://www.facebook.com/ads/api/creative_preview.php?cid=6006617997965\np13105\nsVid\np13106\nV6006617997965\np13107\nsVimage_url\np13108\nVhttps://fbcdn-creative-a.akamaihd.net/hads-ak-prn1/s110x80/708197_6006617975565_45448_n.jpg\np13109\nsVcount_current_adgroups\np13110\nI1\nsVrun_status\np13111\nI1\nsVtype\np13112\nI1\nsVlink_url\np13113\nVhttp://ad.doubleclick.net/clk;265843171;91612363;h\np13114\nsVview_tag\np13115\ng35\nsa(dp13116\nValt_view_tags\np13117\n(lp13118\nsVbody\np13119\nVJust One of the "Things Better Than Family Holiday Dinners" - See them all on BuzzFeed!\np13120\nsVimage_hash\np13121\nVf62ef43498c9e9a06e17a99b3a6bbf21\np13122\nsVname\np13123\nVBecoming a Manbot-00\np13124\nsVtitle\np13125\nVCelebrating a Brithday\np13126\nsVcreative_id\np13127\nV6006618037565\np13128\nsVpreview_url\np13129\nVhttp://www.facebook.com/ads/api/creative_preview.php?cid=6006618037565\np13130\nsVid\np13131\nV6006618037565\np13132\nsVimage_url\np13133\nVhttps://fbcdn-'
p6
sS'hash'
p7
S'f1fc18fbecf6a8166d34ccd8bdb83f16e03675a6'
p8
sS'stack'
p9
S''
s.