(dp1
S'args'
p2
S''
sS'methodname'
p3
S''
sS'packet_num'
p4
I112
sS'returnval'
p5
S'that? Then check out the rest of the "15 Crazy Things You Can Make Out Of Cookies!"\np14045\nsVimage_hash\np14046\nV9e8498d8e315e0adc54a74b674d728f2\np14047\nsVname\np14048\nVCookie Cheeseburgers?-00\np14049\nsVtitle\np14050\nVA Cookie Robot\np14051\nsVcreative_id\np14052\nV6006490573565\np14053\nsVpreview_url\np14054\nVhttp://www.facebook.com/ads/api/creative_preview.php?cid=6006490573565\np14055\nsVid\np14056\nV6006490573565\np14057\nsVimage_url\np14058\nVhttps://fbcdn-creative-a.akamaihd.net/hads-ak-ash3/s110x80/708171_6006490561565_39208_n.jpg\np14059\nsVcount_current_adgroups\np14060\nI1\nsVrun_status\np14061\nI1\nsVtype\np14062\nI1\nsVlink_url\np14063\nVhttp://ad.doubleclick.net/clk;265349090;91012994;m?http://www.buzzfeed.com/h1/fbad/quiznos/15-crazy-things-you-can-make-out-of-cookies-7ppi\np14064\nsVview_tag\np14065\ng35\nsa(dp14066\nValt_view_tags\np14067\n(lp14068\nsVbody\np14069\nVCheck out this sweet take on a classic Holiday dish!\np14070\nsVimage_hash\np14071\nV81ccc4c30b3b746cf52f86829a3bd4b2\np14072\nsVname\np14073\nVCake w/Coca-Cola?-00-00-01\np14074\nsVtitle\np14075\nVCoca-Cola Ham Recipe\np14076\nsVcreative_id\np14077\nV6006436653965\np14078\nsVpreview_url\np14079\nVhttp://www.facebook.com/ads/api/creative_preview.php?cid=6006436653965\np14080\nsVid\np14081\nV6006436653965\np14082\nsVimage_url\np14083\nVhttps://fbcdn-creative-a.akamaihd.net/hads-ak-ash3/s110x80/708196_6006844825165_7052_n.png\np14084\nsVcount_current_adgroups\np14085\nI2\nsVrun_status\np14086\nI1\nsVtype\np14087\nI1\nsVlink_url\np14088\nVhttp://bzfd.it/WGWUkw\np14089\nsVview_tag\np14090\ng35\nsa(dp14091\nValt_view_tags\np14092\n(lp14093\nsVbody\np14094\nVR2D2 to Eddie Murphy, our Rdio playlist will make you wonder what the heck is going on!\np14095\nsVimage_hash\np14096\nVa928ee4337ba74427691caedccafcdac\np14097\nsVname\np14098\nVWant to Listen to a Hit?-00-00-00-00-00-00-00-00-00\np14099\nsVtitle\np14100\nVWhat the Funk?\np14101\nsVcreative_id\np14102\nV6006506752365\np14103\nsVpreview_url\np14104\nVhttp://www.facebook.com/ads/api/creative_preview.php?cid=6006506752365\np14105\nsVid\np14106\nV6006506752365\np14107\nsVimage_url\np14108\nVhttps://fbcdn-creative-a.akamaihd.net/hads-ak-ash3/s110x80/708187_6006845069165_27732_n.png\np14109\nsVcount_current_adgroups\np14110\nI3\nsVrun_status\np14111\nI1\nsVtype\np14112\nI1\nsVlink_url\np14113\nVhttp://www.buzzfeed.com/h1/fbad/buzzfeedmusicpartner/10-songs-thatll-make-you-lose-your-faith-in-human\np14114\nsVview_tag\np14115\ng35\nsa(dp14116\nValt_view_tags\np14117\n(lp14118\nsVbody\np14119\nVLooks weird, but she\'s probably delicious. See more of the "14 Celebrities As Cookies!"\np14120\nsVimage_hash\np14121\nV3f6d6e4811f6b13e82121e3311a1f5a9\np14122\nsVname\np14123\nVGosling Cookie?-00\np14124\nsVtitle\np14125\nVBritney Spears Cookie?\np14126\nsVcreative_id\np14127\nV6006474750765\np14128\nsVpreview_url\np14129\nVhttp://www.facebook.com/ads/api/creative_preview.php?cid=6006474750765\np14130\nsVid\np14131\nV6006474750765\np14132\nsVimage_url\np14133\nVhttps://fbcdn-creative-a.akamaihd.net/hads-ak-snc7/s110x80/701888_6006474711965_15385_n.jpg\np14134\nsVcount_current_adgroups\np14135\nI1\nsVrun_status\np14136\nI1\nsVtype\np14137\nI1\nsVlink_url\np14138\nVhttp://ad.doubleclick.net/clk;265349090;91012994;m?http://www.buzzfeed.com/h1/fbad/quiznos/14-celebrities-as-cookies-7ppi\np14139\nsVview_tag\np14140\ng35\nsa(dp14141\nValt_view_tags\np14142\n(lp14143\nsVbody\np14144\nVLike that? Then check out the rest of the "15 Crazy Things You Can Make Out Of Cookies!"\np14145\nsVimage_hash\np14146\nV007b9cee39bfcc51a90608b8f6704e04\np14147\nsVname\np14148\nVCookie Cheeseburgers?\np14149\nsVtitle\np14150\nVCookie Cheeseburgers?\np14151\nsVcreative_id\np14152\nV6006490539565\np14153\nsVpreview_url\np14154\nVhttp://www.facebook.com/ads/api/creative_preview.php?cid=6006490539565\np14155\nsVid\np14156\nV6006490539565\np14157\nsVimage_url\np14158\nVhttps://fbcdn-creative-a.akamaihd.net/hads-ak-ash3/s110x80/701899_6006490518365_1100_n.jpg\np14159\nsVcount_current_adgroups\np14160\nI1\nsVrun_status\np14161\nI1\nsVtype\np14162\nI1\nsVlink_url\np14163\nVhttp://ad.doubleclick.net/clk;265349090;91012994;m?http://www.buzzfeed.com/h1/fbad/quiznos/15-crazy-things-you-can-make-out-of-cookies-7ppi\np14164\nsVview_tag\np14165\ng35\nsa(dp14166\nValt_view_tags\np14167\n(lp1416'
p6
sS'hash'
p7
S'f1fc18fbecf6a8166d34ccd8bdb83f16e03675a6'
p8
sS'stack'
p9
S''
s.