(dp1
S'args'
p2
S''
sS'methodname'
p3
S''
sS'packet_num'
p4
I128
sS'returnval'
p5
S'_status\np16058\nI1\nsVtype\np16059\nI1\nsVlink_url\np16060\nVhttp://ad.doubleclick.net/clk;265328896;90996310;z\np16061\nsVview_tag\np16062\ng35\nsa(dp16063\nValt_view_tags\np16064\n(lp16065\nsVbody\np16066\nVCheck out "10 Of The Absolute Craziest Combinations Around" on BuzzFeed!\np16067\nsVimage_hash\np16068\nVb5c90f8f0d8fc0fb237936aa712afb9f\np16069\nsVname\np16070\nVPuppy & Burrito?-00-00\np16071\nsVtitle\np16072\nVAliens & Beer?\np16073\nsVcreative_id\np16074\nV6006316837965\np16075\nsVpreview_url\np16076\nVhttp://www.facebook.com/ads/api/creative_preview.php?cid=6006316837965\np16077\nsVid\np16078\nV6006316837965\np16079\nsVimage_url\np16080\nVhttps://fbcdn-creative-a.akamaihd.net/hads-ak-ash3/s110x80/701899_6006845142965_42265_n.png\np16081\nsVcount_current_adgroups\np16082\nI1\nsVrun_status\np16083\nI1\nsVtype\np16084\nI1\nsVlink_url\np16085\nVhttp://ad.doubleclick.net/clk;265328896;90996310;z\np16086\nsVview_tag\np16087\ng35\nsa(dp16088\nValt_view_tags\np16089\n(lp16090\nsVbody\np16091\nVCheck out "10 Of The Absolute Craziest Combinations Around" on BuzzFeed!\np16092\nsVimage_hash\np16093\nV6c6efa2cd27f644ec2c43f909d4f96de\np16094\nsVname\np16095\nVPuppy & Burrito?-00\np16096\nsVtitle\np16097\nVSushi & Cats?\np16098\nsVcreative_id\np16099\nV6006316800565\np16100\nsVpreview_url\np16101\nVhttp://www.facebook.com/ads/api/creative_preview.php?cid=6006316800565\np16102\nsVid\np16103\nV6006316800565\np16104\nsVimage_url\np16105\nVhttps://fbcdn-creative-a.akamaihd.net/hads-ak-ash3/s110x80/701901_6006844709565_9769_n.png\np16106\nsVcount_current_adgroups\np16107\nI1\nsVrun_status\np16108\nI1\nsVtype\np16109\nI1\nsVlink_url\np16110\nVhttp://ad.doubleclick.net/clk;265328896;90996310;z\np16111\nsVview_tag\np16112\ng35\nsa(dp16113\nValt_view_tags\np16114\n(lp16115\nsVbody\np16116\nVThe timing couldn\'t be better. Check out the "24 Perfectly Hilarious Basketball Pictures!"\np16117\nsVimage_hash\np16118\nV60ed236349a99c9b975151297209d7c6\np16119\nsVname\np16120\nVKyrie Dancing It Up!-00\np16121\nsVtitle\np16122\nVSmile For The Camera!\np16123\nsVcreative_id\np16124\nV6006316652165\np16125\nsVpreview_url\np16126\nVhttp://www.facebook.com/ads/api/creative_preview.php?cid=6006316652165\np16127\nsVid\np16128\nV6006316652165\np16129\nsVimage_url\np16130\nVhttps://fbcdn-creative-a.akamaihd.net/hads-ak-ash3/s110x80/701903_6006844643165_41735_n.png\np16131\nsVcount_current_adgroups\np16132\nI1\nsVrun_status\np16133\nI1\nsVtype\np16134\nI1\nsVlink_url\np16135\nVhttp://ad.doubleclick.net/clk;265246529;90880520;m?http://www.buzzfeed.com/h1/fbad/pepsimax/24-perfectly-hilarious-basketball-pictures-7tkk\np16136\nsVview_tag\np16137\ng35\nsa(dp16138\nValt_view_tags\np16139\n(lp16140\nsVbody\np16141\nVThese are some great shots. Check out the "24 Perfectly Hilarious Basketball Pictures!"\np16142\nsVimage_hash\np16143\nV0db45f0becd5a44871378c6cda1c6d98\np16144\nsVname\np16145\nVKyrie Dancing It Up!\np16146\nsVtitle\np16147\nVKyrie Dancing It Up!\np16148\nsVcreative_id\np16149\nV6006303882365\np16150\nsVpreview_url\np16151\nVhttp://www.facebook.com/ads/api/creative_preview.php?cid=6006303882365\np16152\nsVid\np16153\nV6006303882365\np16154\nsVimage_url\np16155\nVhttps://fbcdn-creative-a.akamaihd.net/hads-ak-prn1/s110x80/708181_6006844135965_56475_n.png\np16156\nsVcount_current_adgroups\np16157\nI1\nsVrun_status\np16158\nI1\nsVtype\np16159\nI1\nsVlink_url\np16160\nVhttp://ad.doubleclick.net/clk;265246529;90880520;m?http://www.buzzfeed.com/h1/fbad/pepsimax/24-perfectly-hilarious-basketball-pictures-7tkk\np16161\nsVview_tag\np16162\ng35\nsa(dp16163\nValt_view_tags\np16164\n(lp16165\nsVbody\np16166\nVWho says athletes can\'t act? See all of the "11 Goofy Basketball Flop GIFs" on BuzzFeed!\np16167\nsVimage_hash\np16168\nV354de92ddd06e381e36735ff31ba2d7c\np16169\nsVname\np16170\nVSerious Flopping\np16171\nsVtitle\np16172\nVSerious Flopping\np16173\nsVcreative_id\np16174\nV6006303906565\np16175\nsVpreview_url\np16176\nVhttp://www.facebook.com/ads/api/creative_preview.php?cid=6006303906565\np16177\nsVid\np16178\nV6006303906565\np16179\nsVimage_url\np16180\nVhttps://fbcdn-creative-a.akamaihd.net/hads-ak-ash3/s110x80/708161_6006844361165_37144_n.png\np16181\nsVcount_current_adgroups\np16182\nI1\nsVrun_status\np16183\nI1\nsVtype\np16184\nI1\nsVlink_url\np16185\nVhttp://ad.doubleclick.net/clk;265246529;90880520;m?http:/'
p6
sS'hash'
p7
S'f1fc18fbecf6a8166d34ccd8bdb83f16e03675a6'
p8
sS'stack'
p9
S''
s.