(dp1
S'args'
p2
S''
sS'methodname'
p3
S''
sS'packet_num'
p4
I21
sS'returnval'
p5
S'ttp://www.facebook.com/ads/api/creative_preview.php?cid=6007694833365\np2646\nsVid\np2647\nV6007694833365\np2648\nsVimage_url\np2649\nVhttps://fbcdn-creative-a.akamaihd.net/hads-ak-prn1/s110x80/735316_6007694790565_4643_n.png\np2650\nsVcount_current_adgroups\np2651\nI2\nsVrun_status\np2652\nI1\nsVtype\np2653\nI1\nsVlink_url\np2654\nVhttp://ad.doubleclick.net/clk;266123085;91730184;f;pc=[TPAS_ID]?http://www.buzzfeed.com/h1/fbad/tacobell/13-tweets-that-shouldve-never-been-shared\np2655\nsVview_tag\np2656\ng35\nsa(dp2657\nValt_view_tags\np2658\n(lp2659\nsVbody\np2660\nVSome people just don\'t know when to keep things to themselves, especially on Facebook.\np2661\nsVimage_hash\np2662\nV4295adca5c203e317ac761b953a5ed32\np2663\nsVname\np2664\nVThe Worst FB Statuses\np2665\nsVtitle\np2666\nVThe Worst FB Statuses\np2667\nsVcreative_id\np2668\nV6007694670565\np2669\nsVpreview_url\np2670\nVhttp://www.facebook.com/ads/api/creative_preview.php?cid=6007694670565\np2671\nsVid\np2672\nV6007694670565\np2673\nsVimage_url\np2674\nVhttps://fbcdn-creative-a.akamaihd.net/hads-ak-ash3/s110x80/735347_6007694613965_61678_n.png\np2675\nsVcount_current_adgroups\np2676\nI2\nsVrun_status\np2677\nI1\nsVtype\np2678\nI1\nsVlink_url\np2679\nVhttp://ad.doubleclick.net/clk;266123085;91730184;f;pc=[TPAS_ID]?http://www.buzzfeed.com/h1/fbad/tacobell/the-worst-fb-statuses-no-one-should-share-again\np2680\nsVview_tag\np2681\ng35\nsa(dp2682\nValt_view_tags\np2683\n(lp2684\nsVbody\np2685\nVJust one of the "15 Reasons Why Toys In The 90s Were Just Plain Better!" Check out more!\np2686\nsVimage_hash\np2687\nV344a4cb9840d47f6088087aad068d705\np2688\nsVname\np2689\nVOnly 151 Pokemon!\np2690\nsVtitle\np2691\nVOnly 151 Pokemon!\np2692\nsVcreative_id\np2693\nV6007694514565\np2694\nsVpreview_url\np2695\nVhttp://www.facebook.com/ads/api/creative_preview.php?cid=6007694514565\np2696\nsVid\np2697\nV6007694514565\np2698\nsVimage_url\np2699\nVhttps://fbcdn-creative-a.akamaihd.net/hads-ak-prn1/s110x80/735347_6007694423565_43460_n.png\np2700\nsVcount_current_adgroups\np2701\nI3\nsVrun_status\np2702\nI1\nsVtype\np2703\nI1\nsVlink_url\np2704\nVhttp://ad.doubleclick.net/clk;267179552;91565483;y?http://www.buzzfeed.com/h1/fbad/kingofthenerds/15-reasons-why-toys-in-the-90s-were-just-plain-bet-77y5\np2705\nsVview_tag\np2706\ng35\nsa(dp2707\nValt_view_tags\np2708\n(lp2709\nsVbody\np2710\nVCheck out the "12 Things You\'ll Learn When You Visit The Hoover Dam" from our NV Road Trip\np2711\nsVimage_hash\np2712\nVfbb5652c7362b4d4206c2d478f8fc662\np2713\nsVname\np2714\nVGreetings from Nevada!\np2715\nsVtitle\np2716\nVGreetings from Nevada!\np2717\nsVcreative_id\np2718\nV6007692004765\np2719\nsVpreview_url\np2720\nVhttp://www.facebook.com/ads/api/creative_preview.php?cid=6007692004765\np2721\nsVid\np2722\nV6007692004765\np2723\nsVimage_url\np2724\nVhttps://fbcdn-creative-a.akamaihd.net/hads-ak-ash3/s110x80/735298_6007692003365_47653_n.jpg\np2725\nsVcount_current_adgroups\np2726\nI6\nsVrun_status\np2727\nI1\nsVtype\np2728\nI1\nsVlink_url\np2729\nVhttp://bs.serving-sys.com/BurstingPipe/adServer.bs?cn=tf&c=20&mc=click&pli=5899163&PluID=0&ord=%n&rtu=http://www.buzzfeed.com/h1/fbad/nevada/11-things-youll-learn-when-you-visit-the-hoover-d\np2730\nsVview_tag\np2731\ng35\nsa(dp2732\nValt_view_tags\np2733\n(lp2734\nsVbody\np2735\nVJust one of the "21 Awesome Things That You Can Do Because You\'re An Adult" -See them all!\np2736\nsVimage_hash\np2737\nV9dea00e3a8264f97a64de1b31f01ace7\np2738\nsVname\np2739\nVJunk Food for Breakfast?\np2740\nsVtitle\np2741\nVJunk Food for Breakfast?\np2742\nsVcreative_id\np2743\nV6007675415565\np2744\nsVpreview_url\np2745\nVhttp://www.facebook.com/ads/api/creative_preview.php?cid=6007675415565\np2746\nsVid\np2747\nV6007675415565\np2748\nsVimage_url\np2749\nVhttps://fbcdn-creative-a.akamaihd.net/hads-ak-ash3/s110x80/735305_6007675387965_44493_n.png\np2750\nsVcount_current_adgroups\np2751\nI1\nsVrun_status\np2752\nI1\nsVtype\np2753\nI1\nsVlink_url\np2754\nVhttp://bs.serving-sys.com/BurstingPipe/adServer.bs?cn=tf&c=20&mc=click&pli=6053855&PluID=0&ord=%n&rtu=http://www.buzzfeed.com/h1/fbad/comedycentral/21-awesome-things-that-you-can-do-because-youre-a\np2755\nsVview_tag\np2756\ng35\nsa(dp2757\nValt_view_tags\np2758\n(lp2759\nsVbody\np2760\nVIf you like that, then you\'ll love the "15 Pets Dressed Up As Superhe'
p6
sS'hash'
p7
S'f1fc18fbecf6a8166d34ccd8bdb83f16e03675a6'
p8
sS'stack'
p9
S''
s.