(dp1
S'args'
p2
S''
sS'methodname'
p3
S''
sS'packet_num'
p4
I158
sS'returnval'
p5
S's110x80/708180_6006844262365_63215_n.png\np19793\nsVcount_current_adgroups\np19794\nI1\nsVrun_status\np19795\nI1\nsVtype\np19796\nI1\nsVlink_url\np19797\nVhttp://ad.doubleclick.net/clk;264705624;90379036;m\np19798\nsVview_tag\np19799\ng35\nsa(dp19800\nVname\np19801\nVSponsored story #6,006,158,445,565\np19802\nsVcreative_id\np19803\nV6006158445565\np19804\nsVpreview_url\np19805\nVhttp://www.facebook.com/ads/api/creative_preview.php?cid=6006158445565\np19806\nsVobject_id\np19807\nV238205562866018\np19808\nsVaction_spec\np19809\n(lp19810\n(dp19811\nVpost\np19812\nV475803055793924\np19813\nsVaction.type\np19814\nVlike\np19815\nsa(dp19816\nVpost\np19817\nV475803055793924\np19818\nsVaction.type\np19819\nVcomment\np19820\nsa(dp19821\nVpost.object\np19822\nV475803055793924\np19823\nsVaction.type\np19824\nVpost\np19825\nsasVcluster_id\np19826\nI6006158442965\nsVcount_current_adgroups\np19827\nI2\nsVrun_status\np19828\nI1\nsVtype\np19829\nI25\nsVid\np19830\nV6006158445565\np19831\nsa(dp19832\nValt_view_tags\np19833\n(lp19834\nsVbody\np19835\nVIt never ends well. Check out "20 Ridiculous Texts From Perfect Strangers" on BuzzFeed!\np19836\nsVimage_hash\np19837\nV7cadb2aa3b48160eb541d1ad0c3cfb5d\np19838\nsVname\np19839\nVTexting A Stranger\np19840\nsVtitle\np19841\nVTexting A Stranger\np19842\nsVcreative_id\np19843\nV6006159981565\np19844\nsVpreview_url\np19845\nVhttp://www.facebook.com/ads/api/creative_preview.php?cid=6006159981565\np19846\nsVid\np19847\nV6006159981565\np19848\nsVimage_url\np19849\nVhttps://fbcdn-creative-a.akamaihd.net/hads-ak-prn1/s110x80/708182_6006844797165_37701_n.png\np19850\nsVcount_current_adgroups\np19851\nI1\nsVrun_status\np19852\nI1\nsVtype\np19853\nI1\nsVlink_url\np19854\nVhttp://www.buzzfeed.com/h1/fbad/virginmobilelive/15-ridiculous-texts-from-perfect-strangers\np19855\nsVview_tag\np19856\ng35\nsa(dp19857\nValt_view_tags\np19858\n(lp19859\nsVbody\np19860\nVSeriously? Check out more of "The 22 Most Absurd Library Books You Won\'t Believe Exist!"\np19861\nsVimage_hash\np19862\nV21f6681ba6afb864a2ddf4137d9ace70\np19863\nsVname\np19864\nVWhat A Useful Guide!\np19865\nsVtitle\np19866\nVWhat A Useful Guide!\np19867\nsVcreative_id\np19868\nV6006159950365\np19869\nsVpreview_url\np19870\nVhttp://www.facebook.com/ads/api/creative_preview.php?cid=6006159950365\np19871\nsVid\np19872\nV6006159950365\np19873\nsVimage_url\np19874\nVhttps://fbcdn-creative-a.akamaihd.net/hads-ak-prn1/s110x80/708180_6006844264165_52622_n.png\np19875\nsVcount_current_adgroups\np19876\nI1\nsVrun_status\np19877\nI1\nsVtype\np19878\nI1\nsVlink_url\np19879\nVhttp://www.buzzfeed.com/h1/fbad/virginmobilelive/the-22-most-absurd-library-books-you-wont-believe\np19880\nsVview_tag\np19881\ng35\nsa(dp19882\nValt_view_tags\np19883\n(lp19884\nsVbody\np19885\nVIf you like this, then check out the "15 Soul-Shattering Portraits Of Celebrities!"\np19886\nsVimage_hash\np19887\nV3a2d8a017c3e2cbe4cec8256e4117717\np19888\nsVname\np19889\nV"THE BEES!"\np19890\nsVtitle\np19891\nV"THE BEES!"\np19892\nsVcreative_id\np19893\nV6006159899365\np19894\nsVpreview_url\np19895\nVhttp://www.facebook.com/ads/api/creative_preview.php?cid=6006159899365\np19896\nsVid\np19897\nV6006159899365\np19898\nsVimage_url\np19899\nVhttps://fbcdn-creative-a.akamaihd.net/hads-ak-prn1/s110x80/708206_6006844392365_29770_n.png\np19900\nsVcount_current_adgroups\np19901\nI1\nsVrun_status\np19902\nI1\nsVtype\np19903\nI1\nsVlink_url\np19904\nVhttp://www.buzzfeed.com/h1/fbad/virginmobilelive/15-soul-shattering-portraits-of-celebrities\np19905\nsVview_tag\np19906\ng35\nsa(dp19907\nValt_view_tags\np19908\n(lp19909\nsVbody\np19910\nVCheck out these "26 Desserts That Will Delight Your Taste Buds" on BuzzFeed!\np19911\nsVimage_hash\np19912\nV0566a6507a15b13f2be2528ec700d85d\np19913\nsVname\np19914\nVLove Dessert?-00\np19915\nsVtitle\np19916\nVLove Dessert?\np19917\nsVcreative_id\np19918\nV6006071410365\np19919\nsVpreview_url\np19920\nVhttp://www.facebook.com/ads/api/creative_preview.php?cid=6006071410365\np19921\nsVid\np19922\nV6006071410365\np19923\nsVimage_url\np19924\nVhttps://fbcdn-creative-a.akamaihd.net/hads-ak-ash3/s110x80/701892_6006844081165_35675_n.jpg\np19925\nsVcount_current_adgroups\np19926\nI1\nsVrun_status\np19927\nI1\nsVtype\np19928\nI1\nsVlink_url\np19929\nVhttp://ad.doubleclick.net/clk;263772520;89472732;p\np19930\nsVview_tag\np19931\ng35\nsa(dp19932\nValt_view_tags\n'
p6
sS'hash'
p7
S'f1fc18fbecf6a8166d34ccd8bdb83f16e03675a6'
p8
sS'stack'
p9
S''
s.