(dp1
S'args'
p2
S''
sS'methodname'
p3
S''
sS'packet_num'
p4
I107
sS'returnval'
p5
S'3393\nsVbody\np13394\nVCheck out the "20 Holiday Reactions We\'re All Having" and get  ready for holiday cheer!\np13395\nsVimage_hash\np13396\nV4cb376788a08787270bb8374ba25194e\np13397\nsVname\np13398\nVHolidays Are Almost Here-01\np13399\nsVtitle\np13400\nVHolidays Are Almost Here!\np13401\nsVcreative_id\np13402\nV6006640662765\np13403\nsVpreview_url\np13404\nVhttp://www.facebook.com/ads/api/creative_preview.php?cid=6006640662765\np13405\nsVid\np13406\nV6006640662765\np13407\nsVimage_url\np13408\nVhttps://fbcdn-creative-a.akamaihd.net/hads-ak-ash3/s110x80/708186_6006636463765_49013_n.jpg\np13409\nsVcount_current_adgroups\np13410\nI1\nsVrun_status\np13411\nI1\nsVtype\np13412\nI1\nsVlink_url\np13413\nVhttp://www.buzzfeed.com/h1/fbad/virginmobilelive/20-holiday-reactions-were-all-having-5l87\np13414\nsVview_tag\np13415\ng35\nsa(dp13416\nValt_view_tags\np13417\n(lp13418\nsVbody\np13419\nVNo one really knows how old they are. See "16 Ways Santa Is Just Like Celebrities" here!\np13420\nsVimage_hash\np13421\nVcc622aac8735a2cad0d8b6f6c7a1f475\np13422\nsVname\np13423\nVSanta Needs An Agent-01\np13424\nsVtitle\np13425\nVSanta Is Like Betty White\np13426\nsVcreative_id\np13427\nV6006640197565\np13428\nsVpreview_url\np13429\nVhttp://www.facebook.com/ads/api/creative_preview.php?cid=6006640197565\np13430\nsVid\np13431\nV6006640197565\np13432\nsVimage_url\np13433\nVhttps://fbcdn-creative-a.akamaihd.net/hads-ak-prn1/s110x80/708168_6006638133365_64082_n.jpg\np13434\nsVcount_current_adgroups\np13435\nI1\nsVrun_status\np13436\nI1\nsVtype\np13437\nI1\nsVlink_url\np13438\nVhttp://www.buzzfeed.com/h1/fbad/virginmobilelive/16-ways-santa-is-just-like-celebrities-5l87\np13439\nsVview_tag\np13440\ng35\nsa(dp13441\nValt_view_tags\np13442\n(lp13443\nsVbody\np13444\nVCheck out the "20 Holiday Reactions We\'re All Having" and get in ready for holiday cheer!\np13445\nsVimage_hash\np13446\nVacf5cd4c24249c7980f29d3f67504ef6\np13447\nsVname\np13448\nVHolidays Are Almost Here-00\np13449\nsVtitle\np13450\nVHolidays Are Almost Here!\np13451\nsVcreative_id\np13452\nV6006640369565\np13453\nsVpreview_url\np13454\nVhttp://www.facebook.com/ads/api/creative_preview.php?cid=6006640369565\np13455\nsVid\np13456\nV6006640369565\np13457\nsVimage_url\np13458\nVhttps://fbcdn-creative-a.akamaihd.net/hads-ak-ash3/s110x80/708183_6006640357365_12310_n.jpg\np13459\nsVcount_current_adgroups\np13460\nI1\nsVrun_status\np13461\nI1\nsVtype\np13462\nI1\nsVlink_url\np13463\nVhttp://www.buzzfeed.com/h1/fbad/virginmobilelive/20-holiday-reactions-were-all-having-5l87\np13464\nsVview_tag\np13465\ng35\nsa(dp13466\nValt_view_tags\np13467\n(lp13468\nsVbody\np13469\nVThey both dress pretty flashy. See the "16 Ways Santa Is Just Like Celebrities" here!\np13470\nsVimage_hash\np13471\nVba0c399193b191841bc932105ae2721a\np13472\nsVname\np13473\nVSanta Needs An Agent-00\np13474\nsVtitle\np13475\nVSanta Is Like Lady Gaga\np13476\nsVcreative_id\np13477\nV6006640180965\np13478\nsVpreview_url\np13479\nVhttp://www.facebook.com/ads/api/creative_preview.php?cid=6006640180965\np13480\nsVid\np13481\nV6006640180965\np13482\nsVimage_url\np13483\nVhttps://fbcdn-creative-a.akamaihd.net/hads-ak-prn1/s110x80/708200_6006640170565_27842_n.jpg\np13484\nsVcount_current_adgroups\np13485\nI1\nsVrun_status\np13486\nI1\nsVtype\np13487\nI1\nsVlink_url\np13488\nVhttp://www.buzzfeed.com/h1/fbad/virginmobilelive/16-ways-santa-is-just-like-celebrities-5l87\np13489\nsVview_tag\np13490\ng35\nsa(dp13491\nValt_view_tags\np13492\n(lp13493\nsVbody\np13494\nVThis year GIF was added to the dictionary. Check out "2012: The Year In Bad GIFs" here!\np13495\nsVimage_hash\np13496\nV8c832761ee424da788d93de97129062b\np13497\nsVname\np13498\nVGIFs Everywhere!\np13499\nsVtitle\np13500\nVGIFs Everywhere!\np13501\nsVcreative_id\np13502\nV6006638520765\np13503\nsVpreview_url\np13504\nVhttp://www.facebook.com/ads/api/creative_preview.php?cid=6006638520765\np13505\nsVid\np13506\nV6006638520765\np13507\nsVimage_url\np13508\nVhttps://fbcdn-creative-a.akamaihd.net/hads-ak-ash3/s110x80/708173_6006638479365_46212_n.jpg\np13509\nsVcount_current_adgroups\np13510\nI1\nsVrun_status\np13511\nI1\nsVtype\np13512\nI1\nsVlink_url\np13513\nVhttp://www.buzzfeed.com/h1/fbad/virginmobilelive/2012-the-year-in-bad-gifs-5l87\np13514\nsVview_tag\np13515\ng35\nsa(dp13516\nValt_view_tags\np13517\n(lp13518\nsVbody\np13519\nVCh'
p6
sS'hash'
p7
S'f1fc18fbecf6a8166d34ccd8bdb83f16e03675a6'
p8
sS'stack'
p9
S''
s.