(dp1
S'args'
p2
S''
sS'methodname'
p3
S''
sS'packet_num'
p4
I150
sS'returnval'
p5
S'96129165\np18758\nsVid\np18759\nV6006196129165\np18760\nsVimage_url\np18761\nVhttps://fbcdn-creative-a.akamaihd.net/hads-ak-prn1/s110x80/708174_6006844469565_11145_n.png\np18762\nsVcount_current_adgroups\np18763\nI1\nsVrun_status\np18764\nI1\nsVtype\np18765\nI1\nsVlink_url\np18766\nVhttp://www.buzzfeed.com/h1/fbad/virginmobilelive/15-sequels-that-actually-ruined-everything-5l87\np18767\nsVview_tag\np18768\ng35\nsa(dp18769\nValt_view_tags\np18770\n(lp18771\nsVbody\np18772\nVSome YouTube comments are better than the videos. Check out the best of the best here!\np18773\nsVimage_hash\np18774\nV182fd4acd8c2662f0495ce838e8339c2\np18775\nsVname\np18776\nVYouTube Gold!\np18777\nsVtitle\np18778\nVYouTube Gold!\np18779\nsVcreative_id\np18780\nV6006196104965\np18781\nsVpreview_url\np18782\nVhttp://www.facebook.com/ads/api/creative_preview.php?cid=6006196104965\np18783\nsVid\np18784\nV6006196104965\np18785\nsVimage_url\np18786\nVhttps://fbcdn-creative-a.akamaihd.net/hads-ak-ash3/s110x80/708175_6006844201565_61033_n.png\np18787\nsVcount_current_adgroups\np18788\nI1\nsVrun_status\np18789\nI1\nsVtype\np18790\nI1\nsVlink_url\np18791\nVhttp://www.buzzfeed.com/h1/fbad/virginmobilelive/21-youtube-comments-that-said-it-all-5l87\np18792\nsVview_tag\np18793\ng35\nsa(dp18794\nValt_view_tags\np18795\n(lp18796\nsVbody\np18797\nVListen to our Rdio playlist to hear the 10 most trashy tracks on BuzzFeed!\np18798\nsVimage_hash\np18799\nVa928ee4337ba74427691caedccafcdac\np18800\nsVname\np18801\nVWant to Listen to a Hit?-00-00-00\np18802\nsVtitle\np18803\nVGuilty Pleasure Tunes?\np18804\nsVcreative_id\np18805\nV6006183111765\np18806\nsVpreview_url\np18807\nVhttp://www.facebook.com/ads/api/creative_preview.php?cid=6006183111765\np18808\nsVid\np18809\nV6006183111765\np18810\nsVimage_url\np18811\nVhttps://fbcdn-creative-a.akamaihd.net/hads-ak-ash3/s110x80/708187_6006845069165_27732_n.png\np18812\nsVcount_current_adgroups\np18813\nI3\nsVrun_status\np18814\nI1\nsVtype\np18815\nI1\nsVlink_url\np18816\nVhttp://www.buzzfeed.com/h1/fbad/buzzfeedmusicpartner/10-trashy-tracks-youll-be-humming-all-day-7p85\np18817\nsVview_tag\np18818\ng35\nsa(dp18819\nValt_view_tags\np18820\n(lp18821\nsVbody\np18822\nVUnbelievable right? Check out the entire list of "24 GIFs Of Insane Basketball Shots!"\np18823\nsVimage_hash\np18824\nV7e28dd34dd0151492e5ed0c1cba83e8c\np18825\nsVname\np18826\nVRef Makes Half-Court Shot\np18827\nsVtitle\np18828\nVRef Makes Half-Court Shot\np18829\nsVcreative_id\np18830\nV6006158608565\np18831\nsVpreview_url\np18832\nVhttp://www.facebook.com/ads/api/creative_preview.php?cid=6006158608565\np18833\nsVid\np18834\nV6006158608565\np18835\nsVimage_url\np18836\nVhttps://fbcdn-creative-a.akamaihd.net/hads-ak-prn1/s110x80/708186_6006844805765_23926_n.png\np18837\nsVcount_current_adgroups\np18838\nI1\nsVrun_status\np18839\nI1\nsVtype\np18840\nI1\nsVlink_url\np18841\nVhttp://www.buzzfeed.com/h1/fbad/pepsimax/24-gifs-of-insane-basketball-shots-7tkk\np18842\nsVview_tag\np18843\ng35\nsa(dp18844\nValt_view_tags\np18845\n(lp18846\nsVbody\np18847\nVMade him a multi-millionaire. See more folks who "played their cards right" on BuzzFeed!\np18848\nsVimage_hash\np18849\nV0c2442109fc0b9c716b584b99c3d08f2\np18850\nsVname\np18851\nVDavid Choe\'s FB Murals\np18852\nsVtitle\np18853\nVDavid Choe\'s FB Murals\np18854\nsVcreative_id\np18855\nV6006191676165\np18856\nsVpreview_url\np18857\nVhttp://www.facebook.com/ads/api/creative_preview.php?cid=6006191676165\np18858\nsVid\np18859\nV6006191676165\np18860\nsVimage_url\np18861\nVhttps://fbcdn-creative-a.akamaihd.net/hads-ak-prn1/s110x80/708170_6006844121165_57360_n.png\np18862\nsVcount_current_adgroups\np18863\nI1\nsVrun_status\np18864\nI1\nsVtype\np18865\nI1\nsVlink_url\np18866\nVhttp://ad.doubleclick.net/clk;264844157;90520036;f\np18867\nsVview_tag\np18868\ng35\nsa(dp18869\nValt_view_tags\np18870\n(lp18871\nsVbody\np18872\nVCheck out "18 GIFs That Are Lazier Than You" on BuzzFeed!\np18873\nsVimage_hash\np18874\nV7420ffb6017d1b8cc76aceaaf6936939\np18875\nsVname\np18876\nVTroy & Abed Feelin\' Lazy-00-00\np18877\nsVtitle\np18878\nVJohnny Depp Feelin\' Lazy?\np18879\nsVcreative_id\np18880\nV6006191739965\np18881\nsVpreview_url\np18882\nVhttp://www.facebook.com/ads/api/creative_preview.php?cid=6006191739965\np18883\nsVid\np18884\nV6006191739965\np18885\nsVimage_url\np18886\nVhttps://fbcdn-creative-a.'
p6
sS'hash'
p7
S'f1fc18fbecf6a8166d34ccd8bdb83f16e03675a6'
p8
sS'stack'
p9
S''
s.