(dp1
S'args'
p2
S''
sS'methodname'
p3
S''
sS'packet_num'
p4
I75
sS'returnval'
p5
S'p9372\nsVcount_current_adgroups\np9373\nI1\nsVrun_status\np9374\nI1\nsVtype\np9375\nI27\nsVid\np9376\nV6007191456565\np9377\nsa(dp9378\nValt_view_tags\np9379\n(lp9380\nsVbody\np9381\nVWho says our furry friends can\'t be fashionable for the snowy season? \np9382\nsVimage_hash\np9383\nV5ecd8a4ef26ccc660b651a85553b4c99\np9384\nsVname\np9385\nVAnimals In Sweaters!\np9386\nsVtitle\np9387\nVAnimals In Sweaters!\np9388\nsVcreative_id\np9389\nV6007164290965\np9390\nsVpreview_url\np9391\nVhttp://www.facebook.com/ads/api/creative_preview.php?cid=6007164290965\np9392\nsVid\np9393\nV6007164290965\np9394\nsVimage_url\np9395\nVhttps://fbcdn-creative-a.akamaihd.net/hads-ak-ash3/s110x80/701888_6007164289965_14077_n.jpg\np9396\nsVcount_current_adgroups\np9397\nI1\nsVrun_status\np9398\nI1\nsVtype\np9399\nI1\nsVlink_url\np9400\nVhttp://www.buzzfeed.com/h1/fbad/oldnavy/17-adorable-animals-in-holiday-sweaters\np9401\nsVview_tag\np9402\ng35\nsa(dp9403\nValt_view_tags\np9404\n(lp9405\nsVbody\np9406\nVMaybe TMI? See more "Foursquare Check-Ins That Probably Shouldn\'t Be Shared" on BuzzFeed!\np9407\nsVimage_hash\np9408\nVf946e966cad6d8bf107f12d930ca5863\np9409\nsVname\np9410\nVChecking in on the Toilet-00\np9411\nsVtitle\np9412\nVChecking in @the Show\np9413\nsVcreative_id\np9414\nV6007190773765\np9415\nsVpreview_url\np9416\nVhttp://www.facebook.com/ads/api/creative_preview.php?cid=6007190773765\np9417\nsVid\np9418\nV6007190773765\np9419\nsVimage_url\np9420\nVhttps://fbcdn-creative-a.akamaihd.net/hads-ak-prn1/s110x80/708189_6007190753965_50997_n.jpg\np9421\nsVcount_current_adgroups\np9422\nI1\nsVrun_status\np9423\nI1\nsVtype\np9424\nI1\nsVlink_url\np9425\nVhttp://ad.doubleclick.net/clk;266123085;91730184;f;pc=[TPAS_ID]?http://www.buzzfeed.com/h1/fbad/tacobell/10-foursquare-check-ins-that-probably-shouldnt-be-10az\np9426\nsVview_tag\np9427\ng35\nsa(dp9428\nValt_view_tags\np9429\n(lp9430\nsVbody\np9431\nVMaybe TMI? See more "Foursquare Check-Ins That Probably Shouldn\'t Be Shared" on BuzzFeed!\np9432\nsVimage_hash\np9433\nV5ad869c2059841a459949a6c0c7274b6\np9434\nsVname\np9435\nVChecking in on the Toilet\np9436\nsVtitle\np9437\nVChecking in on the Toilet\np9438\nsVcreative_id\np9439\nV6007190743365\np9440\nsVpreview_url\np9441\nVhttp://www.facebook.com/ads/api/creative_preview.php?cid=6007190743365\np9442\nsVid\np9443\nV6007190743365\np9444\nsVimage_url\np9445\nVhttps://fbcdn-creative-a.akamaihd.net/hads-ak-ash3/s110x80/708196_6007190570165_30609_n.jpg\np9446\nsVcount_current_adgroups\np9447\nI1\nsVrun_status\np9448\nI1\nsVtype\np9449\nI1\nsVlink_url\np9450\nVhttp://ad.doubleclick.net/clk;266123085;91730184;f;pc=[TPAS_ID]?http://www.buzzfeed.com/h1/fbad/tacobell/10-foursquare-check-ins-that-probably-shouldnt-be-10az\np9451\nsVview_tag\np9452\ng35\nsa(dp9453\nValt_view_tags\np9454\n(lp9455\nsVbody\np9456\nVWho says our furry friends can\'t be fashionable for the snowy season? \np9457\nsVimage_hash\np9458\nV5ecd8a4ef26ccc660b651a85553b4c99\np9459\nsVname\np9460\nVAnimals In Sweaters!-00\np9461\nsVtitle\np9462\nVCats in Sweaters!\np9463\nsVcreative_id\np9464\nV6007190232565\np9465\nsVpreview_url\np9466\nVhttp://www.facebook.com/ads/api/creative_preview.php?cid=6007190232565\np9467\nsVid\np9468\nV6007190232565\np9469\nsVimage_url\np9470\nVhttps://fbcdn-creative-a.akamaihd.net/hads-ak-ash3/s110x80/701888_6007164289965_14077_n.jpg\np9471\nsVcount_current_adgroups\np9472\nI1\nsVrun_status\np9473\nI1\nsVtype\np9474\nI1\nsVlink_url\np9475\nVhttp://www.buzzfeed.com/h1/fbad/oldnavy/17-adorable-animals-in-holiday-sweaters\np9476\nsVview_tag\np9477\ng35\nsa(dp9478\nValt_view_tags\np9479\n(lp9480\nsVbody\np9481\nVI\'m Blue da ba dee da ba die. It\'s just one of the "10 Intl.l Crossover Hits" on BuzzFeed!\np9482\nsVimage_hash\np9483\nVc8280868ebdfdb48011931577aa07296\np9484\nsVname\np9485\nV Eiffel 65\'s Blue\np9486\nsVtitle\np9487\nV Eiffel 65\'s Blue\np9488\nsVcreative_id\np9489\nV6007167350165\np9490\nsVpreview_url\np9491\nVhttp://www.facebook.com/ads/api/creative_preview.php?cid=6007167350165\np9492\nsVid\np9493\nV6007167350165\np9494\nsVimage_url\np9495\nVhttps://fbcdn-creative-a.akamaihd.net/hads-ak-prn1/s110x80/701896_6007167233365_1083_n.jpg\np9496\nsVcount_current_adgroups\np9497\nI1\nsVrun_status\np9498\nI1\nsVtype\np9499\nI1\nsVlink_url\np9500\nVhttp://ad.doubleclick.net/clk;266123085;91730169;i;pc=[TPAS_ID]?http://www.bu'
p6
sS'hash'
p7
S'f1fc18fbecf6a8166d34ccd8bdb83f16e03675a6'
p8
sS'stack'
p9
S''
s.