(dp1
S'args'
p2
S''
sS'methodname'
p3
S''
sS'packet_num'
p4
I40
sS'returnval'
p5
S'l\np4978\nVhttp://www.buzzfeed.com/h1/fbad/thecarriediaries/15-things-high-schoolers-do-to-prepare-to-lose-the\np4979\nsVview_tag\np4980\ng35\nsa(dp4981\nValt_view_tags\np4982\n(lp4983\nsVbody\np4984\nVGrab your magnifying glass. Can you crack these creepy crime mysteries? \np4985\nsVimage_hash\np4986\nV47f9642738e4183693f361fbc4ab59cb\np4987\nsVname\np4988\nVBizarre Unsolved Crimes\np4989\nsVtitle\np4990\nVBizarre Unsolved Crimes\np4991\nsVcreative_id\np4992\nV6007598323365\np4993\nsVpreview_url\np4994\nVhttp://www.facebook.com/ads/api/creative_preview.php?cid=6007598323365\np4995\nsVid\np4996\nV6007598323365\np4997\nsVimage_url\np4998\nVhttps://fbcdn-creative-a.akamaihd.net/hads-ak-prn1/s110x80/735347_6007598321765_53993_n.jpg\np4999\nsVcount_current_adgroups\np5000\nI1\nsVrun_status\np5001\nI1\nsVtype\np5002\nI1\nsVlink_url\np5003\nVhttp://ad.doubleclick.net/click;h=v2|4029|0|0|%2a|w;266257480;0-0;0;92132325;31-1|1;51989610|51950158|1;;;pc=[TPAS_ID]%3fhttp://www.buzzfeed.com/h1/fbad/bbcamerica/9-totally-bizarre-unsolved-crimes?utm_source=BuzzFeed&utm_medium=banner&utm_campaign=ripper\np5004\nsVview_tag\np5005\ng35\nsa(dp5006\nValt_view_tags\np5007\n(lp5008\nsVbody\np5009\nVSerial Killer or Cereal Inventor? See how many you can get right - Only on BuzzFeed!\np5010\nsVimage_hash\np5011\nVdaa9eaa3e95d2955602199e64ce7c6ab\np5012\nsVname\np5013\nVTake the Quiz!-00\np5014\nsVtitle\np5015\nVTake the Quiz!\np5016\nsVcreative_id\np5017\nV6007598229965\np5018\nsVpreview_url\np5019\nVhttp://www.facebook.com/ads/api/creative_preview.php?cid=6007598229965\np5020\nsVid\np5021\nV6007598229965\np5022\nsVimage_url\np5023\nVhttps://fbcdn-creative-a.akamaihd.net/hads-ak-ash3/s110x80/735301_6007598228165_43817_n.jpg\np5024\nsVcount_current_adgroups\np5025\nI1\nsVrun_status\np5026\nI1\nsVtype\np5027\nI1\nsVlink_url\np5028\nVhttp://ad.doubleclick.net/click;h=v2|4029|0|0|%2a|w;266257480;0-0;0;92132325;31-1|1;51989610|51950158|1;;;pc=[TPAS_ID]%3fhttp://www.buzzfeed.com/h1/fbad/bbcamerica/serial-killer-or-cereal-inventor?utm_source=BuzzFeed&utm_medium=banner&utm_campaign=ripper\np5029\nsVview_tag\np5030\ng35\nsa(dp5031\nValt_view_tags\np5032\n(lp5033\nsVbody\np5034\nVSerial Killer or Cereal Inventor? See how many you can get right - Only on BuzzFeed!\np5035\nsVimage_hash\np5036\nV3b56519681903da87decaa294afd0d38\np5037\nsVname\np5038\nVTake the Quiz!\np5039\nsVtitle\np5040\nVTake the Quiz!\np5041\nsVcreative_id\np5042\nV6007598214965\np5043\nsVpreview_url\np5044\nVhttp://www.facebook.com/ads/api/creative_preview.php?cid=6007598214965\np5045\nsVid\np5046\nV6007598214965\np5047\nsVimage_url\np5048\nVhttps://fbcdn-creative-a.akamaihd.net/hads-ak-ash3/s110x80/735309_6007598213965_13132_n.jpg\np5049\nsVcount_current_adgroups\np5050\nI1\nsVrun_status\np5051\nI1\nsVtype\np5052\nI1\nsVlink_url\np5053\nVhttp://ad.doubleclick.net/click;h=v2|4029|0|0|%2a|w;266257480;0-0;0;92132325;31-1|1;51989610|51950158|1;;;pc=[TPAS_ID]%3fhttp://www.buzzfeed.com/h1/fbad/bbcamerica/serial-killer-or-cereal-inventor?utm_source=BuzzFeed&utm_medium=banner&utm_campaign=ripper\np5054\nsVview_tag\np5055\ng35\nsa(dp5056\nValt_view_tags\np5057\n(lp5058\nsVbody\np5059\nVSome rules are should never be broken. See the "13 Rules You Should Follow" and learn!\np5060\nsVimage_hash\np5061\nV907f182b8790904a8bf47a71e316b34c\np5062\nsVname\np5063\nVRules For Everyone\np5064\nsVtitle\np5065\nVRules For Everyone\np5066\nsVcreative_id\np5067\nV6007598196365\np5068\nsVpreview_url\np5069\nVhttp://www.facebook.com/ads/api/creative_preview.php?cid=6007598196365\np5070\nsVid\np5071\nV6007598196365\np5072\nsVimage_url\np5073\nVhttps://fbcdn-creative-a.akamaihd.net/hads-ak-ash3/s110x80/735303_6007598124565_37759_n.jpg\np5074\nsVcount_current_adgroups\np5075\nI1\nsVrun_status\np5076\nI1\nsVtype\np5077\nI1\nsVlink_url\np5078\nVhttp://www.buzzfeed.com/h1/fbad/parkermovie/13-rules-you-should-always-follow-8c9x\np5079\nsVview_tag\np5080\ng35\nsa(dp5081\nValt_view_tags\np5082\n(lp5083\nsVbody\np5084\nVIt\'s gonna take a lot more than that! Check out "10 Examples Of Shameless Shaming" here!\np5085\nsVimage_hash\np5086\nVa98db13993fa6d8f25a02c70c28e4edb\np5087\nsVname\np5088\nVShameless Getting Shamed?\np5089\nsVtitle\np5090\nVShameless Getting Shamed?\np5091\nsVcreative_id\np5092\nV6007597819965\np5093\nsVpreview_url\np5094\nVhttp://www.fac'
p6
sS'hash'
p7
S'f1fc18fbecf6a8166d34ccd8bdb83f16e03675a6'
p8
sS'stack'
p9
S''
s.