(dp1
S'args'
p2
S''
sS'methodname'
p3
S''
sS'packet_num'
p4
I35
sS'returnval'
p5
S'\nI1\nsVtype\np4378\nI1\nsVlink_url\np4379\nVhttp://ad.doubleclick.net/clk;266976723;92922096;a\np4380\nsVview_tag\np4381\ng35\nsa(dp4382\nValt_view_tags\np4383\n(lp4384\nsVbody\np4385\nVIt\'s one of the 15 Toys From Our Childhood That Were Way Too Good To Share - See them all!\np4386\nsVimage_hash\np4387\nVeb28d57170054e45789e6ce469ffbb5d\np4388\nsVname\np4389\nVRemember This Game?-00\np4390\nsVtitle\np4391\nVEtch A Sketch!\np4392\nsVcreative_id\np4393\nV6007603019565\np4394\nsVpreview_url\np4395\nVhttp://www.facebook.com/ads/api/creative_preview.php?cid=6007603019565\np4396\nsVid\np4397\nV6007603019565\np4398\nsVimage_url\np4399\nVhttps://fbcdn-creative-a.akamaihd.net/hads-ak-prn1/s110x80/735331_6007603000165_13963_n.jpg\np4400\nsVcount_current_adgroups\np4401\nI1\nsVrun_status\np4402\nI1\nsVtype\np4403\nI1\nsVlink_url\np4404\nVhttp://ad.doubleclick.net/clk;266123085;91730184;f;pc=[TPAS_ID]?http://www.buzzfeed.com/h1/fbad/tacobell/15-toys-from-our-chidlhood-that-were-way-to-good-t-10az\np4405\nsVview_tag\np4406\ng35\nsa(dp4407\nValt_view_tags\np4408\n(lp4409\nsVbody\np4410\nVIt\'s one of the 15 Toys From Our Childhood That Were Way Too Good To Share - See them all!\np4411\nsVimage_hash\np4412\nV649f102eaa74577c93c89896c4be835d\np4413\nsVname\np4414\nVRemember This Game?\np4415\nsVtitle\np4416\nVRemember This Game?\np4417\nsVcreative_id\np4418\nV6007602990165\np4419\nsVpreview_url\np4420\nVhttp://www.facebook.com/ads/api/creative_preview.php?cid=6007602990165\np4421\nsVid\np4422\nV6007602990165\np4423\nsVimage_url\np4424\nVhttps://fbcdn-creative-a.akamaihd.net/hads-ak-prn1/s110x80/735362_6007602954965_24030_n.jpg\np4425\nsVcount_current_adgroups\np4426\nI1\nsVrun_status\np4427\nI1\nsVtype\np4428\nI1\nsVlink_url\np4429\nVhttp://ad.doubleclick.net/clk;266123085;91730184;f;pc=[TPAS_ID]?http://www.buzzfeed.com/h1/fbad/tacobell/15-toys-from-our-chidlhood-that-were-way-to-good-t-10az\np4430\nsVview_tag\np4431\ng35\nsa(dp4432\nValt_view_tags\np4433\n(lp4434\nsVbody\np4435\nVCheck out "Our Favorite Moments From Shameless Thus Far" and get ready for Season 3!\np4436\nsVimage_hash\np4437\nV7a957b006933c36fba67eb3b1c2d354d\np4438\nsVname\np4439\nVGotta Love Shameless-00\np4440\nsVtitle\np4441\nVGotta Love Shameless\np4442\nsVcreative_id\np4443\nV6007601179765\np4444\nsVpreview_url\np4445\nVhttp://www.facebook.com/ads/api/creative_preview.php?cid=6007601179765\np4446\nsVid\np4447\nV6007601179765\np4448\nsVimage_url\np4449\nVhttps://fbcdn-creative-a.akamaihd.net/hads-ak-prn1/s110x80/735347_6007601169165_12915_n.jpg\np4450\nsVcount_current_adgroups\np4451\nI1\nsVrun_status\np4452\nI1\nsVtype\np4453\nI1\nsVlink_url\np4454\nVhttp://www.buzzfeed.com/h1/fbad/shameless/our-favorite-moments-from-shameless-thus-far\np4455\nsVview_tag\np4456\ng35\nsa(dp4457\nValt_view_tags\np4458\n(lp4459\nsVbody\np4460\nVIn the age of sharing everything, there are some things you shouldn\'t- Check them out!\np4461\nsVimage_hash\np4462\nVa1ca4d9780de222840a2b0e7d000df3a\np4463\nsVname\np4464\nV15 Regrettable Instagrams-00-00\np4465\nsVtitle\np4466\nV15 Regrettable Instagrams\np4467\nsVcreative_id\np4468\nV6007601090965\np4469\nsVpreview_url\np4470\nVhttp://www.facebook.com/ads/api/creative_preview.php?cid=6007601090965\np4471\nsVid\np4472\nV6007601090965\np4473\nsVimage_url\np4474\nVhttps://fbcdn-creative-a.akamaihd.net/hads-ak-prn1/s110x80/735331_6007601088165_61059_n.jpg\np4475\nsVcount_current_adgroups\np4476\nI1\nsVrun_status\np4477\nI1\nsVtype\np4478\nI1\nsVlink_url\np4479\nVhttp://ad.doubleclick.net/clk;266540055;91014478;g;pc=[TPAS_ID]?http://www.buzzfeed.com/h1/fbad/hbo/15-instagrams-that-girls-will-surely-regret-587n\np4480\nsVview_tag\np4481\ng35\nsa(dp4482\nValt_view_tags\np4483\n(lp4484\nsVbody\np4485\nVIn the age of sharing everything, there are some things you shouldn\'t- Check them out!\np4486\nsVimage_hash\np4487\nVfaafc8197e00d08b1e502b946945ce8f\np4488\nsVname\np4489\nV15 Regrettable Instagrams\np4490\nsVtitle\np4491\nV15 Regrettable Instagrams\np4492\nsVcreative_id\np4493\nV6007601065165\np4494\nsVpreview_url\np4495\nVhttp://www.facebook.com/ads/api/creative_preview.php?cid=6007601065165\np4496\nsVid\np4497\nV6007601065165\np4498\nsVimage_url\np4499\nVhttps://fbcdn-creative-a.akamaihd.net/hads-ak-ash3/s110x80/735349_6007601012765_27622_n.jpg\np4500\nsVcount_current_adgroups\np4501\nI1\nsVrun_statu'
p6
sS'hash'
p7
S'f1fc18fbecf6a8166d34ccd8bdb83f16e03675a6'
p8
sS'stack'
p9
S''
s.