(dp1
S'args'
p2
S''
sS'methodname'
p3
S''
sS'packet_num'
p4
I134
sS'returnval'
p5
S'965\np16820\nsVpreview_url\np16821\nVhttp://www.facebook.com/ads/api/creative_preview.php?cid=6006258400965\np16822\nsVid\np16823\nV6006258400965\np16824\nsVimage_url\np16825\nVhttps://fbcdn-creative-a.akamaihd.net/hads-ak-prn1/s110x80/708185_6006844146365_23785_n.png\np16826\nsVcount_current_adgroups\np16827\nI1\nsVrun_status\np16828\nI1\nsVtype\np16829\nI1\nsVlink_url\np16830\nVhttp://ad.doubleclick.net/clk;263772519;89472708;a\np16831\nsVview_tag\np16832\ng35\nsa(dp16833\nValt_view_tags\np16834\n(lp16835\nsVbody\np16836\nVCheck out these "23 Foods That Will Make Your Thanksgiving Delightful" on BuzzFeed!\np16837\nsVimage_hash\np16838\nV86143c5b7c1ab3daea99f70058b13cc4\np16839\nsVname\np16840\nVThanksgiving Done Right\np16841\nsVtitle\np16842\nVThanksgiving Done Right\np16843\nsVcreative_id\np16844\nV6006255056965\np16845\nsVpreview_url\np16846\nVhttp://www.facebook.com/ads/api/creative_preview.php?cid=6006255056965\np16847\nsVid\np16848\nV6006255056965\np16849\nsVimage_url\np16850\nVhttps://fbcdn-creative-a.akamaihd.net/hads-ak-prn1/s110x80/708187_6006844850765_2428_n.png\np16851\nsVcount_current_adgroups\np16852\nI1\nsVrun_status\np16853\nI1\nsVtype\np16854\nI1\nsVlink_url\np16855\nVhttp://ad.doubleclick.net/clk;263772508;89472705;v\np16856\nsVview_tag\np16857\ng35\nsa(dp16858\nVname\np16859\nVAd from a Page post #6,006,237,624,165\np16860\nsVauto_update\np16861\nI00\nsVstory_id\np16862\nV302444186532748\np16863\nsVcreative_id\np16864\nV6006237624165\np16865\nsVpreview_url\np16866\nVhttp://www.facebook.com/ads/api/creative_preview.php?cid=6006237624165\np16867\nsVaction_t\np16868\nVBgABAQcIAAZQoqsCCgAJAAAAAImt0MwKABAAANiljfVJYg0AGgYKAAAACwEKAAAAAAAAAFAAuAABExJGTXuMALkAAAAAAAAAZAC6AADb0+yDiFQCIwAAAAAAAAAIAMMAAABPVFI0HgG7AAAAAAAAAGoACgAAAACJrdDMAAEAARMSRk17jAG2AAAAAFCiqwIB5AABExJGTXuMDQAbBgsAAAABQAMAAAFNVHJhdmVsIHRoZSB3b3JsZCB3aXRob3V0IGxlYXZpbmcgaG9tZS4uLmh0dHA6Ly9iemZkLml0L1NWT1NTRCBvb29vbyAxMCBPbmxpbmUgRXhwZXJpZW5jZXMgVGhhdCBXaWxsIE1ha2UgWW91IEZlZWwgTGlrZSBZb3UncmUgUmVhbGx5IFRoZXJlIG9vb29vIFdvdWxkbid0IGl0IGJlIG5pY2UgdG8gdHJhdmVsIGZvciBmcmVlPyBUaGVzZSBvbmxpbmUgZXhwZXJpZW5jZXMgYXJlIHNvIGNsb3NlIHRvIHRoZSByZWFsIHRoaW5nLCB5b3UnbGwgZmVlbCBsaWtlIHlvdSdyZSBhY3R1YWxseSBvbiB0aGUgYmVhY2gsIGF0IHRoZSBtdXNldW0sIG9yIGV2ZW4gb24gdGhlIG1vb24uIFlvdSBjLi4uCgAcAAETEkZNe4wA\np16869\nsVaction_spec\np16870\nNsVobject_id\np16871\nV238205562866018\np16872\nsVcount_current_adgroups\np16873\nI1\nsVrun_status\np16874\nI1\nsVtype\np16875\nI27\nsVid\np16876\nV6006237624165\np16877\nsa(dp16878\nValt_view_tags\np16879\n(lp16880\nsVbody\np16881\nVNot the best place to put that ad. See more of the "Most Awkward Ad Placements" here!\np16882\nsVimage_hash\np16883\nV17bc7f492705e1d024571d1eb3d5fc24\np16884\nsVname\np16885\nVBond Shooting Lincoln?-00\np16886\nsVtitle\np16887\nVHow Did This Happen?\np16888\nsVcreative_id\np16889\nV6006254020765\np16890\nsVpreview_url\np16891\nVhttp://www.facebook.com/ads/api/creative_preview.php?cid=6006254020765\np16892\nsVid\np16893\nV6006254020765\np16894\nsVimage_url\np16895\nVhttps://fbcdn-creative-a.akamaihd.net/hads-ak-ash3/s110x80/708175_6006844199365_24424_n.png\np16896\nsVcount_current_adgroups\np16897\nI1\nsVrun_status\np16898\nI1\nsVtype\np16899\nI1\nsVlink_url\np16900\nVhttp://www.buzzfeed.com/h1/fbad/virginmobilelive/the-20-most-awkward-ad-placements-ever-5l87\np16901\nsVview_tag\np16902\ng35\nsa(dp16903\nValt_view_tags\np16904\n(lp16905\nsVbody\np16906\nVNot the best place to put that ad. See more of the "Most Awkward Ad Placements" here!\np16907\nsVimage_hash\np16908\nVb3f04e0049fcad750ebfd2bbdf231d2f\np16909\nsVname\np16910\nVBond Shooting Lincoln?\np16911\nsVtitle\np16912\nVBond Shooting Lincoln?\np16913\nsVcreative_id\np16914\nV6006249776765\np16915\nsVpreview_url\np16916\nVhttp://www.facebook.com/ads/api/creative_preview.php?cid=6006249776765\np16917\nsVid\np16918\nV6006249776765\np16919\nsVimage_url\np16920\nVhttps://fbcdn-creative-a.akamaihd.net/hads-ak-ash3/s110x80/708188_6006845132765_53009_n.png\np16921\nsVcount_current_adgroups\np16922\nI1\nsVrun_status\np16923\nI1\nsVtype\np16924\nI1\nsVlink_url\np16925\nVhttp://www.buzzfeed.com/h1/fbad/virginmobilelive/the-20-most-awkward-ad-placements-ever-5l87\np16926\nsVview_tag\np16927\ng35\nsa(dp16928\nValt_view_tags\np16929\n(lp16930\nsVbody\np16931\nVWonder if the ride is as smooth as'
p6
sS'hash'
p7
S'f1fc18fbecf6a8166d34ccd8bdb83f16e03675a6'
p8
sS'stack'
p9
S''
s.