(dp1
S'args'
p2
S''
sS'methodname'
p3
S''
sS'packet_num'
p4
I61
sS'returnval'
p5
S'80/735358_6007331719165_29501_n.jpg\np7620\nsVcount_current_adgroups\np7621\nI1\nsVrun_status\np7622\nI1\nsVtype\np7623\nI1\nsVlink_url\np7624\nVhttp://www.buzzfeed.com/h1/fbad/boxee/16-things-we-should-stop-doing-in-2013\np7625\nsVview_tag\np7626\ng35\nsa(dp7627\nValt_view_tags\np7628\n(lp7629\nsVbody\np7630\nVJust One of the 2012 Fashion Trends That Could\'ve Gone Unshared - See them all!\np7631\nsVimage_hash\np7632\nV326fb1b4c9bf39fd6e6a38880b2b2c42\np7633\nsVname\np7634\nVClaw Nails-00-00-00\np7635\nsVtitle\np7636\nVThe Skrillex \'Do\np7637\nsVcreative_id\np7638\nV6007329529365\np7639\nsVpreview_url\np7640\nVhttp://www.facebook.com/ads/api/creative_preview.php?cid=6007329529365\np7641\nsVid\np7642\nV6007329529365\np7643\nsVimage_url\np7644\nVhttps://fbcdn-creative-a.akamaihd.net/hads-ak-ash3/s110x80/701887_6007329517165_52619_n.jpg\np7645\nsVcount_current_adgroups\np7646\nI1\nsVrun_status\np7647\nI1\nsVtype\np7648\nI1\nsVlink_url\np7649\nVhttp://ad.doubleclick.net/clk;266123085;91730184;f;pc=[TPAS_ID]?http://www.buzzfeed.com/h1/fbad/tacobell/2012-fashion-statements-that-couldve-gone-unshare\np7650\nsVview_tag\np7651\ng35\nsa(dp7652\nValt_view_tags\np7653\n(lp7654\nsVbody\np7655\nVJust One of the 2012 Fashion Trends That Could\'ve Gone Unshared - See them all!\np7656\nsVimage_hash\np7657\nVc91ab2d612dbe4d273d309d7af1cfc69\np7658\nsVname\np7659\nVClaw Nails-00\np7660\nsVtitle\np7661\nVStuds Everywhere!\np7662\nsVcreative_id\np7663\nV6007329503965\np7664\nsVpreview_url\np7665\nVhttp://www.facebook.com/ads/api/creative_preview.php?cid=6007329503965\np7666\nsVid\np7667\nV6007329503965\np7668\nsVimage_url\np7669\nVhttps://fbcdn-creative-a.akamaihd.net/hads-ak-ash3/s110x80/735350_6007329443565_35489_n.jpg\np7670\nsVcount_current_adgroups\np7671\nI1\nsVrun_status\np7672\nI1\nsVtype\np7673\nI1\nsVlink_url\np7674\nVhttp://ad.doubleclick.net/clk;266123085;91730184;f;pc=[TPAS_ID]?http://www.buzzfeed.com/h1/fbad/tacobell/2012-fashion-statements-that-couldve-gone-unshare\np7675\nsVview_tag\np7676\ng35\nsa(dp7677\nValt_view_tags\np7678\n(lp7679\nsVbody\np7680\nVJust One of the 2012 Fashion Trends That Could\'ve Gone Unshared - See them all!\np7681\nsVimage_hash\np7682\nVab0e0192283c77330aa112009e4be8c8\np7683\nsVname\np7684\nVClaw Nails-00-00\np7685\nsVtitle\np7686\nVSky-High Platforms\np7687\nsVcreative_id\np7688\nV6007329512165\np7689\nsVpreview_url\np7690\nVhttp://www.facebook.com/ads/api/creative_preview.php?cid=6007329512165\np7691\nsVid\np7692\nV6007329512165\np7693\nsVimage_url\np7694\nVhttps://fbcdn-creative-a.akamaihd.net/hads-ak-prn1/s110x80/735334_6007329441765_63635_n.jpg\np7695\nsVcount_current_adgroups\np7696\nI1\nsVrun_status\np7697\nI1\nsVtype\np7698\nI1\nsVlink_url\np7699\nVhttp://ad.doubleclick.net/clk;266123085;91730184;f;pc=[TPAS_ID]?http://www.buzzfeed.com/h1/fbad/tacobell/2012-fashion-statements-that-couldve-gone-unshare\np7700\nsVview_tag\np7701\ng35\nsa(dp7702\nValt_view_tags\np7703\n(lp7704\nsVbody\np7705\nVJust One of the 2012 Fashion Trends That Could\'ve Gone Unshared - See them all!\np7706\nsVimage_hash\np7707\nV0095330311fe0017cedaceefa1573749\np7708\nsVname\np7709\nVClaw Nails\np7710\nsVtitle\np7711\nVClaw Nails\np7712\nsVcreative_id\np7713\nV6007329436765\np7714\nsVpreview_url\np7715\nVhttp://www.facebook.com/ads/api/creative_preview.php?cid=6007329436765\np7716\nsVid\np7717\nV6007329436765\np7718\nsVimage_url\np7719\nVhttps://fbcdn-creative-a.akamaihd.net/hads-ak-ash3/s110x80/735297_6007329331765_36282_n.jpg\np7720\nsVcount_current_adgroups\np7721\nI1\nsVrun_status\np7722\nI1\nsVtype\np7723\nI1\nsVlink_url\np7724\nVhttp://ad.doubleclick.net/clk;266123085;91730184;f;pc=[TPAS_ID]?http://www.buzzfeed.com/h1/fbad/tacobell/2012-fashion-statements-that-couldve-gone-unshare\np7725\nsVview_tag\np7726\ng35\nsa(dp7727\nValt_view_tags\np7728\n(lp7729\nsVbody\np7730\nVThis meme and more, in our list of the "30 Most Delightful Moments From 2012" on BuzzFeed!\np7731\nsVimage_hash\np7732\nV2c6e234a1aedfa730981d357af2269af\np7733\nsVname\np7734\nVMcKayla is not impressed!-00\np7735\nsVtitle\np7736\nVThe Infamous Grumpy Cat!\np7737\nsVcreative_id\np7738\nV6007328546365\np7739\nsVpreview_url\np7740\nVhttp://www.facebook.com/ads/api/creative_preview.php?cid=6007328546365\np7741\nsVid\np7742\nV6007328546365\np7743\nsVimage_url\np7744\nVhttps://fbcdn-creative-a.akamaihd.net/hads-'
p6
sS'hash'
p7
S'f1fc18fbecf6a8166d34ccd8bdb83f16e03675a6'
p8
sS'stack'
p9
S''
s.