(dp1
S'args'
p2
S''
sS'methodname'
p3
S''
sS'packet_num'
p4
I28
sS'returnval'
p5
S'03\nI1\nsVlink_url\np3504\nVhttp://ad.doubleclick.net/clk;266543194;92810455;n?http://www.buzzfeed.com/h1/fbad/syfy/13-phobias-youve-probably-never-heard-of-6wms\np3505\nsVview_tag\np3506\ng35\nsa(dp3507\nValt_view_tags\np3508\n(lp3509\nsVbody\np3510\nVIt\'s called Lutraphobia. See more of the "13 Phobias You\\u2019ve Probably Never Heard Of" here!\np3511\nsVimage_hash\np3512\nVec2417160293b22114e55cc94b222d51\np3513\nsVname\np3514\nVFear Of Otters?\np3515\nsVtitle\np3516\nVFear Of Otters?\np3517\nsVcreative_id\np3518\nV6007508826365\np3519\nsVpreview_url\np3520\nVhttp://www.facebook.com/ads/api/creative_preview.php?cid=6007508826365\np3521\nsVid\np3522\nV6007508826365\np3523\nsVimage_url\np3524\nVhttps://fbcdn-creative-a.akamaihd.net/hads-ak-prn1/s110x80/735319_6007508793565_43570_n.jpg\np3525\nsVcount_current_adgroups\np3526\nI1\nsVrun_status\np3527\nI1\nsVtype\np3528\nI1\nsVlink_url\np3529\nVhttp://ad.doubleclick.net/clk;266543194;92810455;n?http://www.buzzfeed.com/h1/fbad/syfy/13-phobias-youve-probably-never-heard-of-6wms\np3530\nsVview_tag\np3531\ng35\nsa(dp3532\nValt_view_tags\np3533\n(lp3534\nsVbody\np3535\nVJust One of the "10 Mistakes GIRLS Always Regret The Morning After" - See them all!\np3536\nsVimage_hash\np3537\nVcbaed719b08266dc4e7df69fc0d0a532\np3538\nsVname\np3539\nVDon\'t Overdo the Tan!-00-01\np3540\nsVtitle\np3541\nVGetting Back w/Your Ex\np3542\nsVcreative_id\np3543\nV6007600911165\np3544\nsVpreview_url\np3545\nVhttp://www.facebook.com/ads/api/creative_preview.php?cid=6007600911165\np3546\nsVid\np3547\nV6007600911165\np3548\nsVimage_url\np3549\nVhttps://fbcdn-creative-a.akamaihd.net/hads-ak-ash3/s110x80/735337_6007600689365_44263_n.jpg\np3550\nsVcount_current_adgroups\np3551\nI1\nsVrun_status\np3552\nI1\nsVtype\np3553\nI1\nsVlink_url\np3554\nVhttp://ad.doubleclick.net/clk;266540055;91014478;g;pc=[TPAS_ID]?http://www.buzzfeed.com/h1/fbad/hbo/10-mistakes-girls-always-regret-the-morning-after-587n\np3555\nsVview_tag\np3556\ng35\nsa(dp3557\nValt_view_tags\np3558\n(lp3559\nsVbody\np3560\nVJust One of the "10 Mistakes GIRLS Always Regret The Morning After" - See them all!\np3561\nsVimage_hash\np3562\nV14006715545035a3e12f2a17d34c89dd\np3563\nsVname\np3564\nVDon\'t Overdo the Tan!-00-01-00\np3565\nsVtitle\np3566\nVTaking that Selfie\np3567\nsVcreative_id\np3568\nV6007600948165\np3569\nsVpreview_url\np3570\nVhttp://www.facebook.com/ads/api/creative_preview.php?cid=6007600948165\np3571\nsVid\np3572\nV6007600948165\np3573\nsVimage_url\np3574\nVhttps://fbcdn-creative-a.akamaihd.net/hads-ak-ash3/s110x80/735358_6007600917165_29975_n.jpg\np3575\nsVcount_current_adgroups\np3576\nI1\nsVrun_status\np3577\nI1\nsVtype\np3578\nI1\nsVlink_url\np3579\nVhttp://ad.doubleclick.net/clk;266540055;91014478;g;pc=[TPAS_ID]?http://www.buzzfeed.com/h1/fbad/hbo/10-mistakes-girls-always-regret-the-morning-after-587n\np3580\nsVview_tag\np3581\ng35\nsa(dp3582\nValt_view_tags\np3583\n(lp3584\nsVbody\np3585\nVHere\'s Lady Gaga visiting a slum in Rio de Janeiro - See the whole list on BuzzFeed!\np3586\nsVimage_hash\np3587\nVec80cbc47bcfd260be18e48013a10374\np3588\nsVname\np3589\nV11 Nicest Celebrities\np3590\nsVtitle\np3591\nV11 Nicest Celebrities\np3592\nsVcreative_id\np3593\nV6007602562165\np3594\nsVpreview_url\np3595\nVhttp://www.facebook.com/ads/api/creative_preview.php?cid=6007602562165\np3596\nsVid\np3597\nV6007602562165\np3598\nsVimage_url\np3599\nVhttps://fbcdn-creative-a.akamaihd.net/hads-ak-prn1/s110x80/735334_6007602501765_19959_n.jpg\np3600\nsVcount_current_adgroups\np3601\nI1\nsVrun_status\np3602\nI1\nsVtype\np3603\nI1\nsVlink_url\np3604\nVhttp://ad.doubleclick.net/clk;266305998;92196608;c;pc=[TPAS_ID]?http://www.buzzfeed.com/h1/fbad/jimmykimmellive/11-of-the-nicest-celebrities-ever\np3605\nsVview_tag\np3606\ng35\nsa(dp3607\nValt_view_tags\np3608\n(lp3609\nsVbody\np3610\nVRemember Jennifer Lawrence helped an unconscious women? See the whole list on BuzzFeed!\np3611\nsVimage_hash\np3612\nV7476900aa77f780f6d00eaa1157b4302\np3613\nsVname\np3614\nV11 Nicest Celebrities-00\np3615\nsVtitle\np3616\nV11 Nicest Celebrities\np3617\nsVcreative_id\np3618\nV6007602613365\np3619\nsVpreview_url\np3620\nVhttp://www.facebook.com/ads/api/creative_preview.php?cid=6007602613365\np3621\nsVid\np3622\nV6007602613365\np3623\nsVimage_url\np3624\nVhttps://fbcdn-creative-a.akamaihd.net/hads-ak-ash3/s110'
p6
sS'hash'
p7
S'f1fc18fbecf6a8166d34ccd8bdb83f16e03675a6'
p8
sS'stack'
p9
S''
s.