(dp1
S'args'
p2
S''
sS'methodname'
p3
S''
sS'packet_num'
p4
I116
sS'returnval'
p5
S'557\nsVaction_t\np14558\nVBgABAQcIAAZQtokkCgAJAAAAAImt0MwKABAAANiljfVJYg0AGgYKAAAACwEKAAAAAAAAAFAAuAABk3dd5JfDALkAAAAAAAAAZAC6AAFWdip+YgsCIwAAAAAAAAAIAMMAAABPVFI0HgG7AAAAAAAAAGoACgAAAACJrdDMAAEAAZN3XeSXwwG2AAAAAFC2iSQB5AABk3dd5JfDDQAbBgsAAAABQAMAAAFNQXdlc29tZSBwYXJ0eSBoYWNrcyBqdXN0IGluIHRpbWUgZm9yIHRoZSBIb2xpZGF5J3MgaHR0cDovL2J6ZmQuaXQvUU1OOUE2IG9vb29vIDkgUmVhbGx5IENsb3NlIEVxdWl2YWxlbnRzIE9mIFN1cGVyIEV4cGVuc2l2ZSBGb29kcyBvb29vbyBJdCdzIHByZXR0eSBlYXN5IHRvIGVuam95IGdyZWF0IGZvb2Qgd2l0aG91dCBzcGVuZGluZyBsb3RzIG9mIG1vbmV5IHRoZXNlIGRheXMuIENoZWNrIG91dCBzb21lIHdheXMgdG8gYWZmb3JkYWJseSBlbmpveSB0aGUgZmluZXIgdGFzdGVzL3RoaW5ncyBpbiBsaWZlLCBhbmQgdGhhdCBpbmNsdWRlcyB0cnlpbmcgbGlrZSBDb2NvbnV0IEN1Li4uCgAcAAGTd13kl8MA\np14559\nsVaction_spec\np14560\nNsVobject_id\np14561\nV238205562866018\np14562\nsVcount_current_adgroups\np14563\nI1\nsVrun_status\np14564\nI1\nsVtype\np14565\nI27\nsVid\np14566\nV6006474714565\np14567\nsa(dp14568\nValt_view_tags\np14569\n(lp14570\nsVbody\np14571\nVCheck out these "15 Bite-Sized Versions Of Your Favorite Foods" on BuzzFeed!\np14572\nsVimage_hash\np14573\nV45dcbce2220057afb8341856b7ef6d67\np14574\nsVname\np14575\nVTiny Pancakes\np14576\nsVtitle\np14577\nVTiny Pancakes\np14578\nsVcreative_id\np14579\nV6006474578965\np14580\nsVpreview_url\np14581\nVhttp://www.facebook.com/ads/api/creative_preview.php?cid=6006474578965\np14582\nsVid\np14583\nV6006474578965\np14584\nsVimage_url\np14585\nVhttps://fbcdn-creative-a.akamaihd.net/hads-ak-prn1/s110x80/708179_6006474514765_21044_n.jpg\np14586\nsVcount_current_adgroups\np14587\nI1\nsVrun_status\np14588\nI1\nsVtype\np14589\nI1\nsVlink_url\np14590\nVhttp://www.buzzfeed.com/h1/fbad/campbellsgo/15-bite-sized-versions-of-your-favorite-foods\np14591\nsVview_tag\np14592\ng35\nsa(dp14593\nValt_view_tags\np14594\n(lp14595\nsVbody\np14596\nVThe "Shahs of Sunset" returns in December. See the family suit up to bring Persian back!\np14597\nsVimage_hash\np14598\nVaa05cb524a5cd85174a26d149ebd39b8\np14599\nsVname\np14600\nVBringing Persian Back\np14601\nsVtitle\np14602\nVBringing Persian Back\np14603\nsVcreative_id\np14604\nV6006455389765\np14605\nsVpreview_url\np14606\nVhttp://www.facebook.com/ads/api/creative_preview.php?cid=6006455389765\np14607\nsVid\np14608\nV6006455389765\np14609\nsVimage_url\np14610\nVhttps://fbcdn-creative-a.akamaihd.net/hads-ak-prn1/s110x80/708187_6006845071365_6804_n.png\np14611\nsVcount_current_adgroups\np14612\nI1\nsVrun_status\np14613\nI1\nsVtype\np14614\nI1\nsVlink_url\np14615\nVhttp://ad.doubleclick.net/clk;264977123;90797132;s?http://www.buzzfeed.com/h1/fbad/shahsofsunset/the-shahs-of-sunset-suit-up-to-bring-persian-back-7y4j\np14616\nsVview_tag\np14617\ng35\nsa(dp14618\nValt_view_tags\np14619\n(lp14620\nsVbody\np14621\nVCheck out more "Pop Superstars Who Got Their Start On YouTube" on BuzzFeed!\np14622\nsVimage_hash\np14623\nV7e1aff72f2fc5017b551700f43dc1c4d\np14624\nsVname\np14625\nVGangnam Style!-00\np14626\nsVtitle\np14627\nVBieber Fever!\np14628\nsVcreative_id\np14629\nV6006067631165\np14630\nsVpreview_url\np14631\nVhttp://www.facebook.com/ads/api/creative_preview.php?cid=6006067631165\np14632\nsVid\np14633\nV6006067631165\np14634\nsVimage_url\np14635\nVhttps://fbcdn-creative-a.akamaihd.net/hads-ak-ash3/s110x80/708186_6006844805365_29287_n.jpg\np14636\nsVcount_current_adgroups\np14637\nI1\nsVrun_status\np14638\nI1\nsVtype\np14639\nI1\nsVlink_url\np14640\nVhttp://www.buzzfeed.com/h1/fbad/beatsbydre/5-pop-superstars-who-got-their-start-on-youtube\np14641\nsVview_tag\np14642\ng35\nsa(dp14643\nValt_view_tags\np14644\n(lp14645\nsVbody\np14646\nVSometimes none of us get it right. See the"10 Of The All-Time Most Misheard Song Lyrics!"\np14647\nsVimage_hash\np14648\nVd1d7bbd6177e0734f000c05469575385\np14649\nsVname\np14650\nVOpen Gundam Style?\np14651\nsVtitle\np14652\nVOpen Gundam Style?\np14653\nsVcreative_id\np14654\nV6006154328765\np14655\nsVpreview_url\np14656\nVhttp://www.facebook.com/ads/api/creative_preview.php?cid=6006154328765\np14657\nsVid\np14658\nV6006154328765\np14659\nsVimage_url\np14660\nVhttps://fbcdn-creative-a.akamaihd.net/hads-ak-ash3/s110x80/701888_6006845305965_49014_n.png\np14661\nsVcount_current_adgroups\np14662\nI1\nsVrun_status\np14663\nI1\nsVtype\np14664\nI1\nsVlink_url\np14665\nVhttp://www.buzzfeed.com/h1/fbad/beatsbydre/10-of-the-all-time-most-mishea'
p6
sS'hash'
p7
S'f1fc18fbecf6a8166d34ccd8bdb83f16e03675a6'
p8
sS'stack'
p9
S''
s.