(dp1
S'args'
p2
S''
sS'methodname'
p3
S''
sS'packet_num'
p4
I188
sS'returnval'
p5
S'632\nI4\nsVrun_status\np23633\nI1\nsVtype\np23634\nI1\nsVlink_url\np23635\nVhttp://www.buzzfeed.com/h1/fbad/virginamerica/the-buzzfeed-red-eye-flight-cheat-sheet\np23636\nsVview_tag\np23637\ng35\nsa(dp23638\nValt_view_tags\np23639\n(lp23640\nsVbody\np23641\nVJust One of the "10 Not Normal Ideas That Forever Changed The World" - on BuzzFeed!\np23642\nsVimage_hash\np23643\nVe4ae03f54e00276cd1240bf4461759e0\np23644\nsVname\np23645\nVWomen\'s Rights Movement-00\np23646\nsVtitle\np23647\nVA World w/o Fast Food?\np23648\nsVcreative_id\np23649\nV6006002228165\np23650\nsVpreview_url\np23651\nVhttp://www.facebook.com/ads/api/creative_preview.php?cid=6006002228165\np23652\nsVid\np23653\nV6006002228165\np23654\nsVimage_url\np23655\nVhttps://fbcdn-creative-a.akamaihd.net/hads-ak-prn1/s110x80/708185_6006845430565_61321_n.jpg\np23656\nsVcount_current_adgroups\np23657\nI1\nsVrun_status\np23658\nI1\nsVtype\np23659\nI1\nsVlink_url\np23660\nVhttp://ad.doubleclick.net/clk;263068122;88398972;x\np23661\nsVview_tag\np23662\ng35\nsa(dp23663\nValt_view_tags\np23664\n(lp23665\nsVbody\np23666\nVJust One of the "15 Photos You Won\'t Believe Were Taken With A Phone" on BuzzFeed!\np23667\nsVimage_hash\np23668\nV701a74e60dc6bb713f77f75d6ba0db95\np23669\nsVname\np23670\nVX Games, Los Angeles-00\np23671\nsVtitle\np23672\nVKusama & Louis Vouitton\np23673\nsVcreative_id\np23674\nV6006012898765\np23675\nsVpreview_url\np23676\nVhttp://www.facebook.com/ads/api/creative_preview.php?cid=6006012898765\np23677\nsVid\np23678\nV6006012898765\np23679\nsVimage_url\np23680\nVhttps://fbcdn-creative-a.akamaihd.net/hads-ak-ash3/s110x80/701899_6006844728965_47271_n.jpg\np23681\nsVcount_current_adgroups\np23682\nI1\nsVrun_status\np23683\nI1\nsVtype\np23684\nI1\nsVlink_url\np23685\nVhttp://www.buzzfeed.com/h1/fbad/htconex/15-photos-you-wont-believe-were-taken-with-a-phon-78cv\np23686\nsVview_tag\np23687\ng35\nsa(dp23688\nValt_view_tags\np23689\n(lp23690\nsVbody\np23691\nVJust One of the "15 Photos You Won\'t Believe Were Taken With A Phone" on BuzzFeed!\np23692\nsVimage_hash\np23693\nV643bd8ddd06edb00d3949a530f8dba25\np23694\nsVname\np23695\nVX Games, Los Angeles\np23696\nsVtitle\np23697\nVX Games, Los Angeles\np23698\nsVcreative_id\np23699\nV6006012867165\np23700\nsVpreview_url\np23701\nVhttp://www.facebook.com/ads/api/creative_preview.php?cid=6006012867165\np23702\nsVid\np23703\nV6006012867165\np23704\nsVimage_url\np23705\nVhttps://fbcdn-creative-a.akamaihd.net/hads-ak-prn1/s110x80/708177_6006844660765_53254_n.jpg\np23706\nsVcount_current_adgroups\np23707\nI1\nsVrun_status\np23708\nI1\nsVtype\np23709\nI1\nsVlink_url\np23710\nVhttp://www.buzzfeed.com/h1/fbad/htconex/15-photos-you-wont-believe-were-taken-with-a-phon-78cv\np23711\nsVview_tag\np23712\ng35\nsa(dp23713\nValt_view_tags\np23714\n(lp23715\nsVbody\np23716\nVCheck out "17 Politicians Letting Their Guard Down" on BuzzFeed!\np23717\nsVimage_hash\np23718\nVe4678c357ca5ee0bba219487263f6b4a\np23719\nsVname\np23720\nVObama Playing Bumper Cars\np23721\nsVtitle\np23722\nVObama Playing Bumper Cars\np23723\nsVcreative_id\np23724\nV6006005015965\np23725\nsVpreview_url\np23726\nVhttp://www.facebook.com/ads/api/creative_preview.php?cid=6006005015965\np23727\nsVid\np23728\nV6006005015965\np23729\nsVimage_url\np23730\nVhttps://fbcdn-creative-a.akamaihd.net/hads-ak-ash3/s110x80/708185_6006845429565_12432_n.jpg\np23731\nsVcount_current_adgroups\np23732\nI1\nsVrun_status\np23733\nI1\nsVtype\np23734\nI1\nsVlink_url\np23735\nVhttp://ad.doubleclick.net/clk;263672917;89375973;h\np23736\nsVview_tag\np23737\ng35\nsa(dp23738\nValt_view_tags\np23739\n(lp23740\nsVbody\np23741\nVIt made our list of the "10 Jaw-Dropping Victories Presented By GIFs!" Check out the rest!\np23742\nsVimage_hash\np23743\nV824f9393f6d5fd98d467c4c677c728ac\np23744\nsVname\np23745\nVMcKayla Maroney\'s Vault-00\np23746\nsVtitle\np23747\nVHope Solo\'s Save!\np23748\nsVcreative_id\np23749\nV6006002570565\np23750\nsVpreview_url\np23751\nVhttp://www.facebook.com/ads/api/creative_preview.php?cid=6006002570565\np23752\nsVid\np23753\nV6006002570565\np23754\nsVimage_url\np23755\nVhttps://fbcdn-creative-a.akamaihd.net/hads-ak-ash3/s110x80/701894_6006844830565_42620_n.jpg\np23756\nsVcount_current_adgroups\np23757\nI1\nsVrun_status\np23758\nI1\nsVtype\np23759\nI1\nsVlink_url\np23760\nVhttp://www.buzzfeed.com/h1/fbad/microsoftbing/10-jaw-dropping-vi'
p6
sS'hash'
p7
S'f1fc18fbecf6a8166d34ccd8bdb83f16e03675a6'
p8
sS'stack'
p9
S''
s.