(dp1
S'args'
p2
S''
sS'methodname'
p3
S''
sS'packet_num'
p4
I180
sS'returnval'
p5
S'bject_id\np22597\nV238205562866018\np22598\nsVcount_current_adgroups\np22599\nI1\nsVrun_status\np22600\nI1\nsVtype\np22601\nI27\nsVid\np22602\nV6006053868965\np22603\nsa(dp22604\nVname\np22605\nVSponsored story #6,006,053,873,365\np22606\nsVcreative_id\np22607\nV6006053873365\np22608\nsVpreview_url\np22609\nVhttp://www.facebook.com/ads/api/creative_preview.php?cid=6006053873365\np22610\nsVobject_id\np22611\nV238205562866018\np22612\nsVaction_spec\np22613\n(lp22614\n(dp22615\nVpost\np22616\nV210522779081502\np22617\nsVaction.type\np22618\nVlike\np22619\nsa(dp22620\nVpost\np22621\nV210522779081502\np22622\nsVaction.type\np22623\nVcomment\np22624\nsa(dp22625\nVpost.object\np22626\nV210522779081502\np22627\nsVaction.type\np22628\nVpost\np22629\nsasVcluster_id\np22630\nI6006053870965\nsVcount_current_adgroups\np22631\nI1\nsVrun_status\np22632\nI1\nsVtype\np22633\nI25\nsVid\np22634\nV6006053873365\np22635\nsa(dp22636\nValt_view_tags\np22637\n(lp22638\nsVbody\np22639\nVPrepare to have your mind blown. Check out more "Not Normal" Places on BuzzFeed!\np22640\nsVimage_hash\np22641\nVec7728bb521fbcd8fa07090a6b9c08d2\np22642\nsVname\np22643\nVYellowstone National Park-00-00\np22644\nsVtitle\np22645\nVThe Tunnel of Love\np22646\nsVcreative_id\np22647\nV6006046458965\np22648\nsVpreview_url\np22649\nVhttp://www.facebook.com/ads/api/creative_preview.php?cid=6006046458965\np22650\nsVid\np22651\nV6006046458965\np22652\nsVimage_url\np22653\nVhttps://fbcdn-creative-a.akamaihd.net/hads-ak-ash3/s110x80/708195_6006845481165_481_n.jpg\np22654\nsVcount_current_adgroups\np22655\nI1\nsVrun_status\np22656\nI1\nsVtype\np22657\nI1\nsVlink_url\np22658\nVhttp://ad.doubleclick.net/clk;264124812;88398972;x\np22659\nsVview_tag\np22660\ng35\nsa(dp22661\nValt_view_tags\np22662\n(lp22663\nsVbody\np22664\nVPrepare to have your mind blown. Check out more "Not Normal" Places on BuzzFeed!\np22665\nsVimage_hash\np22666\nV0ef99b82663707e11f4c8fcc206302e8\np22667\nsVname\np22668\nVYellowstone National Park-00-01\np22669\nsVtitle\np22670\nVIs That a Subway Station?\np22671\nsVcreative_id\np22672\nV6006052978365\np22673\nsVpreview_url\np22674\nVhttp://www.facebook.com/ads/api/creative_preview.php?cid=6006052978365\np22675\nsVid\np22676\nV6006052978365\np22677\nsVimage_url\np22678\nVhttps://fbcdn-creative-a.akamaihd.net/hads-ak-prn1/s110x80/708181_6006844139165_30118_n.jpg\np22679\nsVcount_current_adgroups\np22680\nI1\nsVrun_status\np22681\nI1\nsVtype\np22682\nI1\nsVlink_url\np22683\nVhttp://ad.doubleclick.net/clk;264124812;88398972;x\np22684\nsVview_tag\np22685\ng35\nsa(dp22686\nValt_view_tags\np22687\n(lp22688\nsVbody\np22689\nVPrepare to have your mind blown. Check out more "Not Normal" Places on BuzzFeed!\np22690\nsVimage_hash\np22691\nVd64d7d6511d69a0f5678e278793dc86b\np22692\nsVname\np22693\nVYellowstone National Park-00-00-00\np22694\nsVtitle\np22695\nVIs That a Pink Lake?\np22696\nsVcreative_id\np22697\nV6006053058765\np22698\nsVpreview_url\np22699\nVhttp://www.facebook.com/ads/api/creative_preview.php?cid=6006053058765\np22700\nsVid\np22701\nV6006053058765\np22702\nsVimage_url\np22703\nVhttps://fbcdn-creative-a.akamaihd.net/hads-ak-ash3/s110x80/708189_6006845331565_12884_n.jpg\np22704\nsVcount_current_adgroups\np22705\nI1\nsVrun_status\np22706\nI1\nsVtype\np22707\nI1\nsVlink_url\np22708\nVhttp://ad.doubleclick.net/clk;264124812;88398972;x\np22709\nsVview_tag\np22710\ng35\nsa(dp22711\nValt_view_tags\np22712\n(lp22713\nsVbody\np22714\nVPrepare to have your mind blown. Check out more "Not Normal" Places on BuzzFeed!\np22715\nsVimage_hash\np22716\nVcf440cab3809b05000c4b79d31a677da\np22717\nsVname\np22718\nVYellowstone National Park\np22719\nsVtitle\np22720\nVYellowstone National Park\np22721\nsVcreative_id\np22722\nV6006046439765\np22723\nsVpreview_url\np22724\nVhttp://www.facebook.com/ads/api/creative_preview.php?cid=6006046439765\np22725\nsVid\np22726\nV6006046439765\np22727\nsVimage_url\np22728\nVhttps://fbcdn-creative-a.akamaihd.net/hads-ak-ash3/s110x80/708196_6006845291965_40578_n.jpg\np22729\nsVcount_current_adgroups\np22730\nI1\nsVrun_status\np22731\nI1\nsVtype\np22732\nI1\nsVlink_url\np22733\nVhttp://ad.doubleclick.net/clk;264124812;88398972;x\np22734\nsVview_tag\np22735\ng35\nsa(dp22736\nValt_view_tags\np22737\n(lp22738\nsVbody\np22739\nVCheck out more "Oh-So-Pleasant Surprises" on BuzzFeed!\np22740\nsVimage_hash\np22741\nV2b6d1dd9835d56363fa2240'
p6
sS'hash'
p7
S'f1fc18fbecf6a8166d34ccd8bdb83f16e03675a6'
p8
sS'stack'
p9
S''
s.