(dp1
S'args'
p2
S''
sS'methodname'
p3
S''
sS'packet_num'
p4
I159
sS'returnval'
p5
S'p19933\n(lp19934\nsVbody\np19935\nVCheck out these "26 Desserts That Will Delight Your Taste Buds" on BuzzFeed!\np19936\nsVimage_hash\np19937\nVd52ef700f489f27413359f488df2b2bd\np19938\nsVname\np19939\nVLove Dessert?\np19940\nsVtitle\np19941\nVLove Dessert?\np19942\nsVcreative_id\np19943\nV6006071408165\np19944\nsVpreview_url\np19945\nVhttp://www.facebook.com/ads/api/creative_preview.php?cid=6006071408165\np19946\nsVid\np19947\nV6006071408165\np19948\nsVimage_url\np19949\nVhttps://fbcdn-creative-a.akamaihd.net/hads-ak-prn1/s110x80/708164_6006845325165_65029_n.jpg\np19950\nsVcount_current_adgroups\np19951\nI1\nsVrun_status\np19952\nI1\nsVtype\np19953\nI1\nsVlink_url\np19954\nVhttp://ad.doubleclick.net/clk;263772520;89472732;p\np19955\nsVview_tag\np19956\ng35\nsa(dp19957\nValt_view_tags\np19958\n(lp19959\nsVbody\np19960\nVCheck out these "26 Desserts That Will Delight Your Taste Buds" on BuzzFeed!\np19961\nsVimage_hash\np19962\nV171cf7f8659d66595ac334957deb9d7f\np19963\nsVname\np19964\nVLove Dessert?-00-00\np19965\nsVtitle\np19966\nVAwesome Dessert Gifs!\np19967\nsVcreative_id\np19968\nV6006116592365\np19969\nsVpreview_url\np19970\nVhttp://www.facebook.com/ads/api/creative_preview.php?cid=6006116592365\np19971\nsVid\np19972\nV6006116592365\np19973\nsVimage_url\np19974\nVhttps://fbcdn-creative-a.akamaihd.net/hads-ak-ash3/s110x80/708166_6006844193365_63588_n.png\np19975\nsVcount_current_adgroups\np19976\nI1\nsVrun_status\np19977\nI1\nsVtype\np19978\nI1\nsVlink_url\np19979\nVhttp://ad.doubleclick.net/clk;263772520;89472732;p\np19980\nsVview_tag\np19981\ng35\nsa(dp19982\nValt_view_tags\np19983\n(lp19984\nsVbody\np19985\nVCheck out more "Animals That Would Definitely Survive The Apocalypse" on BuzzFeed!\np19986\nsVimage_hash\np19987\nVca6ab66eebcffdd740bdf08ea19ee2fb\np19988\nsVname\np19989\nVSmart Siberian Chipmunks!\np19990\nsVtitle\np19991\nVSmart Siberian Chipmunks!\np19992\nsVcreative_id\np19993\nV6006158497565\np19994\nsVpreview_url\np19995\nVhttp://www.facebook.com/ads/api/creative_preview.php?cid=6006158497565\np19996\nsVid\np19997\nV6006158497565\np19998\nsVimage_url\np19999\nVhttps://fbcdn-creative-a.akamaihd.net/hads-ak-ash3/s110x80/701898_6006845263365_5885_n.png\np20000\nsVcount_current_adgroups\np20001\nI1\nsVrun_status\np20002\nI1\nsVtype\np20003\nI1\nsVlink_url\np20004\nVhttp://ad.doubleclick.net/clk;264679734;90347310;o\np20005\nsVview_tag\np20006\ng35\nsa(dp20007\nValt_view_tags\np20008\n(lp20009\nsVbody\np20010\nVRednecks are quite resourceful. See the "15 Reasons Why It\'s Awesome To Be A Redneck!"\np20011\nsVimage_hash\np20012\nVe05fb71764db7fc01c14708072768d70\np20013\nsVname\np20014\nVHarley/John Deere?\np20015\nsVtitle\np20016\nVHarley/John Deere?\np20017\nsVcreative_id\np20018\nV6006159099965\np20019\nsVpreview_url\np20020\nVhttp://www.facebook.com/ads/api/creative_preview.php?cid=6006159099965\np20021\nsVid\np20022\nV6006159099965\np20023\nsVimage_url\np20024\nVhttps://fbcdn-creative-a.akamaihd.net/hads-ak-prn1/s110x80/708169_6006845395965_9199_n.png\np20025\nsVcount_current_adgroups\np20026\nI1\nsVrun_status\np20027\nI1\nsVtype\np20028\nI1\nsVlink_url\np20029\nVhttp://www.buzzfeed.com/h1/fbad/redneckisland/15-reasons-why-its-awesome-to-be-a-redneck-7hyl\np20030\nsVview_tag\np20031\ng35\nsa(dp20032\nValt_view_tags\np20033\n(lp20034\nsVbody\np20035\nVIf you think that\'s crazy, check out more of the "20 Things You\'ll Only See In The South!"\np20036\nsVimage_hash\np20037\nV7904a5b0ecd4f7d2eb9a47666d593c82\np20038\nsVname\np20039\nVForced To Eat Beard?\np20040\nsVtitle\np20041\nVForced To Eat Beard?\np20042\nsVcreative_id\np20043\nV6006158953165\np20044\nsVpreview_url\np20045\nVhttp://www.facebook.com/ads/api/creative_preview.php?cid=6006158953165\np20046\nsVid\np20047\nV6006158953165\np20048\nsVimage_url\np20049\nVhttps://fbcdn-creative-a.akamaihd.net/hads-ak-prn1/s110x80/708170_6006844780365_13706_n.png\np20050\nsVcount_current_adgroups\np20051\nI1\nsVrun_status\np20052\nI1\nsVtype\np20053\nI1\nsVlink_url\np20054\nVhttp://www.buzzfeed.com/h1/fbad/redneckisland/20-things-youll-only-see-in-the-south-7hyl\np20055\nsVview_tag\np20056\ng35\nsa(dp20057\nValt_view_tags\np20058\n(lp20059\nsVbody\np20060\nVJust One of the "Animals That Would Definitely Survive The Apocalypse" on BuzzFeed!\np20061\nsVimage_hash\np20062\nV276e95d08d4b4a855bad6a917b14ec45\np20063\nsVname\np20064\nVSm'
p6
sS'hash'
p7
S'f1fc18fbecf6a8166d34ccd8bdb83f16e03675a6'
p8
sS'stack'
p9
S''
s.