(dp1
S'args'
p2
S''
sS'methodname'
p3
S''
sS'packet_num'
p4
I102
sS'returnval'
p5
S'ub2xkc3BpY2VzYXZlc3RoZXdvcmxkLmNvbSB0byBzZWUgaWYgeW91IGhhdmUgd2hhdCBpdCB0YWtlcyB0byBoZWxwIHNhdmUgdGhlIHdvcmxkLiBBLi4uCgAcAAF0vsbd63oA\np12732\nsVaction_spec\np12733\nNsVobject_id\np12734\nV238205562866018\np12735\nsVcount_current_adgroups\np12736\nI1\nsVrun_status\np12737\nI1\nsVtype\np12738\nI27\nsVid\np12739\nV6006734201765\np12740\nsa(dp12741\nValt_view_tags\np12742\n(lp12743\nsVbody\np12744\nVSee what other musicians have kitty dopplegangers & check out the "Catify Yourself" app!\np12745\nsVimage_hash\np12746\nV06f6370d1d4e30e3e37a365ead9ae64b\np12747\nsVname\np12748\nVRivers Cuomo & His Twin-00-00\np12749\nsVtitle\np12750\nVMick Jagger & His Twin\np12751\nsVcreative_id\np12752\nV6006733228765\np12753\nsVpreview_url\np12754\nVhttp://www.facebook.com/ads/api/creative_preview.php?cid=6006733228765\np12755\nsVid\np12756\nV6006733228765\np12757\nsVimage_url\np12758\nVhttps://fbcdn-creative-a.akamaihd.net/hads-ak-ash3/s110x80/708184_6006733215365_28193_n.jpg\np12759\nsVcount_current_adgroups\np12760\nI1\nsVrun_status\np12761\nI1\nsVtype\np12762\nI1\nsVlink_url\np12763\nVhttp://ad.doubleclick.net/clk;266023319;91822910;d\np12764\nsVview_tag\np12765\ng35\nsa(dp12766\nValt_view_tags\np12767\n(lp12768\nsVbody\np12769\nVSee what other musicians have kitty dopplegangers & check out the "Catify Yourself" app!\np12770\nsVimage_hash\np12771\nVbf27c85030f7b0ac0ab43a099ba7450c\np12772\nsVname\np12773\nVRivers Cuomo & His Twin-01\np12774\nsVtitle\np12775\nVRivers Cuomo & His Twin\np12776\nsVcreative_id\np12777\nV6006733234565\np12778\nsVpreview_url\np12779\nVhttp://www.facebook.com/ads/api/creative_preview.php?cid=6006733234565\np12780\nsVid\np12781\nV6006733234565\np12782\nsVimage_url\np12783\nVhttps://fbcdn-creative-a.akamaihd.net/hads-ak-ash3/s110x80/708196_6006733128965_19972_n.jpg\np12784\nsVcount_current_adgroups\np12785\nI1\nsVrun_status\np12786\nI1\nsVtype\np12787\nI1\nsVlink_url\np12788\nVhttp://ad.doubleclick.net/clk;266023319;91822910;d\np12789\nsVview_tag\np12790\ng35\nsa(dp12791\nValt_view_tags\np12792\n(lp12793\nsVbody\np12794\nVRemember this scene from "A Christmas Story?" See more of your fave Holiday Movie scenes!\np12795\nsVimage_hash\np12796\nVa973a5737ee13bdcc6444812276e6e60\np12797\nsVname\np12798\nVTriple-Dog Dare-01\np12799\nsVtitle\np12800\nVTriple-Dog Dare\np12801\nsVcreative_id\np12802\nV6006733273965\np12803\nsVpreview_url\np12804\nVhttp://www.facebook.com/ads/api/creative_preview.php?cid=6006733273965\np12805\nsVid\np12806\nV6006733273965\np12807\nsVimage_url\np12808\nVhttps://fbcdn-creative-a.akamaihd.net/hads-ak-prn1/s110x80/708194_6006732230365_58615_n.jpg\np12809\nsVcount_current_adgroups\np12810\nI1\nsVrun_status\np12811\nI1\nsVtype\np12812\nI1\nsVlink_url\np12813\nVhttp://ad.doubleclick.net/clk;266017881;91816167;r\np12814\nsVview_tag\np12815\ng35\nsa(dp12816\nValt_view_tags\np12817\n(lp12818\nsVbody\np12819\nVFrom The Nightmare Before Christmas - Just One of the Most Memorable Holiday Film Scenes!\np12820\nsVimage_hash\np12821\nVa7f75788c51a37317f3aae9f8845a0b5\np12822\nsVname\np12823\nVTriple-Dog Dare-00-00-00\np12824\nsVtitle\np12825\nVJack\'s Serenade\np12826\nsVcreative_id\np12827\nV6006733269965\np12828\nsVpreview_url\np12829\nVhttp://www.facebook.com/ads/api/creative_preview.php?cid=6006733269965\np12830\nsVid\np12831\nV6006733269965\np12832\nsVimage_url\np12833\nVhttps://fbcdn-creative-a.akamaihd.net/hads-ak-prn1/s110x80/708173_6006732327565_4632_n.jpg\np12834\nsVcount_current_adgroups\np12835\nI1\nsVrun_status\np12836\nI1\nsVtype\np12837\nI1\nsVlink_url\np12838\nVhttp://ad.doubleclick.net/clk;266017881;91816167;r\np12839\nsVview_tag\np12840\ng35\nsa(dp12841\nValt_view_tags\np12842\n(lp12843\nsVbody\np12844\nVBuddy gettin\' the munchies - Just One of "10 Most Memorable Scenes From Holiday Movies!"\np12845\nsVimage_hash\np12846\nVa40077a599e13ee105f41f7089cce775\np12847\nsVname\np12848\nVTriple-Dog Dare-00\np12849\nsVtitle\np12850\nVBuddy The Elf\np12851\nsVcreative_id\np12852\nV6006732320365\np12853\nsVpreview_url\np12854\nVhttp://www.facebook.com/ads/api/creative_preview.php?cid=6006732320365\np12855\nsVid\np12856\nV6006732320365\np12857\nsVimage_url\np12858\nVhttps://fbcdn-creative-a.akamaihd.net/hads-ak-ash3/s110x80/708187_6006732304965_4932_n.jpg\np12859\nsVcount_current_adgroups\np12860\nI1\nsVrun_status\np12861\nI1\nsVtype\np12862\nI1\nsVlink_url\np12863\nVht'
p6
sS'hash'
p7
S'f1fc18fbecf6a8166d34ccd8bdb83f16e03675a6'
p8
sS'stack'
p9
S''
s.