(dp1
S'args'
p2
S''
sS'methodname'
p3
S''
sS'packet_num'
p4
I160
sS'returnval'
p5
S'art Siberian Chipmunks!-00\np20065\nsVtitle\np20066\nVColonel Meowww!\np20067\nsVcreative_id\np20068\nV6006158514965\np20069\nsVpreview_url\np20070\nVhttp://www.facebook.com/ads/api/creative_preview.php?cid=6006158514965\np20071\nsVid\np20072\nV6006158514965\np20073\nsVimage_url\np20074\nVhttps://fbcdn-creative-a.akamaihd.net/hads-ak-prn1/s110x80/708161_6006844297165_45423_n.png\np20075\nsVcount_current_adgroups\np20076\nI1\nsVrun_status\np20077\nI1\nsVtype\np20078\nI1\nsVlink_url\np20079\nVhttp://ad.doubleclick.net/clk;264679734;90347310;o\np20080\nsVview_tag\np20081\ng35\nsa(dp20082\nVname\np20083\nVAd from a Page post #6,006,122,909,365\np20084\nsVauto_update\np20085\nI00\nsVurl_tags\np20086\ng35\nsVcreative_id\np20087\nV6006122909365\np20088\nsVaction_t\np20089\nVBgABAQcIAAZQiqw0CgAJAAAAAImt0MwKABAAANiljfVJYg0AGgYKAAAACwEKAAAAAAAAAFAAuAAAb8OIaKQDALkAAAAAAAAAZAC6AAEKA7RhwCACIwAAAAAAAAAIAMMAAABPVFI0HgG7AAAAAAAAAGoACgAAAACJrdDMAAEAAG/DiGikAwG2AAAAAFCKrDQB5AAAb8OIaKQDDQAbBgsAAAABQAMAAAD0V2hhdCBoYXZlIHdlIGJlZW4gZG9pbmcgYWxsIG91ciBsaXZlcz8gaHR0cDovL2J6ZmQuaXQvVnQ5Z3JuIG9vb29vIDEwIFdheXMgWW91IE5ldmVyIEtuZXcgWW91IENvdWxkIEJlY29tZSBBIE1pbGxpb25haXJlIG9vb29vIFdoYXQgaGF2ZSB3ZSBiZWVuIGRvaW5nIGFsbCBvdXIgbGl2ZXM/IEhvd2V2ZXIgeW91IG1ha2UgeW91ciBmaXJzdCBtaWxsaW9uLCBuZXZlciBtaXNzIGEgc2FsZSB3aXRoIEludHVpdCBHb1BheW1lbnQgLgoAHAAAb8OIaKQDAA==\np20090\nsVpreview_url\np20091\nVhttp://www.facebook.com/ads/api/creative_preview.php?cid=6006122909365\np20092\nsVobject_id\np20093\nV238205562866018\np20094\nsVaction_spec\np20095\nNsVcount_current_adgroups\np20096\nI1\nsVstory_id\np20097\nV122885597864963\np20098\nsVrun_status\np20099\nI1\nsVtype\np20100\nI27\nsVid\np20101\nV6006122909365\np20102\nsVlink_type\np20103\ng35\nsa(dp20104\nValt_view_tags\np20105\n(lp20106\nsVbody\np20107\nVOne of "10 Ways You Never Knew You Could Become A Millionaire" see them all on BuzzFeed!\np20108\nsVimage_hash\np20109\nVb590b049aa4b6427d302d492bafbb750\np20110\nsVname\np20111\nVDoggles?-00\np20112\nsVtitle\np20113\nVThe Baby Toupee\np20114\nsVcreative_id\np20115\nV6006158652965\np20116\nsVpreview_url\np20117\nVhttp://www.facebook.com/ads/api/creative_preview.php?cid=6006158652965\np20118\nsVid\np20119\nV6006158652965\np20120\nsVimage_url\np20121\nVhttps://fbcdn-creative-a.akamaihd.net/hads-ak-snc7/s110x80/701899_6006845141965_33424_n.png\np20122\nsVcount_current_adgroups\np20123\nI1\nsVrun_status\np20124\nI1\nsVtype\np20125\nI1\nsVlink_url\np20126\nVhttp://www.buzzfeed.com/h1/fbad/intuitgopayment/10-ways-you-never-knew-you-could-become-a-milliona-7m9i\np20127\nsVview_tag\np20128\ng35\nsa(dp20129\nValt_view_tags\np20130\n(lp20131\nsVbody\np20132\nVOne of "10 Ways You Never Knew You Could Become A Millionaire" see them all on BuzzFeed!\np20133\nsVimage_hash\np20134\nV0e1dcb3cca7c081107e37e391654cd41\np20135\nsVname\np20136\nVDoggles?\np20137\nsVtitle\np20138\nVDoggles?\np20139\nsVcreative_id\np20140\nV6006116564365\np20141\nsVpreview_url\np20142\nVhttp://www.facebook.com/ads/api/creative_preview.php?cid=6006116564365\np20143\nsVid\np20144\nV6006116564365\np20145\nsVimage_url\np20146\nVhttps://fbcdn-creative-a.akamaihd.net/hads-ak-prn1/s110x80/708181_6006844137365_16533_n.png\np20147\nsVcount_current_adgroups\np20148\nI1\nsVrun_status\np20149\nI1\nsVtype\np20150\nI1\nsVlink_url\np20151\nVhttp://www.buzzfeed.com/h1/fbad/intuitgopayment/10-ways-you-never-knew-you-could-become-a-milliona-7m9i\np20152\nsVview_tag\np20153\ng35\nsa(dp20154\nValt_view_tags\np20155\n(lp20156\nsVbody\np20157\nVIt made the list of "The 10 Greatest Dunks Of All Time!" Check out the rest of BuzzFeed!\np20158\nsVimage_hash\np20159\nVaa6b12e302253204ba94a7707fd7674b\np20160\nsVname\np20161\nVGriffin\'s Kia Dunk!\np20162\nsVtitle\np20163\nVGriffin\'s Kia Dunk!\np20164\nsVcreative_id\np20165\nV6006158578965\np20166\nsVpreview_url\np20167\nVhttp://www.facebook.com/ads/api/creative_preview.php?cid=6006158578965\np20168\nsVid\np20169\nV6006158578965\np20170\nsVimage_url\np20171\nVhttps://fbcdn-creative-a.akamaihd.net/hads-ak-ash3/s110x80/701898_6006845076565_13703_n.png\np20172\nsVcount_current_adgroups\np20173\nI1\nsVrun_status\np20174\nI1\nsVtype\np20175\nI1\nsVlink_url\np20176\nVhttp://www.buzzfeed.com/h1/fbad/pepsimax/the-10-greatest-dunks-of-all-time-7tkk\np20177\nsVview_tag\np20178\ng35\nsa(dp20179\nValt_view_tags\np20180\n(lp20181\nsVbody\n'
p6
sS'hash'
p7
S'f1fc18fbecf6a8166d34ccd8bdb83f16e03675a6'
p8
sS'stack'
p9
S''
s.