(dp1
S'args'
p2
S''
sS'methodname'
p3
S''
sS'packet_num'
p4
I149
sS'returnval'
p5
S'tive_id\np18630\nV6006196122765\np18631\nsVpreview_url\np18632\nVhttp://www.facebook.com/ads/api/creative_preview.php?cid=6006196122765\np18633\nsVid\np18634\nV6006196122765\np18635\nsVimage_url\np18636\nVhttps://fbcdn-creative-a.akamaihd.net/hads-ak-ash3/s110x80/708181_6006844134765_24198_n.png\np18637\nsVcount_current_adgroups\np18638\nI2\nsVrun_status\np18639\nI1\nsVtype\np18640\nI1\nsVlink_url\np18641\nVhttp://www.buzzfeed.com/h1/fbad/virginmobilelive/20-reasons-instagram-isnt-for-bros-5l87\np18642\nsVview_tag\np18643\ng35\nsa(dp18644\nValt_view_tags\np18645\n(lp18646\nsVbody\np18647\nVTake a break & check out the "10 Most Amazing Train Routes Across The World!"\np18648\nsVimage_hash\np18649\nVead6aa1da4787c480321697c350bb16f\np18650\nsVname\np18651\nVTour a Scenic Railroad-00\np18652\nsVtitle\np18653\nVTour a Scenic Railroad\np18654\nsVcreative_id\np18655\nV6006198580965\np18656\nsVpreview_url\np18657\nVhttp://www.facebook.com/ads/api/creative_preview.php?cid=6006198580965\np18658\nsVid\np18659\nV6006198580965\np18660\nsVimage_url\np18661\nVhttps://fbcdn-creative-a.akamaihd.net/hads-ak-prn1/s110x80/708164_6006845471765_14029_n.png\np18662\nsVcount_current_adgroups\np18663\nI1\nsVrun_status\np18664\nI1\nsVtype\np18665\nI1\nsVlink_url\np18666\nVhttp://www.buzzfeed.com/h1/fbad/generalelectric/10-of-the-most-amazing-train-routes-across-the-wor\np18667\nsVview_tag\np18668\ng35\nsa(dp18669\nValt_view_tags\np18670\n(lp18671\nsVbody\np18672\nVTake a break & check out the "10 Most Amazing Train Routes Across The World!"\np18673\nsVimage_hash\np18674\nV4a0cf14e7cf4e6b4db02cb7f126e06ed\np18675\nsVname\np18676\nVTour a Scenic Railroad\np18677\nsVtitle\np18678\nVTour a Scenic Railroad\np18679\nsVcreative_id\np18680\nV6006198556565\np18681\nsVpreview_url\np18682\nVhttp://www.facebook.com/ads/api/creative_preview.php?cid=6006198556565\np18683\nsVid\np18684\nV6006198556565\np18685\nsVimage_url\np18686\nVhttps://fbcdn-creative-a.akamaihd.net/hads-ak-ash3/s110x80/708187_6006844495765_10516_n.png\np18687\nsVcount_current_adgroups\np18688\nI1\nsVrun_status\np18689\nI1\nsVtype\np18690\nI1\nsVlink_url\np18691\nVhttp://www.buzzfeed.com/h1/fbad/generalelectric/10-of-the-most-amazing-train-routes-across-the-wor\np18692\nsVview_tag\np18693\ng35\nsa(dp18694\nValt_view_tags\np18695\n(lp18696\nsVbody\np18697\nVRemember those days? Relive them with "The Most Delightful Moments From Your Childhood!"\np18698\nsVimage_hash\np18699\nV2aa288d95e0d1a4bb0c8779497a3396d\np18700\nsVname\np18701\nVCatching Them All\np18702\nsVtitle\np18703\nVCatching Them All\np18704\nsVcreative_id\np18705\nV6006027887565\np18706\nsVpreview_url\np18707\nVhttp://www.facebook.com/ads/api/creative_preview.php?cid=6006027887565\np18708\nsVid\np18709\nV6006027887565\np18710\nsVimage_url\np18711\nVhttps://fbcdn-creative-a.akamaihd.net/hads-ak-prn1/s110x80/708172_6006844308165_52439_n.jpg\np18712\nsVcount_current_adgroups\np18713\nI1\nsVrun_status\np18714\nI1\nsVtype\np18715\nI1\nsVlink_url\np18716\nVhttp://ad.doubleclick.net/clk;263772540;89472728;w\np18717\nsVview_tag\np18718\ng35\nsa(dp18719\nValt_view_tags\np18720\n(lp18721\nsVbody\np18722\nVRemember those days? Relive them with "The Most Delightful Moments From Your Childhood!"\np18723\nsVimage_hash\np18724\nV2ad7244aa2343d7c07ab696e5a73ecf3\np18725\nsVname\np18726\nVCatching Them All-00\np18727\nsVtitle\np18728\nVDuck Lips With Pringles\np18729\nsVcreative_id\np18730\nV6006027900565\np18731\nsVpreview_url\np18732\nVhttp://www.facebook.com/ads/api/creative_preview.php?cid=6006027900565\np18733\nsVid\np18734\nV6006027900565\np18735\nsVimage_url\np18736\nVhttps://fbcdn-creative-a.akamaihd.net/hads-ak-prn1/s110x80/708172_6006844309565_29416_n.jpg\np18737\nsVcount_current_adgroups\np18738\nI1\nsVrun_status\np18739\nI1\nsVtype\np18740\nI1\nsVlink_url\np18741\nVhttp://ad.doubleclick.net/clk;263772540;89472728;w\np18742\nsVview_tag\np18743\ng35\nsa(dp18744\nValt_view_tags\np18745\n(lp18746\nsVbody\np18747\nVIt made the list of the "15 Sequels That Actually Ruined Everything!" Check out the rest!\np18748\nsVimage_hash\np18749\nV453d6ea2b5c2acff14a3d9aac1b93506\np18750\nsVname\np18751\nVThe Phantom Menace-00\np18752\nsVtitle\np18753\nVThe Phantom Menace\np18754\nsVcreative_id\np18755\nV6006196129165\np18756\nsVpreview_url\np18757\nVhttp://www.facebook.com/ads/api/creative_preview.php?cid=60061'
p6
sS'hash'
p7
S'f1fc18fbecf6a8166d34ccd8bdb83f16e03675a6'
p8
sS'stack'
p9
S''
s.