(dp1
S'args'
p2
S''
sS'methodname'
p3
S''
sS'packet_num'
p4
I34
sS'returnval'
p5
S'ef= http://www.buzzfeed.com/h1/fbad/zerodarkthirty/the-fierce-insignia-of-us-military-specialized-op-8alx\np4255\nsVview_tag\np4256\ng35\nsa(dp4257\nValt_view_tags\np4258\n(lp4259\nsVbody\np4260\nVSee the rest of The Fierce Insignia Of U.S Military Specialized Operations Forces!\np4261\nsVimage_hash\np4262\nV9ecfcbf3529a4d99a9c171d736ff8b74\np4263\nsVname\np4264\nVRed Wolves-00\np4265\nsVtitle\np4266\nVScout Snipers\np4267\nsVcreative_id\np4268\nV6007618002565\np4269\nsVpreview_url\np4270\nVhttp://www.facebook.com/ads/api/creative_preview.php?cid=6007618002565\np4271\nsVid\np4272\nV6007618002565\np4273\nsVimage_url\np4274\nVhttps://fbcdn-creative-a.akamaihd.net/hads-ak-prn1/s110x80/735329_6007617998565_8417_n.jpg\np4275\nsVcount_current_adgroups\np4276\nI2\nsVrun_status\np4277\nI1\nsVtype\np4278\nI1\nsVlink_url\np4279\nVhttp://clk.atdmt.com/ULA/go/425320197/direct/01/?href= http://www.buzzfeed.com/h1/fbad/zerodarkthirty/the-fierce-insignia-of-us-military-specialized-op-8alx\np4280\nsVview_tag\np4281\ng35\nsa(dp4282\nValt_view_tags\np4283\n(lp4284\nsVbody\np4285\nVSee the rest of The Fierce Insignia Of U.S Military Specialized Operations Forces!\np4286\nsVimage_hash\np4287\nVb82d9db6deb20a6fad6386a54613ffb3\np4288\nsVname\np4289\nVRed Wolves-00-00\np4290\nsVtitle\np4291\nVDelta Force\np4292\nsVcreative_id\np4293\nV6007618013565\np4294\nsVpreview_url\np4295\nVhttp://www.facebook.com/ads/api/creative_preview.php?cid=6007618013565\np4296\nsVid\np4297\nV6007618013565\np4298\nsVimage_url\np4299\nVhttps://fbcdn-creative-a.akamaihd.net/hads-ak-prn1/s110x80/735319_6007618008965_29575_n.jpg\np4300\nsVcount_current_adgroups\np4301\nI2\nsVrun_status\np4302\nI1\nsVtype\np4303\nI1\nsVlink_url\np4304\nVhttp://clk.atdmt.com/ULA/go/425320197/direct/01/?href= http://www.buzzfeed.com/h1/fbad/zerodarkthirty/the-fierce-insignia-of-us-military-specialized-op-8alx\np4305\nsVview_tag\np4306\ng35\nsa(dp4307\nValt_view_tags\np4308\n(lp4309\nsVbody\np4310\nVCheck out "The Secret Hide-Outs Of History\'s Greatest Villains!" \np4311\nsVimage_hash\np4312\nVed95b3a6caac3b42cf17efff99f09b9a\np4313\nsVname\np4314\nVBin-Laden\'s Hide-Out-00\np4315\nsVtitle\np4316\nVAdolf\'s Wolf Lair\np4317\nsVcreative_id\np4318\nV6007618166965\np4319\nsVpreview_url\np4320\nVhttp://www.facebook.com/ads/api/creative_preview.php?cid=6007618166965\np4321\nsVid\np4322\nV6007618166965\np4323\nsVimage_url\np4324\nVhttps://fbcdn-creative-a.akamaihd.net/hads-ak-ash3/s110x80/735306_6007618093565_17007_n.jpg\np4325\nsVcount_current_adgroups\np4326\nI1\nsVrun_status\np4327\nI1\nsVtype\np4328\nI1\nsVlink_url\np4329\nVhttp://clk.atdmt.com/ULA/go/425320197/direct/01/?href=http://www.buzzfeed.com/h1/fbad/zerodarkthirty/the-secret-hide-outs-of-historys-greatest-villain\np4330\nsVview_tag\np4331\ng35\nsa(dp4332\nValt_view_tags\np4333\n(lp4334\nsVbody\np4335\nVDidn\'t work for long! Check out "The Secret Hide-Outs Of History\'s Greatest Villains!" \np4336\nsVimage_hash\np4337\nV457b1a6cfebc4f6ab774d8bfd2b8d186\np4338\nsVname\np4339\nVBin-Laden\'s Hide-Out\np4340\nsVtitle\np4341\nVBin-Laden\'s Hide-Out\np4342\nsVcreative_id\np4343\nV6007533361365\np4344\nsVpreview_url\np4345\nVhttp://www.facebook.com/ads/api/creative_preview.php?cid=6007533361365\np4346\nsVid\np4347\nV6007533361365\np4348\nsVimage_url\np4349\nVhttps://fbcdn-creative-a.akamaihd.net/hads-ak-prn1/s110x80/735353_6007533284565_48076_n.jpg\np4350\nsVcount_current_adgroups\np4351\nI1\nsVrun_status\np4352\nI1\nsVtype\np4353\nI1\nsVlink_url\np4354\nVhttp://clk.atdmt.com/ULA/go/425320197/direct/01/?href=http://www.buzzfeed.com/h1/fbad/zerodarkthirty/the-secret-hide-outs-of-historys-greatest-villain\np4355\nsVview_tag\np4356\ng35\nsa(dp4357\nValt_view_tags\np4358\n(lp4359\nsVbody\np4360\nVInstagramm has ruined dining. Find out "The Subtext Of That Picture Of Food You Shared!"\np4361\nsVimage_hash\np4362\nV33775c2bde0f4cc303e29556b4839259\np4363\nsVname\np4364\nVSharing Pics Of Food?\np4365\nsVtitle\np4366\nVSharing Pics Of Food?\np4367\nsVcreative_id\np4368\nV6007593800565\np4369\nsVpreview_url\np4370\nVhttp://www.facebook.com/ads/api/creative_preview.php?cid=6007593800565\np4371\nsVid\np4372\nV6007593800565\np4373\nsVimage_url\np4374\nVhttps://fbcdn-creative-a.akamaihd.net/hads-ak-ash3/s110x80/735354_6007593729365_9201_n.jpg\np4375\nsVcount_current_adgroups\np4376\nI1\nsVrun_status\np4377'
p6
sS'hash'
p7
S'f1fc18fbecf6a8166d34ccd8bdb83f16e03675a6'
p8
sS'stack'
p9
S''
s.