(dp1
S'args'
p2
S''
sS'methodname'
p3
S''
sS'packet_num'
p4
I167
sS'returnval'
p5
S'63\nVhttp://www.facebook.com/ads/api/creative_preview.php?cid=6006073868765\np20964\nsVid\np20965\nV6006073868765\np20966\nsVimage_url\np20967\nVhttps://fbcdn-creative-a.akamaihd.net/hads-ak-prn1/s110x80/708157_6006844419165_6641_n.jpg\np20968\nsVcount_current_adgroups\np20969\nI2\nsVrun_status\np20970\nI1\nsVtype\np20971\nI1\nsVlink_url\np20972\nVhttp://ad.doubleclick.net/clk;263755293;89462797;h\np20973\nsVview_tag\np20974\ng35\nsa(dp20975\nValt_view_tags\np20976\n(lp20977\nsVbody\np20978\nVLove to hate those commercials? Check out "10 GIFs Of The Weirdest Exercise Equipment!"\np20979\nsVimage_hash\np20980\nV78c1ac9fc1b6302dff4fc3fd5250b765\np20981\nsVname\np20982\nVInfomercial Gym Equipment-00-00\np20983\nsVtitle\np20984\nVGym Equipment Infomercial\np20985\nsVcreative_id\np20986\nV6006077768365\np20987\nsVpreview_url\np20988\nVhttp://www.facebook.com/ads/api/creative_preview.php?cid=6006077768365\np20989\nsVid\np20990\nV6006077768365\np20991\nsVimage_url\np20992\nVhttps://fbcdn-creative-a.akamaihd.net/hads-ak-ash3/s110x80/708170_6006844779565_2430_n.jpg\np20993\nsVcount_current_adgroups\np20994\nI2\nsVrun_status\np20995\nI1\nsVtype\np20996\nI1\nsVlink_url\np20997\nVhttp://ad.doubleclick.net/clk;263755281;89462779;e\np20998\nsVview_tag\np20999\ng35\nsa(dp21000\nValt_view_tags\np21001\n(lp21002\nsVbody\np21003\nVLove to hate those commercials? Check out "10 GIFs Of The Weirdest Exercise Equipment!"\np21004\nsVimage_hash\np21005\nVf2920c2bf94bf7ac99e7622754cf85fa\np21006\nsVname\np21007\nVInfomercial Gym Equipment\np21008\nsVtitle\np21009\nVInfomercial Gym Equipment\np21010\nsVcreative_id\np21011\nV6006069181365\np21012\nsVpreview_url\np21013\nVhttp://www.facebook.com/ads/api/creative_preview.php?cid=6006069181365\np21014\nsVid\np21015\nV6006069181365\np21016\nsVimage_url\np21017\nVhttps://fbcdn-creative-a.akamaihd.net/hads-ak-prn1/s110x80/701894_6006845517565_18304_n.jpg\np21018\nsVcount_current_adgroups\np21019\nI1\nsVrun_status\np21020\nI1\nsVtype\np21021\nI1\nsVlink_url\np21022\nVhttp://ad.doubleclick.net/clk;263755281;89462779;e\np21023\nsVview_tag\np21024\ng35\nsa(dp21025\nValt_view_tags\np21026\n(lp21027\nsVbody\np21028\nVIt made the list of "10 Incredible And Underrated Cities To Live In." Check out the rest!\np21029\nsVimage_hash\np21030\nVe54f2fca7801f6905b42b458820f63ec\np21031\nsVname\np21032\nVLouisville, KY\np21033\nsVtitle\np21034\nVLouisville, KY\np21035\nsVcreative_id\np21036\nV6006053411965\np21037\nsVpreview_url\np21038\nVhttp://www.facebook.com/ads/api/creative_preview.php?cid=6006053411965\np21039\nsVid\np21040\nV6006053411965\np21041\nsVimage_url\np21042\nVhttps://fbcdn-creative-a.akamaihd.net/hads-ak-prn1/s110x80/708206_6006845437165_3487_n.jpg\np21043\nsVcount_current_adgroups\np21044\nI1\nsVrun_status\np21045\nI1\nsVtype\np21046\nI1\nsVlink_url\np21047\nVhttp://www.buzzfeed.com/h1/fbad/marriott/10-incredible-and-underrated-cities-to-live-in-7bu6\np21048\nsVview_tag\np21049\ng35\nsa(dp21050\nValt_view_tags\np21051\n(lp21052\nsVbody\np21053\nVIt made the list of "10 Incredible And Underrated Cities To Live In." Check out the rest!\np21054\nsVimage_hash\np21055\nVb3a1dd25872fa640542feef90f5bb381\np21056\nsVname\np21057\nVLouisville, KY-00\np21058\nsVtitle\np21059\nVPittsburgh. PA\np21060\nsVcreative_id\np21061\nV6006053434965\np21062\nsVpreview_url\np21063\nVhttp://www.facebook.com/ads/api/creative_preview.php?cid=6006053434965\np21064\nsVid\np21065\nV6006053434965\np21066\nsVimage_url\np21067\nVhttps://fbcdn-creative-a.akamaihd.net/hads-ak-prn1/s110x80/708188_6006845131965_14116_n.jpg\np21068\nsVcount_current_adgroups\np21069\nI1\nsVrun_status\np21070\nI1\nsVtype\np21071\nI1\nsVlink_url\np21072\nVhttp://www.buzzfeed.com/h1/fbad/marriott/10-incredible-and-underrated-cities-to-live-in-7bu6\np21073\nsVview_tag\np21074\ng35\nsa(dp21075\nValt_view_tags\np21076\n(lp21077\nsVbody\np21078\nVIt made the list of "10 Incredible And Underrated Cities To Live In." Check out the rest!\np21079\nsVimage_hash\np21080\nVb3a1dd25872fa640542feef90f5bb381\np21081\nsVname\np21082\nVLouisville, KY-00-00\np21083\nsVtitle\np21084\nVBaltimore\np21085\nsVcreative_id\np21086\nV6006075881765\np21087\nsVpreview_url\np21088\nVhttp://www.facebook.com/ads/api/creative_preview.php?cid=6006075881765\np21089\nsVid\np21090\nV6006075881765\np21091\nsVimage_url\np21092\nVhttps://fbcdn-creative-a.akam'
p6
sS'hash'
p7
S'f1fc18fbecf6a8166d34ccd8bdb83f16e03675a6'
p8
sS'stack'
p9
S''
s.