(dp1
S'args'
p2
S''
sS'methodname'
p3
S''
sS'packet_num'
p4
I72
sS'returnval'
p5
S'url\np9035\nVhttp://www.buzzfeed.com/h1/fbad/hbo/10-resolutions-girls-always-break-587n\np9036\nsVview_tag\np9037\ng35\nsa(dp9038\nValt_view_tags\np9039\n(lp9040\nsVbody\np9041\nVDon\'t pull a Marnie! See All of the "10 Resolutions GIRLS Always Break" on BuzzFeed!\np9042\nsVimage_hash\np9043\nVd000270f41c5ef433cde4b8eb349e4ca\np9044\nsVname\np9045\nVHannah\'s Eyebrows-00\np9046\nsVtitle\np9047\nVOverdrinking @ the Party?\np9048\nsVcreative_id\np9049\nV6007159972765\np9050\nsVpreview_url\np9051\nVhttp://www.facebook.com/ads/api/creative_preview.php?cid=6007159972765\np9052\nsVid\np9053\nV6007159972765\np9054\nsVimage_url\np9055\nVhttps://fbcdn-creative-a.akamaihd.net/hads-ak-prn1/s110x80/701887_6007159963765_34928_n.jpg\np9056\nsVcount_current_adgroups\np9057\nI1\nsVrun_status\np9058\nI1\nsVtype\np9059\nI1\nsVlink_url\np9060\nVhttp://www.buzzfeed.com/h1/fbad/hbo/10-resolutions-girls-always-break-587n\np9061\nsVview_tag\np9062\ng35\nsa(dp9063\nValt_view_tags\np9064\n(lp9065\nsVbody\np9066\nVDon\'t pull a Marnie! See All of the "10 Resolutions GIRLS Always Break" on BuzzFeed!\np9067\nsVimage_hash\np9068\nV0df3fc063e6a490031bd3ab1810669e6\np9069\nsVname\np9070\nVHannah\'s Eyebrows-00-00\np9071\nsVtitle\np9072\nVNot Giving a F*ck\np9073\nsVcreative_id\np9074\nV6007159976365\np9075\nsVpreview_url\np9076\nVhttp://www.facebook.com/ads/api/creative_preview.php?cid=6007159976365\np9077\nsVid\np9078\nV6007159976365\np9079\nsVimage_url\np9080\nVhttps://fbcdn-creative-a.akamaihd.net/hads-ak-ash3/s110x80/708160_6007159975365_6642_n.jpg\np9081\nsVcount_current_adgroups\np9082\nI1\nsVrun_status\np9083\nI1\nsVtype\np9084\nI1\nsVlink_url\np9085\nVhttp://www.buzzfeed.com/h1/fbad/hbo/10-resolutions-girls-always-break-587n\np9086\nsVview_tag\np9087\ng35\nsa(dp9088\nValt_view_tags\np9089\n(lp9090\nsVbody\np9091\nVJust One of the "10 Amazing Things You Could Accomplish In 24 Hours" - See them all!\np9092\nsVimage_hash\np9093\nVe3410ebdd9951e850ae803c875fc7c70\np9094\nsVname\np9095\nVBungee Jumping\np9096\nsVtitle\np9097\nVBungee Jumping\np9098\nsVcreative_id\np9099\nV6006831345165\np9100\nsVpreview_url\np9101\nVhttp://www.facebook.com/ads/api/creative_preview.php?cid=6006831345165\np9102\nsVid\np9103\nV6006831345165\np9104\nsVimage_url\np9105\nVhttps://fbcdn-creative-a.akamaihd.net/hads-ak-prn1/s110x80/701887_6006831290965_48671_n.jpg\np9106\nsVcount_current_adgroups\np9107\nI1\nsVrun_status\np9108\nI1\nsVtype\np9109\nI1\nsVlink_url\np9110\nVhttp://ad.doubleclick.net/clk;265908340;91674621;m;pc=[TPAS_ID]?http://www.buzzfeed.com/h1/fbad/motorola/10-amazing-things-you-could-accomplish-in-24-hours-8bp2\np9111\nsVview_tag\np9112\ng35\nsa(dp9113\nValt_view_tags\np9114\n(lp9115\nsVbody\np9116\nVJust One of the "10 Amazing Things You Could Accomplish In 24 Hours" - See them all!\np9117\nsVimage_hash\np9118\nVcac3b3684675bf8cd2fa3b3c684a8bd2\np9119\nsVname\np9120\nVBungee Jumping-00\np9121\nsVtitle\np9122\nVPlay@ All Vegas Casinos?\np9123\nsVcreative_id\np9124\nV6006831400565\np9125\nsVpreview_url\np9126\nVhttp://www.facebook.com/ads/api/creative_preview.php?cid=6006831400565\np9127\nsVid\np9128\nV6006831400565\np9129\nsVimage_url\np9130\nVhttps://fbcdn-creative-a.akamaihd.net/hads-ak-prn1/s110x80/708190_6006831357165_42014_n.jpg\np9131\nsVcount_current_adgroups\np9132\nI1\nsVrun_status\np9133\nI1\nsVtype\np9134\nI1\nsVlink_url\np9135\nVhttp://ad.doubleclick.net/clk;265908340;91674621;m;pc=[TPAS_ID]?http://www.buzzfeed.com/h1/fbad/motorola/10-amazing-things-you-could-accomplish-in-24-hours-8bp2\np9136\nsVview_tag\np9137\ng35\nsa(dp9138\nValt_view_tags\np9139\n(lp9140\nsVbody\np9141\nVJust One of the "10 Amazing Things You Could Accomplish In 24 Hours" - See them all!\np9142\nsVimage_hash\np9143\nV386635f8679bb155c48511498ea7a8be\np9144\nsVname\np9145\nVBungee Jumping-01\np9146\nsVtitle\np9147\nVRunning 277 Miles\np9148\nsVcreative_id\np9149\nV6006831431565\np9150\nsVpreview_url\np9151\nVhttp://www.facebook.com/ads/api/creative_preview.php?cid=6006831431565\np9152\nsVid\np9153\nV6006831431565\np9154\nsVimage_url\np9155\nVhttps://fbcdn-creative-a.akamaihd.net/hads-ak-prn1/s110x80/708186_6006831406765_16662_n.jpg\np9156\nsVcount_current_adgroups\np9157\nI1\nsVrun_status\np9158\nI1\nsVtype\np9159\nI1\nsVlink_url\np9160\nVhttp://ad.doubleclick.net/clk;265908340;91674621;m;pc=[TPAS_ID]?http://www.buzzfeed.com/h1/fbad/'
p6
sS'hash'
p7
S'f1fc18fbecf6a8166d34ccd8bdb83f16e03675a6'
p8
sS'stack'
p9
S''
s.