(dp1
S'args'
p2
S''
sS'methodname'
p3
S''
sS'packet_num'
p4
I189
sS'returnval'
p5
S'ctories-presented-by-gifs\np23761\nsVview_tag\np23762\ng35\nsa(dp23763\nValt_view_tags\np23764\n(lp23765\nsVbody\np23766\nVLearn more terms from "An Animal\'s Guide To Speaking Like A Redneck" on Buzzfeed!\np23767\nsVimage_hash\np23768\nVcc3cc481e8a93eeea7cd88128c0e60a9\np23769\nsVname\np23770\nVAn Ornery Cat\np23771\nsVtitle\np23772\nVAn Ornery Cat\np23773\nsVcreative_id\np23774\nV6005963068365\np23775\nsVpreview_url\np23776\nVhttp://www.facebook.com/ads/api/creative_preview.php?cid=6005963068365\np23777\nsVid\np23778\nV6005963068365\np23779\nsVimage_url\np23780\nVhttps://fbcdn-creative-a.akamaihd.net/hads-ak-prn1/s110x80/708171_6006845275365_7155_n.jpg\np23781\nsVcount_current_adgroups\np23782\nI1\nsVrun_status\np23783\nI1\nsVtype\np23784\nI1\nsVlink_url\np23785\nVhttp://www.buzzfeed.com/h1/fbad/duckdynasty/an-animals-guide-to-speaking-like-a-redneck\np23786\nsVview_tag\np23787\ng35\nsa(dp23788\nValt_view_tags\np23789\n(lp23790\nsVbody\np23791\nVLearn more terms from "An Animal\'s Guide To Speaking Like A Redneck" on Buzzfeed!\np23792\nsVimage_hash\np23793\nVe333082a588c3e5a7bbbe2020cbd490b\np23794\nsVname\np23795\nVAn Ornery Cat-00\np23796\nsVtitle\np23797\nVA Monkey\'s Uncle\np23798\nsVcreative_id\np23799\nV6005963076365\np23800\nsVpreview_url\np23801\nVhttp://www.facebook.com/ads/api/creative_preview.php?cid=6005963076365\np23802\nsVid\np23803\nV6005963076365\np23804\nsVimage_url\np23805\nVhttps://fbcdn-creative-a.akamaihd.net/hads-ak-prn1/s110x80/708169_6006845420365_38698_n.jpg\np23806\nsVcount_current_adgroups\np23807\nI1\nsVrun_status\np23808\nI1\nsVtype\np23809\nI1\nsVlink_url\np23810\nVhttp://www.buzzfeed.com/h1/fbad/duckdynasty/an-animals-guide-to-speaking-like-a-redneck\np23811\nsVview_tag\np23812\ng35\nsa(dp23813\nValt_view_tags\np23814\n(lp23815\nsVbody\np23816\nVCheck out Issa Rae - Just One of the "Awesome Up-And-Coming Funny Ladies" on BuzzFeed!\np23817\nsVimage_hash\np23818\nVf348a574fb26e4b8c147cc2308058ffd\np23819\nsVname\np23820\nVCheck Out Chelsea Peretti-00\np23821\nsVtitle\np23822\nVThe "Awkward Black Girl"\np23823\nsVcreative_id\np23824\nV6005998895965\np23825\nsVpreview_url\np23826\nVhttp://www.facebook.com/ads/api/creative_preview.php?cid=6005998895965\np23827\nsVid\np23828\nV6005998895965\np23829\nsVimage_url\np23830\nVhttps://fbcdn-creative-a.akamaihd.net/hads-ak-ash3/s110x80/701891_6006845523565_60805_n.jpg\np23831\nsVcount_current_adgroups\np23832\nI1\nsVrun_status\np23833\nI1\nsVtype\np23834\nI1\nsVlink_url\np23835\nVhttp://www.buzzfeed.com/h1/fbad/fox/11-awesome-up-and-coming-funny-ladies-you-should-k-7juf\np23836\nsVview_tag\np23837\ng35\nsa(dp23838\nValt_view_tags\np23839\n(lp23840\nsVbody\np23841\nVCheck Out "23 Everyday Situations We Would Love To Be Rescued From" on BuzzFeed!\np23842\nsVimage_hash\np23843\nV7206bb458de060d8c6bdbbd90cf4d492\np23844\nsVname\np23845\nVBad Hair Day?-00\np23846\nsVtitle\np23847\nVNo More Toilet Paper?\np23848\nsVcreative_id\np23849\nV6005954884765\np23850\nsVpreview_url\np23851\nVhttp://www.facebook.com/ads/api/creative_preview.php?cid=6005954884765\np23852\nsVid\np23853\nV6005954884765\np23854\nsVimage_url\np23855\nVhttps://fbcdn-creative-a.akamaihd.net/hads-ak-prn1/s110x80/708190_6006844737165_64827_n.jpg\np23856\nsVcount_current_adgroups\np23857\nI1\nsVrun_status\np23858\nI1\nsVtype\np23859\nI1\nsVlink_url\np23860\nVhttp://www.buzzfeed.com/h1/fbad/theweatherchannel/23-everyday-situations-we-would-love-to-be-rescued\np23861\nsVview_tag\np23862\ng35\nsa(dp23863\nValt_view_tags\np23864\n(lp23865\nsVbody\np23866\nVCheck Out "23 Everyday Situations We Would Love To Be Rescued From" on BuzzFeed!\np23867\nsVimage_hash\np23868\nV8db41d170dd8a300c6d3cdae042e0006\np23869\nsVname\np23870\nVBad Hair Day?-00-00\np23871\nsVtitle\np23872\nVAwkward Blind Date?\np23873\nsVcreative_id\np23874\nV6005954886765\np23875\nsVpreview_url\np23876\nVhttp://www.facebook.com/ads/api/creative_preview.php?cid=6005954886765\np23877\nsVid\np23878\nV6005954886765\np23879\nsVimage_url\np23880\nVhttps://fbcdn-creative-a.akamaihd.net/hads-ak-prn1/s110x80/708171_6006844892765_14383_n.jpg\np23881\nsVcount_current_adgroups\np23882\nI1\nsVrun_status\np23883\nI1\nsVtype\np23884\nI1\nsVlink_url\np23885\nVhttp://www.buzzfeed.com/h1/fbad/theweatherchannel/23-everyday-situations-we-would-love-to-be-rescued\np23886\nsVview_tag\np23887\ng35\nsa(dp23888\nValt_vie'
p6
sS'hash'
p7
S'f1fc18fbecf6a8166d34ccd8bdb83f16e03675a6'
p8
sS'stack'
p9
S''
s.