(dp1
S'args'
p2
S''
sS'methodname'
p3
S''
sS'packet_num'
p4
I96
sS'returnval'
p5
S'11988\nsVid\np11989\nV6006750695565\np11990\nsVimage_url\np11991\nVhttps://fbcdn-creative-a.akamaihd.net/hads-ak-prn1/s110x80/708166_6006750673165_12634_n.jpg\np11992\nsVcount_current_adgroups\np11993\nI1\nsVrun_status\np11994\nI1\nsVtype\np11995\nI1\nsVlink_url\np11996\nVhttp://ad.doubleclick.net/clk;266024570;91824353;g\np11997\nsVview_tag\np11998\ng35\nsa(dp11999\nValt_view_tags\np12000\n(lp12001\nsVbody\np12002\nVYep, check out her Prince cover band, Princess & more "Celebs Who Secretly Have Bands!"\np12003\nsVimage_hash\np12004\nV486c2ac90c53729a9273b6e9283f1fcc\np12005\nsVname\np12006\nVRyan Gosling in a Band?-00-00\np12007\nsVtitle\np12008\nVMaya Rudolph in a Band?\np12009\nsVcreative_id\np12010\nV6006667332965\np12011\nsVpreview_url\np12012\nVhttp://www.facebook.com/ads/api/creative_preview.php?cid=6006667332965\np12013\nsVid\np12014\nV6006667332965\np12015\nsVimage_url\np12016\nVhttps://fbcdn-creative-a.akamaihd.net/hads-ak-ash3/s110x80/701898_6006667284565_59727_n.jpg\np12017\nsVcount_current_adgroups\np12018\nI1\nsVrun_status\np12019\nI1\nsVtype\np12020\nI1\nsVlink_url\np12021\nVhttp://ad.doubleclick.net/clk;265967795;91718342;e\np12022\nsVview_tag\np12023\ng35\nsa(dp12024\nValt_view_tags\np12025\n(lp12026\nsVbody\np12027\nVCan he get any hotter? See more "Celebrities Who Secretly Have Bands" on BuzzFeed!\np12028\nsVimage_hash\np12029\nVeb5fe54508f4af9783a6118f01b1db58\np12030\nsVname\np12031\nVRyan Gosling in a Band?\np12032\nsVtitle\np12033\nVRyan Gosling in a Band?\np12034\nsVcreative_id\np12035\nV6006667223565\np12036\nsVpreview_url\np12037\nVhttp://www.facebook.com/ads/api/creative_preview.php?cid=6006667223565\np12038\nsVid\np12039\nV6006667223565\np12040\nsVimage_url\np12041\nVhttps://fbcdn-creative-a.akamaihd.net/hads-ak-prn1/s110x80/708181_6006667203565_29546_n.jpg\np12042\nsVcount_current_adgroups\np12043\nI1\nsVrun_status\np12044\nI1\nsVtype\np12045\nI1\nsVlink_url\np12046\nVhttp://ad.doubleclick.net/clk;265967795;91718342;e\np12047\nsVview_tag\np12048\ng35\nsa(dp12049\nValt_view_tags\np12050\n(lp12051\nsVbody\np12052\nVSee more "Celebrities Who Secretly Have Bands" on BuzzFeed!\np12053\nsVimage_hash\np12054\nVc6d6d88411c40decac0d5c78465418fb\np12055\nsVname\np12056\nVRyan Gosling in a Band?-00\np12057\nsVtitle\np12058\nVBruce Willis Blues Band\np12059\nsVcreative_id\np12060\nV6006667276965\np12061\nsVpreview_url\np12062\nVhttp://www.facebook.com/ads/api/creative_preview.php?cid=6006667276965\np12063\nsVid\np12064\nV6006667276965\np12065\nsVimage_url\np12066\nVhttps://fbcdn-creative-a.akamaihd.net/hads-ak-ash3/s110x80/701896_6006667229765_51881_n.jpg\np12067\nsVcount_current_adgroups\np12068\nI1\nsVrun_status\np12069\nI1\nsVtype\np12070\nI1\nsVlink_url\np12071\nVhttp://ad.doubleclick.net/clk;265967795;91718342;e\np12072\nsVview_tag\np12073\ng35\nsa(dp12074\nVname\np12075\nVAd from a Page post #6,006,759,005,565\np12076\nsVauto_update\np12077\nI00\nsVstory_id\np12078\nV409837705751418\np12079\nsVcreative_id\np12080\nV6006759005565\np12081\nsVpreview_url\np12082\nVhttp://www.facebook.com/ads/api/creative_preview.php?cid=6006759005565\np12083\nsVobject_id\np12084\nV238205562866018\np12085\nsVaction_spec\np12086\nNsVcount_current_adgroups\np12087\nI1\nsVrun_status\np12088\nI1\nsVtype\np12089\nI27\nsVid\np12090\nV6006759005565\np12091\nsVaction_t\np12092\nVBgABAQcIAAZQxmO/CgAJAAAAAImt0MwKABAAANiljfVJYg0AGgYKAAAACwEKAAAAAAAAAFAAuAABdL7G3et6ALkAAAAAAAAAZAC6AAGQJjXQps4CIwAAAAAAAAAIAMMAAABPVFI0HgG7AAAAAAAAAGoACgAAAACJrdDMAAEAAXS+xt3regG2AAAAAFDGY78B5AABdL7G3et6DQAbBgsAAAABQAMAAAFBUGxheSB0byBzZWUgaWYgeW91IHdoYXQgaXQgdGFrZXMgdG8gc2F2ZSB0aGUgd29ybGQhIC0gaHR0cDovL2J6ZmQuaXQvVnZISGdJIG9vb29vIEhlbHAgRGlrZW1iZSBNdXRvbWJvIFNhdmUgVGhlIFdvcmxkISBvb29vbyBIZSdzIG9ubHkgZ290IDQgYW5kIGEgaGFsZiB3ZWVrcywgYW5kIGEgc2lkZWtpY2sgbmFtZWQgU2NpZW5jZSB0aGUgQmVhci4gUGxheSB0aGUgZ2FtZSBiZWxvdywgb3IgaGVhZCB0byB3d3cub2xkc3BpY2VzYXZlc3RoZXdvcmxkLmNvbSB0byBzZWUgaWYgeW91IGhhdmUgd2hhdCBpdCB0YWtlcyB0byBoZWxwIHNhdmUgdGhlIHdvcmxkLiBBLi4uCgAcAAF0vsbd63oA\np12093\nsa(dp12094\nVname\np12095\nVAd from a Page post #6,006,759,135,165\np12096\nsVauto_update\np12097\nI00\nsVstory_id\np12098\nV203926646411524\np12099\nsVcreative_id\np12100\nV6006759135165\np12101\nsVpreview_url\np12102\nVhttp://www.facebook.com/ads/api/creative_preview.php?cid=6006759135165\np12103\nsVaction_t\np12104\nVBgABAQcI'
p6
sS'hash'
p7
S'f1fc18fbecf6a8166d34ccd8bdb83f16e03675a6'
p8
sS'stack'
p9
S''
s.