(dp1
S'args'
p2
S''
sS'methodname'
p3
S''
sS'packet_num'
p4
I173
sS'returnval'
p5
S'ts From The WWE\'s Attitude Era!"\np21746\nsVimage_hash\np21747\nVd29c49dc515a4349bd72adaef9de2b9c\np21748\nsVname\np21749\nVTyson vs. Stone Cold \np21750\nsVtitle\np21751\nVTyson vs. Stone Cold \np21752\nsVcreative_id\np21753\nV6006103281965\np21754\nsVpreview_url\np21755\nVhttp://www.facebook.com/ads/api/creative_preview.php?cid=6006103281965\np21756\nsVid\np21757\nV6006103281965\np21758\nsVimage_url\np21759\nVhttps://fbcdn-creative-a.akamaihd.net/hads-ak-ash3/s110x80/701888_6006845309565_50472_n.png\np21760\nsVcount_current_adgroups\np21761\nI1\nsVrun_status\np21762\nI1\nsVtype\np21763\nI1\nsVlink_url\np21764\nVhttp://ad.doubleclick.net/clk;264393862;90045536;o\np21765\nsVview_tag\np21766\ng35\nsa(dp21767\nVname\np21768\nVSponsored story #6,006,103,370,365\np21769\nsVcreative_id\np21770\nV6006103370365\np21771\nsVpreview_url\np21772\nVhttp://www.facebook.com/ads/api/creative_preview.php?cid=6006103370365\np21773\nsVobject_id\np21774\nV238205562866018\np21775\nsVaction_spec\np21776\n(lp21777\n(dp21778\nVpost\np21779\nV370387996378371\np21780\nsVaction.type\np21781\nVlike\np21782\nsa(dp21783\nVpost\np21784\nV370387996378371\np21785\nsVaction.type\np21786\nVcomment\np21787\nsa(dp21788\nVpost.object\np21789\nV370387996378371\np21790\nsVaction.type\np21791\nVpost\np21792\nsasVcluster_id\np21793\nI6006103364965\nsVcount_current_adgroups\np21794\nI1\nsVrun_status\np21795\nI1\nsVtype\np21796\nI25\nsVid\np21797\nV6006103370365\np21798\nsa(dp21799\nValt_view_tags\np21800\n(lp21801\nsVbody\np21802\nVDidn\'t get to see enough Channing Tatum? Check out "The Most Magical Magic Mike GIFs!" \np21803\nsVimage_hash\np21804\nV8f82cee280f0af86b0131496c839d712\np21805\nsVname\np21806\nVMagic Mike\np21807\nsVtitle\np21808\nVMagic Mike\np21809\nsVcreative_id\np21810\nV6006046883965\np21811\nsVpreview_url\np21812\nVhttp://www.facebook.com/ads/api/creative_preview.php?cid=6006046883965\np21813\nsVid\np21814\nV6006046883965\np21815\nsVimage_url\np21816\nVhttps://fbcdn-creative-a.akamaihd.net/hads-ak-prn1/s110x80/708189_6006844906765_39295_n.jpg\np21817\nsVcount_current_adgroups\np21818\nI1\nsVrun_status\np21819\nI1\nsVtype\np21820\nI1\nsVlink_url\np21821\nVhttp://www.buzzfeed.com/h1/fbad/magicmike/the-most-magical-magic-mike-gifs-2-5go3\np21822\nsVview_tag\np21823\ng35\nsa(dp21824\nVname\np21825\nVAd from a Page post #6,006,103,389,165\np21826\nsVauto_update\np21827\nI00\nsVstory_id\np21828\nV370387996378371\np21829\nsVcreative_id\np21830\nV6006103389165\np21831\nsVpreview_url\np21832\nVhttp://www.facebook.com/ads/api/creative_preview.php?cid=6006103389165\np21833\nsVobject_id\np21834\nV238205562866018\np21835\nsVaction_spec\np21836\nNsVcount_current_adgroups\np21837\nI1\nsVrun_status\np21838\nI1\nsVtype\np21839\nI27\nsVid\np21840\nV6006103389165\np21841\nsVaction_t\np21842\nVBgABAQcIAAZQiDnxCgAJAAAAAImt0MwKABAAANiljfVJYg0AGgYKAAAACwEKAAAAAAAAAFAAuAABUN2s9AUDALkAAAAAAAAAZAC6AAFZ7clB+iACIwAAAAAAAAAIAMMAJA96ZNXnGAG7AAAAAAAAAGoACgAAAACJrdDMAAEAAVDdrPQFAwG2AAAAAFCIOfEB5AABUN2s9AUDDQAbBgsAAAABQAMAAAFFUmRpbydzIG5ldyAiUmVhY3Qgd2l0aCBhIFNvbmciIGJ1dHRvbiBpcyBmZWF0dXJlZCBvbiBHaXptb2RvLiBDaGVjayBpdCBvdXQhIC0gaHR0cDovL2J6ZmQuaXQvUlB6eFBHIG9vb29vIEJ1enpGZWVkJ3MgTmV3IFJkaW8gQnV0dG9uIExldHMgWW91IFJlYWN0IHRvIGEgUG9zdCB3aXRoIGEgU29uZyBvb29vbyBTb21ldGltZXMgc2VudGltZW50cyBhcmUgYmVzdCBleHByZXNzZWQgbXVzaWNhbGx5LiBVbmRlcnN0YW5kaW5nIHRoYXQsIEJ1enpGZWVkIGhhcyBhZGRlZCBhbiBSZGlvIGJ1dHRvbiB0aGF0IGxldHMgeW91IHJlYWN0IHRvIGFueSBwb3N0IHdpdGggYSBzb25nLgoAHAABUN2s9AUDAA==\np21843\nsa(dp21844\nVname\np21845\nVAd from a Page post #6,006,103,368,365\np21846\nsVauto_update\np21847\nI00\nsVstory_id\np21848\nV370387996378371\np21849\nsVcreative_id\np21850\nV6006103368365\np21851\nsVpreview_url\np21852\nVhttp://www.facebook.com/ads/api/creative_preview.php?cid=6006103368365\np21853\nsVaction_t\np21854\nVBgABAQcIAAZQiDnxCgAJAAAAAImt0MwKABAAANiljfVJYg0AGgYKAAAACwEKAAAAAAAAAFAAuAABUN2s9AUDALkAAAAAAAAAZAC6AAFZ7clB+iACIwAAAAAAAAAIAMMAJA96ZNXnGAG7AAAAAAAAAGoACgAAAACJrdDMAAEAAVDdrPQFAwG2AAAAAFCIOfEB5AABUN2s9AUDDQAbBgsAAAABQAMAAAFFUmRpbydzIG5ldyAiUmVhY3Qgd2l0aCBhIFNvbmciIGJ1dHRvbiBpcyBmZWF0dXJlZCBvbiBHaXptb2RvLiBDaGVjayBpdCBvdXQhIC0gaHR0cDovL2J6ZmQuaXQvUlB6eFBHIG9vb29vIEJ1enpGZWVkJ3MgTmV3IFJkaW8gQnV0dG9uIExldHMgWW91IFJlYWN0IHRvIGEgUG9zdCB3aXRoIGEgU29uZyBvb29vbyBTb21ldGltZXMgc2VudGltZW50cyBhcmUgYmVzdCBleHByZXNzZWQg'
p6
sS'hash'
p7
S'f1fc18fbecf6a8166d34ccd8bdb83f16e03675a6'
p8
sS'stack'
p9
S''
s.