(dp1
S'args'
p2
S''
sS'methodname'
p3
S''
sS'packet_num'
p4
I156
sS'returnval'
p5
S'Vimage_hash\np19530\nVf6de44a2af21eaddaed892ff6ca3fc40\np19531\nsVname\np19532\nV"He Bard My Car"\np19533\nsVtitle\np19534\nV"He Bard My Car"\np19535\nsVcreative_id\np19536\nV6006159859565\np19537\nsVpreview_url\np19538\nVhttp://www.facebook.com/ads/api/creative_preview.php?cid=6006159859565\np19539\nsVid\np19540\nV6006159859565\np19541\nsVimage_url\np19542\nVhttps://fbcdn-creative-a.akamaihd.net/hads-ak-ash3/s110x80/708163_6006845543965_28224_n.png\np19543\nsVcount_current_adgroups\np19544\nI1\nsVrun_status\np19545\nI1\nsVtype\np19546\nI1\nsVlink_url\np19547\nVhttp://www.buzzfeed.com/h1/fbad/redneckisland/talk-like-a-redneck-in-10-easy-steps-7hyl\np19548\nsVview_tag\np19549\ng35\nsa(dp19550\nValt_view_tags\np19551\n(lp19552\nsVbody\np19553\nVThose guys can fix anything their way. See "20 Of The Best Redneck Repair Jobs" here!\np19554\nsVimage_hash\np19555\nV2b2b3f9ee29fee19ad58f9f9a1446224\np19556\nsVname\np19557\nVRedneck Limousine\np19558\nsVtitle\np19559\nVRedneck Limousine\np19560\nsVcreative_id\np19561\nV6006159323165\np19562\nsVpreview_url\np19563\nVhttp://www.facebook.com/ads/api/creative_preview.php?cid=6006159323165\np19564\nsVid\np19565\nV6006159323165\np19566\nsVimage_url\np19567\nVhttps://fbcdn-creative-a.akamaihd.net/hads-ak-prn1/s110x80/708172_6006844310365_34140_n.png\np19568\nsVcount_current_adgroups\np19569\nI1\nsVrun_status\np19570\nI1\nsVtype\np19571\nI1\nsVlink_url\np19572\nVhttp://www.buzzfeed.com/h1/fbad/redneckisland/20-of-the-best-redneck-repair-jobs-7hyl\np19573\nsVview_tag\np19574\ng35\nsa(dp19575\nValt_view_tags\np19576\n(lp19577\nsVbody\np19578\nVCheck out the "13 Of The Weirdest Conventions From Around The World" on BuzzFeed\np19579\nsVimage_hash\np19580\nVf10b25134b438ea408e699668b9ce570\np19581\nsVname\np19582\nVParkes Elvis Festival-00\np19583\nsVtitle\np19584\nVSideshow Convention?\np19585\nsVcreative_id\np19586\nV6006183113565\np19587\nsVpreview_url\np19588\nVhttp://www.facebook.com/ads/api/creative_preview.php?cid=6006183113565\np19589\nsVid\np19590\nV6006183113565\np19591\nsVimage_url\np19592\nVhttps://fbcdn-creative-a.akamaihd.net/hads-ak-prn1/s110x80/708178_6006845509965_61122_n.png\np19593\nsVcount_current_adgroups\np19594\nI1\nsVrun_status\np19595\nI1\nsVtype\np19596\nI1\nsVlink_url\np19597\nVhttp://www.buzzfeed.com/h1/fbad/intuitgopayment/13-of-the-weirdest-conventions-from-around-the-wor\np19598\nsVview_tag\np19599\ng35\nsa(dp19600\nValt_view_tags\np19601\n(lp19602\nsVbody\np19603\nVCheck out the "13 Of The Weirdest Conventions From Around The World" on BuzzFeed\np19604\nsVimage_hash\np19605\nV4fcab9b09e284b18770f333c95262520\np19606\nsVname\np19607\nVParkes Elvis Festival\np19608\nsVtitle\np19609\nVParkes Elvis Festival\np19610\nsVcreative_id\np19611\nV6006068165165\np19612\nsVpreview_url\np19613\nVhttp://www.facebook.com/ads/api/creative_preview.php?cid=6006068165165\np19614\nsVid\np19615\nV6006068165165\np19616\nsVimage_url\np19617\nVhttps://fbcdn-creative-a.akamaihd.net/hads-ak-ash3/s110x80/708192_6006844548965_40137_n.jpg\np19618\nsVcount_current_adgroups\np19619\nI1\nsVrun_status\np19620\nI1\nsVtype\np19621\nI1\nsVlink_url\np19622\nVhttp://www.buzzfeed.com/h1/fbad/intuitgopayment/13-of-the-weirdest-conventions-from-around-the-wor\np19623\nsVview_tag\np19624\ng35\nsa(dp19625\nValt_view_tags\np19626\n(lp19627\nsVbody\np19628\nVGuess anything can be remade. See the "15 Things You Never Knew Could Be Bootlegged!"\np19629\nsVimage_hash\np19630\nVd07cef2d46f851b071b13606fdf0e9fd\np19631\nsVname\np19632\nVBootleg Starbucks?-00\np19633\nsVtitle\np19634\nVBootleg Steve Jobs?\np19635\nsVcreative_id\np19636\nV6006182907365\np19637\nsVpreview_url\np19638\nVhttp://www.facebook.com/ads/api/creative_preview.php?cid=6006182907365\np19639\nsVid\np19640\nV6006182907365\np19641\nsVimage_url\np19642\nVhttps://fbcdn-creative-a.akamaihd.net/hads-ak-prn1/s110x80/708192_6006845298165_14908_n.png\np19643\nsVcount_current_adgroups\np19644\nI1\nsVrun_status\np19645\nI1\nsVtype\np19646\nI1\nsVlink_url\np19647\nVhttp://www.buzzfeed.com/h1/fbad/discovery/15-things-you-never-knew-could-be-bootlegged-70b3\np19648\nsVview_tag\np19649\ng35\nsa(dp19650\nValt_view_tags\np19651\n(lp19652\nsVbody\np19653\nVGuess anything can be remade. See the "15 Things You Never Knew Could Be Bootlegged!"\np19654\nsVimage_hash\np19655\nV55c3e610970452ebd69c119cd17e0eaa\np19656\nsVnam'
p6
sS'hash'
p7
S'f1fc18fbecf6a8166d34ccd8bdb83f16e03675a6'
p8
sS'stack'
p9
S''
s.