(dp1
S'args'
p2
S''
sS'methodname'
p3
S''
sS'packet_num'
p4
I109
sS'returnval'
p5
S'ter Gallagher\np21554\naV#Johnny Damon\np21555\naV#Drake (entertainer)\np21556\naV#Mark Ruffalo\np21557\naV#Vin Diesel\np21558\naV#Daniel Craig\np21559\naVoliver martinez\np21560\naV#Channing Tatum\np21561\nasVage_max\np21562\nI65\nsVcountries\np21563\n(lp21564\nVUS\np21565\nasVbroad_age\np21566\nI1\nsVage_min\np21567\nI18\nssVbid_info\np21568\n(dp21569\nV1\np21570\nV75\np21571\nssVstart_time\np21572\nNsVad_status\np21573\nI2\nsVcampaign_id\np21574\nI6004735636965\nsVlocations\np21575\n(lp21576\nI3\nasVcreated_time\np21577\nV2012-02-10T16:59:47+0000\np21578\nsVend_time\np21579\nNsVadgroup_status\np21580\nI8\nsVid\np21581\nV6004735637965\np21582\nsVad_id\np21583\nI6004735637965\nsVimpression_control_map\np21584\n(lp21585\n(dp21586\nVcontrol\np21587\n(dp21588\nVuser_impression_limit_period\np21589\nI24\nsVuser_impression_limit\np21590\nI6\nsVuser_impression_limit_period_unit\np21591\nI0\nsVimpression_control_type\np21592\nI2\nssVlocation\np21593\nI3\nsasVcreative_ids\np21594\n(lp21595\nI6004735637565\nasVmax_bid\np21596\nV75\np21597\nsVadgroup_id\np21598\nI6004735637965\nsVaccount_id\np21599\nI40156177\nsa(dp21600\nVconversion_specs\np21601\n(lp21602\nsVupdated_time\np21603\nV2012-09-21T19:59:52+0000\np21604\nsVbid_type\np21605\nI1\nsVname\np21606\nVDrake\np21607\nsVtracking_pixel_ids\np21608\n(lp21609\nsVtargeting\np21610\n(dp21611\nVkeywords\np21612\n(lp21613\nV#Kevin Sorbo\np21614\naV#Kris Humphries\np21615\naV#David Boreanaz\np21616\naV#Adam Goldberg\np21617\naV#Adrian Grenier\np21618\naV#Tom Brady\np21619\naV#Peter Gallagher\np21620\naV#Johnny Damon\np21621\naV#Drake (entertainer)\np21622\naV#Mark Ruffalo\np21623\naV#Vin Diesel\np21624\naV#Daniel Craig\np21625\naVoliver martinez\np21626\naV#Channing Tatum\np21627\nasVage_max\np21628\nI65\nsVcountries\np21629\n(lp21630\nVUS\np21631\nasVbroad_age\np21632\nI1\nsVage_min\np21633\nI18\nssVbid_info\np21634\n(dp21635\nV1\np21636\nV75\np21637\nssVstart_time\np21638\nNsVad_status\np21639\nI2\nsVcampaign_id\np21640\nI6004735636965\nsVlocations\np21641\n(lp21642\nI3\nasVcreated_time\np21643\nV2012-02-10T17:01:41+0000\np21644\nsVend_time\np21645\nNsVadgroup_status\np21646\nI8\nsVid\np21647\nV6004735639965\np21648\nsVad_id\np21649\nI6004735639965\nsVimpression_control_map\np21650\n(lp21651\n(dp21652\nVcontrol\np21653\n(dp21654\nVuser_impression_limit_period\np21655\nI24\nsVuser_impression_limit\np21656\nI6\nsVuser_impression_limit_period_unit\np21657\nI0\nsVimpression_control_type\np21658\nI2\nssVlocation\np21659\nI3\nsasVcreative_ids\np21660\n(lp21661\nI6004735639565\nasVmax_bid\np21662\nV75\np21663\nsVadgroup_id\np21664\nI6004735639965\nsVaccount_id\np21665\nI40156177\nsa(dp21666\nVconversion_specs\np21667\n(lp21668\nsVupdated_time\np21669\nV2012-09-21T19:59:52+0000\np21670\nsVbid_type\np21671\nI1\nsVname\np21672\nVVin Diesel\np21673\nsVtracking_pixel_ids\np21674\n(lp21675\nsVtargeting\np21676\n(dp21677\nVkeywords\np21678\n(lp21679\nV#Kevin Sorbo\np21680\naV#Kris Humphries\np21681\naV#David Boreanaz\np21682\naV#Adam Goldberg\np21683\naV#Adrian Grenier\np21684\naV#Tom Brady\np21685\naV#Peter Gallagher\np21686\naV#Johnny Damon\np21687\naV#Drake (entertainer)\np21688\naV#Mark Ruffalo\np21689\naV#Vin Diesel\np21690\naV#Daniel Craig\np21691\naVoliver martinez\np21692\naV#Channing Tatum\np21693\nasVage_max\np21694\nI65\nsVcountries\np21695\n(lp21696\nVUS\np21697\nasVbroad_age\np21698\nI1\nsVage_min\np21699\nI18\nssVbid_info\np21700\n(dp21701\nV1\np21702\nV75\np21703\nssVstart_time\np21704\nNsVad_status\np21705\nI2\nsVcampaign_id\np21706\nI6004735636965\nsVlocations\np21707\n(lp21708\nI3\nasVcreated_time\np21709\nV2012-02-10T17:03:24+0000\np21710\nsVend_time\np21711\nNsVadgroup_status\np21712\nI8\nsVid\np21713\nV6004735642365\np21714\nsVad_id\np21715\nI6004735642365\nsVimpression_control_map\np21716\n(lp21717\n(dp21718\nVcontrol\np21719\n(dp21720\nVuser_impression_limit_period\np21721\nI24\nsVuser_impression_limit\np21722\nI6\nsVuser_impression_limit_period_unit\np21723\nI0\nsVimpression_control_type\np21724\nI2\nssVlocation\np21725\nI3\nsasVcreative_ids\np21726\n(lp21727\nI6004735641965\nasVmax_bid\np21728\nV75\np21729\nsVadgroup_id\np21730\nI6004735642365\nsVaccount_id\np21731\nI40156177\nsa(dp21732\nVconversion_specs\np21733\n(lp21734\nsVupdated_time\np21735\nV2012-09-21T19:59:52+0000\np21736\nsVbid_type\np21737\nI1\nsVname\np21738\nVChanning Tatum\np21739\nsVtracking_pixel_ids\np21740\n(lp21741\nsVtargeting\np21742\n(dp21743\nVkeywords\np21744\n(lp21745\nV#Kevin Sorbo\np217'
p6
sS'hash'
p7
S'fa4bd2690aff97297b1b4ced0636f91f581a5104'
p8
sS'stack'
p9
S''
s.