(dp1
S'args'
p2
S''
sS'methodname'
p3
S''
sS'packet_num'
p4
I154
sS'returnval'
p5
S'148\naV#Sketch (drawing)\np30149\naV#Drawing\np30150\nasVage_max\np30151\nI65\nsVcountries\np30152\n(lp30153\nVUS\np30154\nasVbroad_age\np30155\nI1\nsVage_min\np30156\nI18\nssVbid_info\np30157\n(dp30158\nV1\np30159\nV65\np30160\nssVstart_time\np30161\nNsVad_status\np30162\nI2\nsVcampaign_id\np30163\nI6004945675965\nsVlocations\np30164\n(lp30165\nI3\nasVcreated_time\np30166\nV2012-03-30T20:50:39+0000\np30167\nsVend_time\np30168\nNsVadgroup_status\np30169\nI8\nsVid\np30170\nV6004945676965\np30171\nsVad_id\np30172\nI6004945676965\nsVimpression_control_map\np30173\n(lp30174\n(dp30175\nVcontrol\np30176\n(dp30177\nVuser_impression_limit_period\np30178\nI24\nsVuser_impression_limit\np30179\nI6\nsVuser_impression_limit_period_unit\np30180\nI0\nsVimpression_control_type\np30181\nI2\nssVlocation\np30182\nI3\nsasVcreative_ids\np30183\n(lp30184\nI6004945676565\nasVmax_bid\np30185\nV65\np30186\nsVadgroup_id\np30187\nI6004945676965\nsVaccount_id\np30188\nI40156177\nsa(dp30189\nVconversion_specs\np30190\n(lp30191\n(dp30192\nVpage\np30193\nI238205562866018\nsVaction.type\np30194\nVpage_story\np30195\nsasVupdated_time\np30196\nV2012-09-21T20:01:17+0000\np30197\nsVbid_type\np30198\nI1\nsVname\np30199\nVBuzzFeed Targeted\np30200\nsVtracking_pixel_ids\np30201\n(lp30202\nsVtargeting\np30203\n(dp30204\nVconnections\np30205\n(lp30206\n(dp30207\nVid\np30208\nV21898300328\np30209\nsVname\np30210\nVBuzzFeed\np30211\nsa(dp30212\nVid\np30213\nV238205562866018\np30214\nsVname\np30215\nVBuzzFeed Partner\np30216\nsasVage_max\np30217\nI65\nsVcountries\np30218\n(lp30219\nVUS\np30220\nasVbroad_age\np30221\nI1\nsVage_min\np30222\nI18\nssVbid_info\np30223\n(dp30224\nV1\np30225\nV65\np30226\nssVstart_time\np30227\nNsVad_status\np30228\nI2\nsVcampaign_id\np30229\nI6004945675965\nsVlocations\np30230\n(lp30231\nI3\nasVcreated_time\np30232\nV2012-03-30T21:13:12+0000\np30233\nsVend_time\np30234\nNsVadgroup_status\np30235\nI8\nsVid\np30236\nV6004945688965\np30237\nsVad_id\np30238\nI6004945688965\nsVimpression_control_map\np30239\n(lp30240\n(dp30241\nVcontrol\np30242\n(dp30243\nVuser_impression_limit_period\np30244\nI24\nsVuser_impression_limit\np30245\nI6\nsVuser_impression_limit_period_unit\np30246\nI0\nsVimpression_control_type\np30247\nI2\nssVlocation\np30248\nI3\nsasVcreative_ids\np30249\n(lp30250\nI6004945676565\nasVmax_bid\np30251\nV65\np30252\nsVadgroup_id\np30253\nI6004945688965\nsVaccount_id\np30254\nI40156177\nsa(dp30255\nVconversion_specs\np30256\n(lp30257\nsVupdated_time\np30258\nV2012-09-21T20:01:19+0000\np30259\nsVbid_type\np30260\nI1\nsVname\np30261\nVThe Loch Ness Monster\np30262\nsVtracking_pixel_ids\np30263\n(lp30264\nsVtargeting\np30265\n(dp30266\nVage_max\np30267\nI65\nsVcountries\np30268\n(lp30269\nVUS\np30270\nasVbroad_age\np30271\nI1\nsVage_min\np30272\nI18\nssVbid_info\np30273\n(dp30274\nV1\np30275\nV65\np30276\nssVstart_time\np30277\nNsVad_status\np30278\nI2\nsVcampaign_id\np30279\nI6004946048365\nsVlocations\np30280\n(lp30281\nI3\nasVcreated_time\np30282\nV2012-03-30T22:54:44+0000\np30283\nsVend_time\np30284\nV2012-04-11T03:30:00+0000\np30285\nsVadgroup_status\np30286\nI8\nsVid\np30287\nV6004946049365\np30288\nsVad_id\np30289\nI6004946049365\nsVimpression_control_map\np30290\n(lp30291\n(dp30292\nVcontrol\np30293\n(dp30294\nVuser_impression_limit_period\np30295\nI24\nsVuser_impression_limit\np30296\nI6\nsVuser_impression_limit_period_unit\np30297\nI0\nsVimpression_control_type\np30298\nI2\nssVlocation\np30299\nI3\nsasVcreative_ids\np30300\n(lp30301\nI6004946048965\nasVmax_bid\np30302\nV65\np30303\nsVadgroup_id\np30304\nI6004946049365\nsVaccount_id\np30305\nI40156177\nsa(dp30306\nVconversion_specs\np30307\n(lp30308\nsVupdated_time\np30309\nV2012-09-21T20:01:19+0000\np30310\nsVbid_type\np30311\nI1\nsVname\np30312\nVThe Legendary Bigfoot\np30313\nsVtracking_pixel_ids\np30314\n(lp30315\nsVtargeting\np30316\n(dp30317\nVage_max\np30318\nI65\nsVcountries\np30319\n(lp30320\nVUS\np30321\nasVbroad_age\np30322\nI1\nsVage_min\np30323\nI18\nssVbid_info\np30324\n(dp30325\nV1\np30326\nV65\np30327\nssVstart_time\np30328\nNsVad_status\np30329\nI2\nsVcampaign_id\np30330\nI6004946048365\nsVlocations\np30331\n(lp30332\nI3\nasVcreated_time\np30333\nV2012-03-30T23:10:39+0000\np30334\nsVend_time\np30335\nV2012-04-11T03:30:00+0000\np30336\nsVadgroup_status\np30337\nI8\nsVid\np30338\nV6004946139765\np30339\nsVad_id\np30340\nI6004946139765\nsVimpression_control_map\np30341\n(lp30342\n(dp30343\nVcontrol\np30344\n(dp30345\nVuser_impression_limit_period\np30346\nI24\nsVuser'
p6
sS'hash'
p7
S'fa4bd2690aff97297b1b4ced0636f91f581a5104'
p8
sS'stack'
p9
S''
s.