(dp1
S'args'
p2
S''
sS'methodname'
p3
S''
sS'packet_num'
p4
I30
sS'returnval'
p5
S"73965\nsVaccount_id\np6139\nI40156177\nsa(dp6140\nVconversion_specs\np6141\n(lp6142\nsVupdated_time\np6143\nV2012-09-21T19:56:50+0000\np6144\nsVbid_type\np6145\nI1\nsVname\np6146\nVChoosing The Perfect Gift\np6147\nsVtracking_pixel_ids\np6148\n(lp6149\nsVtargeting\np6150\n(dp6151\nVkeywords\np6152\n(lp6153\nV#Gift\np6154\naV#Birthday\np6155\naV#Gift wrapping\np6156\naV#Christmas\np6157\nasVage_max\np6158\nI65\nsVcountries\np6159\n(lp6160\nVUS\np6161\nasVbroad_age\np6162\nI1\nsVage_min\np6163\nI18\nssVbid_info\np6164\n(dp6165\nV1\np6166\nV49\np6167\nssVstart_time\np6168\nNsVad_status\np6169\nI2\nsVcampaign_id\np6170\nI6004100096765\nsVlocations\np6171\n(lp6172\nI3\nasVcreated_time\np6173\nV2011-12-02T18:56:49+0000\np6174\nsVend_time\np6175\nNsVadgroup_status\np6176\nI8\nsVid\np6177\nV6004100097765\np6178\nsVad_id\np6179\nI6004100097765\nsVimpression_control_map\np6180\n(lp6181\n(dp6182\nVcontrol\np6183\n(dp6184\nVuser_impression_limit_period\np6185\nI24\nsVuser_impression_limit\np6186\nI3\nsVuser_impression_limit_period_unit\np6187\nI0\nsVimpression_control_type\np6188\nI2\nssVlocation\np6189\nI3\nsasVcreative_ids\np6190\n(lp6191\nI6004100104365\nasVmax_bid\np6192\nV49\np6193\nsVadgroup_id\np6194\nI6004100097765\nsVaccount_id\np6195\nI40156177\nsa(dp6196\nVconversion_specs\np6197\n(lp6198\nsVupdated_time\np6199\nV2012-09-21T19:56:52+0000\np6200\nsVbid_type\np6201\nI1\nsVname\np6202\nV17 Health Benefits of Sex\np6203\nsVtracking_pixel_ids\np6204\n(lp6205\nsVtargeting\np6206\n(dp6207\nVage_max\np6208\nI65\nsVcountries\np6209\n(lp6210\nVUS\np6211\nasVbroad_age\np6212\nI1\nsVage_min\np6213\nI18\nssVbid_info\np6214\n(dp6215\nV1\np6216\nV80\np6217\nssVstart_time\np6218\nNsVad_status\np6219\nI2\nsVcampaign_id\np6220\nI6004100114365\nsVlocations\np6221\n(lp6222\nI3\nasVcreated_time\np6223\nV2011-12-02T19:16:50+0000\np6224\nsVend_time\np6225\nNsVadgroup_status\np6226\nI8\nsVid\np6227\nV6004100115365\np6228\nsVad_id\np6229\nI6004100115365\nsVimpression_control_map\np6230\n(lp6231\n(dp6232\nVcontrol\np6233\n(dp6234\nVuser_impression_limit_period\np6235\nI24\nsVuser_impression_limit\np6236\nI6\nsVuser_impression_limit_period_unit\np6237\nI0\nsVimpression_control_type\np6238\nI2\nssVlocation\np6239\nI3\nsasVcreative_ids\np6240\n(lp6241\nI6004100114965\nasVmax_bid\np6242\nV80\np6243\nsVadgroup_id\np6244\nI6004100115365\nsVaccount_id\np6245\nI40156177\nsa(dp6246\nVconversion_specs\np6247\n(lp6248\nsVupdated_time\np6249\nV2012-09-21T19:56:54+0000\np6250\nsVbid_type\np6251\nI1\nsVname\np6252\nVBest Fed Colleges Of USA! (VT)\np6253\nsVtracking_pixel_ids\np6254\n(lp6255\nsVtargeting\np6256\n(dp6257\nVkeywords\np6258\n(lp6259\nV#VTech\np6260\naVvirginia tech hokies\np6261\naV#Virginia Tech Hokies football\np6262\naVvirginia tech alumni\np6263\naV#Virginia Tech Hokies\np6264\naVvirginia tech\np6265\naVvirginia tech athletics\np6266\nasVage_max\np6267\nI65\nsVcountries\np6268\n(lp6269\nVUS\np6270\nasVbroad_age\np6271\nI1\nsVage_min\np6272\nI18\nssVbid_info\np6273\n(dp6274\nV1\np6275\nV80\np6276\nssVstart_time\np6277\nNsVad_status\np6278\nI2\nsVcampaign_id\np6279\nI6004100139765\nsVlocations\np6280\n(lp6281\nI3\nasVcreated_time\np6282\nV2011-12-02T19:54:18+0000\np6283\nsVend_time\np6284\nNsVadgroup_status\np6285\nI8\nsVid\np6286\nV6004100140765\np6287\nsVad_id\np6288\nI6004100140765\nsVimpression_control_map\np6289\n(lp6290\n(dp6291\nVcontrol\np6292\n(dp6293\nVuser_impression_limit_period\np6294\nI24\nsVuser_impression_limit\np6295\nI3\nsVuser_impression_limit_period_unit\np6296\nI0\nsVimpression_control_type\np6297\nI2\nssVlocation\np6298\nI3\nsasVcreative_ids\np6299\n(lp6300\nI6004100140365\nasVmax_bid\np6301\nV80\np6302\nsVadgroup_id\np6303\nI6004100140765\nsVaccount_id\np6304\nI40156177\nsa(dp6305\nVconversion_specs\np6306\n(lp6307\nsVupdated_time\np6308\nV2012-09-21T19:56:54+0000\np6309\nsVbid_type\np6310\nI1\nsVname\np6311\nVBest Fed Colleges Of USA! (UCLA)\np6312\nsVtracking_pixel_ids\np6313\n(lp6314\nsVtargeting\np6315\n(dp6316\nVkeywords\np6317\n(lp6318\nV#UCLA Bruins football\np6319\naV#UCLA Bruins baseball\np6320\naV#UCLA Bruins men's basketball\np6321\naV#UCLA Bruins\np6322\naV#University of California, Los Angeles\np6323\naVucla\np6324\nasVage_max\np6325\nI65\nsVcountries\np6326\n(lp6327\nVUS\np6328\nasVbroad_age\np6329\nI1\nsVage_min\np6330\nI18\nssVbid_info\np6331\n(dp6332\nV1\np6333\nV80\np6334\nssVstart_time\np6335\nNsVad_status\np6336\nI2\nsVcampaign_id\np6337\nI6004100139765\nsVlocations\np6338\n(lp6339\nI3\nasVcreated_time\np6340\nV2011-"
p6
sS'hash'
p7
S'fa4bd2690aff97297b1b4ced0636f91f581a5104'
p8
sS'stack'
p9
S''
s.