(dp1
S'args'
p2
S''
sS'methodname'
p3
S''
sS'packet_num'
p4
I145
sS'returnval'
p5
S"Mays (Untargeted)\np28393\nsVtracking_pixel_ids\np28394\n(lp28395\nsVtargeting\np28396\n(dp28397\nVage_max\np28398\nI65\nsVcountries\np28399\n(lp28400\nVUS\np28401\nasVbroad_age\np28402\nI1\nsVage_min\np28403\nI18\nssVbid_info\np28404\n(dp28405\nV1\np28406\nV55\np28407\nssVstart_time\np28408\nNsVad_status\np28409\nI2\nsVcampaign_id\np28410\nI6004898417765\nsVlocations\np28411\n(lp28412\nI3\nasVcreated_time\np28413\nV2012-03-23T14:22:03+0000\np28414\nsVend_time\np28415\nNsVadgroup_status\np28416\nI8\nsVid\np28417\nV6004919932965\np28418\nsVad_id\np28419\nI6004919932965\nsVimpression_control_map\np28420\n(lp28421\n(dp28422\nVcontrol\np28423\n(dp28424\nVuser_impression_limit_period\np28425\nI24\nsVuser_impression_limit\np28426\nI6\nsVuser_impression_limit_period_unit\np28427\nI0\nsVimpression_control_type\np28428\nI2\nssVlocation\np28429\nI3\nsasVcreative_ids\np28430\n(lp28431\nI6004898418365\nasVmax_bid\np28432\nV55\np28433\nsVadgroup_id\np28434\nI6004919932965\nsVaccount_id\np28435\nI40156177\nsa(dp28436\nVconversion_specs\np28437\n(lp28438\nsVupdated_time\np28439\nV2012-09-21T20:00:57+0000\np28440\nsVbid_type\np28441\nI1\nsVname\np28442\nVTony Little (Untargeted)\np28443\nsVtracking_pixel_ids\np28444\n(lp28445\nsVtargeting\np28446\n(dp28447\nVage_max\np28448\nI65\nsVcountries\np28449\n(lp28450\nVUS\np28451\nasVbroad_age\np28452\nI1\nsVage_min\np28453\nI18\nssVbid_info\np28454\n(dp28455\nV1\np28456\nV75\np28457\nssVstart_time\np28458\nNsVad_status\np28459\nI2\nsVcampaign_id\np28460\nI6004898417765\nsVlocations\np28461\n(lp28462\nI3\nasVcreated_time\np28463\nV2012-03-23T14:26:33+0000\np28464\nsVend_time\np28465\nNsVadgroup_status\np28466\nI8\nsVid\np28467\nV6004919947165\np28468\nsVad_id\np28469\nI6004919947165\nsVimpression_control_map\np28470\n(lp28471\n(dp28472\nVcontrol\np28473\n(dp28474\nVuser_impression_limit_period\np28475\nI24\nsVuser_impression_limit\np28476\nI6\nsVuser_impression_limit_period_unit\np28477\nI0\nsVimpression_control_type\np28478\nI2\nssVlocation\np28479\nI3\nsasVcreative_ids\np28480\n(lp28481\nI6004898641165\nasVmax_bid\np28482\nV75\np28483\nsVadgroup_id\np28484\nI6004919947165\nsVaccount_id\np28485\nI40156177\nsa(dp28486\nVconversion_specs\np28487\n(lp28488\nsVupdated_time\np28489\nV2012-09-21T20:00:57+0000\np28490\nsVbid_type\np28491\nI1\nsVname\np28492\nVVince Offer (Untargeted)\np28493\nsVtracking_pixel_ids\np28494\n(lp28495\nsVtargeting\np28496\n(dp28497\nVage_max\np28498\nI65\nsVcountries\np28499\n(lp28500\nVUS\np28501\nasVbroad_age\np28502\nI1\nsVage_min\np28503\nI18\nssVbid_info\np28504\n(dp28505\nV1\np28506\nV75\np28507\nssVstart_time\np28508\nNsVad_status\np28509\nI2\nsVcampaign_id\np28510\nI6004898417765\nsVlocations\np28511\n(lp28512\nI3\nasVcreated_time\np28513\nV2012-03-23T14:27:20+0000\np28514\nsVend_time\np28515\nNsVadgroup_status\np28516\nI8\nsVid\np28517\nV6004919948965\np28518\nsVad_id\np28519\nI6004919948965\nsVimpression_control_map\np28520\n(lp28521\n(dp28522\nVcontrol\np28523\n(dp28524\nVuser_impression_limit_period\np28525\nI24\nsVuser_impression_limit\np28526\nI6\nsVuser_impression_limit_period_unit\np28527\nI0\nsVimpression_control_type\np28528\nI2\nssVlocation\np28529\nI3\nsasVcreative_ids\np28530\n(lp28531\nI6004898421165\nasVmax_bid\np28532\nV75\np28533\nsVadgroup_id\np28534\nI6004919948965\nsVaccount_id\np28535\nI40156177\nsa(dp28536\nVconversion_specs\np28537\n(lp28538\nsVupdated_time\np28539\nV2012-09-21T20:00:59+0000\np28540\nsVbid_type\np28541\nI1\nsVname\np28542\nVThink You're Tired?\np28543\nsVtracking_pixel_ids\np28544\n(lp28545\nsVtargeting\np28546\n(dp28547\nVage_max\np28548\nI65\nsVcountries\np28549\n(lp28550\nVUS\np28551\nasVbroad_age\np28552\nI1\nsVage_min\np28553\nI18\nssVbid_info\np28554\n(dp28555\nV1\np28556\nV75\np28557\nssVstart_time\np28558\nNsVad_status\np28559\nI2\nsVcampaign_id\np28560\nI6004919911165\nsVlocations\np28561\n(lp28562\nI3\nasVcreated_time\np28563\nV2012-03-23T14:07:12+0000\np28564\nsVend_time\np28565\nNsVadgroup_status\np28566\nI8\nsVid\np28567\nV6004919911965\np28568\nsVad_id\np28569\nI6004919911965\nsVimpression_control_map\np28570\n(lp28571\n(dp28572\nVcontrol\np28573\n(dp28574\nVuser_impression_limit_period\np28575\nI24\nsVuser_impression_limit\np28576\nI6\nsVuser_impression_limit_period_unit\np28577\nI0\nsVimpression_control_type\np28578\nI2\nssVlocation\np28579\nI3\nsasVcreative_ids\np28580\n(lp28581\nI6004685365765\nasVmax_bid\np28582\nV75\np28583\nsVadgroup_id\np28584\nI6004919911965\nsVaccount_id\np28585\nI40156177\nsa(dp28586\nV"
p6
sS'hash'
p7
S'fa4bd2690aff97297b1b4ced0636f91f581a5104'
p8
sS'stack'
p9
S''
s.