(dp1
S'args'
p2
S''
sS'methodname'
p3
S''
sS'packet_num'
p4
I27
sS'returnval'
p5
S"Vaccount_id\np5527\nI40156177\nsa(dp5528\nVconversion_specs\np5529\n(lp5530\n(dp5531\nVpage\np5532\nI238205562866018\nsVaction.type\np5533\nVpage_story\np5534\nsasVupdated_time\np5535\nV2012-09-21T19:56:37+0000\np5536\nsVbid_type\np5537\nI1\nsVname\np5538\nVCompetitive\np5539\nsVtracking_pixel_ids\np5540\n(lp5541\nsVtargeting\np5542\n(dp5543\nVcountries\np5544\n(lp5545\nVUS\np5546\nasVbroad_age\np5547\nI1\nsVexcluded_connections\np5548\n(lp5549\n(dp5550\nVid\np5551\nV238205562866018\np5552\nsVname\np5553\nVBuzzFeed Partner\np5554\nsasVage_min\np5555\nI21\nsVkeywords\np5556\n(lp5557\nV#Cruzan Rum\np5558\naV#Bacardi 151\np5559\naV#Appleton Estate\np5560\naV#Malibu Rum\np5561\naV#Bacardi\np5562\naV#Bacardi Breezer\np5563\naVcruzan rum\np5564\nasVage_max\np5565\nI65\nssVbid_info\np5566\n(dp5567\nV1\np5568\nV55\np5569\nssVstart_time\np5570\nNsVad_status\np5571\nI2\nsVcampaign_id\np5572\nI6004090942965\nsVlocations\np5573\n(lp5574\nI3\nasVcreated_time\np5575\nV2011-12-01T15:39:50+0000\np5576\nsVend_time\np5577\nNsVadgroup_status\np5578\nI8\nsVid\np5579\nV6004091172365\np5580\nsVad_id\np5581\nI6004091172365\nsVimpression_control_map\np5582\n(lp5583\n(dp5584\nVcontrol\np5585\n(dp5586\nVuser_impression_limit_period\np5587\nI24\nsVuser_impression_limit\np5588\nI6\nsVuser_impression_limit_period_unit\np5589\nI0\nsVimpression_control_type\np5590\nI2\nssVlocation\np5591\nI3\nsasVcreative_ids\np5592\n(lp5593\nI6004090943565\nasVmax_bid\np5594\nV55\np5595\nsVadgroup_id\np5596\nI6004091172365\nsVaccount_id\np5597\nI40156177\nsa(dp5598\nVconversion_specs\np5599\n(lp5600\nsVupdated_time\np5601\nV2012-09-21T19:56:38+0000\np5602\nsVbid_type\np5603\nI1\nsVname\np5604\nVWho's Fault Is It?\np5605\nsVtracking_pixel_ids\np5606\n(lp5607\nsVtargeting\np5608\n(dp5609\nVage_max\np5610\nI65\nsVcountries\np5611\n(lp5612\nVUS\np5613\nasVbroad_age\np5614\nI1\nsVage_min\np5615\nI18\nssVbid_info\np5616\n(dp5617\nV1\np5618\nV49\np5619\nssVstart_time\np5620\nNsVad_status\np5621\nI2\nsVcampaign_id\np5622\nI6004091455165\nsVlocations\np5623\n(lp5624\nI3\nasVcreated_time\np5625\nV2011-12-01T16:34:07+0000\np5626\nsVend_time\np5627\nV2011-12-02T04:30:00+0000\np5628\nsVadgroup_status\np5629\nI8\nsVid\np5630\nV6004091456165\np5631\nsVad_id\np5632\nI6004091456165\nsVimpression_control_map\np5633\n(lp5634\n(dp5635\nVcontrol\np5636\n(dp5637\nVuser_impression_limit_period\np5638\nI24\nsVuser_impression_limit\np5639\nI6\nsVuser_impression_limit_period_unit\np5640\nI0\nsVimpression_control_type\np5641\nI2\nssVlocation\np5642\nI3\nsasVcreative_ids\np5643\n(lp5644\nI6004091455765\nasVmax_bid\np5645\nV49\np5646\nsVadgroup_id\np5647\nI6004091456165\nsVaccount_id\np5648\nI40156177\nsa(dp5649\nVconversion_specs\np5650\n(lp5651\nsVupdated_time\np5652\nV2012-09-21T19:56:40+0000\np5653\nsVbid_type\np5654\nI1\nsVname\np5655\nVDWI vs. DW-High\np5656\nsVtracking_pixel_ids\np5657\n(lp5658\nsVtargeting\np5659\n(dp5660\nVkeywords\np5661\n(lp5662\nV#News\np5663\naV#Yahoo! News\np5664\naV#Newspaper\np5665\nasVage_max\np5666\nI65\nsVcountries\np5667\n(lp5668\nVUS\np5669\nasVbroad_age\np5670\nI1\nsVage_min\np5671\nI18\nssVbid_info\np5672\n(dp5673\nV1\np5674\nV69\np5675\nssVstart_time\np5676\nNsVad_status\np5677\nI2\nsVcampaign_id\np5678\nI6004091461565\nsVlocations\np5679\n(lp5680\nI3\nasVcreated_time\np5681\nV2011-12-01T16:44:40+0000\np5682\nsVend_time\np5683\nV2011-12-02T04:30:00+0000\np5684\nsVadgroup_status\np5685\nI8\nsVid\np5686\nV6004091462565\np5687\nsVad_id\np5688\nI6004091462565\nsVimpression_control_map\np5689\n(lp5690\n(dp5691\nVcontrol\np5692\n(dp5693\nVuser_impression_limit_period\np5694\nI24\nsVuser_impression_limit\np5695\nI3\nsVuser_impression_limit_period_unit\np5696\nI0\nsVimpression_control_type\np5697\nI2\nssVlocation\np5698\nI3\nsasVcreative_ids\np5699\n(lp5700\nI6004094244565\nasVmax_bid\np5701\nV69\np5702\nsVadgroup_id\np5703\nI6004091462565\nsVaccount_id\np5704\nI40156177\nsa(dp5705\nVconversion_specs\np5706\n(lp5707\nsVupdated_time\np5708\nV2012-09-21T19:56:43+0000\np5709\nsVbid_type\np5710\nI1\nsVname\np5711\nVRise of the Geek Lobby - news targeted\np5712\nsVtracking_pixel_ids\np5713\n(lp5714\nsVtargeting\np5715\n(dp5716\nVkeywords\np5717\n(lp5718\nV#News\np5719\naV#Yahoo! News\np5720\naV#Newspaper\np5721\nasVage_max\np5722\nI65\nsVcountries\np5723\n(lp5724\nVUS\np5725\nasVbroad_age\np5726\nI1\nsVage_min\np5727\nI18\nssVbid_info\np5728\n(dp5729\nV1\np5730\nV68\np5731\nssVstart_time\np5732\nNsVad_status\np5733\nI2\nsVcampaign_id\np5734\nI6004091464565\nsVlocations\np5735\n(lp5736\nI3\nasV"
p6
sS'hash'
p7
S'fa4bd2690aff97297b1b4ced0636f91f581a5104'
p8
sS'stack'
p9
S''
s.