(dp1
S'args'
p2
S''
sS'methodname'
p3
S''
sS'packet_num'
p4
I142
sS'returnval'
p5
S'812\nasVage_max\np27813\nI65\nsVcountries\np27814\n(lp27815\nVUS\np27816\nasVbroad_age\np27817\nI1\nsVage_min\np27818\nI18\nssVbid_info\np27819\n(dp27820\nV1\np27821\nV75\np27822\nssVstart_time\np27823\nNsVad_status\np27824\nI2\nsVcampaign_id\np27825\nI6004881168965\nsVlocations\np27826\n(lp27827\nI3\nasVcreated_time\np27828\nV2012-03-13T16:05:39+0000\np27829\nsVend_time\np27830\nNsVadgroup_status\np27831\nI8\nsVid\np27832\nV6004881460165\np27833\nsVad_id\np27834\nI6004881460165\nsVimpression_control_map\np27835\n(lp27836\n(dp27837\nVcontrol\np27838\n(dp27839\nVuser_impression_limit_period\np27840\nI24\nsVuser_impression_limit\np27841\nI6\nsVuser_impression_limit_period_unit\np27842\nI0\nsVimpression_control_type\np27843\nI2\nssVlocation\np27844\nI3\nsasVcreative_ids\np27845\n(lp27846\nI6004881459765\nasVmax_bid\np27847\nV75\np27848\nsVadgroup_id\np27849\nI6004881460165\nsVaccount_id\np27850\nI40156177\nsa(dp27851\nVconversion_specs\np27852\n(lp27853\nsVupdated_time\np27854\nV2012-09-21T20:00:51+0000\np27855\nsVbid_type\np27856\nI1\nsVname\np27857\nVUntargeted\np27858\nsVtracking_pixel_ids\np27859\n(lp27860\nsVtargeting\np27861\n(dp27862\nVage_max\np27863\nI30\nsVcountries\np27864\n(lp27865\nVUS\np27866\nasVbroad_age\np27867\nI1\nsVage_min\np27868\nI18\nssVbid_info\np27869\n(dp27870\nV1\np27871\nV75\np27872\nssVstart_time\np27873\nNsVad_status\np27874\nI2\nsVcampaign_id\np27875\nI6004881168965\nsVlocations\np27876\n(lp27877\nI3\nasVcreated_time\np27878\nV2012-03-14T20:42:21+0000\np27879\nsVend_time\np27880\nNsVadgroup_status\np27881\nI8\nsVid\np27882\nV6004886225965\np27883\nsVad_id\np27884\nI6004886225965\nsVimpression_control_map\np27885\n(lp27886\n(dp27887\nVcontrol\np27888\n(dp27889\nVuser_impression_limit_period\np27890\nI24\nsVuser_impression_limit\np27891\nI3\nsVuser_impression_limit_period_unit\np27892\nI0\nsVimpression_control_type\np27893\nI2\nssVlocation\np27894\nI3\nsasVcreative_ids\np27895\n(lp27896\nI6004881459765\nasVmax_bid\np27897\nV75\np27898\nsVadgroup_id\np27899\nI6004886225965\nsVaccount_id\np27900\nI40156177\nsa(dp27901\nVconversion_specs\np27902\n(lp27903\nsVupdated_time\np27904\nV2012-09-21T20:00:53+0000\np27905\nsVbid_type\np27906\nI1\nsVname\np27907\nVTexting\np27908\nsVtracking_pixel_ids\np27909\n(lp27910\nsVtargeting\np27911\n(dp27912\nVkeywords\np27913\n(lp27914\nV#Metacafe\np27915\naV#Hotmail\np27916\naV#AOL Instant Messenger\np27917\naV#Microsoft Excel\np27918\naV#Facebook\np27919\naV#StumbleUpon\np27920\naV#Windows Live Messenger\np27921\naV#Microsoft Outlook\np27922\naV#Digg\np27923\naV#Yahoo!\np27924\naV#CollegeHumor\np27925\naV#Microsoft Windows\np27926\naV#Microsoft\np27927\naV#Dailymotion\np27928\naV#Reddit\np27929\naV#Skype\np27930\naV#Microsoft Word\np27931\naV#Meebo\np27932\naV#BuzzFeed\np27933\naV#Gawker\np27934\naV#Twitter\np27935\naV#AOL\np27936\naV#Gmail\np27937\naV#Microsoft Office\np27938\naV#Pinterest\np27939\naV#YouTube\np27940\nasVage_max\np27941\nI65\nsVcountries\np27942\n(lp27943\nVUS\np27944\nasVbroad_age\np27945\nI1\nsVage_min\np27946\nI18\nssVbid_info\np27947\n(dp27948\nV1\np27949\nV75\np27950\nssVstart_time\np27951\nNsVad_status\np27952\nI2\nsVcampaign_id\np27953\nI6004887110565\nsVlocations\np27954\n(lp27955\nI3\nasVcreated_time\np27956\nV2012-03-15T14:56:43+0000\np27957\nsVend_time\np27958\nNsVadgroup_status\np27959\nI8\nsVid\np27960\nV6004887111565\np27961\nsVad_id\np27962\nI6004887111565\nsVimpression_control_map\np27963\n(lp27964\n(dp27965\nVcontrol\np27966\n(dp27967\nVuser_impression_limit_period\np27968\nI24\nsVuser_impression_limit\np27969\nI6\nsVuser_impression_limit_period_unit\np27970\nI0\nsVimpression_control_type\np27971\nI2\nssVlocation\np27972\nI3\nsasVcreative_ids\np27973\n(lp27974\nI6004887111165\nasVmax_bid\np27975\nV75\np27976\nsVadgroup_id\np27977\nI6004887111565\nsVaccount_id\np27978\nI40156177\nsa(dp27979\nVconversion_specs\np27980\n(lp27981\nsVupdated_time\np27982\nV2012-09-21T20:00:53+0000\np27983\nsVbid_type\np27984\nI1\nsVname\np27985\nVReading For School\np27986\nsVtracking_pixel_ids\np27987\n(lp27988\nsVtargeting\np27989\n(dp27990\nVkeywords\np27991\n(lp27992\nV#Metacafe\np27993\naV#Hotmail\np27994\naV#AOL Instant Messenger\np27995\naV#Microsoft Excel\np27996\naV#Facebook\np27997\naV#StumbleUpon\np27998\naV#Windows Live Messenger\np27999\naV#Microsoft Outlook\np28000\naV#Digg\np28001\naV#Yahoo!\np28002\naV#CollegeHumor\np28003\naV#Microsoft Windows\np28004\naV#Microsoft\np28005\naV#Dailymotion\np28006\naV#Reddit\np28007\naV#Skype\np28008\na'
p6
sS'hash'
p7
S'fa4bd2690aff97297b1b4ced0636f91f581a5104'
p8
sS'stack'
p9
S''
s.