(dp1
S'args'
p2
S''
sS'methodname'
p3
S''
sS'packet_num'
p4
I23
sS'returnval'
p5
S'ontrol_map\np4715\n(lp4716\n(dp4717\nVcontrol\np4718\n(dp4719\nVuser_impression_limit_period\np4720\nI24\nsVuser_impression_limit\np4721\nI6\nsVuser_impression_limit_period_unit\np4722\nI0\nsVimpression_control_type\np4723\nI2\nssVlocation\np4724\nI3\nsasVcreative_ids\np4725\n(lp4726\nI6004075486165\nasVmax_bid\np4727\nV80\np4728\nsVadgroup_id\np4729\nI6004075486565\nsVaccount_id\np4730\nI40156177\nsa(dp4731\nVconversion_specs\np4732\n(lp4733\nsVupdated_time\np4734\nV2011-11-29T19:36:27+0000\np4735\nsVbid_type\np4736\nI1\nsVname\np4737\nVThe Past And The Present (B and B)\np4738\nsVtracking_pixel_ids\np4739\n(lp4740\nsVtargeting\np4741\n(dp4742\nVkeywords\np4743\n(lp4744\nV#Beavis and Butt-head (video game)\np4745\naV#Beavis and Butt-head\np4746\naV#Beavis and Butt-head Do America\np4747\nasVage_max\np4748\nI65\nsVcountries\np4749\n(lp4750\nVUS\np4751\nasVbroad_age\np4752\nI1\nsVage_min\np4753\nI18\nssVbid_info\np4754\n(dp4755\nV1\np4756\nV80\np4757\nssVstart_time\np4758\nNsVad_status\np4759\nI2\nsVcampaign_id\np4760\nI6004075470965\nsVlocations\np4761\n(lp4762\nI3\nasVcreated_time\np4763\nV2011-11-28T20:47:57+0000\np4764\nsVend_time\np4765\nNsVadgroup_status\np4766\nI9\nsVid\np4767\nV6004075489965\np4768\nsVad_id\np4769\nI6004075489965\nsVimpression_control_map\np4770\n(lp4771\n(dp4772\nVcontrol\np4773\n(dp4774\nVuser_impression_limit_period\np4775\nI24\nsVuser_impression_limit\np4776\nI6\nsVuser_impression_limit_period_unit\np4777\nI0\nsVimpression_control_type\np4778\nI2\nssVlocation\np4779\nI3\nsasVcreative_ids\np4780\n(lp4781\nI6004075489565\nasVmax_bid\np4782\nV80\np4783\nsVadgroup_id\np4784\nI6004075489965\nsVaccount_id\np4785\nI40156177\nsa(dp4786\nVconversion_specs\np4787\n(lp4788\nsVupdated_time\np4789\nV2011-11-29T19:36:28+0000\np4790\nsVbid_type\np4791\nI1\nsVname\np4792\nVThe Past And The Present (Converse)\np4793\nsVtracking_pixel_ids\np4794\n(lp4795\nsVtargeting\np4796\n(dp4797\nVkeywords\np4798\n(lp4799\nVconverse\np4800\naV#Chuck Taylor All-Stars\np4801\naV#Converse (shoe company)\np4802\nasVage_max\np4803\nI65\nsVcountries\np4804\n(lp4805\nVUS\np4806\nasVbroad_age\np4807\nI1\nsVage_min\np4808\nI18\nssVbid_info\np4809\n(dp4810\nV1\np4811\nV80\np4812\nssVstart_time\np4813\nNsVad_status\np4814\nI2\nsVcampaign_id\np4815\nI6004075470965\nsVlocations\np4816\n(lp4817\nI3\nasVcreated_time\np4818\nV2011-11-28T20:59:03+0000\np4819\nsVend_time\np4820\nNsVadgroup_status\np4821\nI9\nsVid\np4822\nV6004075495565\np4823\nsVad_id\np4824\nI6004075495565\nsVimpression_control_map\np4825\n(lp4826\n(dp4827\nVcontrol\np4828\n(dp4829\nVuser_impression_limit_period\np4830\nI24\nsVuser_impression_limit\np4831\nI6\nsVuser_impression_limit_period_unit\np4832\nI0\nsVimpression_control_type\np4833\nI2\nssVlocation\np4834\nI3\nsasVcreative_ids\np4835\n(lp4836\nI6004075495165\nasVmax_bid\np4837\nV80\np4838\nsVadgroup_id\np4839\nI6004075495565\nsVaccount_id\np4840\nI40156177\nsa(dp4841\nVconversion_specs\np4842\n(lp4843\nsVupdated_time\np4844\nV2011-11-29T19:36:30+0000\np4845\nsVbid_type\np4846\nI1\nsVname\np4847\nVThe Past And The Present (Muppets)\np4848\nsVtracking_pixel_ids\np4849\n(lp4850\nsVtargeting\np4851\n(dp4852\nVkeywords\np4853\n(lp4854\nV#The Muppets\np4855\naV#The Muppets (film)\np4856\nasVage_max\np4857\nI65\nsVcountries\np4858\n(lp4859\nVUS\np4860\nasVbroad_age\np4861\nI1\nsVage_min\np4862\nI18\nssVbid_info\np4863\n(dp4864\nV1\np4865\nV80\np4866\nssVstart_time\np4867\nNsVad_status\np4868\nI2\nsVcampaign_id\np4869\nI6004075470965\nsVlocations\np4870\n(lp4871\nI3\nasVcreated_time\np4872\nV2011-11-28T21:03:40+0000\np4873\nsVend_time\np4874\nNsVadgroup_status\np4875\nI9\nsVid\np4876\nV6004075500965\np4877\nsVad_id\np4878\nI6004075500965\nsVimpression_control_map\np4879\n(lp4880\n(dp4881\nVcontrol\np4882\n(dp4883\nVuser_impression_limit_period\np4884\nI24\nsVuser_impression_limit\np4885\nI6\nsVuser_impression_limit_period_unit\np4886\nI0\nsVimpression_control_type\np4887\nI2\nssVlocation\np4888\nI3\nsasVcreative_ids\np4889\n(lp4890\nI6004075500565\nasVmax_bid\np4891\nV80\np4892\nsVadgroup_id\np4893\nI6004075500965\nsVaccount_id\np4894\nI40156177\nsa(dp4895\nVconversion_specs\np4896\n(lp4897\nsVupdated_time\np4898\nV2011-12-02T20:23:39+0000\np4899\nsVbid_type\np4900\nI1\nsVname\np4901\nVBrand New Site Makeovers! (Hotmail)\np4902\nsVtracking_pixel_ids\np4903\n(lp4904\nsVtargeting\np4905\n(dp4906\nVkeywords\np4907\n(lp4908\nV#Hotmail\np4909\naV#Windows Live Messenger\np4910\naV#Windows Live\np4911\nasVage_max\np4912\nI65\nsVcountr'
p6
sS'hash'
p7
S'fa4bd2690aff97297b1b4ced0636f91f581a5104'
p8
sS'stack'
p9
S''
s.