(dp1
S'args'
p2
S''
sS'methodname'
p3
S''
sS'packet_num'
p4
I60
sS'returnval'
p5
S'\nsa(dp12228\nVid\np12229\nV2525495\np12230\nsVname\np12231\nVAustin, TX\np12232\nsa(dp12233\nVid\np12234\nV2538983\np12235\nsVname\np12236\nVRichmond, VA\np12237\nsassVbid_info\np12238\n(dp12239\nV1\np12240\nV70\np12241\nssVstart_time\np12242\nNsVad_status\np12243\nI2\nsVcampaign_id\np12244\nI6004324556965\nsVlocations\np12245\n(lp12246\nI3\nasVcreated_time\np12247\nV2011-12-27T17:13:53+0000\np12248\nsVend_time\np12249\nNsVadgroup_status\np12250\nI8\nsVid\np12251\nV6004324564765\np12252\nsVad_id\np12253\nI6004324564765\nsVimpression_control_map\np12254\n(lp12255\n(dp12256\nVcontrol\np12257\n(dp12258\nVuser_impression_limit_period\np12259\nI24\nsVuser_impression_limit\np12260\nI3\nsVuser_impression_limit_period_unit\np12261\nI0\nsVimpression_control_type\np12262\nI2\nssVlocation\np12263\nI3\nsasVcreative_ids\np12264\n(lp12265\nI6004324564365\nasVmax_bid\np12266\nV70\np12267\nsVadgroup_id\np12268\nI6004324564765\nsVaccount_id\np12269\nI40156177\nsa(dp12270\nVconversion_specs\np12271\n(lp12272\nsVupdated_time\np12273\nV2012-01-03T14:22:17+0000\np12274\nsVbid_type\np12275\nI1\nsVname\np12276\nVCompany Targeted - Craigs List\np12277\nsVtracking_pixel_ids\np12278\n(lp12279\nsVtargeting\np12280\n(dp12281\nVkeywords\np12282\n(lp12283\nV#Chegg\np12284\naV#Green Mountain Coffee Roasters\np12285\naV#Lucky Break\np12286\naV#Craigslist\np12287\naV#Airbnb\np12288\naV#1-800-GOT-JUNK?\np12289\naV#Fathead (brand)\np12290\nasVage_max\np12291\nI65\nsVcountries\np12292\n(lp12293\nVUS\np12294\nasVbroad_age\np12295\nI1\nsVage_min\np12296\nI18\nssVbid_info\np12297\n(dp12298\nV1\np12299\nV75\np12300\nssVstart_time\np12301\nNsVad_status\np12302\nI2\nsVcampaign_id\np12303\nI6004326014565\nsVlocations\np12304\n(lp12305\nI3\nasVcreated_time\np12306\nV2011-12-27T22:39:28+0000\np12307\nsVend_time\np12308\nV2012-01-04T04:30:00+0000\np12309\nsVadgroup_status\np12310\nI8\nsVid\np12311\nV6004326015565\np12312\nsVad_id\np12313\nI6004326015565\nsVimpression_control_map\np12314\n(lp12315\n(dp12316\nVcontrol\np12317\n(dp12318\nVuser_impression_limit_period\np12319\nI24\nsVuser_impression_limit\np12320\nI3\nsVuser_impression_limit_period_unit\np12321\nI0\nsVimpression_control_type\np12322\nI2\nssVlocation\np12323\nI3\nsasVcreative_ids\np12324\n(lp12325\nI6004326015165\nasVmax_bid\np12326\nV75\np12327\nsVadgroup_id\np12328\nI6004326015565\nsVaccount_id\np12329\nI40156177\nsa(dp12330\nVconversion_specs\np12331\n(lp12332\nsVupdated_time\np12333\nV2012-01-03T14:22:17+0000\np12334\nsVbid_type\np12335\nI1\nsVname\np12336\nVCompany Targeted - Got Junk\np12337\nsVtracking_pixel_ids\np12338\n(lp12339\nsVtargeting\np12340\n(dp12341\nVkeywords\np12342\n(lp12343\nV#Chegg\np12344\naV#Green Mountain Coffee Roasters\np12345\naV#Lucky Break\np12346\naV#Craigslist\np12347\naV#Airbnb\np12348\naV#1-800-GOT-JUNK?\np12349\naV#Fathead (brand)\np12350\nasVage_max\np12351\nI65\nsVcountries\np12352\n(lp12353\nVUS\np12354\nasVbroad_age\np12355\nI1\nsVage_min\np12356\nI18\nssVbid_info\np12357\n(dp12358\nV1\np12359\nV75\np12360\nssVstart_time\np12361\nNsVad_status\np12362\nI2\nsVcampaign_id\np12363\nI6004326014565\nsVlocations\np12364\n(lp12365\nI3\nasVcreated_time\np12366\nV2011-12-27T22:40:50+0000\np12367\nsVend_time\np12368\nV2012-01-04T04:30:00+0000\np12369\nsVadgroup_status\np12370\nI8\nsVid\np12371\nV6004326020365\np12372\nsVad_id\np12373\nI6004326020365\nsVimpression_control_map\np12374\n(lp12375\n(dp12376\nVcontrol\np12377\n(dp12378\nVuser_impression_limit_period\np12379\nI24\nsVuser_impression_limit\np12380\nI6\nsVuser_impression_limit_period_unit\np12381\nI0\nsVimpression_control_type\np12382\nI2\nssVlocation\np12383\nI3\nsasVcreative_ids\np12384\n(lp12385\nI6004326019965\nasVmax_bid\np12386\nV75\np12387\nsVadgroup_id\np12388\nI6004326020365\nsVaccount_id\np12389\nI40156177\nsa(dp12390\nVconversion_specs\np12391\n(lp12392\nsVupdated_time\np12393\nV2012-01-03T14:22:17+0000\np12394\nsVbid_type\np12395\nI1\nsVname\np12396\nVCompany Targeted - AirBNB\np12397\nsVtracking_pixel_ids\np12398\n(lp12399\nsVtargeting\np12400\n(dp12401\nVkeywords\np12402\n(lp12403\nV#Chegg\np12404\naV#Green Mountain Coffee Roasters\np12405\naV#Lucky Break\np12406\naV#Craigslist\np12407\naV#Airbnb\np12408\naV#1-800-GOT-JUNK?\np12409\naV#Fathead (brand)\np12410\nasVage_max\np12411\nI65\nsVcountries\np12412\n(lp12413\nVUS\np12414\nasVbroad_age\np12415\nI1\nsVage_min\np12416\nI18\nssVbid_info\np12417\n(dp12418\nV1\np12419\nV75\np12420\nssVstart_time\np12421\nNsVad_status\np12422\nI2\nsVcampaign_id\np12423'
p6
sS'hash'
p7
S'fa4bd2690aff97297b1b4ced0636f91f581a5104'
p8
sS'stack'
p9
S''
s.