(dp1
S'args'
p2
S''
sS'methodname'
p3
S''
sS'packet_num'
p4
I97
sS'returnval'
p5
S'p19280\nV2012-02-04T04:30:00+0000\np19281\nsVadgroup_status\np19282\nI8\nsVid\np19283\nV6004679842565\np19284\nsVad_id\np19285\nI6004679842565\nsVimpression_control_map\np19286\n(lp19287\n(dp19288\nVcontrol\np19289\n(dp19290\nVuser_impression_limit_period\np19291\nI24\nsVuser_impression_limit\np19292\nI3\nsVuser_impression_limit_period_unit\np19293\nI0\nsVimpression_control_type\np19294\nI2\nssVlocation\np19295\nI3\nsasVcreative_ids\np19296\n(lp19297\nI6004679842165\nasVmax_bid\np19298\nV80\np19299\nsVadgroup_id\np19300\nI6004679842565\nsVaccount_id\np19301\nI40156177\nsa(dp19302\nVconversion_specs\np19303\n(lp19304\nsVupdated_time\np19305\nV2012-09-21T19:59:29+0000\np19306\nsVbid_type\np19307\nI1\nsVname\np19308\nVBuzzFeed Exclusive\np19309\nsVtracking_pixel_ids\np19310\n(lp19311\nsVtargeting\np19312\n(dp19313\nVkeywords\np19314\n(lp19315\nV#Giraffe\np19316\naV#Gray wolf\np19317\naV#Kitten\np19318\naVpuppies\np19319\naVkittens\np19320\naV#Cat\np19321\naV#Lion\np19322\naVcats\np19323\naV#Sick Puppies\np19324\naV#Moose\np19325\naV#Tiger\np19326\naV#Zebra\np19327\naV#Hippopotamus\np19328\naV#Dog\np19329\naV#Coyote\np19330\naV#Puppy\np19331\naV#Leopard\np19332\naV#Jaguar\np19333\naV#Cougar\np19334\naV#Pet\np19335\nasVage_max\np19336\nI65\nsVcountries\np19337\n(lp19338\nVUS\np19339\nasVbroad_age\np19340\nI1\nsVage_min\np19341\nI18\nssVbid_info\np19342\n(dp19343\nV1\np19344\nV80\np19345\nssVstart_time\np19346\nNsVad_status\np19347\nI2\nsVcampaign_id\np19348\nI6004679843965\nsVlocations\np19349\n(lp19350\nI3\nasVcreated_time\np19351\nV2012-02-02T23:29:28+0000\np19352\nsVend_time\np19353\nV2012-02-04T04:30:00+0000\np19354\nsVadgroup_status\np19355\nI8\nsVid\np19356\nV6004679844965\np19357\nsVad_id\np19358\nI6004679844965\nsVimpression_control_map\np19359\n(lp19360\n(dp19361\nVcontrol\np19362\n(dp19363\nVuser_impression_limit_period\np19364\nI24\nsVuser_impression_limit\np19365\nI3\nsVuser_impression_limit_period_unit\np19366\nI0\nsVimpression_control_type\np19367\nI2\nssVlocation\np19368\nI3\nsasVcreative_ids\np19369\n(lp19370\nI6004679844565\nasVmax_bid\np19371\nV80\np19372\nsVadgroup_id\np19373\nI6004679844965\nsVaccount_id\np19374\nI40156177\nsa(dp19375\nVconversion_specs\np19376\n(lp19377\nsVupdated_time\np19378\nV2012-09-21T19:59:29+0000\np19379\nsVbid_type\np19380\nI1\nsVname\np19381\nVBaby Giant Panda Cubs!\np19382\nsVtracking_pixel_ids\np19383\n(lp19384\nsVtargeting\np19385\n(dp19386\nVkeywords\np19387\n(lp19388\nV#Giraffe\np19389\naV#Gray wolf\np19390\naV#Kitten\np19391\naVpuppies\np19392\naVkittens\np19393\naV#Cat\np19394\naV#Lion\np19395\naVcats\np19396\naV#Sick Puppies\np19397\naV#Moose\np19398\naV#Tiger\np19399\naV#Zebra\np19400\naV#Hippopotamus\np19401\naV#Dog\np19402\naV#Coyote\np19403\naV#Puppy\np19404\naV#Leopard\np19405\naV#Jaguar\np19406\naV#Cougar\np19407\naV#Pet\np19408\nasVage_max\np19409\nI65\nsVcountries\np19410\n(lp19411\nVUS\np19412\nasVbroad_age\np19413\nI1\nsVage_min\np19414\nI18\nssVbid_info\np19415\n(dp19416\nV1\np19417\nV80\np19418\nssVstart_time\np19419\nNsVad_status\np19420\nI2\nsVcampaign_id\np19421\nI6004679843965\nsVlocations\np19422\n(lp19423\nI3\nasVcreated_time\np19424\nV2012-02-02T23:30:40+0000\np19425\nsVend_time\np19426\nV2012-02-04T04:30:00+0000\np19427\nsVadgroup_status\np19428\nI8\nsVid\np19429\nV6004679846765\np19430\nsVad_id\np19431\nI6004679846765\nsVimpression_control_map\np19432\n(lp19433\n(dp19434\nVcontrol\np19435\n(dp19436\nVuser_impression_limit_period\np19437\nI24\nsVuser_impression_limit\np19438\nI3\nsVuser_impression_limit_period_unit\np19439\nI0\nsVimpression_control_type\np19440\nI2\nssVlocation\np19441\nI3\nsasVcreative_ids\np19442\n(lp19443\nI6004679846365\nasVmax_bid\np19444\nV80\np19445\nsVadgroup_id\np19446\nI6004679846765\nsVaccount_id\np19447\nI40156177\nsa(dp19448\nVconversion_specs\np19449\n(lp19450\nsVupdated_time\np19451\nV2012-09-21T19:59:31+0000\np19452\nsVbid_type\np19453\nI1\nsVname\np19454\nVPillsbury Crescent Rolls!\np19455\nsVtracking_pixel_ids\np19456\n(lp19457\nsVtargeting\np19458\n(dp19459\nVkeywords\np19460\n(lp19461\nV#Cookie\np19462\naV#Eating\np19463\naVhome cooking\np19464\naV#Super Bowl\np19465\naV#Baking\np19466\naV#Cuisine\np19467\naV#Cinnamon roll\np19468\naV#Food\np19469\naVchicken wings\np19470\naV#Sprinkles Cupcakes\np19471\naV#Grilling\np19472\naV#Chef\np19473\naVdips\np19474\naV#Recipe\np19475\naV#Taste\np19476\naV#Culinary art\np19477\naV#Cinnabon\np19478\naVcinamon\np19479\naV#Bacon\np19480\naV#Cooking\np19481\naVbaking cakes\np19482\nasVage_'
p6
sS'hash'
p7
S'fa4bd2690aff97297b1b4ced0636f91f581a5104'
p8
sS'stack'
p9
S''
s.