(dp1
S'args'
p2
S''
sS'methodname'
p3
S''
sS'packet_num'
p4
I72
sS'returnval'
p5
S'06\nV2012-01-06T15:42:21+0000\np14507\nsVbid_type\np14508\nI1\nsVname\np14509\nVCrash The Super Bowl!\np14510\nsVtracking_pixel_ids\np14511\n(lp14512\nsVtargeting\np14513\n(dp14514\nVkeywords\np14515\n(lp14516\nV#Super Bowl XL\np14517\naV#Super Bowl\np14518\naVcool ranch doritos\np14519\naV#Super Bowl XXX\np14520\naV#Super Bowl XLVIII\np14521\naVchilli heatwave doritos\np14522\naV#Super Bowl XLV\np14523\naV#Super Bowl advertising\np14524\naVfunny doritos commercials\np14525\naVsuper bowl\np14526\naVdoritos\np14527\naV#Super Bowl XLIV\np14528\naV#Doritos\np14529\naV#Doritos Crash Course\np14530\naV#Super Bowl XXI\np14531\nasVage_max\np14532\nI65\nsVcountries\np14533\n(lp14534\nVUS\np14535\nasVbroad_age\np14536\nI1\nsVage_min\np14537\nI18\nssVbid_info\np14538\n(dp14539\nV1\np14540\nV80\np14541\nssVstart_time\np14542\nNsVad_status\np14543\nI2\nsVcampaign_id\np14544\nI6004377522565\nsVlocations\np14545\n(lp14546\nI3\nasVcreated_time\np14547\nV2012-01-04T19:07:43+0000\np14548\nsVend_time\np14549\nV2012-01-07T04:30:00+0000\np14550\nsVadgroup_status\np14551\nI9\nsVid\np14552\nV6004377526165\np14553\nsVad_id\np14554\nI6004377526165\nsVimpression_control_map\np14555\n(lp14556\n(dp14557\nVcontrol\np14558\n(dp14559\nVuser_impression_limit_period\np14560\nI24\nsVuser_impression_limit\np14561\nI3\nsVuser_impression_limit_period_unit\np14562\nI0\nsVimpression_control_type\np14563\nI2\nssVlocation\np14564\nI3\nsasVcreative_ids\np14565\n(lp14566\nI6004377525765\nasVmax_bid\np14567\nV80\np14568\nsVadgroup_id\np14569\nI6004377526165\nsVaccount_id\np14570\nI40156177\nsa(dp14571\nVconversion_specs\np14572\n(lp14573\nsVupdated_time\np14574\nV2012-01-06T15:42:21+0000\np14575\nsVbid_type\np14576\nI1\nsVname\np14577\nVCrash The Super Bowl! (Untargeted)\np14578\nsVtracking_pixel_ids\np14579\n(lp14580\nsVtargeting\np14581\n(dp14582\nVage_max\np14583\nI65\nsVcountries\np14584\n(lp14585\nVUS\np14586\nasVbroad_age\np14587\nI1\nsVage_min\np14588\nI18\nssVbid_info\np14589\n(dp14590\nV1\np14591\nV80\np14592\nssVstart_time\np14593\nNsVad_status\np14594\nI2\nsVcampaign_id\np14595\nI6004377522565\nsVlocations\np14596\n(lp14597\nI3\nasVcreated_time\np14598\nV2012-01-04T19:08:29+0000\np14599\nsVend_time\np14600\nV2012-01-07T04:30:00+0000\np14601\nsVadgroup_status\np14602\nI9\nsVid\np14603\nV6004377528365\np14604\nsVad_id\np14605\nI6004377528365\nsVimpression_control_map\np14606\n(lp14607\n(dp14608\nVcontrol\np14609\n(dp14610\nVuser_impression_limit_period\np14611\nI24\nsVuser_impression_limit\np14612\nI6\nsVuser_impression_limit_period_unit\np14613\nI0\nsVimpression_control_type\np14614\nI2\nssVlocation\np14615\nI3\nsasVcreative_ids\np14616\n(lp14617\nI6004377525765\nasVmax_bid\np14618\nV80\np14619\nsVadgroup_id\np14620\nI6004377528365\nsVaccount_id\np14621\nI40156177\nsa(dp14622\nVconversion_specs\np14623\n(lp14624\nsVupdated_time\np14625\nV2012-09-21T19:58:26+0000\np14626\nsVbid_type\np14627\nI1\nsVname\np14628\nVSterling Archer In Action\np14629\nsVtracking_pixel_ids\np14630\n(lp14631\nsVtargeting\np14632\n(dp14633\nVkeywords\np14634\n(lp14635\nVfx\np14636\naVfx network tv group\np14637\naVspy\np14638\naVarcher\np14639\naVofficial fx network tv group\np14640\naV#FX (TV channel)\np14641\naVarcher on fx\np14642\naVarcher fx\np14643\nasVage_max\np14644\nI65\nsVcountries\np14645\n(lp14646\nVUS\np14647\nasVbroad_age\np14648\nI1\nsVage_min\np14649\nI18\nssVbid_info\np14650\n(dp14651\nV1\np14652\nV80\np14653\nssVstart_time\np14654\nNsVad_status\np14655\nI2\nsVcampaign_id\np14656\nI6004382803165\nsVlocations\np14657\n(lp14658\nI3\nasVcreated_time\np14659\nV2012-01-05T19:38:37+0000\np14660\nsVend_time\np14661\nNsVadgroup_status\np14662\nI8\nsVid\np14663\nV6004382804165\np14664\nsVad_id\np14665\nI6004382804165\nsVimpression_control_map\np14666\n(lp14667\n(dp14668\nVcontrol\np14669\n(dp14670\nVuser_impression_limit_period\np14671\nI24\nsVuser_impression_limit\np14672\nI6\nsVuser_impression_limit_period_unit\np14673\nI0\nsVimpression_control_type\np14674\nI2\nssVlocation\np14675\nI3\nsasVcreative_ids\np14676\n(lp14677\nI6004382803765\nasVmax_bid\np14678\nV80\np14679\nsVadgroup_id\np14680\nI6004382804165\nsVaccount_id\np14681\nI40156177\nsa(dp14682\nVconversion_specs\np14683\n(lp14684\nsVupdated_time\np14685\nV2012-09-21T19:58:28+0000\np14686\nsVbid_type\np14687\nI1\nsVname\np14688\nVSterling Archer In Action\np14689\nsVtracking_pixel_ids\np14690\n(lp14691\nsVtargeting\np14692\n(dp14693\nVkeywords\np14694\n(lp14695\nVfx\np14696\naVfx network tv group\np14'
p6
sS'hash'
p7
S'fa4bd2690aff97297b1b4ced0636f91f581a5104'
p8
sS'stack'
p9
S''
s.