(dp1
S'args'
p2
S''
sS'methodname'
p3
S''
sS'packet_num'
p4
I116
sS'returnval'
p5
S"d\np22851\nV6004750805165\np22852\nsVad_id\np22853\nI6004750805165\nsVimpression_control_map\np22854\n(lp22855\n(dp22856\nVcontrol\np22857\n(dp22858\nVuser_impression_limit_period\np22859\nI24\nsVuser_impression_limit\np22860\nI3\nsVuser_impression_limit_period_unit\np22861\nI0\nsVimpression_control_type\np22862\nI2\nssVlocation\np22863\nI3\nsasVcreative_ids\np22864\n(lp22865\nI6004750808365\nasVmax_bid\np22866\nV75\np22867\nsVadgroup_id\np22868\nI6004750805165\nsVaccount_id\np22869\nI40156177\nsa(dp22870\nVconversion_specs\np22871\n(lp22872\nsVupdated_time\np22873\nV2012-09-21T20:00:04+0000\np22874\nsVbid_type\np22875\nI1\nsVname\np22876\nVFan Targeted\np22877\nsVtracking_pixel_ids\np22878\n(lp22879\nsVtargeting\np22880\n(dp22881\nVkeywords\np22882\n(lp22883\nV#Playboy TV\np22884\naV#Snoop Dogg Presents: Unreleased Heatrocks\np22885\naV#Snoop Dogg\np22886\naV#Dr. Dre\np22887\naV#Playboy\np22888\naV#Doggy Style Records\np22889\naV#Playboy Mansion\np22890\naV#Playboy Playmate\np22891\naV#Snoop Dogg's Father Hood\np22892\naV#Tupac Shakur\np22893\naV#Project X (2012 film)\np22894\nasVage_max\np22895\nI65\nsVcountries\np22896\n(lp22897\nVUS\np22898\nasVbroad_age\np22899\nI1\nsVage_min\np22900\nI18\nssVbid_info\np22901\n(dp22902\nV1\np22903\nV75\np22904\nssVstart_time\np22905\nNsVad_status\np22906\nI2\nsVcampaign_id\np22907\nI6004750825565\nsVlocations\np22908\n(lp22909\nI3\nasVcreated_time\np22910\nV2012-02-14T18:36:23+0000\np22911\nsVend_time\np22912\nNsVadgroup_status\np22913\nI8\nsVid\np22914\nV6004750826565\np22915\nsVad_id\np22916\nI6004750826565\nsVimpression_control_map\np22917\n(lp22918\n(dp22919\nVcontrol\np22920\n(dp22921\nVuser_impression_limit_period\np22922\nI24\nsVuser_impression_limit\np22923\nI3\nsVuser_impression_limit_period_unit\np22924\nI0\nsVimpression_control_type\np22925\nI2\nssVlocation\np22926\nI3\nsasVcreative_ids\np22927\n(lp22928\nI6004750826165\nasVmax_bid\np22929\nV75\np22930\nsVadgroup_id\np22931\nI6004750826565\nsVaccount_id\np22932\nI40156177\nsa(dp22933\nVconversion_specs\np22934\n(lp22935\nsVupdated_time\np22936\nV2012-09-21T20:00:04+0000\np22937\nsVbid_type\np22938\nI1\nsVname\np22939\nVUntargeted\np22940\nsVtracking_pixel_ids\np22941\n(lp22942\nsVtargeting\np22943\n(dp22944\nVage_max\np22945\nI65\nsVcountries\np22946\n(lp22947\nVUS\np22948\nasVbroad_age\np22949\nI1\nsVage_min\np22950\nI18\nssVbid_info\np22951\n(dp22952\nV1\np22953\nV75\np22954\nssVstart_time\np22955\nNsVad_status\np22956\nI2\nsVcampaign_id\np22957\nI6004750825565\nsVlocations\np22958\n(lp22959\nI3\nasVcreated_time\np22960\nV2012-02-14T18:37:45+0000\np22961\nsVend_time\np22962\nNsVadgroup_status\np22963\nI8\nsVid\np22964\nV6004750828765\np22965\nsVad_id\np22966\nI6004750828765\nsVimpression_control_map\np22967\n(lp22968\n(dp22969\nVcontrol\np22970\n(dp22971\nVuser_impression_limit_period\np22972\nI24\nsVuser_impression_limit\np22973\nI6\nsVuser_impression_limit_period_unit\np22974\nI0\nsVimpression_control_type\np22975\nI2\nssVlocation\np22976\nI3\nsasVcreative_ids\np22977\n(lp22978\nI6004750826165\nasVmax_bid\np22979\nV75\np22980\nsVadgroup_id\np22981\nI6004750828765\nsVaccount_id\np22982\nI40156177\nsa(dp22983\nVconversion_specs\np22984\n(lp22985\nsVupdated_time\np22986\nV2012-09-21T20:00:06+0000\np22987\nsVbid_type\np22988\nI1\nsVname\np22989\nVSonic Targeted\np22990\nsVtracking_pixel_ids\np22991\n(lp22992\nsVtargeting\np22993\n(dp22994\nVkeywords\np22995\n(lp22996\nV#Sonic Drive-In\np22997\nasVage_max\np22998\nI65\nsVcountries\np22999\n(lp23000\nVUS\np23001\nasVbroad_age\np23002\nI1\nsVage_min\np23003\nI18\nssVbid_info\np23004\n(dp23005\nV1\np23006\nV75\np23007\nssVstart_time\np23008\nNsVad_status\np23009\nI2\nsVcampaign_id\np23010\nI6004750841965\nsVlocations\np23011\n(lp23012\nI3\nasVcreated_time\np23013\nV2012-02-14T19:03:06+0000\np23014\nsVend_time\np23015\nNsVadgroup_status\np23016\nI8\nsVid\np23017\nV6004750842965\np23018\nsVad_id\np23019\nI6004750842965\nsVimpression_control_map\np23020\n(lp23021\n(dp23022\nVcontrol\np23023\n(dp23024\nVuser_impression_limit_period\np23025\nI24\nsVuser_impression_limit\np23026\nI6\nsVuser_impression_limit_period_unit\np23027\nI0\nsVimpression_control_type\np23028\nI2\nssVlocation\np23029\nI3\nsasVcreative_ids\np23030\n(lp23031\nI6004750842565\nasVmax_bid\np23032\nV75\np23033\nsVadgroup_id\np23034\nI6004750842965\nsVaccount_id\np23035\nI40156177\nsa(dp23036\nVconversion_specs\np23037\n(lp23038\nsVupdated_time\np23039\nV2012-09-21T20:00:06+0000\np23040\nsVbid_type\np23041\nI"
p6
sS'hash'
p7
S'fa4bd2690aff97297b1b4ced0636f91f581a5104'
p8
sS'stack'
p9
S''
s.