(dp1
S'args'
p2
S''
sS'methodname'
p3
S''
sS'packet_num'
p4
I64
sS'returnval'
p5
S'ntries\np12999\n(lp13000\nVUS\np13001\nasVbroad_age\np13002\nI1\nsVage_min\np13003\nI18\nssVbid_info\np13004\n(dp13005\nV1\np13006\nV80\np13007\nssVstart_time\np13008\nNsVad_status\np13009\nI2\nsVcampaign_id\np13010\nI6004335402165\nsVlocations\np13011\n(lp13012\nI3\nasVcreated_time\np13013\nV2011-12-29T16:56:46+0000\np13014\nsVend_time\np13015\nV2011-12-31T04:30:00+0000\np13016\nsVadgroup_status\np13017\nI8\nsVid\np13018\nV6004335403165\np13019\nsVad_id\np13020\nI6004335403165\nsVimpression_control_map\np13021\n(lp13022\n(dp13023\nVcontrol\np13024\n(dp13025\nVuser_impression_limit_period\np13026\nI24\nsVuser_impression_limit\np13027\nI3\nsVuser_impression_limit_period_unit\np13028\nI0\nsVimpression_control_type\np13029\nI2\nssVlocation\np13030\nI3\nsasVcreative_ids\np13031\n(lp13032\nI6004335402765\nasVmax_bid\np13033\nV80\np13034\nsVadgroup_id\np13035\nI6004335403165\nsVaccount_id\np13036\nI40156177\nsa(dp13037\nVconversion_specs\np13038\n(lp13039\nsVupdated_time\np13040\nV2012-09-21T19:58:08+0000\np13041\nsVbid_type\np13042\nI1\nsVname\np13043\nVEat Your Way To Happiness (Blueberry)\np13044\nsVtracking_pixel_ids\np13045\n(lp13046\nsVtargeting\np13047\n(dp13048\nVkeywords\np13049\n(lp13050\nV#Avocado\np13051\naV#Carica papaya\np13052\naV#Guacamole\np13053\naV#Blueberry\np13054\naV#Pineapple\np13055\naV#Fruit\np13056\naV#Guava\np13057\naV#Blackberry\np13058\naV#Mango\np13059\naV#Banana\np13060\naVblueberries\np13061\nasVage_max\np13062\nI65\nsVcountries\np13063\n(lp13064\nVUS\np13065\nasVbroad_age\np13066\nI1\nsVage_min\np13067\nI18\nssVbid_info\np13068\n(dp13069\nV1\np13070\nV80\np13071\nssVstart_time\np13072\nNsVad_status\np13073\nI2\nsVcampaign_id\np13074\nI6004335402165\nsVlocations\np13075\n(lp13076\nI3\nasVcreated_time\np13077\nV2011-12-29T16:58:28+0000\np13078\nsVend_time\np13079\nNsVadgroup_status\np13080\nI8\nsVid\np13081\nV6004335407765\np13082\nsVad_id\np13083\nI6004335407765\nsVimpression_control_map\np13084\n(lp13085\n(dp13086\nVcontrol\np13087\n(dp13088\nVuser_impression_limit_period\np13089\nI24\nsVuser_impression_limit\np13090\nI3\nsVuser_impression_limit_period_unit\np13091\nI0\nsVimpression_control_type\np13092\nI2\nssVlocation\np13093\nI3\nsasVcreative_ids\np13094\n(lp13095\nI6004335407365\nasVmax_bid\np13096\nV80\np13097\nsVadgroup_id\np13098\nI6004335407765\nsVaccount_id\np13099\nI40156177\nsa(dp13100\nVconversion_specs\np13101\n(lp13102\nsVupdated_time\np13103\nV2012-09-21T19:58:08+0000\np13104\nsVbid_type\np13105\nI1\nsVname\np13106\nVEat Your Way To Happiness (Untargeted Avocado)\np13107\nsVtracking_pixel_ids\np13108\n(lp13109\nsVtargeting\np13110\n(dp13111\nVage_max\np13112\nI65\nsVcountries\np13113\n(lp13114\nVUS\np13115\nasVbroad_age\np13116\nI1\nsVage_min\np13117\nI18\nssVbid_info\np13118\n(dp13119\nV1\np13120\nV80\np13121\nssVstart_time\np13122\nNsVad_status\np13123\nI2\nsVcampaign_id\np13124\nI6004335402165\nsVlocations\np13125\n(lp13126\nI3\nasVcreated_time\np13127\nV2011-12-30T15:19:33+0000\np13128\nsVend_time\np13129\nNsVadgroup_status\np13130\nI8\nsVid\np13131\nV6004338108965\np13132\nsVad_id\np13133\nI6004338108965\nsVimpression_control_map\np13134\n(lp13135\n(dp13136\nVcontrol\np13137\n(dp13138\nVuser_impression_limit_period\np13139\nI24\nsVuser_impression_limit\np13140\nI6\nsVuser_impression_limit_period_unit\np13141\nI0\nsVimpression_control_type\np13142\nI2\nssVlocation\np13143\nI3\nsasVcreative_ids\np13144\n(lp13145\nI6004335402765\nasVmax_bid\np13146\nV80\np13147\nsVadgroup_id\np13148\nI6004338108965\nsVaccount_id\np13149\nI40156177\nsa(dp13150\nVconversion_specs\np13151\n(lp13152\nsVupdated_time\np13153\nV2012-09-21T19:58:08+0000\np13154\nsVbid_type\np13155\nI1\nsVname\np13156\nVEat Your Way To Happiness (Untargeted Blueberry)\np13157\nsVtracking_pixel_ids\np13158\n(lp13159\nsVtargeting\np13160\n(dp13161\nVage_max\np13162\nI65\nsVcountries\np13163\n(lp13164\nVUS\np13165\nasVbroad_age\np13166\nI1\nsVage_min\np13167\nI18\nssVbid_info\np13168\n(dp13169\nV1\np13170\nV80\np13171\nssVstart_time\np13172\nNsVad_status\np13173\nI2\nsVcampaign_id\np13174\nI6004335402165\nsVlocations\np13175\n(lp13176\nI3\nasVcreated_time\np13177\nV2011-12-30T15:20:05+0000\np13178\nsVend_time\np13179\nNsVadgroup_status\np13180\nI8\nsVid\np13181\nV6004338110765\np13182\nsVad_id\np13183\nI6004338110765\nsVimpression_control_map\np13184\n(lp13185\n(dp13186\nVcontrol\np13187\n(dp13188\nVuser_impression_limit_period\np13189\nI24\nsVuser_impression_limit\np13190\nI3\nsVuser_impression_limit_period_unit\np1319'
p6
sS'hash'
p7
S'fa4bd2690aff97297b1b4ced0636f91f581a5104'
p8
sS'stack'
p9
S''
s.