(dp1
S'args'
p2
S''
sS'methodname'
p3
S''
sS'packet_num'
p4
I26
sS'returnval'
p5
S'ap\np5317\n(lp5318\n(dp5319\nVcontrol\np5320\n(dp5321\nVuser_impression_limit_period\np5322\nI24\nsVuser_impression_limit\np5323\nI6\nsVuser_impression_limit_period_unit\np5324\nI0\nsVimpression_control_type\np5325\nI2\nssVlocation\np5326\nI3\nsasVcreative_ids\np5327\n(lp5328\nI6004078927365\nasVmax_bid\np5329\nV15\np5330\nsVadgroup_id\np5331\nI6004078925365\nsVaccount_id\np5332\nI40156177\nsa(dp5333\nVconversion_specs\np5334\n(lp5335\n(dp5336\nVpage\np5337\nI238205562866018\nsVaction.type\np5338\nVpage_story\np5339\nsasVupdated_time\np5340\nV2012-09-21T19:56:37+0000\np5341\nsVbid_type\np5342\nI1\nsVname\np5343\nVRum Targeted\np5344\nsVtracking_pixel_ids\np5345\n(lp5346\nsVtargeting\np5347\n(dp5348\nVcountries\np5349\n(lp5350\nVUS\np5351\nasVbroad_age\np5352\nI1\nsVexcluded_connections\np5353\n(lp5354\n(dp5355\nVid\np5356\nV238205562866018\np5357\nsVname\np5358\nVBuzzFeed Partner\np5359\nsasVage_min\np5360\nI21\nsVkeywords\np5361\n(lp5362\nV#Rum\np5363\nasVage_max\np5364\nI65\nssVbid_info\np5365\n(dp5366\nV1\np5367\nV55\np5368\nssVstart_time\np5369\nNsVad_status\np5370\nI2\nsVcampaign_id\np5371\nI6004090942965\nsVlocations\np5372\n(lp5373\nI3\nasVcreated_time\np5374\nV2011-12-01T15:35:31+0000\np5375\nsVend_time\np5376\nNsVadgroup_status\np5377\nI8\nsVid\np5378\nV6004090943965\np5379\nsVad_id\np5380\nI6004090943965\nsVimpression_control_map\np5381\n(lp5382\n(dp5383\nVcontrol\np5384\n(dp5385\nVuser_impression_limit_period\np5386\nI24\nsVuser_impression_limit\np5387\nI6\nsVuser_impression_limit_period_unit\np5388\nI0\nsVimpression_control_type\np5389\nI2\nssVlocation\np5390\nI3\nsasVcreative_ids\np5391\n(lp5392\nI6004090943565\nasVmax_bid\np5393\nV55\np5394\nsVadgroup_id\np5395\nI6004090943965\nsVaccount_id\np5396\nI40156177\nsa(dp5397\nVconversion_specs\np5398\n(lp5399\n(dp5400\nVpage\np5401\nI238205562866018\nsVaction.type\np5402\nVpage_story\np5403\nsasVupdated_time\np5404\nV2012-09-21T19:56:37+0000\np5405\nsVbid_type\np5406\nI1\nsVname\np5407\nVSailor Jerry Targeted\np5408\nsVtracking_pixel_ids\np5409\n(lp5410\nsVtargeting\np5411\n(dp5412\nVcountries\np5413\n(lp5414\nVUS\np5415\nasVbroad_age\np5416\nI1\nsVexcluded_connections\np5417\n(lp5418\n(dp5419\nVid\np5420\nV238205562866018\np5421\nsVname\np5422\nVBuzzFeed Partner\np5423\nsasVage_min\np5424\nI21\nsVkeywords\np5425\n(lp5426\nV#Sailor Jerry\np5427\nasVage_max\np5428\nI65\nssVbid_info\np5429\n(dp5430\nV1\np5431\nV55\np5432\nssVstart_time\np5433\nNsVad_status\np5434\nI2\nsVcampaign_id\np5435\nI6004090942965\nsVlocations\np5436\n(lp5437\nI3\nasVcreated_time\np5438\nV2011-12-01T15:36:06+0000\np5439\nsVend_time\np5440\nNsVadgroup_status\np5441\nI8\nsVid\np5442\nV6004090954965\np5443\nsVad_id\np5444\nI6004090954965\nsVimpression_control_map\np5445\n(lp5446\n(dp5447\nVcontrol\np5448\n(dp5449\nVuser_impression_limit_period\np5450\nI24\nsVuser_impression_limit\np5451\nI6\nsVuser_impression_limit_period_unit\np5452\nI0\nsVimpression_control_type\np5453\nI2\nssVlocation\np5454\nI3\nsasVcreative_ids\np5455\n(lp5456\nI6004090943565\nasVmax_bid\np5457\nV55\np5458\nsVadgroup_id\np5459\nI6004090954965\nsVaccount_id\np5460\nI40156177\nsa(dp5461\nVconversion_specs\np5462\n(lp5463\n(dp5464\nVpage\np5465\nI238205562866018\nsVaction.type\np5466\nVpage_story\np5467\nsasVupdated_time\np5468\nV2012-09-21T19:56:37+0000\np5469\nsVbid_type\np5470\nI1\nsVname\np5471\nVGeneral Drinking\np5472\nsVtracking_pixel_ids\np5473\n(lp5474\nsVtargeting\np5475\n(dp5476\nVcountries\np5477\n(lp5478\nVUS\np5479\nasVbroad_age\np5480\nI1\nsVexcluded_connections\np5481\n(lp5482\n(dp5483\nVid\np5484\nV238205562866018\np5485\nsVname\np5486\nVBuzzFeed Partner\np5487\nsasVage_min\np5488\nI21\nsVkeywords\np5489\n(lp5490\nV#Cocktail\np5491\naV#Drinking\np5492\naV#Alcohol\np5493\naV#Happy hour\np5494\nasVage_max\np5495\nI65\nssVbid_info\np5496\n(dp5497\nV1\np5498\nV55\np5499\nssVstart_time\np5500\nNsVad_status\np5501\nI2\nsVcampaign_id\np5502\nI6004090942965\nsVlocations\np5503\n(lp5504\nI3\nasVcreated_time\np5505\nV2011-12-01T15:37:14+0000\np5506\nsVend_time\np5507\nNsVadgroup_status\np5508\nI8\nsVid\np5509\nV6004091034965\np5510\nsVad_id\np5511\nI6004091034965\nsVimpression_control_map\np5512\n(lp5513\n(dp5514\nVcontrol\np5515\n(dp5516\nVuser_impression_limit_period\np5517\nI24\nsVuser_impression_limit\np5518\nI6\nsVuser_impression_limit_period_unit\np5519\nI0\nsVimpression_control_type\np5520\nI2\nssVlocation\np5521\nI3\nsasVcreative_ids\np5522\n(lp5523\nI6004090943565\nasVmax_bid\np5524\nV55\np5525\nsVadgroup_id\np5526\nI6004091034965\ns'
p6
sS'hash'
p7
S'fa4bd2690aff97297b1b4ced0636f91f581a5104'
p8
sS'stack'
p9
S''
s.