(dp1
S'args'
p2
S''
sS'methodname'
p3
S''
sS'packet_num'
p4
I136
sS'returnval'
p5
S'Vupdated_time\np26663\nV2012-09-21T20:00:38+0000\np26664\nsVbid_type\np26665\nI1\nsVname\np26666\nVThe Best "Feherty-isms"\np26667\nsVtracking_pixel_ids\np26668\n(lp26669\nsVtargeting\np26670\n(dp26671\nVkeywords\np26672\n(lp26673\nV#Rory McIlroy\np26674\naV#Ernie Els\np26675\naV#PGA European Tour\np26676\naV#Rickie Fowler\np26677\naV#Golf Channel\np26678\naV#Phil Mickelson\np26679\naV#Golf course\np26680\naV#Tiger Woods\np26681\naV#PGA Tour Golf Team Challenge\np26682\naV#Greg Norman\np26683\naV#Bubba Watson\np26684\naV#Fred Couples\np26685\naV#Ian Poulter\np26686\naVhaney project\np26687\naV#Nick Faldo\np26688\naV#Graeme McDowell\np26689\naV#Lee Westwood\np26690\naV#Titleist\np26691\naV#David Feherty\np26692\naV#David Duval\np26693\naV#Paul Casey\np26694\naVgolfing\np26695\naV#PGA Tour\np26696\naV#Stewart Cink\np26697\naV#Callaway Golf Company\np26698\naVgolf\np26699\naV#Vijay Singh\np26700\naV#Golf\np26701\naV#John Daly (golfer)\np26702\naV#PGA Championship\np26703\naV#TaylorMade-Adidas\np26704\nasVage_max\np26705\nI65\nsVcountries\np26706\n(lp26707\nVUS\np26708\nasVbroad_age\np26709\nI1\nsVage_min\np26710\nI18\nssVbid_info\np26711\n(dp26712\nV1\np26713\nV75\np26714\nssVstart_time\np26715\nNsVad_status\np26716\nI2\nsVcampaign_id\np26717\nI6004807602165\nsVlocations\np26718\n(lp26719\nI3\nasVcreated_time\np26720\nV2012-02-27T18:59:48+0000\np26721\nsVend_time\np26722\nNsVadgroup_status\np26723\nI8\nsVid\np26724\nV6004807603165\np26725\nsVad_id\np26726\nI6004807603165\nsVimpression_control_map\np26727\n(lp26728\n(dp26729\nVcontrol\np26730\n(dp26731\nVuser_impression_limit_period\np26732\nI24\nsVuser_impression_limit\np26733\nI6\nsVuser_impression_limit_period_unit\np26734\nI0\nsVimpression_control_type\np26735\nI2\nssVlocation\np26736\nI3\nsasVcreative_ids\np26737\n(lp26738\nI6004807602765\nasVmax_bid\np26739\nV75\np26740\nsVadgroup_id\np26741\nI6004807603165\nsVaccount_id\np26742\nI40156177\nsa(dp26743\nVconversion_specs\np26744\n(lp26745\nsVupdated_time\np26746\nV2012-09-21T20:00:40+0000\np26747\nsVbid_type\np26748\nI1\nsVname\np26749\nVLike "Sloppy Joe" ?\np26750\nsVtracking_pixel_ids\np26751\n(lp26752\nsVtargeting\np26753\n(dp26754\nVkeywords\np26755\n(lp26756\nV#Eating\np26757\naV#Sandwich\np26758\naV#Food\np26759\naV#Man v. Food\np26760\naV#Bacon sandwich\np26761\naV#Cheesesteak\np26762\naV#Man v. Food Nation\np26763\naV#Snack food\np26764\naV#Bacon\np26765\naV#Sandwiches\np26766\naV#Fast food\np26767\nasVage_max\np26768\nI65\nsVcountries\np26769\n(lp26770\nVUS\np26771\nasVbroad_age\np26772\nI1\nsVage_min\np26773\nI18\nssVbid_info\np26774\n(dp26775\nV1\np26776\nV75\np26777\nssVstart_time\np26778\nNsVad_status\np26779\nI2\nsVcampaign_id\np26780\nI6004808456765\nsVlocations\np26781\n(lp26782\nI3\nasVcreated_time\np26783\nV2012-02-27T21:05:23+0000\np26784\nsVend_time\np26785\nNsVadgroup_status\np26786\nI8\nsVid\np26787\nV6004808457765\np26788\nsVad_id\np26789\nI6004808457765\nsVimpression_control_map\np26790\n(lp26791\n(dp26792\nVcontrol\np26793\n(dp26794\nVuser_impression_limit_period\np26795\nI24\nsVuser_impression_limit\np26796\nI6\nsVuser_impression_limit_period_unit\np26797\nI0\nsVimpression_control_type\np26798\nI2\nssVlocation\np26799\nI3\nsasVcreative_ids\np26800\n(lp26801\nI6004808457365\nasVmax_bid\np26802\nV75\np26803\nsVadgroup_id\np26804\nI6004808457765\nsVaccount_id\np26805\nI40156177\nsa(dp26806\nVconversion_specs\np26807\n(lp26808\nsVupdated_time\np26809\nV2012-09-21T20:00:40+0000\np26810\nsVbid_type\np26811\nI1\nsVname\np26812\nVLike Cheese Steaks?\np26813\nsVtracking_pixel_ids\np26814\n(lp26815\nsVtargeting\np26816\n(dp26817\nVkeywords\np26818\n(lp26819\nV#Eating\np26820\naV#Sandwich\np26821\naV#Food\np26822\naV#Man v. Food\np26823\naV#Bacon sandwich\np26824\naV#Cheesesteak\np26825\naV#Man v. Food Nation\np26826\naV#Snack food\np26827\naV#Bacon\np26828\naV#Sandwiches\np26829\naV#Fast food\np26830\nasVage_max\np26831\nI65\nsVcountries\np26832\n(lp26833\nVUS\np26834\nasVbroad_age\np26835\nI1\nsVage_min\np26836\nI18\nssVbid_info\np26837\n(dp26838\nV1\np26839\nV75\np26840\nssVstart_time\np26841\nNsVad_status\np26842\nI2\nsVcampaign_id\np26843\nI6004808456765\nsVlocations\np26844\n(lp26845\nI3\nasVcreated_time\np26846\nV2012-02-27T21:06:47+0000\np26847\nsVend_time\np26848\nNsVadgroup_status\np26849\nI8\nsVid\np26850\nV6004808459565\np26851\nsVad_id\np26852\nI6004808459565\nsVimpression_control_map\np26853\n(lp26854\n(dp26855\nVcontrol\np26856\n(dp26857\nVuser_impression_limit_period\np26858\nI24\nsVu'
p6
sS'hash'
p7
S'fa4bd2690aff97297b1b4ced0636f91f581a5104'
p8
sS'stack'
p9
S''
s.