(dp1
S'args'
p2
S''
sS'methodname'
p3
S''
sS'packet_num'
p4
I151
sS'returnval'
p5
S"\np29564\nV2012-09-21T20:01:08+0000\np29565\nsVbid_type\np29566\nI1\nsVname\np29567\nVNon-BuzzFeed/Partner Targeted\np29568\nsVtracking_pixel_ids\np29569\n(lp29570\nsVtargeting\np29571\n(dp29572\nVexcluded_connections\np29573\n(lp29574\n(dp29575\nVid\np29576\nV21898300328\np29577\nsVname\np29578\nVBuzzFeed\np29579\nsa(dp29580\nVid\np29581\nV238205562866018\np29582\nsVname\np29583\nVBuzzFeed Partner\np29584\nsasVage_max\np29585\nI65\nsVcountries\np29586\n(lp29587\nVUS\np29588\nasVbroad_age\np29589\nI1\nsVage_min\np29590\nI18\nssVbid_info\np29591\n(dp29592\nV1\np29593\nV75\np29594\nssVstart_time\np29595\nNsVad_status\np29596\nI2\nsVcampaign_id\np29597\nI6004940134565\nsVlocations\np29598\n(lp29599\nI3\nasVcreated_time\np29600\nV2012-03-28T18:22:10+0000\np29601\nsVend_time\np29602\nV2012-03-30T17:30:00+0000\np29603\nsVadgroup_status\np29604\nI8\nsVid\np29605\nV6004940141565\np29606\nsVad_id\np29607\nI6004940141565\nsVimpression_control_map\np29608\n(lp29609\n(dp29610\nVcontrol\np29611\n(dp29612\nVuser_impression_limit_period\np29613\nI24\nsVuser_impression_limit\np29614\nI6\nsVuser_impression_limit_period_unit\np29615\nI0\nsVimpression_control_type\np29616\nI2\nssVlocation\np29617\nI3\nsasVcreative_ids\np29618\n(lp29619\nI6004940135165\nasVmax_bid\np29620\nV75\np29621\nsVadgroup_id\np29622\nI6004940141565\nsVaccount_id\np29623\nI40156177\nsa(dp29624\nVconversion_specs\np29625\n(lp29626\n(dp29627\nVpage\np29628\nI238205562866018\nsVaction.type\np29629\nVpage_story\np29630\nsasVupdated_time\np29631\nV2012-09-21T20:01:08+0000\np29632\nsVbid_type\np29633\nI1\nsVname\np29634\nVBizzare Foods Targeted\np29635\nsVtracking_pixel_ids\np29636\n(lp29637\nsVtargeting\np29638\n(dp29639\nVkeywords\np29640\n(lp29641\nVanthony bourdain no reservations\np29642\naV#Andrew Zimmern's Bizarre World\np29643\naVbizzare food\np29644\naVbizzare foods w andrew zimmern\np29645\naV#Food Network\np29646\naV#Food\np29647\naV#Man v. Food\np29648\naV#Andrew Zimmern\np29649\naV#Man v. Food Nation\np29650\naV#Anthony Bourdain: No Reservations\np29651\naV#Anthony Bourdain\np29652\naV#Travel Channel\np29653\naV#Bizarre Foods with Andrew Zimmern\np29654\nasVage_max\np29655\nI65\nsVcountries\np29656\n(lp29657\nVUS\np29658\nasVbroad_age\np29659\nI1\nsVage_min\np29660\nI18\nssVbid_info\np29661\n(dp29662\nV1\np29663\nV75\np29664\nssVstart_time\np29665\nNsVad_status\np29666\nI2\nsVcampaign_id\np29667\nI6004940134565\nsVlocations\np29668\n(lp29669\nI3\nasVcreated_time\np29670\nV2012-03-28T18:30:15+0000\np29671\nsVend_time\np29672\nV2012-03-30T17:30:00+0000\np29673\nsVadgroup_status\np29674\nI8\nsVid\np29675\nV6004940149165\np29676\nsVad_id\np29677\nI6004940149165\nsVimpression_control_map\np29678\n(lp29679\n(dp29680\nVcontrol\np29681\n(dp29682\nVuser_impression_limit_period\np29683\nI24\nsVuser_impression_limit\np29684\nI6\nsVuser_impression_limit_period_unit\np29685\nI0\nsVimpression_control_type\np29686\nI2\nssVlocation\np29687\nI3\nsasVcreative_ids\np29688\n(lp29689\nI6004940135165\nasVmax_bid\np29690\nV75\np29691\nsVadgroup_id\np29692\nI6004940149165\nsVaccount_id\np29693\nI40156177\nsa(dp29694\nVconversion_specs\np29695\n(lp29696\n(dp29697\nVpage\np29698\nI238205562866018\nsVaction.type\np29699\nVpage_story\np29700\nsasVupdated_time\np29701\nV2012-03-30T01:02:10+0000\np29702\nsVbid_type\np29703\nI1\nsVname\np29704\nVBuzzFeed / Partner Targeted 2\np29705\nsVtracking_pixel_ids\np29706\n(lp29707\nsVtargeting\np29708\n(dp29709\nVconnections\np29710\n(lp29711\n(dp29712\nVid\np29713\nV21898300328\np29714\nsVname\np29715\nVBuzzFeed\np29716\nsa(dp29717\nVid\np29718\nV238205562866018\np29719\nsVname\np29720\nVBuzzFeed Partner\np29721\nsasVage_max\np29722\nI65\nsVcountries\np29723\n(lp29724\nVUS\np29725\nasVbroad_age\np29726\nI1\nsVage_min\np29727\nI18\nssVbid_info\np29728\n(dp29729\nV1\np29730\nV75\np29731\nssVstart_time\np29732\nNsVad_status\np29733\nI2\nsVcampaign_id\np29734\nI6004940134565\nsVlocations\np29735\n(lp29736\nI3\nasVcreated_time\np29737\nV2012-03-28T21:27:18+0000\np29738\nsVend_time\np29739\nV2012-03-30T17:30:00+0000\np29740\nsVadgroup_status\np29741\nI9\nsVid\np29742\nV6004940255365\np29743\nsVad_id\np29744\nI6004940255365\nsVimpression_control_map\np29745\n(lp29746\n(dp29747\nVcontrol\np29748\n(dp29749\nVuser_impression_limit_period\np29750\nI24\nsVuser_impression_limit\np29751\nI6\nsVuser_impression_limit_period_unit\np29752\nI0\nsVimpression_control_type\np29753\nI2\nssVlocation\np29754\nI3\nsasVcreative_ids\np29755\n(lp29756\nI600494013516"
p6
sS'hash'
p7
S'fa4bd2690aff97297b1b4ced0636f91f581a5104'
p8
sS'stack'
p9
S''
s.