(dp1
S'args'
p2
S''
sS'methodname'
p3
S''
sS'packet_num'
p4
I149
sS'returnval'
p5
S'69\n(lp29170\nsVupdated_time\np29171\nV2012-09-21T20:01:04+0000\np29172\nsVbid_type\np29173\nI1\nsVname\np29174\nVTyson\np29175\nsVtracking_pixel_ids\np29176\n(lp29177\nsVtargeting\np29178\n(dp29179\nVkeywords\np29180\n(lp29181\nV#Perez Hilton\np29182\naV#Kim Kardashian\np29183\naV#MTV\np29184\naV#Mike Tyson\np29185\naV#Angelina Jolie\np29186\naVpunkd\np29187\naV#James Franco\np29188\naVmtv punkd\np29189\naV#Donald Trump\np29190\naV#Paris Hilton\np29191\naV#Ashton Kutcher\np29192\naV#Anderson Cooper\np29193\naV#Punk\'d\np29194\nasVage_max\np29195\nI65\nsVcountries\np29196\n(lp29197\nVUS\np29198\nasVbroad_age\np29199\nI1\nsVage_min\np29200\nI18\nssVbid_info\np29201\n(dp29202\nV1\np29203\nV70\np29204\nssVstart_time\np29205\nNsVad_status\np29206\nI2\nsVcampaign_id\np29207\nI6004936378365\nsVlocations\np29208\n(lp29209\nI3\nasVcreated_time\np29210\nV2012-03-27T18:20:17+0000\np29211\nsVend_time\np29212\nV2012-03-29T03:30:00+0000\np29213\nsVadgroup_status\np29214\nI8\nsVid\np29215\nV6004936383765\np29216\nsVad_id\np29217\nI6004936383765\nsVimpression_control_map\np29218\n(lp29219\n(dp29220\nVcontrol\np29221\n(dp29222\nVuser_impression_limit_period\np29223\nI24\nsVuser_impression_limit\np29224\nI3\nsVuser_impression_limit_period_unit\np29225\nI0\nsVimpression_control_type\np29226\nI2\nssVlocation\np29227\nI3\nsasVcreative_ids\np29228\n(lp29229\nI6004936383365\nasVmax_bid\np29230\nV70\np29231\nsVadgroup_id\np29232\nI6004936383765\nsVaccount_id\np29233\nI40156177\nsa(dp29234\nVconversion_specs\np29235\n(lp29236\nsVupdated_time\np29237\nV2012-09-21T20:01:06+0000\np29238\nsVbid_type\np29239\nI1\nsVname\np29240\nVThe New Hosts of "Punk\'d"\np29241\nsVtracking_pixel_ids\np29242\n(lp29243\nsVtargeting\np29244\n(dp29245\nVkeywords\np29246\n(lp29247\nVkellen lutz\np29248\naV#Lucy Hale\np29249\naV#MTV\np29250\naVpunkd\np29251\naV#Justin Bieber\np29252\naVmtv punkd\np29253\naV#Miley Cyrus\np29254\naV#Hayden Panettiere\np29255\naV#Heather Morris\np29256\naV#Bam Margera\np29257\naV#Punk\'d\np29258\naV#Dax Shepard\np29259\nasVage_max\np29260\nI65\nsVcountries\np29261\n(lp29262\nVUS\np29263\nasVbroad_age\np29264\nI1\nsVage_min\np29265\nI18\nssVbid_info\np29266\n(dp29267\nV1\np29268\nV65\np29269\nssVstart_time\np29270\nNsVad_status\np29271\nI2\nsVcampaign_id\np29272\nI6004936758565\nsVlocations\np29273\n(lp29274\nI3\nasVcreated_time\np29275\nV2012-03-27T21:24:42+0000\np29276\nsVend_time\np29277\nNsVadgroup_status\np29278\nI8\nsVid\np29279\nV6004936759565\np29280\nsVad_id\np29281\nI6004936759565\nsVimpression_control_map\np29282\n(lp29283\n(dp29284\nVcontrol\np29285\n(dp29286\nVuser_impression_limit_period\np29287\nI24\nsVuser_impression_limit\np29288\nI6\nsVuser_impression_limit_period_unit\np29289\nI0\nsVimpression_control_type\np29290\nI2\nssVlocation\np29291\nI3\nsasVcreative_ids\np29292\n(lp29293\nI6004936759165\nasVmax_bid\np29294\nV65\np29295\nsVadgroup_id\np29296\nI6004936759565\nsVaccount_id\np29297\nI40156177\nsa(dp29298\nVconversion_specs\np29299\n(lp29300\nsVupdated_time\np29301\nV2012-09-21T20:01:06+0000\np29302\nsVbid_type\np29303\nI1\nsVname\np29304\nVThe New Hosts of "Punk\'d" 1\np29305\nsVtracking_pixel_ids\np29306\n(lp29307\nsVtargeting\np29308\n(dp29309\nVkeywords\np29310\n(lp29311\nVkellen lutz\np29312\naV#Lucy Hale\np29313\naV#MTV\np29314\naVpunkd\np29315\naV#Justin Bieber\np29316\naVmtv punkd\np29317\naV#Miley Cyrus\np29318\naV#Hayden Panettiere\np29319\naV#Heather Morris\np29320\naV#Bam Margera\np29321\naV#Punk\'d\np29322\naV#Dax Shepard\np29323\nasVage_max\np29324\nI65\nsVcountries\np29325\n(lp29326\nVUS\np29327\nasVbroad_age\np29328\nI1\nsVage_min\np29329\nI18\nssVbid_info\np29330\n(dp29331\nV1\np29332\nV65\np29333\nssVstart_time\np29334\nNsVad_status\np29335\nI2\nsVcampaign_id\np29336\nI6004936758565\nsVlocations\np29337\n(lp29338\nI3\nasVcreated_time\np29339\nV2012-03-27T21:25:36+0000\np29340\nsVend_time\np29341\nNsVadgroup_status\np29342\nI8\nsVid\np29343\nV6004936761365\np29344\nsVad_id\np29345\nI6004936761365\nsVimpression_control_map\np29346\n(lp29347\n(dp29348\nVcontrol\np29349\n(dp29350\nVuser_impression_limit_period\np29351\nI24\nsVuser_impression_limit\np29352\nI6\nsVuser_impression_limit_period_unit\np29353\nI0\nsVimpression_control_type\np29354\nI2\nssVlocation\np29355\nI3\nsasVcreative_ids\np29356\n(lp29357\nI6004936760965\nasVmax_bid\np29358\nV65\np29359\nsVadgroup_id\np29360\nI6004936761365\nsVaccount_id\np29361\nI40156177\nsa(dp29362\nVconversion_specs\np29363\n(lp29364\nsVupdated_time\np29365\nV2012-09-21T2'
p6
sS'hash'
p7
S'fa4bd2690aff97297b1b4ced0636f91f581a5104'
p8
sS'stack'
p9
S''
s.