(dp1
S'args'
p2
S''
sS'methodname'
p3
S''
sS'packet_num'
p4
I87
sS'returnval'
p5
S'91915565\nasVmax_bid\np17376\nV80\np17377\nsVadgroup_id\np17378\nI6004591915965\nsVaccount_id\np17379\nI40156177\nsa(dp17380\nVconversion_specs\np17381\n(lp17382\nsVupdated_time\np17383\nV2012-09-21T19:58:54+0000\np17384\nsVbid_type\np17385\nI1\nsVname\np17386\nVPillsbury Crescent Rolls\np17387\nsVtracking_pixel_ids\np17388\n(lp17389\nsVtargeting\np17390\n(dp17391\nVkeywords\np17392\n(lp17393\nVpillsbury\np17394\naV#Cookie\np17395\naV#Eating\np17396\naVhome cooking\np17397\naV#Pillsbury Company\np17398\naV#Baking\np17399\naV#Cinnamon roll\np17400\naV#Food\np17401\naV#Sprinkles Cupcakes\np17402\naV#Pillsbury Doughboy\np17403\naV#Chef\np17404\naVcinnamon rolls\np17405\naV#Recipe\np17406\naV#Taste\np17407\naV#Culinary art\np17408\naV#Cooking\np17409\naVbaking cakes\np17410\nasVage_max\np17411\nI65\nsVcountries\np17412\n(lp17413\nVUS\np17414\nasVbroad_age\np17415\nI1\nsVage_min\np17416\nI18\nssVbid_info\np17417\n(dp17418\nV1\np17419\nV80\np17420\nssVstart_time\np17421\nNsVad_status\np17422\nI2\nsVcampaign_id\np17423\nI6004650931765\nsVlocations\np17424\n(lp17425\nI3\nasVcreated_time\np17426\nV2012-01-24T18:52:25+0000\np17427\nsVend_time\np17428\nNsVadgroup_status\np17429\nI8\nsVid\np17430\nV6004650932765\np17431\nsVad_id\np17432\nI6004650932765\nsVimpression_control_map\np17433\n(lp17434\n(dp17435\nVcontrol\np17436\n(dp17437\nVuser_impression_limit_period\np17438\nI24\nsVuser_impression_limit\np17439\nI6\nsVuser_impression_limit_period_unit\np17440\nI0\nsVimpression_control_type\np17441\nI2\nssVlocation\np17442\nI3\nsasVcreative_ids\np17443\n(lp17444\nI6004650932365\nasVmax_bid\np17445\nV80\np17446\nsVadgroup_id\np17447\nI6004650932765\nsVaccount_id\np17448\nI40156177\nsa(dp17449\nVconversion_specs\np17450\n(lp17451\nsVupdated_time\np17452\nV2012-09-21T19:58:54+0000\np17453\nsVbid_type\np17454\nI1\nsVname\np17455\nVPillsbury Crescent Rolls (Super Bowl)\np17456\nsVtracking_pixel_ids\np17457\n(lp17458\nsVtargeting\np17459\n(dp17460\nVkeywords\np17461\n(lp17462\nVpillsbury\np17463\naV#Cookie\np17464\naV#Eating\np17465\naVhome cooking\np17466\naV#Pillsbury Company\np17467\naV#Baking\np17468\naV#Cinnamon roll\np17469\naV#Food\np17470\naV#Sprinkles Cupcakes\np17471\naV#Pillsbury Doughboy\np17472\naV#Chef\np17473\naVcinnamon rolls\np17474\naV#Recipe\np17475\naV#Taste\np17476\naV#Culinary art\np17477\naV#Cooking\np17478\naVbaking cakes\np17479\nasVage_max\np17480\nI65\nsVcountries\np17481\n(lp17482\nVUS\np17483\nasVbroad_age\np17484\nI1\nsVage_min\np17485\nI18\nssVbid_info\np17486\n(dp17487\nV1\np17488\nV80\np17489\nssVstart_time\np17490\nNsVad_status\np17491\nI2\nsVcampaign_id\np17492\nI6004650931765\nsVlocations\np17493\n(lp17494\nI3\nasVcreated_time\np17495\nV2012-01-24T18:58:00+0000\np17496\nsVend_time\np17497\nNsVadgroup_status\np17498\nI8\nsVid\np17499\nV6004650938765\np17500\nsVad_id\np17501\nI6004650938765\nsVimpression_control_map\np17502\n(lp17503\n(dp17504\nVcontrol\np17505\n(dp17506\nVuser_impression_limit_period\np17507\nI24\nsVuser_impression_limit\np17508\nI3\nsVuser_impression_limit_period_unit\np17509\nI0\nsVimpression_control_type\np17510\nI2\nssVlocation\np17511\nI3\nsasVcreative_ids\np17512\n(lp17513\nI6004650938365\nasVmax_bid\np17514\nV80\np17515\nsVadgroup_id\np17516\nI6004650938765\nsVaccount_id\np17517\nI40156177\nsa(dp17518\nVconversion_specs\np17519\n(lp17520\nsVupdated_time\np17521\nV2012-09-21T19:58:56+0000\np17522\nsVbid_type\np17523\nI1\nsVname\np17524\nVSh*t Black People Do\np17525\nsVtracking_pixel_ids\np17526\n(lp17527\nsVtargeting\np17528\n(dp17529\nVkeywords\np17530\n(lp17531\nVkeeganmichael key\np17532\naV#MADtv\np17533\naV#Comedy Central\np17534\naV#Mad (TV series)\np17535\naV#Jordan Peele\np17536\naV#Keegan-Michael Key\np17537\nasVage_max\np17538\nI65\nsVcountries\np17539\n(lp17540\nVUS\np17541\nasVbroad_age\np17542\nI1\nsVage_min\np17543\nI18\nssVbid_info\np17544\n(dp17545\nV1\np17546\nV80\np17547\nssVstart_time\np17548\nNsVad_status\np17549\nI2\nsVcampaign_id\np17550\nI6004658078365\nsVlocations\np17551\n(lp17552\nI3\nasVcreated_time\np17553\nV2012-01-25T22:22:33+0000\np17554\nsVend_time\np17555\nNsVadgroup_status\np17556\nI8\nsVid\np17557\nV6004658079365\np17558\nsVad_id\np17559\nI6004658079365\nsVimpression_control_map\np17560\n(lp17561\n(dp17562\nVcontrol\np17563\n(dp17564\nVuser_impression_limit_period\np17565\nI24\nsVuser_impression_limit\np17566\nI6\nsVuser_impression_limit_period_unit\np17567\nI0\nsVimpression_control_type\np17568\nI2\nssVlocation\np17569\nI3\nsasVcreative_ids\np175'
p6
sS'hash'
p7
S'fa4bd2690aff97297b1b4ced0636f91f581a5104'
p8
sS'stack'
p9
S''
s.