(dp1
S'args'
p2
S''
sS'methodname'
p3
S''
sS'packet_num'
p4
I2
sS'returnval'
p5
S'60\nssV3003\np718\n(dp719\nV2\np720\nI60\nssV3002\np721\n(dp722\nV2\np723\nI60\nssV6000\np724\n(dp725\nV1\np726\nI1\nssV6001\np727\n(dp728\nV1\np729\nI1\nssV1010\np730\n(dp731\nV1\np732\nI1\nssV1011\np733\n(dp734\nV1\np735\nI1\nssV5000\np736\n(dp737\nV1\np738\nI1\nssV1009\np739\n(dp740\nV1\np741\nI1\nssV9000\np742\n(dp743\nV1\np744\nI1\nsV2\np745\nI60\nssV8000\np746\n(dp747\nV1\np748\nI1\nsV2\np749\nI60\nssV2002\np750\n(dp751\nV2\np752\nI60\nssV2003\np753\n(dp754\nV1\np755\nI1\nsV2\np756\nI60\nssV2000\np757\n(dp758\nV1\np759\nI1\nsV2\np760\nI60\nssV2001\np761\n(dp762\nV1\np763\nI1\nsV2\np764\nI60\nssV2004\np765\n(dp766\nV1\np767\nI1\nsV2\np768\nI60\nssV2005\np769\n(dp770\nV1\np771\nI1\nsV2\np772\nI60\nssV1006\np773\n(dp774\nV1\np775\nI1\nssV1005\np776\n(dp777\nV1\np778\nI1\nssV1004\np779\n(dp780\nV1\np781\nI1\nssV1003\np782\n(dp783\nV1\np784\nI1\nsV2\np785\nI60\nssV1002\np786\n(dp787\nV1\np788\nI1\nsV2\np789\nI60\nssV1001\np790\n(dp791\nV1\np792\nI1\nssV1000\np793\n(dp794\nV1\np795\nI1\nsssV1338950702\np796\n(dp797\nV10000\np798\n(dp799\nV1\np800\nI1\nssV3001\np801\n(dp802\nV1\np803\nI1\nsV2\np804\nI60\nssV3000\np805\n(dp806\nV1\np807\nI1\nsV2\np808\nI60\nssV3003\np809\n(dp810\nV2\np811\nI60\nssV3002\np812\n(dp813\nV2\np814\nI60\nssV6000\np815\n(dp816\nV1\np817\nI1\nssV6001\np818\n(dp819\nV1\np820\nI1\nssV1010\np821\n(dp822\nV1\np823\nI1\nssV1011\np824\n(dp825\nV1\np826\nI1\nssV5000\np827\n(dp828\nV1\np829\nI1\nssV1009\np830\n(dp831\nV1\np832\nI1\nssV9000\np833\n(dp834\nV1\np835\nI1\nsV2\np836\nI60\nssV8000\np837\n(dp838\nV1\np839\nI1\nsV2\np840\nI60\nssV2002\np841\n(dp842\nV2\np843\nI60\nssV2003\np844\n(dp845\nV1\np846\nI1\nsV2\np847\nI60\nssV2000\np848\n(dp849\nV1\np850\nI1\nsV2\np851\nI60\nssV2001\np852\n(dp853\nV1\np854\nI1\nsV2\np855\nI60\nssV2004\np856\n(dp857\nV1\np858\nI1\nsV2\np859\nI60\nssV2005\np860\n(dp861\nV1\np862\nI1\nsV2\np863\nI60\nssV1006\np864\n(dp865\nV1\np866\nI1\nssV1005\np867\n(dp868\nV1\np869\nI1\nssV1004\np870\n(dp871\nV1\np872\nI1\nssV1003\np873\n(dp874\nV1\np875\nI1\nsV2\np876\nI60\nssV1002\np877\n(dp878\nV1\np879\nI1\nsV2\np880\nI60\nssV1001\np881\n(dp882\nV1\np883\nI1\nssV1000\np884\n(dp885\nV1\np886\nI1\nsssV12702029\np887\n(dp888\nV10000\np889\n(dp890\nV1\np891\nI1\nssV3001\np892\n(dp893\nV1\np894\nI1\nsV2\np895\nI60\nssV3000\np896\n(dp897\nV1\np898\nI1\nsV2\np899\nI60\nssV3003\np900\n(dp901\nV2\np902\nI60\nssV3002\np903\n(dp904\nV2\np905\nI60\nssV6000\np906\n(dp907\nV1\np908\nI1\nssV6001\np909\n(dp910\nV1\np911\nI1\nssV1010\np912\n(dp913\nV1\np914\nI1\nssV1011\np915\n(dp916\nV1\np917\nI1\nssV5000\np918\n(dp919\nV1\np920\nI1\nssV1009\np921\n(dp922\nV1\np923\nI1\nssV9000\np924\n(dp925\nV1\np926\nI1\nsV2\np927\nI60\nssV8000\np928\n(dp929\nV1\np930\nI1\nsV2\np931\nI60\nssV2002\np932\n(dp933\nV2\np934\nI60\nssV2003\np935\n(dp936\nV1\np937\nI1\nsV2\np938\nI60\nssV2000\np939\n(dp940\nV1\np941\nI1\nsV2\np942\nI60\nssV2001\np943\n(dp944\nV1\np945\nI1\nsV2\np946\nI60\nssV2004\np947\n(dp948\nV1\np949\nI1\nsV2\np950\nI60\nssV2005\np951\n(dp952\nV1\np953\nI1\nsV2\np954\nI60\nssV1006\np955\n(dp956\nV1\np957\nI1\nssV1005\np958\n(dp959\nV1\np960\nI1\nssV1004\np961\n(dp962\nV1\np963\nI1\nssV1003\np964\n(dp965\nV1\np966\nI1\nsV2\np967\nI60\nssV1002\np968\n(dp969\nV1\np970\nI1\nsV2\np971\nI60\nssV1001\np972\n(dp973\nV1\np974\nI1\nssV1000\np975\n(dp976\nV1\np977\nI1\nssssVmoo_default_conversion_bid\np978\nI1000\nsVbusiness_name\np979\nV\np980\nsVbusiness_city\np981\ng980\nsVdaily_spend_limit\np982\nI5000000\nsVname\np983\nVBuzzFeed RnD_API Testing\np984\nsVtimezone_id\np985\nI1\nsVage\np986\nF141.21972222222\nsVtimezone_offset_hours_utc\np987\nI-8\nsVbusiness_street2\np988\ng980\nsVtimezone_name\np989\nVAmerica/Los_Angeles\np990\nsVbalance\np991\nI0\nsVbusiness_street\np992\ng980\ns.'
p6
sS'hash'
p7
S'fd0c161b0c9ab79085e89c1f4b7a54d9e83f088c'
p8
sS'stack'
p9
S'__json_response /home/orozco/development/django/buzzfeed/local/lib/python2.7/site-packages/caliendo/facade.py cache /home/orozco/development/django/buzzfeed/pyfacebook/pyfacebook/__init__.py get /home/orozco/development/django/buzzfeed/pyfacebook/pyfacebook/__init__.py get_one_from_fb /home/orozco/development/django/buzzfeed/pyfacebook/pyfacebook/api/adaccount.py find_by_id /home/orozco/development/django/buzzfeed/pyfacebook/test/adaccount_test.py test_find_by_id /home/orozco/development/django/buzzfeed/local/lib/python2.7/site-packages/nose/case.py runTest /usr/lib/python2.7/unittest/case.py run /usr/lib/python2.7/unittest/case.py __call__ /home/orozco/development/django/buzzfeed/local/lib/python2.7/site-packages/nose/case.py runTest /home/orozco/development/django/buzzfeed/local/lib/python2.7/site-packages/nose/case.py run /home/orozco/development/django/buzzfeed/local/lib/python2.7/site-packages/nose/case'
p10
s.