(dp1
S'args'
p2
S''
sS'methodname'
p3
S''
sS'packet_num'
p4
I6
sS'returnval'
p5
S"et\np944\nI40000\nsVstart_time\np945\nV2012-09-13T07:48:07-0700\np946\nsVcampaign_id\np947\nI6005812270565\nsVaccount_id\np948\nI40156177\nsVdaily_imps\np949\nI0\nsVend_time\np950\nV2012-09-14T20:30:00-0700\np951\nsVfrequency_cap\np952\nI0\nsVcreated_time\np953\nV2012-09-13T07:30:18-0700\np954\nsVupdated_time\np955\nV2012-09-21T13:17:08-0700\np956\nsVcampaign_status\np957\nI2\nsVid\np958\nV6005812270565\np959\nsVname\np960\nVStarbucks: DoubleShot: Sept-Oct 2012 | 24-Double-Takes-That-Will-Leave-You-Puzzled-78M6\np961\nsa(dp962\nVdaily_budget\np963\nI40000\nsVstart_time\np964\nV2012-09-13T09:06:05-0700\np965\nsVcampaign_id\np966\nI6005812650965\nsVaccount_id\np967\nI40156177\nsVdaily_imps\np968\nI0\nsVend_time\np969\nV2012-09-14T20:30:00-0700\np970\nsVfrequency_cap\np971\nI0\nsVcreated_time\np972\nV2012-09-13T09:06:05-0700\np973\nsVupdated_time\np974\nV2012-09-21T13:17:14-0700\np975\nsVcampaign_status\np976\nI2\nsVid\np977\nV6005812650965\np978\nsVname\np979\nVPedigree: Aug-Oct 2012 | 20-Reasons-Why-Dogs-Are-Mans-Best-Friend\np980\nsa(dp981\nVname\np982\nVPedigree: Aug-Oct 2012 | 20-Reasons-Why-Dogs-Are-Mans-Best-Friend\np983\nsVstart_time\np984\nV2012-09-13T09:12:25-0700\np985\nsVcampaign_id\np986\nI6005812663565\nsVfrequency_cap\np987\nI0\nsVdaily_imps\np988\nI0\nsVlifetime_budget\np989\nI50000\nsVend_time\np990\nV2012-10-28T00:00:00-0700\np991\nsVcreated_time\np992\nV2012-09-13T09:12:26-0700\np993\nsVupdated_time\np994\nV2012-10-26T08:31:23-0700\np995\nsVcampaign_status\np996\nI2\nsVid\np997\nV6005812663565\np998\nsVaccount_id\np999\nI40156177\nsa(dp1000\nVname\np1001\nVVirgin Mobile: Q3 2012 | 17-awesome-political-bumper-stickers-5l87\np1002\nsVstart_time\np1003\nV2012-09-13T15:24:46-0700\np1004\nsVcampaign_id\np1005\nI6005813813765\nsVfrequency_cap\np1006\nI0\nsVdaily_imps\np1007\nI0\nsVlifetime_budget\np1008\nI10000\nsVend_time\np1009\nV2012-09-30T00:00:00-0700\np1010\nsVcreated_time\np1011\nV2012-09-13T15:24:46-0700\np1012\nsVupdated_time\np1013\nV2012-09-27T07:49:09-0700\np1014\nsVcampaign_status\np1015\nI2\nsVid\np1016\nV6005813813765\np1017\nsVaccount_id\np1018\nI40156177\nsa(dp1019\nVdaily_budget\np1020\nI30000\nsVstart_time\np1021\nV2012-09-17T09:38:00-0700\np1022\nsVcampaign_id\np1023\nI6005823842765\nsVaccount_id\np1024\nI40156177\nsVdaily_imps\np1025\nI0\nsVend_time\np1026\nV2012-09-18T20:30:00-0700\np1027\nsVfrequency_cap\np1028\nI0\nsVcreated_time\np1029\nV2012-09-17T06:49:48-0700\np1030\nsVupdated_time\np1031\nV2012-09-21T13:17:21-0700\np1032\nsVcampaign_status\np1033\nI2\nsVid\np1034\nV6005823842765\np1035\nsVname\np1036\nVHasbro: Furby: Sept-Oct_2012 | 18-Of-Your-Favorite-Toys-From-The-90S\np1037\nsa(dp1038\nVdaily_budget\np1039\nI50000\nsVstart_time\np1040\nV2012-09-17T08:10:00-0700\np1041\nsVcampaign_id\np1042\nI6005823940165\nsVaccount_id\np1043\nI40156177\nsVdaily_imps\np1044\nI0\nsVend_time\np1045\nV2012-09-18T23:10:00-0700\np1046\nsVfrequency_cap\np1047\nI0\nsVcreated_time\np1048\nV2012-09-17T07:29:49-0700\np1049\nsVupdated_time\np1050\nV2012-09-21T13:17:25-0700\np1051\nsVcampaign_status\np1052\nI2\nsVid\np1053\nV6005823940165\np1054\nsVname\np1055\nVF'Real Phase 2: Sept-Oct_2012 | 20-Incredible-Pictures-You-Wont-Believe-Are-Frea-5K2R\np1056\nsa(dp1057\nVdaily_budget\np1058\nI35000\nsVstart_time\np1059\nV2012-09-17T10:15:00-0700\np1060\nsVcampaign_id\np1061\nI6005824274565\nsVaccount_id\np1062\nI40156177\nsVdaily_imps\np1063\nI0\nsVend_time\np1064\nV2012-09-18T23:15:00-0700\np1065\nsVfrequency_cap\np1066\nI0\nsVcreated_time\np1067\nV2012-09-17T09:27:49-0700\np1068\nsVupdated_time\np1069\nV2012-09-21T13:17:27-0700\np1070\nsVcampaign_status\np1071\nI2\nsVid\np1072\nV6005824274565\np1073\nsVname\np1074\nVMSFT IE Atari: Sept_2012 | 11-Of-The-Geekiest-Tributes-To-Retro-Games\np1075\nsa(dp1076\nVdaily_budget\np1077\nI35000\nsVstart_time\np1078\nV2012-09-17T10:36:00-0700\np1079\nsVcampaign_id\np1080\nI6005824326165\nsVaccount_id\np1081\nI40156177\nsVdaily_imps\np1082\nI0\nsVend_time\np1083\nV2012-09-18T12:36:00-0700\np1084\nsVfrequency_cap\np1085\nI0\nsVcreated_time\np1086\nV2012-09-17T09:53:39-0700\np1087\nsVupdated_time\np1088\nV2012-09-21T13:17:29-0700\np1089\nsVcampaign_status\np1090\nI2\nsVid\np1091\nV6005824326165\np1092\nsVname\np1093\nVMSFT IE Atari: Sept_2012 | 10-Things-You-Probably-Never-Knew-About-Atari\np1094\nsa(dp1095\nVdaily_budget\np1096\nI40000\nsVstart_time\np1097\nV2012-09-17T15:44:58-0700\np1098\nsVcampaign_id\np1099\nI600582665"
p6
sS'hash'
p7
S'ff22ca8ecdb620e643a5bdfc5d5bfef154b09cab'
p8
sS'stack'
p9
S''
s.