(dp1
S'args'
p2
S''
sS'methodname'
p3
S''
sS'packet_num'
p4
I5
sS'returnval'
p5
S'Vupdated_time\np784\nV2012-09-21T13:16:46-0700\np785\nsVcampaign_status\np786\nI2\nsVid\np787\nV6005802874165\np788\nsVname\np789\nVVirgin Mobile: Q3 2012 | 23-wildly-inappropriate-yolos-5l87\np790\nsa(dp791\nVname\np792\nVVirgin Mobile: Q3 2012 | the-20-best-dubstep-faces-5l87\np793\nsVstart_time\np794\nV2012-09-11T15:38:37-0700\np795\nsVcampaign_id\np796\nI6005802907965\nsVfrequency_cap\np797\nI0\nsVdaily_imps\np798\nI0\nsVlifetime_budget\np799\nI50000\nsVend_time\np800\nV2012-09-30T23:00:00-0700\np801\nsVcreated_time\np802\nV2012-09-11T15:38:37-0700\np803\nsVupdated_time\np804\nV2012-09-27T07:48:20-0700\np805\nsVcampaign_status\np806\nI2\nsVid\np807\nV6005802907965\np808\nsVaccount_id\np809\nI40156177\nsa(dp810\nVname\np811\nVVirgin Mobile: Q3 2012 | celebrities-and-their-musician-dopplegangers-5l87\np812\nsVstart_time\np813\nV2012-09-11T15:40:04-0700\np814\nsVcampaign_id\np815\nI6005802912965\nsVfrequency_cap\np816\nI0\nsVdaily_imps\np817\nI0\nsVlifetime_budget\np818\nI50000\nsVend_time\np819\nV2012-09-30T23:00:00-0700\np820\nsVcreated_time\np821\nV2012-09-11T15:40:04-0700\np822\nsVupdated_time\np823\nV2012-09-27T07:47:37-0700\np824\nsVcampaign_status\np825\nI2\nsVid\np826\nV6005802912965\np827\nsVaccount_id\np828\nI40156177\nsa(dp829\nVname\np830\nVVirgin Mobile: Q3 2012 | 10-times-its-really-not-ok-to-instagram-5l87\np831\nsVstart_time\np832\nV2012-09-11T15:41:03-0700\np833\nsVcampaign_id\np834\nI6005802916565\nsVfrequency_cap\np835\nI0\nsVdaily_imps\np836\nI0\nsVlifetime_budget\np837\nI50000\nsVend_time\np838\nV2012-09-30T23:00:00-0700\np839\nsVcreated_time\np840\nV2012-09-11T15:41:04-0700\np841\nsVupdated_time\np842\nV2012-09-27T07:49:06-0700\np843\nsVcampaign_status\np844\nI2\nsVid\np845\nV6005802916565\np846\nsVaccount_id\np847\nI40156177\nsa(dp848\nVdaily_budget\np849\nI77700\nsVstart_time\np850\nV2012-09-12T08:00:00-0700\np851\nsVcampaign_id\np852\nI6005804961165\nsVaccount_id\np853\nI40156177\nsVdaily_imps\np854\nI0\nsVend_time\np855\nV2012-09-21T23:24:00-0700\np856\nsVfrequency_cap\np857\nI0\nsVcreated_time\np858\nV2012-09-12T07:29:01-0700\np859\nsVupdated_time\np860\nV2012-09-21T13:16:55-0700\np861\nsVcampaign_status\np862\nI2\nsVid\np863\nV6005804961165\np864\nsVname\np865\nVNBC: Animal Practice : Sept_2012 | 15-Sweet-Animalhuman-Friendships\np866\nsa(dp867\nVdaily_budget\np868\nI42500\nsVstart_time\np869\nV2012-09-12T11:30:00-0700\np870\nsVcampaign_id\np871\nI6005805958365\nsVaccount_id\np872\nI40156177\nsVdaily_imps\np873\nI0\nsVend_time\np874\nV2012-09-17T23:54:00-0700\np875\nsVfrequency_cap\np876\nI0\nsVcreated_time\np877\nV2012-09-12T09:57:29-0700\np878\nsVupdated_time\np879\nV2012-09-21T13:16:59-0700\np880\nsVcampaign_status\np881\nI2\nsVid\np882\nV6005805958365\np883\nsVname\np884\nVNBC: Animal Practice : Sept_2012 | The-Most-Iconic-Animals-In-Showbiz\np885\nsa(dp886\nVdaily_budget\np887\nI40000\nsVstart_time\np888\nV2012-09-13T06:22:00-0700\np889\nsVcampaign_id\np890\nI6005806472565\nsVaccount_id\np891\nI40156177\nsVdaily_imps\np892\nI0\nsVend_time\np893\nV2012-09-13T23:22:00-0700\np894\nsVfrequency_cap\np895\nI0\nsVcreated_time\np896\nV2012-09-12T12:39:07-0700\np897\nsVupdated_time\np898\nV2012-09-21T13:17:03-0700\np899\nsVcampaign_status\np900\nI2\nsVid\np901\nV6005806472565\np902\nsVname\np903\nVLooper: Sept_2012 | The-Official-Career-Timeline-Of-Joseph-Gordon-Levi\np904\nsa(dp905\nVdaily_budget\np906\nI50000\nsVstart_time\np907\nV2012-09-13T09:02:00-0700\np908\nsVcampaign_id\np909\nI6005812071565\nsVaccount_id\np910\nI40156177\nsVdaily_imps\np911\nI0\nsVend_time\np912\nV2012-09-14T23:02:00-0700\np913\nsVfrequency_cap\np914\nI0\nsVcreated_time\np915\nV2012-09-13T06:23:29-0700\np916\nsVupdated_time\np917\nV2012-09-21T13:17:05-0700\np918\nsVcampaign_status\np919\nI2\nsVid\np920\nV6005812071565\np921\nsVname\np922\nVVirgin Mobile: Q3 2012 | 17-awesome-political-bumper-stickers-5l87\np923\nsa(dp924\nVdaily_budget\np925\nI40000\nsVstart_time\np926\nV2012-09-13T07:18:40-0700\np927\nsVcampaign_id\np928\nI6005812236565\nsVaccount_id\np929\nI40156177\nsVdaily_imps\np930\nI0\nsVend_time\np931\nV2012-09-14T20:30:00-0700\np932\nsVfrequency_cap\np933\nI0\nsVcreated_time\np934\nV2012-09-13T07:17:41-0700\np935\nsVupdated_time\np936\nV2012-09-21T13:17:07-0700\np937\nsVcampaign_status\np938\nI2\nsVid\np939\nV6005812236565\np940\nsVname\np941\nVStarbucks: DoubleShot: Sept-Oct 2012 | 14-Sweet-Shots-Of-Celebs-With-Their-Stunt-Doubles-78M6\np942\nsa(dp943\nVdaily_budg'
p6
sS'hash'
p7
S'ff22ca8ecdb620e643a5bdfc5d5bfef154b09cab'
p8
sS'stack'
p9
S''
s.